
e203Whetstone_test.elf:     file format elf32-littleriscv
e203Whetstone_test.elf
architecture: riscv:rv32, flags 0x00000112:
EXEC_P, HAS_SYMS, D_PAGED
start address 0x80000000

Program Header:
    LOAD off    0x00001000 vaddr 0x80000000 paddr 0x80000000 align 2**12
         filesz 0x00009bb8 memsz 0x00009bb8 flags rwx
    LOAD off    0x0000b000 vaddr 0x90000000 paddr 0x80009bb8 align 2**12
         filesz 0x000003c4 memsz 0x000003c4 flags rw-
    LOAD off    0x000003c4 vaddr 0x900003c4 paddr 0x900003c4 align 2**12
         filesz 0x00000000 memsz 0x00000238 flags rw-
    LOAD off    0x00000800 vaddr 0x9000f800 paddr 0x900005fc align 2**12
         filesz 0x00000000 memsz 0x00000800 flags rw-

Sections:
Idx Name              Size      VMA       LMA       File off  Algn  Flags
  0 .init             000000c0  80000000  80000000  00001000  2**0  CONTENTS, ALLOC, LOAD, READONLY, CODE
  1 .ilalign          00000000  800000c0  800000c0  000010c0  2**0  ALLOC
  2 .text             00008e1c  800000c0  800000c0  000010c0  2**2  CONTENTS, ALLOC, LOAD, READONLY, CODE
  3 .rodata           00000cd8  80008ee0  80008ee0  00009ee0  2**3  CONTENTS, ALLOC, LOAD, READONLY, DATA
  4 .lalign           00000000  80009bb8  80009bb8  0000b3c4  2**0  CONTENTS
  5 .dalign           00000000  90000000  90000000  0000b3c4  2**0  CONTENTS
  6 .data             000003c4  90000000  80009bb8  0000b000  2**3  CONTENTS, ALLOC, LOAD, DATA
  7 .bss              00000238  900003c4  900003c4  0000b3c4  2**2  ALLOC
  8 .stack            00000800  9000f800  900005fc  0000b800  2**0  ALLOC
  9 .debug_info       00008c19  00000000  00000000  0000b3c4  2**0  CONTENTS, READONLY, DEBUGGING, OCTETS
 10 .debug_abbrev     00002967  00000000  00000000  00013fdd  2**0  CONTENTS, READONLY, DEBUGGING, OCTETS
 11 .debug_loc        0000ec2b  00000000  00000000  00016944  2**0  CONTENTS, READONLY, DEBUGGING, OCTETS
 12 .debug_aranges    00000600  00000000  00000000  00025570  2**3  CONTENTS, READONLY, DEBUGGING, OCTETS
 13 .debug_ranges     00001f60  00000000  00000000  00025b70  2**0  CONTENTS, READONLY, DEBUGGING, OCTETS
 14 .debug_line       00013597  00000000  00000000  00027ad0  2**0  CONTENTS, READONLY, DEBUGGING, OCTETS
 15 .debug_str        00001f61  00000000  00000000  0003b067  2**0  CONTENTS, READONLY, DEBUGGING, OCTETS
 16 .comment          00000012  00000000  00000000  0003cfc8  2**0  CONTENTS, READONLY
 17 .riscv.attributes 00000034  00000000  00000000  0003cfda  2**0  CONTENTS, READONLY
 18 .debug_frame      00000afc  00000000  00000000  0003d010  2**2  CONTENTS, READONLY, DEBUGGING, OCTETS
SYMBOL TABLE:
80000000 l    d  .init	00000000 .init
800000c0 l    d  .ilalign	00000000 .ilalign
800000c0 l    d  .text	00000000 .text
80008ee0 l    d  .rodata	00000000 .rodata
80009bb8 l    d  .lalign	00000000 .lalign
90000000 l    d  .dalign	00000000 .dalign
90000000 l    d  .data	00000000 .data
900003c4 l    d  .bss	00000000 .bss
9000f800 l    d  .stack	00000000 .stack
00000000 l    d  .debug_info	00000000 .debug_info
00000000 l    d  .debug_abbrev	00000000 .debug_abbrev
00000000 l    d  .debug_loc	00000000 .debug_loc
00000000 l    d  .debug_aranges	00000000 .debug_aranges
00000000 l    d  .debug_ranges	00000000 .debug_ranges
00000000 l    d  .debug_line	00000000 .debug_line
00000000 l    d  .debug_str	00000000 .debug_str
00000000 l    d  .comment	00000000 .comment
00000000 l    d  .riscv.attributes	00000000 .riscv.attributes
00000000 l    d  .debug_frame	00000000 .debug_frame
00000000 l    df *ABS*	00000000 whets.c
80000ade l     F .text	0000126a whetstones.constprop.0
90000484 l     O .bss	000000a2 headings
90000528 l     O .bss	00000024 loop_time
9000054c l     O .bss	00000024 results
900003d0 l     O .bss	00000004 Check
900003d4 l     O .bss	00000004 TimeUsed
900003d8 l     O .bss	00000004 mwips
00000000 l    df *ABS*	00000000 close.c
00000000 l    df *ABS*	00000000 exit.c
00000000 l    df *ABS*	00000000 fstat.c
00000000 l    df *ABS*	00000000 getpid.c
00000000 l    df *ABS*	00000000 isatty.c
00000000 l    df *ABS*	00000000 kill.c
00000000 l    df *ABS*	00000000 lseek.c
00000000 l    df *ABS*	00000000 read.c
00000000 l    df *ABS*	00000000 sbrk.c
900001d0 l     O .data	00000004 curbrk.0
00000000 l    df *ABS*	00000000 write.c
00000000 l    df *ABS*	00000000 hbirdv2_gpio.c
00000000 l    df *ABS*	00000000 hbirdv2_uart.c
00000000 l    df *ABS*	00000000 hbirdv2_common.c
00000000 l    df *ABS*	00000000 system_hbirdv2.c
800005f0 l     F .text	00000044 system_default_exception_handler
80000634 l     F .text	00000048 system_default_interrupt_handler
900003ec l     O .bss	00000028 SystemCoreInterruptHandlers
90000414 l     O .bss	0000002c SystemExceptionHandlers
90000440 l     O .bss	00000044 SystemExtInterruptHandlers
00000000 l    df *ABS*	00000000 cpuidc.c
00000000 l    df *ABS*	00000000 sf_atan.c
80009214 l     O .rodata	00000010 atanhi
80009224 l     O .rodata	00000010 atanlo
00000000 l    df *ABS*	00000000 sf_cos.c
00000000 l    df *ABS*	00000000 sf_fabs.c
00000000 l    df *ABS*	00000000 sf_sin.c
00000000 l    df *ABS*	00000000 wf_exp.c
00000000 l    df *ABS*	00000000 wf_log.c
00000000 l    df *ABS*	00000000 ef_exp.c
900003a8 l     O .data	00000008 halF
900003b0 l     O .data	00000008 ln2HI
900003b8 l     O .data	00000008 ln2LO
00000000 l    df *ABS*	00000000 ef_log.c
00000000 l    df *ABS*	00000000 ef_rem_pio2.c
80009234 l     O .rodata	00000080 npio2_hw
800092b4 l     O .rodata	00000318 two_over_pi
00000000 l    df *ABS*	00000000 kf_cos.c
00000000 l    df *ABS*	00000000 kf_rem_pio2.c
800095cc l     O .rodata	0000002c PIo2
800095f8 l     O .rodata	0000000c init_jk
00000000 l    df *ABS*	00000000 kf_sin.c
00000000 l    df *ABS*	00000000 math_errf.c
80002e02 l     F .text	0000001a with_errnof
80002e1c l     F .text	00000014 xflowf
00000000 l    df *ABS*	00000000 sf_finite.c
00000000 l    df *ABS*	00000000 sf_floor.c
00000000 l    df *ABS*	00000000 sf_nan.c
00000000 l    df *ABS*	00000000 sf_scalbn.c
00000000 l    df *ABS*	00000000 libgcc2.c
00000000 l    df *ABS*	00000000 libgcc2.c
00000000 l    df *ABS*	00000000 adddf3.c
00000000 l    df *ABS*	00000000 muldf3.c
00000000 l    df *ABS*	00000000 floatunsidf.c
00000000 l    df *ABS*	00000000 extendsfdf2.c
00000000 l    df *ABS*	00000000 truncdfsf2.c
00000000 l    df *ABS*	00000000 libgcc2.c
00000000 l    df *ABS*	00000000 atexit.c
00000000 l    df *ABS*	00000000 errno.c
00000000 l    df *ABS*	00000000 fini.c
00000000 l    df *ABS*	00000000 init.c
00000000 l    df *ABS*	00000000 nano-vfprintf_float.c
00000000 l    df *ABS*	00000000 nano-vfprintf_i.c
00000000 l    df *ABS*	00000000 printf.c
00000000 l    df *ABS*	00000000 putchar.c
00000000 l    df *ABS*	00000000 puts.c
00000000 l    df *ABS*	00000000 strlen.c
00000000 l    df *ABS*	00000000 sysisatty.c
00000000 l    df *ABS*	00000000 wbuf.c
00000000 l    df *ABS*	00000000 wsetup.c
00000000 l    df *ABS*	00000000 __atexit.c
90000570 l     O .bss	0000008c _global_atexit0
00000000 l    df *ABS*	00000000 dtoa.c
8000535e l     F .text	0000012c quorem
00000000 l    df *ABS*	00000000 fflush.c
00000000 l    df *ABS*	00000000 findfp.c
80006282 l     F .text	00000068 std
00000000 l    df *ABS*	00000000 fwalk.c
00000000 l    df *ABS*	00000000 localeconv.c
00000000 l    df *ABS*	00000000 makebuf.c
00000000 l    df *ABS*	00000000 malloc.c
00000000 l    df *ABS*	00000000 memchr.c
00000000 l    df *ABS*	00000000 memcpy.c
00000000 l    df *ABS*	00000000 mprec.c
80009a08 l     O .rodata	0000000c p05.0
00000000 l    df *ABS*	00000000 nano-mallocr.c
00000000 l    df *ABS*	00000000 nano-mallocr.c
00000000 l    df *ABS*	00000000 nano-mallocr.c
00000000 l    df *ABS*	00000000 nano-vfprintf.c
80007190 l     F .text	0000002a __sfputc_r
00000000 l    df *ABS*	00000000 putc.c
00000000 l    df *ABS*	00000000 sbrkr.c
00000000 l    df *ABS*	00000000 stdio.c
00000000 l    df *ABS*	00000000 writer.c
00000000 l    df *ABS*	00000000 assert.c
00000000 l    df *ABS*	00000000 closer.c
00000000 l    df *ABS*	00000000 fprintf.c
00000000 l    df *ABS*	00000000 fstatr.c
00000000 l    df *ABS*	00000000 isattyr.c
00000000 l    df *ABS*	00000000 lseekr.c
00000000 l    df *ABS*	00000000 mbtowc_r.c
00000000 l    df *ABS*	00000000 mlock.c
00000000 l    df *ABS*	00000000 readr.c
00000000 l    df *ABS*	00000000 wctomb_r.c
00000000 l    df *ABS*	00000000 abort.c
00000000 l    df *ABS*	00000000 signal.c
00000000 l    df *ABS*	00000000 signalr.c
00000000 l    df *ABS*	00000000 divdf3.c
00000000 l    df *ABS*	00000000 eqdf2.c
00000000 l    df *ABS*	00000000 gedf2.c
00000000 l    df *ABS*	00000000 ledf2.c
00000000 l    df *ABS*	00000000 subdf3.c
00000000 l    df *ABS*	00000000 unorddf2.c
00000000 l    df *ABS*	00000000 fixdfsi.c
00000000 l    df *ABS*	00000000 floatsidf.c
00000000 l    df *ABS*	00000000 trunctfdf2.c
00000000 l    df *ABS*	00000000 libgcc2.c
00000000 l    df *ABS*	00000000 locale.c
00000000 l    df *ABS*	00000000 ctype_.c
00000000 l    df *ABS*	00000000 impure.c
90000000 l     O .data	00000060 impure_data
00000000 l    df *ABS*	00000000 
80009bb8 l       .rodata	00000000 __fini_array_end
80009bb8 l       .rodata	00000000 __fini_array_start
80009bb8 l       .rodata	00000000 __init_array_end
80009bb8 l       .rodata	00000000 __preinit_array_end
80009bb8 l       .rodata	00000000 __init_array_start
80009bb8 l       .rodata	00000000 __preinit_array_start
800045cc g     F .text	000000ec __cvt
80004fe6 g     F .text	0000002e putchar
800076e6 g     F .text	00000028 _isatty_r
8000038c  w    F .text	00000004 _getpid
80005014 g     F .text	000000de _puts_r
8000770e g     F .text	0000002c _lseek_r
80007efa g     F .text	000000a4 .hidden __eqdf2
80007842 g     F .text	0000002a _kill_r
80004fa6 g     F .text	00000040 printf
900009d0 g       .data	00000000 __global_pointer$
800075c8 g     F .text	00000036 __sseek
8000633a g     F .text	00000066 __sinit
900003c4 g     O .bss	00000004 secs
80005114 g     F .text	000000c6 __swbuf_r
800062f4 g     F .text	00000046 __sfmoreglue
80007776 g     F .text	00000002 __malloc_unlock
80006754 g     F .text	000000ae _Balloc
80007f9e g     F .text	000000ae .hidden __gtdf2
8000452e g     F .text	0000000a __errno
80002484 g     F .text	0000026e __ieee754_rem_pio2f
80002074 g     F .text	00000058 logf
800076bc g     F .text	0000002a _fstat_r
900003dc g     O .bss	00000004 errno
00000800 g       *ABS*	00000000 __stack_size
8000051c g     F .text	00000016 uart_write
80009bb8 g       .rodata	00000000 __rt_init_start
80009bb8 g       .rodata	00000000 __fsymtab_end
800000c0 g       .ilalign	00000000 _ilm_lma
800065d0 g     F .text	000000dc memcpy
800062ea g     F .text	0000000a _cleanup_r
80008af0 g     F .text	00000068 .hidden __floatsidf
8000804c g     F .text	000000ae .hidden __ltdf2
800050f2 g     F .text	0000000c puts
80009bb8 g       .rodata	00000000 __rt_init_end
8000227e g     F .text	00000206 __ieee754_logf
900001d4 g     O .data	00000004 SystemCoreClock
800065a8 g     F .text	0000000e malloc
80005110 g     F .text	00000004 isatty
800077d2 g     F .text	00000062 _raise_r
80000370  w    F .text	0000001c _fstat
80007630 g     F .text	0000003a __assert_func
8000054c g     F .text	000000a4 get_cpu_freq
80009940 g     O .rodata	000000c8 __mprec_tens
8000786c g     F .text	00000004 _getpid_r
800064a2 g     F .text	0000000a _localeconv_r
800069d2 g     F .text	00000038 __i2b
80002e44 g     F .text	0000000e finitef
80007522 g     F .text	00000028 _sbrk_r
80001f9c g     F .text	00000006 fabsf
80007778 g     F .text	0000002c _read_r
80009bb8 g       .rodata	00000000 _eilm
80004208 g     F .text	000000be .hidden __extendsfdf2
80003378 g     F .text	000008aa .hidden __adddf3
9000f800 g       .stack	00000000 _heap_end
80000390  w    F .text	00000004 _isatty
900003c0 g     O .data	00000004 _global_impure_ptr
8000456e g     F .text	0000005e __libc_init_array
80002d5c g     F .text	000000a6 __kernel_sinf
80003018 g     F .text	00000360 .hidden __udivdi3
80009918 g     O .rodata	00000028 __mprec_bigtens
800077c4 g     F .text	0000000e abort
800041ba g     F .text	0000004e .hidden __floatunsidf
800003c4  w    F .text	0000002c _sbrk
80006d68 g     F .text	00000036 __mcmp
80000a66 g     F .text	00000002 _init
800020cc g     F .text	000001b2 __ieee754_expf
80001f34 g     F .text	00000068 cosf
80004538 g     F .text	00000036 __libc_fini_array
80006922 g     F .text	00000046 __hi0bits
800000c0 g       .ilalign	00000000 _ilm
80008a2c g     F .text	000000c4 .hidden __fixdfsi
800026f2 g     F .text	000000d0 __kernel_cosf
8000749c g     F .text	00000086 _putc_r
80000748 g     F .text	0000031c _premain_init
80007692 g     F .text	0000002a fprintf
8000804c g     F .text	000000ae .hidden __ledf2
80006b8a g     F .text	000000da __pow5mult
80009864 g     O .rodata	00000020 __sf_fake_stderr
80000aa0 g     F .text	0000003e end_time
8000068e g     F .text	000000ba core_trap_handler
80002e30 g     F .text	0000000a .hidden __math_uflowf
900003c8 g     O .bss	00000004 startSecs
80000a6a g     F .text	00000036 start_time
800044e6 g     F .text	0000003c .hidden __clzsi2
800071ba g     F .text	00000042 __sfputs_r
800004da g     F .text	00000042 uart_init
800065b6 g     F .text	0000001a memchr
80004754  w    F .text	000004d4 _printf_float
8000701e g     F .text	000000a2 _free_r
900003e0 g     O .bss	00000004 _global_atexit
90010000 g       .stack	00000000 _sp
80000000 g     F .init	00000000 _start
8000039e  w    F .text	00000004 _lseek
80006c64 g     F .text	00000104 __lshift
800052ea g     F .text	00000074 __register_exitproc
80006a0a g     F .text	00000180 __multiply
80006efa g     F .text	000000ee __d2b
8000766a g     F .text	00000028 _close_r
80002fbc g     F .text	0000005c .hidden __floatundisf
800051da g     F .text	00000110 __swsetup_r
80007870 g     F .text	0000068a .hidden __divdf3
800063a0 g     F .text	00000098 __sfp
80003c22 g     F .text	00000598 .hidden __muldf3
8000754a g     F .text	00000030 __sread
80007774 g     F .text	00000002 __malloc_lock
80002ef2 g     F .text	000000ca scalbnf
8000621e g     F .text	00000064 _fflush_r
80006fe8 g     F .text	00000036 _calloc_r
80009884 g     O .rodata	00000020 __sf_fake_stdin
900003c4 g       .bss	00000000 __bss_start
800066ac g     F .text	000000a8 memset
800000c0 g     F .text	000002a0 main
80000450  w      .text	00000000 trap_entry
800075fe g     F .text	00000006 __sclose
800042c6 g     F .text	00000220 .hidden __truncdfsf2
8000548a g     F .text	00000c4c _dtoa_r
800070c0 g     F .text	000000d0 _malloc_r
800077a4 g     F .text	00000020 __ascii_wctomb
80009bb8 g       .rodata	00000000 __vsymtab_start
8000067c g     F .text	00000012 SystemInit
80007efa g     F .text	000000a4 .hidden __nedf2
80000a68 g     F .text	00000002 _fini
80004fa6 g     F .text	00000040 iprintf
80009640 g     O .rodata	00000100 .hidden __clz_tab
800046b8 g     F .text	0000009c __exponent
80004522 g     F .text	0000000c atexit
80007604 g     F .text	0000002c _write_r
80002ee8 g     F .text	0000000a nanf
80004c28 g     F .text	0000010c _printf_common
900001d8 g     O .data	00000004 _impure_ptr
800060d6 g     F .text	00000148 __sflush_r
8000773a g     F .text	0000003a __ascii_mbtowc
90000000 g       .dalign	00000000 _data
80009bb8 g       .rodata	00000000 __vsymtab_end
80001fa2 g     F .text	0000006a sinf
800064ac g     F .text	0000005c __swhatbuf_r
800003f0  w    F .text	0000005e _write
900003c4 g       .bss	00000000 _edata
80000a64 g     F .text	00000002 _postmain_fini
90000600 g       .bss	00000000 _end
80009bb8 g       .lalign	00000000 _data_lma
80000532 g     F .text	0000001a uart_read
8000757a g     F .text	0000004e __swrite
80007692 g     F .text	0000002a fiprintf
800071fc g     F .text	000002a0 _vfiprintf_r
80006438 g     F .text	0000006a _fwalk_reent
80006d9e g     F .text	0000015c __mdiff
80000394  w    F .text	0000000a _kill
80001d48 g     F .text	000001ec atanf
800098a4 g     O .rodata	00000020 __sf_fake_stdout
80009a78 g     O .rodata	00000101 _ctype_
800003a2  w    F .text	00000022 _read
800089b2 g     F .text	0000007a .hidden __unorddf2
8000036a  w    F .text	00000006 _exit
800027c2 g     F .text	0000059a __kernel_rem_pio2f
8000200c g     F .text	00000068 expf
80006508 g     F .text	000000a0 __smakebuf_r
80002e3a g     F .text	0000000a .hidden __math_oflowf
800050fe g     F .text	00000012 strlen
80004d34 g     F .text	00000272 _printf_i
80007f9e g     F .text	000000ae .hidden __gedf2
900003e8 g     O .bss	00000004 __malloc_sbrk_start
80002e52 g     F .text	00000096 floorf
900003e4 g     O .bss	00000004 __malloc_free_list
80009bb8 g       .rodata	00000000 __fsymtab_start
800080fa g     F .text	000008b8 .hidden __subdf3
800071fc g     F .text	000002a0 _vfprintf_r
80006968 g     F .text	0000006a __lo0bits
900003cc g     O .bss	00000004 theseSecs
90000060 g     O .data	0000016c __global_locale
800004c8 g     F .text	00000012 gpio_iof_config
80008b58 g     F .text	00000384 .hidden __trunctfdf2
80007834 g     F .text	0000000e raise
80000360  w    F .text	0000000a _close
80006864 g     F .text	000000be __multadd
80006802 g     F .text	00000062 _Bfree



Disassembly of section .init:

80000000 <_start>:
_start():
E:\NucleiStudio_Workspace\e203Whetstone_test\Debug/../hbird_sdk/SoC/hbirdv2/Common/Source/GCC/startup_hbirdv2.S:40
 * Reset Handler called on controller reset
 */
_start:
    /* ===== Startup Stage 1 ===== */
    /* Disable Global Interrupt */
    csrc CSR_MSTATUS, MSTATUS_MIE
80000000:	30047073          	csrci	mstatus,8
E:\NucleiStudio_Workspace\e203Whetstone_test\Debug/../hbird_sdk/SoC/hbirdv2/Common/Source/GCC/startup_hbirdv2.S:42
    /* Disable all interrupts controlled by CSR MIE */
    csrw CSR_MIE, 0x0
80000004:	30405073          	csrwi	mie,0
E:\NucleiStudio_Workspace\e203Whetstone_test\Debug/../hbird_sdk/SoC/hbirdv2/Common/Source/GCC/startup_hbirdv2.S:47

    /* Initialize GP and Stack Pointer SP */
    .option push
    .option norelax
    la gp, __global_pointer$
80000008:	10001197          	auipc	gp,0x10001
8000000c:	9c818193          	addi	gp,gp,-1592 # 900009d0 <__global_pointer$>
E:\NucleiStudio_Workspace\e203Whetstone_test\Debug/../hbird_sdk/SoC/hbirdv2/Common/Source/GCC/startup_hbirdv2.S:49
    .option pop
    la sp, _sp
80000010:	10010117          	auipc	sp,0x10010
80000014:	ff010113          	addi	sp,sp,-16 # 90010000 <_sp>
E:\NucleiStudio_Workspace\e203Whetstone_test\Debug/../hbird_sdk/SoC/hbirdv2/Common/Source/GCC/startup_hbirdv2.S:54

    /*
     * Set Trap Entry MTVEC to trap_entry
     */
    la t0, trap_entry
80000018:	00000297          	auipc	t0,0x0
8000001c:	43828293          	addi	t0,t0,1080 # 80000450 <trap_entry>
E:\NucleiStudio_Workspace\e203Whetstone_test\Debug/../hbird_sdk/SoC/hbirdv2/Common/Source/GCC/startup_hbirdv2.S:55
    csrw CSR_MTVEC, t0
80000020:	30529073          	csrw	mtvec,t0
E:\NucleiStudio_Workspace\e203Whetstone_test\Debug/../hbird_sdk/SoC/hbirdv2/Common/Source/GCC/startup_hbirdv2.S:58

    /* Direct Mode: All exceptions set pc to BASE. */
    csrc CSR_MTVEC, 0x3
80000024:	3051f073          	csrci	mtvec,3
E:\NucleiStudio_Workspace\e203Whetstone_test\Debug/../hbird_sdk/SoC/hbirdv2/Common/Source/GCC/startup_hbirdv2.S:64

    /* ===== Startup Stage 2 ===== */

#ifdef __riscv_flen
    /* Enable FPU */
    li t0, MSTATUS_FS
80000028:	6299                	lui	t0,0x6
E:\NucleiStudio_Workspace\e203Whetstone_test\Debug/../hbird_sdk/SoC/hbirdv2/Common/Source/GCC/startup_hbirdv2.S:65
    csrs mstatus, t0
8000002a:	3002a073          	csrs	mstatus,t0
E:\NucleiStudio_Workspace\e203Whetstone_test\Debug/../hbird_sdk/SoC/hbirdv2/Common/Source/GCC/startup_hbirdv2.S:66
    csrw fcsr, x0
8000002e:	00301073          	fscsr	zero
E:\NucleiStudio_Workspace\e203Whetstone_test\Debug/../hbird_sdk/SoC/hbirdv2/Common/Source/GCC/startup_hbirdv2.S:74
    /* ===== Startup Stage 3 ===== */
    /*
     * Load code section frm FLASH to ILM
     * when code LMA is different with VMA
     */
    la a0, _ilm_lma
80000032:	00000517          	auipc	a0,0x0
80000036:	08e50513          	addi	a0,a0,142 # 800000c0 <main>
E:\NucleiStudio_Workspace\e203Whetstone_test\Debug/../hbird_sdk/SoC/hbirdv2/Common/Source/GCC/startup_hbirdv2.S:75
    la a1, _ilm
8000003a:	00000597          	auipc	a1,0x0
8000003e:	08658593          	addi	a1,a1,134 # 800000c0 <main>
E:\NucleiStudio_Workspace\e203Whetstone_test\Debug/../hbird_sdk/SoC/hbirdv2/Common/Source/GCC/startup_hbirdv2.S:77
    /* If the ILM phy-address same as the logic-address, then quit */
    beq a0, a1, 2f
80000042:	02b50063          	beq	a0,a1,80000062 <_start+0x62>
E:\NucleiStudio_Workspace\e203Whetstone_test\Debug/../hbird_sdk/SoC/hbirdv2/Common/Source/GCC/startup_hbirdv2.S:78
    la a2, _eilm
80000046:	0000a617          	auipc	a2,0xa
8000004a:	b7260613          	addi	a2,a2,-1166 # 80009bb8 <__fsymtab_end>
E:\NucleiStudio_Workspace\e203Whetstone_test\Debug/../hbird_sdk/SoC/hbirdv2/Common/Source/GCC/startup_hbirdv2.S:79
    bgeu a1, a2, 2f
8000004e:	00c5fa63          	bgeu	a1,a2,80000062 <_start+0x62>
E:\NucleiStudio_Workspace\e203Whetstone_test\Debug/../hbird_sdk/SoC/hbirdv2/Common/Source/GCC/startup_hbirdv2.S:83

1:
    /* Load code section if necessary */
    lw t0, (a0)
80000052:	00052283          	lw	t0,0(a0)
E:\NucleiStudio_Workspace\e203Whetstone_test\Debug/../hbird_sdk/SoC/hbirdv2/Common/Source/GCC/startup_hbirdv2.S:84
    sw t0, (a1)
80000056:	0055a023          	sw	t0,0(a1)
E:\NucleiStudio_Workspace\e203Whetstone_test\Debug/../hbird_sdk/SoC/hbirdv2/Common/Source/GCC/startup_hbirdv2.S:85
    addi a0, a0, 4
8000005a:	0511                	addi	a0,a0,4
E:\NucleiStudio_Workspace\e203Whetstone_test\Debug/../hbird_sdk/SoC/hbirdv2/Common/Source/GCC/startup_hbirdv2.S:86
    addi a1, a1, 4
8000005c:	0591                	addi	a1,a1,4
E:\NucleiStudio_Workspace\e203Whetstone_test\Debug/../hbird_sdk/SoC/hbirdv2/Common/Source/GCC/startup_hbirdv2.S:87
    bltu a1, a2, 1b
8000005e:	fec5eae3          	bltu	a1,a2,80000052 <_start+0x52>
E:\NucleiStudio_Workspace\e203Whetstone_test\Debug/../hbird_sdk/SoC/hbirdv2/Common/Source/GCC/startup_hbirdv2.S:90
2:
    /* Load data section */
    la a0, _data_lma
80000062:	0000a517          	auipc	a0,0xa
80000066:	b5650513          	addi	a0,a0,-1194 # 80009bb8 <__fsymtab_end>
E:\NucleiStudio_Workspace\e203Whetstone_test\Debug/../hbird_sdk/SoC/hbirdv2/Common/Source/GCC/startup_hbirdv2.S:91
    la a1, _data
8000006a:	10000597          	auipc	a1,0x10000
8000006e:	f9658593          	addi	a1,a1,-106 # 90000000 <impure_data>
E:\NucleiStudio_Workspace\e203Whetstone_test\Debug/../hbird_sdk/SoC/hbirdv2/Common/Source/GCC/startup_hbirdv2.S:92
    la a2, _edata
80000072:	9f418613          	addi	a2,gp,-1548 # 900003c4 <secs>
E:\NucleiStudio_Workspace\e203Whetstone_test\Debug/../hbird_sdk/SoC/hbirdv2/Common/Source/GCC/startup_hbirdv2.S:93
    bgeu a1, a2, 2f
80000076:	00c5fa63          	bgeu	a1,a2,8000008a <_start+0x8a>
E:\NucleiStudio_Workspace\e203Whetstone_test\Debug/../hbird_sdk/SoC/hbirdv2/Common/Source/GCC/startup_hbirdv2.S:95
1:
    lw t0, (a0)
8000007a:	00052283          	lw	t0,0(a0)
E:\NucleiStudio_Workspace\e203Whetstone_test\Debug/../hbird_sdk/SoC/hbirdv2/Common/Source/GCC/startup_hbirdv2.S:96
    sw t0, (a1)
8000007e:	0055a023          	sw	t0,0(a1)
E:\NucleiStudio_Workspace\e203Whetstone_test\Debug/../hbird_sdk/SoC/hbirdv2/Common/Source/GCC/startup_hbirdv2.S:97
    addi a0, a0, 4
80000082:	0511                	addi	a0,a0,4
E:\NucleiStudio_Workspace\e203Whetstone_test\Debug/../hbird_sdk/SoC/hbirdv2/Common/Source/GCC/startup_hbirdv2.S:98
    addi a1, a1, 4
80000084:	0591                	addi	a1,a1,4
E:\NucleiStudio_Workspace\e203Whetstone_test\Debug/../hbird_sdk/SoC/hbirdv2/Common/Source/GCC/startup_hbirdv2.S:99
    bltu a1, a2, 1b
80000086:	fec5eae3          	bltu	a1,a2,8000007a <_start+0x7a>
E:\NucleiStudio_Workspace\e203Whetstone_test\Debug/../hbird_sdk/SoC/hbirdv2/Common/Source/GCC/startup_hbirdv2.S:102
2:
    /* Clear bss section */
    la a0, __bss_start
8000008a:	9f418513          	addi	a0,gp,-1548 # 900003c4 <secs>
E:\NucleiStudio_Workspace\e203Whetstone_test\Debug/../hbird_sdk/SoC/hbirdv2/Common/Source/GCC/startup_hbirdv2.S:103
    la a1, _end
8000008e:	c3018593          	addi	a1,gp,-976 # 90000600 <_end>
E:\NucleiStudio_Workspace\e203Whetstone_test\Debug/../hbird_sdk/SoC/hbirdv2/Common/Source/GCC/startup_hbirdv2.S:104
    bgeu a0, a1, 2f
80000092:	00b57763          	bgeu	a0,a1,800000a0 <_start+0xa0>
E:\NucleiStudio_Workspace\e203Whetstone_test\Debug/../hbird_sdk/SoC/hbirdv2/Common/Source/GCC/startup_hbirdv2.S:106
1:
    sw zero, (a0)
80000096:	00052023          	sw	zero,0(a0)
E:\NucleiStudio_Workspace\e203Whetstone_test\Debug/../hbird_sdk/SoC/hbirdv2/Common/Source/GCC/startup_hbirdv2.S:107
    addi a0, a0, 4
8000009a:	0511                	addi	a0,a0,4
E:\NucleiStudio_Workspace\e203Whetstone_test\Debug/../hbird_sdk/SoC/hbirdv2/Common/Source/GCC/startup_hbirdv2.S:108
    bltu a0, a1, 1b
8000009c:	feb56de3          	bltu	a0,a1,80000096 <_start+0x96>
E:\NucleiStudio_Workspace\e203Whetstone_test\Debug/../hbird_sdk/SoC/hbirdv2/Common/Source/GCC/startup_hbirdv2.S:115

    /*
     * Call vendor defined SystemInit to
     * initialize the micro-controller system
     */
    call SystemInit
800000a0:	2bf1                	jal	8000067c <SystemInit>
E:\NucleiStudio_Workspace\e203Whetstone_test\Debug/../hbird_sdk/SoC/hbirdv2/Common/Source/GCC/startup_hbirdv2.S:118

    /* Call global constructors */
    la a0, __libc_fini_array
800000a2:	00004517          	auipc	a0,0x4
800000a6:	49650513          	addi	a0,a0,1174 # 80004538 <__libc_fini_array>
E:\NucleiStudio_Workspace\e203Whetstone_test\Debug/../hbird_sdk/SoC/hbirdv2/Common/Source/GCC/startup_hbirdv2.S:119
    call atexit
800000aa:	478040ef          	jal	ra,80004522 <atexit>
E:\NucleiStudio_Workspace\e203Whetstone_test\Debug/../hbird_sdk/SoC/hbirdv2/Common/Source/GCC/startup_hbirdv2.S:121
    /* Call C/C++ constructor start up code */
    call __libc_init_array
800000ae:	4c0040ef          	jal	ra,8000456e <__libc_init_array>
E:\NucleiStudio_Workspace\e203Whetstone_test\Debug/../hbird_sdk/SoC/hbirdv2/Common/Source/GCC/startup_hbirdv2.S:124

    /* do pre-init steps before main */
    call _premain_init
800000b2:	2d59                	jal	80000748 <_premain_init>
E:\NucleiStudio_Workspace\e203Whetstone_test\Debug/../hbird_sdk/SoC/hbirdv2/Common/Source/GCC/startup_hbirdv2.S:127
    /* ===== Call Main Function  ===== */
    /* argc = argv = 0 */
    li a0, 0
800000b4:	4501                	li	a0,0
E:\NucleiStudio_Workspace\e203Whetstone_test\Debug/../hbird_sdk/SoC/hbirdv2/Common/Source/GCC/startup_hbirdv2.S:128
    li a1, 0
800000b6:	4581                	li	a1,0
E:\NucleiStudio_Workspace\e203Whetstone_test\Debug/../hbird_sdk/SoC/hbirdv2/Common/Source/GCC/startup_hbirdv2.S:134

#ifdef RTOS_RTTHREAD
    // Call entry function when using RT-Thread
    call entry
#else
    call main
800000b8:	2021                	jal	800000c0 <main>
E:\NucleiStudio_Workspace\e203Whetstone_test\Debug/../hbird_sdk/SoC/hbirdv2/Common/Source/GCC/startup_hbirdv2.S:137
#endif
    /* do post-main steps after main */
    call _postmain_fini
800000ba:	1ab000ef          	jal	ra,80000a64 <_postmain_fini>
E:\NucleiStudio_Workspace\e203Whetstone_test\Debug/../hbird_sdk/SoC/hbirdv2/Common/Source/GCC/startup_hbirdv2.S:140

1:
    j 1b
800000be:	a001                	j	800000be <_start+0xbe>

Disassembly of section .text:

800000c0 <main>:
main():
E:\NucleiStudio_Workspace\e203Whetstone_test\Debug/../application/whets.c:207
static SPDP mwips;
static char headings[9][18];
static SPDP Check;
static SPDP results[9];
int main()
{
800000c0:	7179                	addi	sp,sp,-48
E:\NucleiStudio_Workspace\e203Whetstone_test\Debug/../application/whets.c:218
    int duration = 1;
#else
    int duration = 10;
#endif

    printf("\n");
800000c2:	4529                	li	a0,10
E:\NucleiStudio_Workspace\e203Whetstone_test\Debug/../application/whets.c:207
{
800000c4:	d606                	sw	ra,44(sp)
800000c6:	d422                	sw	s0,40(sp)
800000c8:	d226                	sw	s1,36(sp)
800000ca:	d04a                	sw	s2,32(sp)
800000cc:	ce4e                	sw	s3,28(sp)
800000ce:	ca56                	sw	s5,20(sp)
800000d0:	e622                	fsw	fs0,12(sp)
800000d2:	cc52                	sw	s4,24(sp)
800000d4:	c85a                	sw	s6,16(sp)
E:\NucleiStudio_Workspace\e203Whetstone_test\Debug/../application/whets.c:218
    printf("\n");
800000d6:	711040ef          	jal	ra,80004fe6 <putchar>
E:\NucleiStudio_Workspace\e203Whetstone_test\Debug/../application/whets.c:219
    printf("##########################################\n");
800000da:	00009517          	auipc	a0,0x9
800000de:	f0e50513          	addi	a0,a0,-242 # 80008fe8 <__trunctfdf2+0x490>
800000e2:	010050ef          	jal	ra,800050f2 <puts>
E:\NucleiStudio_Workspace\e203Whetstone_test\Debug/../application/whets.c:220
    printf("%s Precision C Whetstone Benchmark %s \n", Precision, opt);
800000e6:	00009617          	auipc	a2,0x9
800000ea:	f2e60613          	addi	a2,a2,-210 # 80009014 <__trunctfdf2+0x4bc>
800000ee:	00009597          	auipc	a1,0x9
800000f2:	f3658593          	addi	a1,a1,-202 # 80009024 <__trunctfdf2+0x4cc>
800000f6:	00009517          	auipc	a0,0x9
800000fa:	f3650513          	addi	a0,a0,-202 # 8000902c <__trunctfdf2+0x4d4>
800000fe:	6a9040ef          	jal	ra,80004fa6 <iprintf>
E:\NucleiStudio_Workspace\e203Whetstone_test\Debug/../application/whets.c:222

    printf("Calibrate\n");
80000102:	00009517          	auipc	a0,0x9
80000106:	f5250513          	addi	a0,a0,-174 # 80009054 <__trunctfdf2+0x4fc>
8000010a:	7e9040ef          	jal	ra,800050f2 <puts>
8000010e:	a0418493          	addi	s1,gp,-1532 # 900003d4 <TimeUsed>
E:\NucleiStudio_Workspace\e203Whetstone_test\Debug/../application/whets.c:226
    do {
        TimeUsed = 0;

        whetstones(xtra, x100, calibrate);
80000112:	4585                	li	a1,1
80000114:	4505                	li	a0,1
80000116:	10000797          	auipc	a5,0x10000
8000011a:	13a7a407          	flw	fs0,314(a5) # 90000250 <_impure_ptr+0x78>
E:\NucleiStudio_Workspace\e203Whetstone_test\Debug/../application/whets.c:209
    long xtra = 1;
8000011e:	4405                	li	s0,1
E:\NucleiStudio_Workspace\e203Whetstone_test\Debug/../application/whets.c:224
        TimeUsed = 0;
80000120:	0004a023          	sw	zero,0(s1)
E:\NucleiStudio_Workspace\e203Whetstone_test\Debug/../application/whets.c:226
        whetstones(xtra, x100, calibrate);
80000124:	1bb000ef          	jal	ra,80000ade <whetstones.constprop.0>
E:\NucleiStudio_Workspace\e203Whetstone_test\Debug/../application/whets.c:227
        printf("%11.2f Seconds %10.0lf   Passes (x 100)\n", TimeUsed,
80000128:	d0047553          	fcvt.s.w	fa0,s0
8000012c:	00009a97          	auipc	s5,0x9
80000130:	f34a8a93          	addi	s5,s5,-204 # 80009060 <__trunctfdf2+0x508>
80000134:	0d4040ef          	jal	ra,80004208 <__extendsfdf2>
80000138:	6088                	flw	fa0,0(s1)
8000013a:	89aa                	mv	s3,a0
8000013c:	892e                	mv	s2,a1
8000013e:	0ca040ef          	jal	ra,80004208 <__extendsfdf2>
80000142:	862a                	mv	a2,a0
80000144:	87ca                	mv	a5,s2
80000146:	86ae                	mv	a3,a1
80000148:	874e                	mv	a4,s3
8000014a:	8556                	mv	a0,s5
8000014c:	65b040ef          	jal	ra,80004fa6 <iprintf>
E:\NucleiStudio_Workspace\e203Whetstone_test\Debug/../application/whets.c:235
        count--;

#if CFG_SIMU
        if (TimeUsed > 0.02)
#else
        if (TimeUsed > 2.0)
80000150:	609c                	flw	fa5,0(s1)
80000152:	a0f417d3          	flt.s	a5,fs0,fa5
80000156:	e3f1                	bnez	a5,8000021a <main+0x15a>
80000158:	4b2d                	li	s6,11
8000015a:	4909                	li	s2,2
E:\NucleiStudio_Workspace\e203Whetstone_test\Debug/../application/whets.c:240
#endif
        {
            count = 0;
        } else {
            xtra = xtra * 5;
8000015c:	4415                	li	s0,5
E:\NucleiStudio_Workspace\e203Whetstone_test\Debug/../application/whets.c:226
        whetstones(xtra, x100, calibrate);
8000015e:	85ca                	mv	a1,s2
80000160:	8522                	mv	a0,s0
E:\NucleiStudio_Workspace\e203Whetstone_test\Debug/../application/whets.c:224
        TimeUsed = 0;
80000162:	0004a023          	sw	zero,0(s1)
E:\NucleiStudio_Workspace\e203Whetstone_test\Debug/../application/whets.c:226
        whetstones(xtra, x100, calibrate);
80000166:	179000ef          	jal	ra,80000ade <whetstones.constprop.0>
E:\NucleiStudio_Workspace\e203Whetstone_test\Debug/../application/whets.c:227
        printf("%11.2f Seconds %10.0lf   Passes (x 100)\n", TimeUsed,
8000016a:	d0047553          	fcvt.s.w	fa0,s0
8000016e:	09a040ef          	jal	ra,80004208 <__extendsfdf2>
80000172:	6088                	flw	fa0,0(s1)
80000174:	8a2a                	mv	s4,a0
80000176:	89ae                	mv	s3,a1
80000178:	090040ef          	jal	ra,80004208 <__extendsfdf2>
8000017c:	862a                	mv	a2,a0
8000017e:	86ae                	mv	a3,a1
80000180:	8752                	mv	a4,s4
80000182:	87ce                	mv	a5,s3
80000184:	8556                	mv	a0,s5
80000186:	621040ef          	jal	ra,80004fa6 <iprintf>
E:\NucleiStudio_Workspace\e203Whetstone_test\Debug/../application/whets.c:235
        if (TimeUsed > 2.0)
8000018a:	609c                	flw	fa5,0(s1)
E:\NucleiStudio_Workspace\e203Whetstone_test\Debug/../application/whets.c:240
            xtra = xtra * 5;
8000018c:	00241713          	slli	a4,s0,0x2
E:\NucleiStudio_Workspace\e203Whetstone_test\Debug/../application/whets.c:229
        calibrate++;
80000190:	00190593          	addi	a1,s2,1
E:\NucleiStudio_Workspace\e203Whetstone_test\Debug/../application/whets.c:235
        if (TimeUsed > 2.0)
80000194:	a0f412d3          	flt.s	t0,fs0,fa5
80000198:	08029163          	bnez	t0,8000021a <main+0x15a>
E:\NucleiStudio_Workspace\e203Whetstone_test\Debug/../application/whets.c:240
            xtra = xtra * 5;
8000019c:	943a                	add	s0,s0,a4
E:\NucleiStudio_Workspace\e203Whetstone_test\Debug/../application/whets.c:226
        whetstones(xtra, x100, calibrate);
8000019e:	8522                	mv	a0,s0
E:\NucleiStudio_Workspace\e203Whetstone_test\Debug/../application/whets.c:224
        TimeUsed = 0;
800001a0:	0004a023          	sw	zero,0(s1)
E:\NucleiStudio_Workspace\e203Whetstone_test\Debug/../application/whets.c:226
        whetstones(xtra, x100, calibrate);
800001a4:	13b000ef          	jal	ra,80000ade <whetstones.constprop.0>
E:\NucleiStudio_Workspace\e203Whetstone_test\Debug/../application/whets.c:227
        printf("%11.2f Seconds %10.0lf   Passes (x 100)\n", TimeUsed,
800001a8:	d0047553          	fcvt.s.w	fa0,s0
800001ac:	05c040ef          	jal	ra,80004208 <__extendsfdf2>
800001b0:	6088                	flw	fa0,0(s1)
800001b2:	8a2a                	mv	s4,a0
800001b4:	89ae                	mv	s3,a1
800001b6:	052040ef          	jal	ra,80004208 <__extendsfdf2>
800001ba:	862a                	mv	a2,a0
800001bc:	86ae                	mv	a3,a1
800001be:	8752                	mv	a4,s4
800001c0:	87ce                	mv	a5,s3
800001c2:	8556                	mv	a0,s5
800001c4:	5e3040ef          	jal	ra,80004fa6 <iprintf>
E:\NucleiStudio_Workspace\e203Whetstone_test\Debug/../application/whets.c:235
        if (TimeUsed > 2.0)
800001c8:	609c                	flw	fa5,0(s1)
E:\NucleiStudio_Workspace\e203Whetstone_test\Debug/../application/whets.c:229
        calibrate++;
800001ca:	00290593          	addi	a1,s2,2
E:\NucleiStudio_Workspace\e203Whetstone_test\Debug/../application/whets.c:240
            xtra = xtra * 5;
800001ce:	00241313          	slli	t1,s0,0x2
E:\NucleiStudio_Workspace\e203Whetstone_test\Debug/../application/whets.c:235
        if (TimeUsed > 2.0)
800001d2:	a0f413d3          	flt.s	t2,fs0,fa5
E:\NucleiStudio_Workspace\e203Whetstone_test\Debug/../application/whets.c:229
        calibrate++;
800001d6:	090d                	addi	s2,s2,3
E:\NucleiStudio_Workspace\e203Whetstone_test\Debug/../application/whets.c:235
        if (TimeUsed > 2.0)
800001d8:	04039163          	bnez	t2,8000021a <main+0x15a>
E:\NucleiStudio_Workspace\e203Whetstone_test\Debug/../application/whets.c:240
            xtra = xtra * 5;
800001dc:	941a                	add	s0,s0,t1
E:\NucleiStudio_Workspace\e203Whetstone_test\Debug/../application/whets.c:226
        whetstones(xtra, x100, calibrate);
800001de:	8522                	mv	a0,s0
E:\NucleiStudio_Workspace\e203Whetstone_test\Debug/../application/whets.c:224
        TimeUsed = 0;
800001e0:	0004a023          	sw	zero,0(s1)
E:\NucleiStudio_Workspace\e203Whetstone_test\Debug/../application/whets.c:226
        whetstones(xtra, x100, calibrate);
800001e4:	0fb000ef          	jal	ra,80000ade <whetstones.constprop.0>
E:\NucleiStudio_Workspace\e203Whetstone_test\Debug/../application/whets.c:227
        printf("%11.2f Seconds %10.0lf   Passes (x 100)\n", TimeUsed,
800001e8:	d0047553          	fcvt.s.w	fa0,s0
800001ec:	01c040ef          	jal	ra,80004208 <__extendsfdf2>
800001f0:	6088                	flw	fa0,0(s1)
800001f2:	8a2a                	mv	s4,a0
800001f4:	89ae                	mv	s3,a1
800001f6:	012040ef          	jal	ra,80004208 <__extendsfdf2>
800001fa:	862a                	mv	a2,a0
800001fc:	86ae                	mv	a3,a1
800001fe:	8752                	mv	a4,s4
80000200:	87ce                	mv	a5,s3
80000202:	8556                	mv	a0,s5
80000204:	5a3040ef          	jal	ra,80004fa6 <iprintf>
E:\NucleiStudio_Workspace\e203Whetstone_test\Debug/../application/whets.c:235
        if (TimeUsed > 2.0)
80000208:	609c                	flw	fa5,0(s1)
E:\NucleiStudio_Workspace\e203Whetstone_test\Debug/../application/whets.c:240
            xtra = xtra * 5;
8000020a:	00241513          	slli	a0,s0,0x2
E:\NucleiStudio_Workspace\e203Whetstone_test\Debug/../application/whets.c:235
        if (TimeUsed > 2.0)
8000020e:	a0f415d3          	flt.s	a1,fs0,fa5
80000212:	e581                	bnez	a1,8000021a <main+0x15a>
E:\NucleiStudio_Workspace\e203Whetstone_test\Debug/../application/whets.c:240
            xtra = xtra * 5;
80000214:	942a                	add	s0,s0,a0
E:\NucleiStudio_Workspace\e203Whetstone_test\Debug/../application/whets.c:242
        }
    } while (count > 0);
80000216:	f56914e3          	bne	s2,s6,8000015e <main+0x9e>
E:\NucleiStudio_Workspace\e203Whetstone_test\Debug/../application/whets.c:244

    if (TimeUsed > 0)
8000021a:	f0000753          	fmv.w.x	fa4,zero
8000021e:	a0f710d3          	flt.s	ra,fa4,fa5
80000222:	00008b63          	beqz	ra,80000238 <main+0x178>
E:\NucleiStudio_Workspace\e203Whetstone_test\Debug/../application/whets.c:245
        xtra = (long)((SPDP)(duration * xtra) / TimeUsed);
80000226:	4629                	li	a2,10
80000228:	02c406b3          	mul	a3,s0,a2
8000022c:	d006f053          	fcvt.s.w	ft0,a3
80000230:	18f070d3          	fdiv.s	ft1,ft0,fa5
80000234:	c0009453          	fcvt.w.s	s0,ft1,rtz
E:\NucleiStudio_Workspace\e203Whetstone_test\Debug/../application/whets.c:246
    if (xtra < 1)
80000238:	00804363          	bgtz	s0,8000023e <main+0x17e>
8000023c:	4405                	li	s0,1
E:\NucleiStudio_Workspace\e203Whetstone_test\Debug/../application/whets.c:251
        xtra = 1;

    calibrate = 0;

    printf("\nUse %d  passes (x 100)\n", xtra);
8000023e:	85a2                	mv	a1,s0
80000240:	00009517          	auipc	a0,0x9
80000244:	e4c50513          	addi	a0,a0,-436 # 8000908c <__trunctfdf2+0x534>
80000248:	55f040ef          	jal	ra,80004fa6 <iprintf>
E:\NucleiStudio_Workspace\e203Whetstone_test\Debug/../application/whets.c:252
    printf("\n          %s Precision C/C++ Whetstone Benchmark", Precision);
8000024c:	00009597          	auipc	a1,0x9
80000250:	dd858593          	addi	a1,a1,-552 # 80009024 <__trunctfdf2+0x4cc>
80000254:	00009517          	auipc	a0,0x9
80000258:	e5450513          	addi	a0,a0,-428 # 800090a8 <__trunctfdf2+0x550>
8000025c:	54b040ef          	jal	ra,80004fa6 <iprintf>
E:\NucleiStudio_Workspace\e203Whetstone_test\Debug/../application/whets.c:258

#ifdef PRECOMP
    printf("\n          Compiler  %s", precompiler);
    printf("\n          Options   %s\n", preoptions);
#else
    printf("\n");
80000260:	4529                	li	a0,10
80000262:	585040ef          	jal	ra,80004fe6 <putchar>
E:\NucleiStudio_Workspace\e203Whetstone_test\Debug/../application/whets.c:261
#endif

    printf("\nLoop content                  Result              MFLOPS "
80000266:	00009517          	auipc	a0,0x9
8000026a:	e7650513          	addi	a0,a0,-394 # 800090dc <__trunctfdf2+0x584>
8000026e:	685040ef          	jal	ra,800050f2 <puts>
E:\NucleiStudio_Workspace\e203Whetstone_test\Debug/../application/whets.c:265
           "     MOPS   Seconds\n\n");

    TimeUsed = 0;
    whetstones(xtra, x100, calibrate);
80000272:	4581                	li	a1,0
80000274:	8522                	mv	a0,s0
E:\NucleiStudio_Workspace\e203Whetstone_test\Debug/../application/whets.c:264
    TimeUsed = 0;
80000276:	0004a023          	sw	zero,0(s1)
E:\NucleiStudio_Workspace\e203Whetstone_test\Debug/../application/whets.c:265
    whetstones(xtra, x100, calibrate);
8000027a:	065000ef          	jal	ra,80000ade <whetstones.constprop.0>
E:\NucleiStudio_Workspace\e203Whetstone_test\Debug/../application/whets.c:267

    printf("\nMWIPS            ");
8000027e:	00009517          	auipc	a0,0x9
80000282:	eae50513          	addi	a0,a0,-338 # 8000912c <__trunctfdf2+0x5d4>
80000286:	521040ef          	jal	ra,80004fa6 <iprintf>
E:\NucleiStudio_Workspace\e203Whetstone_test\Debug/../application/whets.c:268
    if (TimeUsed > 0) {
8000028a:	6088                	flw	fa0,0(s1)
8000028c:	f0000153          	fmv.w.x	ft2,zero
E:\NucleiStudio_Workspace\e203Whetstone_test\Debug/../application/whets.c:271
        mwips = (float)(xtra) * (float)(x100) / (10 * TimeUsed);
    } else {
        mwips = 0;
80000290:	f0000453          	fmv.w.x	fs0,zero
E:\NucleiStudio_Workspace\e203Whetstone_test\Debug/../application/whets.c:268
    if (TimeUsed > 0) {
80000294:	a0a11853          	flt.s	a6,ft2,fa0
80000298:	00080c63          	beqz	a6,800002b0 <main+0x1f0>
E:\NucleiStudio_Workspace\e203Whetstone_test\Debug/../application/whets.c:269
        mwips = (float)(xtra) * (float)(x100) / (10 * TimeUsed);
8000029c:	d00471d3          	fcvt.s.w	ft3,s0
800002a0:	10000797          	auipc	a5,0x10000
800002a4:	ff87a207          	flw	ft4,-8(a5) # 90000298 <_impure_ptr+0xc0>
800002a8:	1041f2d3          	fmul.s	ft5,ft3,ft4
800002ac:	18a2f453          	fdiv.s	fs0,ft5,fa0
800002b0:	a0818a93          	addi	s5,gp,-1528 # 900003d8 <mwips>
800002b4:	008aa027          	fsw	fs0,0(s5)
E:\NucleiStudio_Workspace\e203Whetstone_test\Debug/../application/whets.c:274
    }

    printf("%39.3f%19.3f\n\n", mwips, TimeUsed);
800002b8:	751030ef          	jal	ra,80004208 <__extendsfdf2>
800002bc:	20840553          	fmv.s	fa0,fs0
800002c0:	8b2a                	mv	s6,a0
800002c2:	892e                	mv	s2,a1
800002c4:	745030ef          	jal	ra,80004208 <__extendsfdf2>
800002c8:	862a                	mv	a2,a0
800002ca:	87ca                	mv	a5,s2
800002cc:	86ae                	mv	a3,a1
800002ce:	875a                	mv	a4,s6
800002d0:	00009517          	auipc	a0,0x9
800002d4:	e7050513          	addi	a0,a0,-400 # 80009140 <__trunctfdf2+0x5e8>
800002d8:	4cf040ef          	jal	ra,80004fa6 <iprintf>
E:\NucleiStudio_Workspace\e203Whetstone_test\Debug/../application/whets.c:276

    printf("\nMWIPS/MHz        ");
800002dc:	00009517          	auipc	a0,0x9
800002e0:	e7450513          	addi	a0,a0,-396 # 80009150 <__trunctfdf2+0x5f8>
800002e4:	4c3040ef          	jal	ra,80004fa6 <iprintf>
E:\NucleiStudio_Workspace\e203Whetstone_test\Debug/../application/whets.c:278

    printf("%39.3f%19.3f\n\n", mwips / SystemCoreClock * 1000000, TimeUsed);
800002e8:	6088                	flw	fa0,0(s1)
800002ea:	71f030ef          	jal	ra,80004208 <__extendsfdf2>
800002ee:	10000897          	auipc	a7,0x10000
800002f2:	ee68a883          	lw	a7,-282(a7) # 900001d4 <SystemCoreClock>
800002f6:	d018f353          	fcvt.s.wu	ft6,a7
800002fa:	000aa387          	flw	ft7,0(s5)
800002fe:	10000797          	auipc	a5,0x10000
80000302:	f9e7a507          	flw	fa0,-98(a5) # 9000029c <_impure_ptr+0xc4>
80000306:	84aa                	mv	s1,a0
80000308:	1863f5d3          	fdiv.s	fa1,ft7,ft6
8000030c:	8a2e                	mv	s4,a1
8000030e:	10a5f553          	fmul.s	fa0,fa1,fa0
80000312:	6f7030ef          	jal	ra,80004208 <__extendsfdf2>
80000316:	862a                	mv	a2,a0
80000318:	87d2                	mv	a5,s4
8000031a:	86ae                	mv	a3,a1
8000031c:	8726                	mv	a4,s1
8000031e:	00009517          	auipc	a0,0x9
80000322:	e2250513          	addi	a0,a0,-478 # 80009140 <__trunctfdf2+0x5e8>
80000326:	481040ef          	jal	ra,80004fa6 <iprintf>
E:\NucleiStudio_Workspace\e203Whetstone_test\Debug/../application/whets.c:279
    if (Check == 0)
8000032a:	f00006d3          	fmv.w.x	fa3,zero
8000032e:	a001a607          	flw	fa2,-1536(gp) # 900003d0 <Check>
80000332:	a0d62e53          	feq.s	t3,fa2,fa3
80000336:	000e1e63          	bnez	t3,80000352 <main+0x292>
E:\NucleiStudio_Workspace\e203Whetstone_test\Debug/../application/whets.c:283
        printf("Wrong answer  ");

    return 0;
}
8000033a:	50b2                	lw	ra,44(sp)
8000033c:	5422                	lw	s0,40(sp)
8000033e:	5492                	lw	s1,36(sp)
80000340:	5902                	lw	s2,32(sp)
80000342:	49f2                	lw	s3,28(sp)
80000344:	4a62                	lw	s4,24(sp)
80000346:	4ad2                	lw	s5,20(sp)
80000348:	4b42                	lw	s6,16(sp)
8000034a:	6432                	flw	fs0,12(sp)
8000034c:	4501                	li	a0,0
8000034e:	6145                	addi	sp,sp,48
80000350:	8082                	ret
E:\NucleiStudio_Workspace\e203Whetstone_test\Debug/../application/whets.c:280
        printf("Wrong answer  ");
80000352:	00009517          	auipc	a0,0x9
80000356:	e1250513          	addi	a0,a0,-494 # 80009164 <__trunctfdf2+0x60c>
8000035a:	44d040ef          	jal	ra,80004fa6 <iprintf>
8000035e:	bff1                	j	8000033a <main+0x27a>

80000360 <_close>:
_close():
E:\NucleiStudio_Workspace\e203Whetstone_test\Debug/../hbird_sdk/SoC/hbirdv2/Common/Source/Stubs/close.c:10
#undef errno
extern int errno;

__WEAK int _close(int fd)
{
    errno = EBADF;
80000360:	47a5                	li	a5,9
80000362:	a0f1a623          	sw	a5,-1524(gp) # 900003dc <errno>
E:\NucleiStudio_Workspace\e203Whetstone_test\Debug/../hbird_sdk/SoC/hbirdv2/Common/Source/Stubs/close.c:12
    return -1;
}
80000366:	557d                	li	a0,-1
80000368:	8082                	ret

8000036a <_exit>:
__WFI():
E:\NucleiStudio_Workspace\e203Whetstone_test\hbird_sdk\NMSIS\Core\Include/core_feature_base.h:598 (discriminator 1)
 * the hardware platform that suitable interrupts should
 * preferentially be routed to this hart.
 */
__STATIC_FORCEINLINE void __WFI(void)
{
    __ASM volatile("wfi");
8000036a:	10500073          	wfi
8000036e:	bff5                	j	8000036a <_exit>

80000370 <_fstat>:
_fstat():
E:\NucleiStudio_Workspace\e203Whetstone_test\Debug/../hbird_sdk/SoC/hbirdv2/Common/Source/Stubs/fstat.c:12
#undef errno
extern int errno;

__WEAK int _fstat(int file, struct stat *st)
{
    if ((STDOUT_FILENO == file) || (STDERR_FILENO == file)) {
80000370:	157d                	addi	a0,a0,-1
80000372:	4785                	li	a5,1
80000374:	00a7e763          	bltu	a5,a0,80000382 <_fstat+0x12>
E:\NucleiStudio_Workspace\e203Whetstone_test\Debug/../hbird_sdk/SoC/hbirdv2/Common/Source/Stubs/fstat.c:13
        st->st_mode = S_IFCHR;
80000378:	6309                	lui	t1,0x2
8000037a:	0065a223          	sw	t1,4(a1)
E:\NucleiStudio_Workspace\e203Whetstone_test\Debug/../hbird_sdk/SoC/hbirdv2/Common/Source/Stubs/fstat.c:14
        return 0;
8000037e:	4501                	li	a0,0
80000380:	8082                	ret
E:\NucleiStudio_Workspace\e203Whetstone_test\Debug/../hbird_sdk/SoC/hbirdv2/Common/Source/Stubs/fstat.c:16
    } else {
        errno = EBADF;
80000382:	42a5                	li	t0,9
80000384:	a051a623          	sw	t0,-1524(gp) # 900003dc <errno>
E:\NucleiStudio_Workspace\e203Whetstone_test\Debug/../hbird_sdk/SoC/hbirdv2/Common/Source/Stubs/fstat.c:17
        return -1;
80000388:	557d                	li	a0,-1
E:\NucleiStudio_Workspace\e203Whetstone_test\Debug/../hbird_sdk/SoC/hbirdv2/Common/Source/Stubs/fstat.c:19
    }
}
8000038a:	8082                	ret

8000038c <_getpid>:
_getpid():
E:\NucleiStudio_Workspace\e203Whetstone_test\Debug/../hbird_sdk/SoC/hbirdv2/Common/Source/Stubs/getpid.c:8
#include <errno.h>

__WEAK int _getpid(void)
{
    return 1;
}
8000038c:	4505                	li	a0,1
8000038e:	8082                	ret

80000390 <_isatty>:
_isatty():
E:\NucleiStudio_Workspace\e203Whetstone_test\Debug/../hbird_sdk/SoC/hbirdv2/Common/Source/Stubs/isatty.c:8
#include <unistd.h>

__WEAK int _isatty(int fd)
{
    return 1;
}
80000390:	4505                	li	a0,1
80000392:	8082                	ret

80000394 <_kill>:
_kill():
E:\NucleiStudio_Workspace\e203Whetstone_test\Debug/../hbird_sdk/SoC/hbirdv2/Common/Source/Stubs/kill.c:9
#undef errno
extern int errno;

__WEAK int _kill(int pid, int sig)
{
    errno = EINVAL;
80000394:	47d9                	li	a5,22
80000396:	a0f1a623          	sw	a5,-1524(gp) # 900003dc <errno>
E:\NucleiStudio_Workspace\e203Whetstone_test\Debug/../hbird_sdk/SoC/hbirdv2/Common/Source/Stubs/kill.c:11
    return -1;
}
8000039a:	557d                	li	a0,-1
8000039c:	8082                	ret

8000039e <_lseek>:
_lseek():
E:\NucleiStudio_Workspace\e203Whetstone_test\Debug/../hbird_sdk/SoC/hbirdv2/Common/Source/Stubs/lseek.c:11
extern int errno;

__WEAK int _lseek(int file, int offset, int whence)
{
    return 0;
}
8000039e:	4501                	li	a0,0
800003a0:	8082                	ret

800003a2 <_read>:
_read():
E:\NucleiStudio_Workspace\e203Whetstone_test\Debug/../hbird_sdk/SoC/hbirdv2/Common/Source/Stubs/read.c:12

// #define UART_AUTO_ECHO

__WEAK ssize_t _read(int fd, void* ptr, size_t len)
{
    if (fd != STDIN_FILENO) {
800003a2:	c119                	beqz	a0,800003a8 <_read+0x6>
E:\NucleiStudio_Workspace\e203Whetstone_test\Debug/../hbird_sdk/SoC/hbirdv2/Common/Source/Stubs/read.c:13
        return -1;
800003a4:	557d                	li	a0,-1
E:\NucleiStudio_Workspace\e203Whetstone_test\Debug/../hbird_sdk/SoC/hbirdv2/Common/Source/Stubs/read.c:22
    readbuf[0] = uart_read(SOC_DEBUG_UART);
#ifdef UART_AUTO_ECHO
    uart_write(SOC_DEBUG_UART, readbuf[0]);
#endif
    return 1;
}
800003a6:	8082                	ret
E:\NucleiStudio_Workspace\e203Whetstone_test\Debug/../hbird_sdk/SoC/hbirdv2/Common/Source/Stubs/read.c:11
{
800003a8:	1141                	addi	sp,sp,-16
E:\NucleiStudio_Workspace\e203Whetstone_test\Debug/../hbird_sdk/SoC/hbirdv2/Common/Source/Stubs/read.c:17
    readbuf[0] = uart_read(SOC_DEBUG_UART);
800003aa:	10013537          	lui	a0,0x10013
E:\NucleiStudio_Workspace\e203Whetstone_test\Debug/../hbird_sdk/SoC/hbirdv2/Common/Source/Stubs/read.c:11
{
800003ae:	c422                	sw	s0,8(sp)
800003b0:	c606                	sw	ra,12(sp)
800003b2:	842e                	mv	s0,a1
E:\NucleiStudio_Workspace\e203Whetstone_test\Debug/../hbird_sdk/SoC/hbirdv2/Common/Source/Stubs/read.c:17
    readbuf[0] = uart_read(SOC_DEBUG_UART);
800003b4:	2abd                	jal	80000532 <uart_read>
800003b6:	00a40023          	sb	a0,0(s0)
E:\NucleiStudio_Workspace\e203Whetstone_test\Debug/../hbird_sdk/SoC/hbirdv2/Common/Source/Stubs/read.c:22
}
800003ba:	40b2                	lw	ra,12(sp)
800003bc:	4422                	lw	s0,8(sp)
E:\NucleiStudio_Workspace\e203Whetstone_test\Debug/../hbird_sdk/SoC/hbirdv2/Common/Source/Stubs/read.c:21
    return 1;
800003be:	4505                	li	a0,1
E:\NucleiStudio_Workspace\e203Whetstone_test\Debug/../hbird_sdk/SoC/hbirdv2/Common/Source/Stubs/read.c:22
}
800003c0:	0141                	addi	sp,sp,16
800003c2:	8082                	ret

800003c4 <_sbrk>:
_sbrk():
E:\NucleiStudio_Workspace\e203Whetstone_test\Debug/../hbird_sdk/SoC/hbirdv2/Common/Source/Stubs/sbrk.c:13
{
    extern char _end[];
    extern char _heap_end[];
    static char *curbrk = _end;

    if ((curbrk + incr < _end) || (curbrk + incr > _heap_end)) {
800003c4:	10000717          	auipc	a4,0x10000
800003c8:	e0c70713          	addi	a4,a4,-500 # 900001d0 <curbrk.0>
800003cc:	431c                	lw	a5,0(a4)
800003ce:	c3018693          	addi	a3,gp,-976 # 90000600 <_end>
800003d2:	953e                	add	a0,a0,a5
800003d4:	00d56b63          	bltu	a0,a3,800003ea <_sbrk+0x26>
E:\NucleiStudio_Workspace\e203Whetstone_test\Debug/../hbird_sdk/SoC/hbirdv2/Common/Source/Stubs/sbrk.c:13 (discriminator 1)
800003d8:	1000f297          	auipc	t0,0x1000f
800003dc:	42828293          	addi	t0,t0,1064 # 9000f800 <_heap_end>
800003e0:	00a2e563          	bltu	t0,a0,800003ea <_sbrk+0x26>
E:\NucleiStudio_Workspace\e203Whetstone_test\Debug/../hbird_sdk/SoC/hbirdv2/Common/Source/Stubs/sbrk.c:17
        return (void *)(-1);
    }

    curbrk += incr;
800003e4:	c308                	sw	a0,0(a4)
E:\NucleiStudio_Workspace\e203Whetstone_test\Debug/../hbird_sdk/SoC/hbirdv2/Common/Source/Stubs/sbrk.c:19
    return (void *)(curbrk - incr);
}
800003e6:	853e                	mv	a0,a5
800003e8:	8082                	ret
E:\NucleiStudio_Workspace\e203Whetstone_test\Debug/../hbird_sdk/SoC/hbirdv2/Common/Source/Stubs/sbrk.c:14
        return (void *)(-1);
800003ea:	57fd                	li	a5,-1
E:\NucleiStudio_Workspace\e203Whetstone_test\Debug/../hbird_sdk/SoC/hbirdv2/Common/Source/Stubs/sbrk.c:19
}
800003ec:	853e                	mv	a0,a5
800003ee:	8082                	ret

800003f0 <_write>:
_write():
E:\NucleiStudio_Workspace\e203Whetstone_test\Debug/../hbird_sdk/SoC/hbirdv2/Common/Source/Stubs/write.c:9
#include <unistd.h>
#include <sys/types.h>
#include <hbird_sdk_hal.h>

__WEAK ssize_t _write(int fd, const void* ptr, size_t len)
{
800003f0:	1101                	addi	sp,sp,-32
800003f2:	cc22                	sw	s0,24(sp)
800003f4:	c64e                	sw	s3,12(sp)
800003f6:	ce06                	sw	ra,28(sp)
800003f8:	ca26                	sw	s1,20(sp)
800003fa:	c84a                	sw	s2,16(sp)
800003fc:	842e                	mv	s0,a1
800003fe:	89b2                	mv	s3,a2
E:\NucleiStudio_Workspace\e203Whetstone_test\Debug/../hbird_sdk/SoC/hbirdv2/Common/Source/Stubs/write.c:10
    if (!isatty(fd)) {
80000400:	511040ef          	jal	ra,80005110 <isatty>
80000404:	c139                	beqz	a0,8000044a <_write+0x5a>
E:\NucleiStudio_Workspace\e203Whetstone_test\Debug/../hbird_sdk/SoC/hbirdv2/Common/Source/Stubs/write.c:15
        return -1;
    }

    const uint8_t *writebuf = (const uint8_t *)ptr;
    for (size_t i = 0; i < len; i++) {
80000406:	01340933          	add	s2,s0,s3
E:\NucleiStudio_Workspace\e203Whetstone_test\Debug/../hbird_sdk/SoC/hbirdv2/Common/Source/Stubs/write.c:16
        if (writebuf[i] == '\n') {
8000040a:	44a9                	li	s1,10
E:\NucleiStudio_Workspace\e203Whetstone_test\Debug/../hbird_sdk/SoC/hbirdv2/Common/Source/Stubs/write.c:15
    for (size_t i = 0; i < len; i++) {
8000040c:	00098c63          	beqz	s3,80000424 <_write+0x34>
E:\NucleiStudio_Workspace\e203Whetstone_test\Debug/../hbird_sdk/SoC/hbirdv2/Common/Source/Stubs/write.c:16
        if (writebuf[i] == '\n') {
80000410:	00044583          	lbu	a1,0(s0)
E:\NucleiStudio_Workspace\e203Whetstone_test\Debug/../hbird_sdk/SoC/hbirdv2/Common/Source/Stubs/write.c:19
            uart_write(SOC_DEBUG_UART, '\r');
        }
        uart_write(SOC_DEBUG_UART, writebuf[i]);
80000414:	10013537          	lui	a0,0x10013
E:\NucleiStudio_Workspace\e203Whetstone_test\Debug/../hbird_sdk/SoC/hbirdv2/Common/Source/Stubs/write.c:16
        if (writebuf[i] == '\n') {
80000418:	00958e63          	beq	a1,s1,80000434 <_write+0x44>
E:\NucleiStudio_Workspace\e203Whetstone_test\Debug/../hbird_sdk/SoC/hbirdv2/Common/Source/Stubs/write.c:15 (discriminator 2)
    for (size_t i = 0; i < len; i++) {
8000041c:	0405                	addi	s0,s0,1
E:\NucleiStudio_Workspace\e203Whetstone_test\Debug/../hbird_sdk/SoC/hbirdv2/Common/Source/Stubs/write.c:19 (discriminator 2)
        uart_write(SOC_DEBUG_UART, writebuf[i]);
8000041e:	28fd                	jal	8000051c <uart_write>
E:\NucleiStudio_Workspace\e203Whetstone_test\Debug/../hbird_sdk/SoC/hbirdv2/Common/Source/Stubs/write.c:15 (discriminator 2)
    for (size_t i = 0; i < len; i++) {
80000420:	ff2418e3          	bne	s0,s2,80000410 <_write+0x20>
E:\NucleiStudio_Workspace\e203Whetstone_test\Debug/../hbird_sdk/SoC/hbirdv2/Common/Source/Stubs/write.c:21
    }
    return len;
80000424:	854e                	mv	a0,s3
E:\NucleiStudio_Workspace\e203Whetstone_test\Debug/../hbird_sdk/SoC/hbirdv2/Common/Source/Stubs/write.c:22
}
80000426:	40f2                	lw	ra,28(sp)
80000428:	4462                	lw	s0,24(sp)
8000042a:	44d2                	lw	s1,20(sp)
8000042c:	4942                	lw	s2,16(sp)
8000042e:	49b2                	lw	s3,12(sp)
80000430:	6105                	addi	sp,sp,32
80000432:	8082                	ret
E:\NucleiStudio_Workspace\e203Whetstone_test\Debug/../hbird_sdk/SoC/hbirdv2/Common/Source/Stubs/write.c:17
            uart_write(SOC_DEBUG_UART, '\r');
80000434:	45b5                	li	a1,13
80000436:	20dd                	jal	8000051c <uart_write>
E:\NucleiStudio_Workspace\e203Whetstone_test\Debug/../hbird_sdk/SoC/hbirdv2/Common/Source/Stubs/write.c:19
        uart_write(SOC_DEBUG_UART, writebuf[i]);
80000438:	00044583          	lbu	a1,0(s0)
8000043c:	10013537          	lui	a0,0x10013
E:\NucleiStudio_Workspace\e203Whetstone_test\Debug/../hbird_sdk/SoC/hbirdv2/Common/Source/Stubs/write.c:15
    for (size_t i = 0; i < len; i++) {
80000440:	0405                	addi	s0,s0,1
E:\NucleiStudio_Workspace\e203Whetstone_test\Debug/../hbird_sdk/SoC/hbirdv2/Common/Source/Stubs/write.c:19
        uart_write(SOC_DEBUG_UART, writebuf[i]);
80000442:	28e9                	jal	8000051c <uart_write>
E:\NucleiStudio_Workspace\e203Whetstone_test\Debug/../hbird_sdk/SoC/hbirdv2/Common/Source/Stubs/write.c:15
    for (size_t i = 0; i < len; i++) {
80000444:	fc8916e3          	bne	s2,s0,80000410 <_write+0x20>
80000448:	bff1                	j	80000424 <_write+0x34>
E:\NucleiStudio_Workspace\e203Whetstone_test\Debug/../hbird_sdk/SoC/hbirdv2/Common/Source/Stubs/write.c:11
        return -1;
8000044a:	557d                	li	a0,-1
8000044c:	bfe9                	j	80000426 <_write+0x36>
	...

80000450 <trap_entry>:
trap_entry():
E:\NucleiStudio_Workspace\e203Whetstone_test\Debug/../hbird_sdk/SoC/hbirdv2/Common/Source/GCC/intexc_hbirdv2.S:159
.align 2
.global trap_entry
.weak trap_entry
trap_entry:
    /* Save the caller saving registers (context) */
    SAVE_CONTEXT
80000450:	715d                	addi	sp,sp,-80
80000452:	c006                	sw	ra,0(sp)
80000454:	c212                	sw	tp,4(sp)
80000456:	c416                	sw	t0,8(sp)
80000458:	c61a                	sw	t1,12(sp)
8000045a:	c81e                	sw	t2,16(sp)
8000045c:	ca2a                	sw	a0,20(sp)
8000045e:	cc2e                	sw	a1,24(sp)
80000460:	ce32                	sw	a2,28(sp)
80000462:	d036                	sw	a3,32(sp)
80000464:	d23a                	sw	a4,36(sp)
80000466:	d43e                	sw	a5,40(sp)
80000468:	dc42                	sw	a6,56(sp)
8000046a:	de46                	sw	a7,60(sp)
8000046c:	c0f2                	sw	t3,64(sp)
8000046e:	c2f6                	sw	t4,68(sp)
80000470:	c4fa                	sw	t5,72(sp)
80000472:	c6fe                	sw	t6,76(sp)
E:\NucleiStudio_Workspace\e203Whetstone_test\Debug/../hbird_sdk/SoC/hbirdv2/Common/Source/GCC/intexc_hbirdv2.S:161
    /* Save the necessary CSR registers */
    SAVE_CSR_CONTEXT
80000474:	341022f3          	csrr	t0,mepc
80000478:	d616                	sw	t0,44(sp)
8000047a:	342022f3          	csrr	t0,mcause
8000047e:	d816                	sw	t0,48(sp)
80000480:	300022f3          	csrr	t0,mstatus
80000484:	da16                	sw	t0,52(sp)
E:\NucleiStudio_Workspace\e203Whetstone_test\Debug/../hbird_sdk/SoC/hbirdv2/Common/Source/GCC/intexc_hbirdv2.S:168
    /*
     * Set the exception handler function arguments
     * argument 1: mcause value
     * argument 2: current stack point(SP) value
     */
    csrr a0, mcause
80000486:	34202573          	csrr	a0,mcause
E:\NucleiStudio_Workspace\e203Whetstone_test\Debug/../hbird_sdk/SoC/hbirdv2/Common/Source/GCC/intexc_hbirdv2.S:169
    mv a1, sp
8000048a:	858a                	mv	a1,sp
E:\NucleiStudio_Workspace\e203Whetstone_test\Debug/../hbird_sdk/SoC/hbirdv2/Common/Source/GCC/intexc_hbirdv2.S:175
    /*
     * TODO: Call the trap handler function
     * By default, the function template is provided in
     * system_Device.c, you can adjust it as you want
     */
    call core_trap_handler
8000048c:	2409                	jal	8000068e <core_trap_handler>
E:\NucleiStudio_Workspace\e203Whetstone_test\Debug/../hbird_sdk/SoC/hbirdv2/Common/Source/GCC/intexc_hbirdv2.S:178

    /* Restore the necessary CSR registers */
    RESTORE_CSR_CONTEXT
8000048e:	52b2                	lw	t0,44(sp)
80000490:	34129073          	csrw	mepc,t0
80000494:	52c2                	lw	t0,48(sp)
80000496:	34229073          	csrw	mcause,t0
8000049a:	52d2                	lw	t0,52(sp)
8000049c:	30029073          	csrw	mstatus,t0
E:\NucleiStudio_Workspace\e203Whetstone_test\Debug/../hbird_sdk/SoC/hbirdv2/Common/Source/GCC/intexc_hbirdv2.S:180
    /* Restore the caller saving registers (context) */
    RESTORE_CONTEXT
800004a0:	4082                	lw	ra,0(sp)
800004a2:	4212                	lw	tp,4(sp)
800004a4:	42a2                	lw	t0,8(sp)
800004a6:	4332                	lw	t1,12(sp)
800004a8:	43c2                	lw	t2,16(sp)
800004aa:	4552                	lw	a0,20(sp)
800004ac:	45e2                	lw	a1,24(sp)
800004ae:	4672                	lw	a2,28(sp)
800004b0:	5682                	lw	a3,32(sp)
800004b2:	5712                	lw	a4,36(sp)
800004b4:	57a2                	lw	a5,40(sp)
800004b6:	5862                	lw	a6,56(sp)
800004b8:	58f2                	lw	a7,60(sp)
800004ba:	4e06                	lw	t3,64(sp)
800004bc:	4e96                	lw	t4,68(sp)
800004be:	4f26                	lw	t5,72(sp)
800004c0:	4fb6                	lw	t6,76(sp)
800004c2:	6161                	addi	sp,sp,80
E:\NucleiStudio_Workspace\e203Whetstone_test\Debug/../hbird_sdk/SoC/hbirdv2/Common/Source/GCC/intexc_hbirdv2.S:183

    /* Return to regular code */
    mret
800004c4:	30200073          	mret

800004c8 <gpio_iof_config>:
gpio_iof_config():
E:\NucleiStudio_Workspace\e203Whetstone_test\Debug/../hbird_sdk/SoC/hbirdv2/Common/Source/Drivers/hbirdv2_gpio.c:5
#include "hbirdv2.h"
#include "hbirdv2_gpio.h"

int32_t gpio_iof_config(GPIO_TypeDef *gpio, uint32_t mask)
{
800004c8:	87aa                	mv	a5,a0
E:\NucleiStudio_Workspace\e203Whetstone_test\Debug/../hbird_sdk/SoC/hbirdv2/Common/Source/Drivers/hbirdv2_gpio.c:6
    if (__RARELY(gpio == NULL)) {
800004ca:	c511                	beqz	a0,800004d6 <gpio_iof_config+0xe>
E:\NucleiStudio_Workspace\e203Whetstone_test\Debug/../hbird_sdk/SoC/hbirdv2/Common/Source/Drivers/hbirdv2_gpio.c:9
        return -1;
    }
    gpio->IOFCFG |= mask;
800004cc:	4d58                	lw	a4,28(a0)
E:\NucleiStudio_Workspace\e203Whetstone_test\Debug/../hbird_sdk/SoC/hbirdv2/Common/Source/Drivers/hbirdv2_gpio.c:11

    return 0;
800004ce:	4501                	li	a0,0
E:\NucleiStudio_Workspace\e203Whetstone_test\Debug/../hbird_sdk/SoC/hbirdv2/Common/Source/Drivers/hbirdv2_gpio.c:9
    gpio->IOFCFG |= mask;
800004d0:	8dd9                	or	a1,a1,a4
800004d2:	cfcc                	sw	a1,28(a5)
E:\NucleiStudio_Workspace\e203Whetstone_test\Debug/../hbird_sdk/SoC/hbirdv2/Common/Source/Drivers/hbirdv2_gpio.c:11
    return 0;
800004d4:	8082                	ret
E:\NucleiStudio_Workspace\e203Whetstone_test\Debug/../hbird_sdk/SoC/hbirdv2/Common/Source/Drivers/hbirdv2_gpio.c:7
        return -1;
800004d6:	557d                	li	a0,-1
E:\NucleiStudio_Workspace\e203Whetstone_test\Debug/../hbird_sdk/SoC/hbirdv2/Common/Source/Drivers/hbirdv2_gpio.c:12
}
800004d8:	8082                	ret

800004da <uart_init>:
uart_init():
E:\NucleiStudio_Workspace\e203Whetstone_test\Debug/../hbird_sdk/SoC/hbirdv2/Common/Source/Drivers/hbirdv2_uart.c:5
#include "hbirdv2.h"
#include "hbirdv2_uart.h"

int32_t uart_init(UART_TypeDef *uart, uint32_t baudrate)
{
800004da:	87aa                	mv	a5,a0
E:\NucleiStudio_Workspace\e203Whetstone_test\Debug/../hbird_sdk/SoC/hbirdv2/Common/Source/Drivers/hbirdv2_uart.c:6
    if (__RARELY(uart == NULL)) {
800004dc:	cd15                	beqz	a0,80000518 <uart_init+0x3e>
E:\NucleiStudio_Workspace\e203Whetstone_test\Debug/../hbird_sdk/SoC/hbirdv2/Common/Source/Drivers/hbirdv2_uart.c:10
        return -1;
    }

    unsigned int uart_div = SystemCoreClock / baudrate - 1;
800004de:	10000717          	auipc	a4,0x10000
800004e2:	cf672703          	lw	a4,-778(a4) # 900001d4 <SystemCoreClock>
800004e6:	02b755b3          	divu	a1,a4,a1
E:\NucleiStudio_Workspace\e203Whetstone_test\Debug/../hbird_sdk/SoC/hbirdv2/Common/Source/Drivers/hbirdv2_uart.c:11
    uart->LCR = 0x80;
800004ea:	08000293          	li	t0,128
800004ee:	00552623          	sw	t0,12(a0) # 1001300c <__stack_size+0x1001280c>
E:\NucleiStudio_Workspace\e203Whetstone_test\Debug/../hbird_sdk/SoC/hbirdv2/Common/Source/Drivers/hbirdv2_uart.c:14
    uart->DLM = (uart_div >> 8) & 0xFF;
    uart->DLL = uart_div        & 0xFF;
    uart->FCR = 0xC6;
800004f2:	0c600813          	li	a6,198
E:\NucleiStudio_Workspace\e203Whetstone_test\Debug/../hbird_sdk/SoC/hbirdv2/Common/Source/Drivers/hbirdv2_uart.c:15
    uart->LCR = 0x03;
800004f6:	488d                	li	a7,3
E:\NucleiStudio_Workspace\e203Whetstone_test\Debug/../hbird_sdk/SoC/hbirdv2/Common/Source/Drivers/hbirdv2_uart.c:17

    return 0;
800004f8:	4501                	li	a0,0
E:\NucleiStudio_Workspace\e203Whetstone_test\Debug/../hbird_sdk/SoC/hbirdv2/Common/Source/Drivers/hbirdv2_uart.c:10
    unsigned int uart_div = SystemCoreClock / baudrate - 1;
800004fa:	fff58313          	addi	t1,a1,-1
E:\NucleiStudio_Workspace\e203Whetstone_test\Debug/../hbird_sdk/SoC/hbirdv2/Common/Source/Drivers/hbirdv2_uart.c:12
    uart->DLM = (uart_div >> 8) & 0xFF;
800004fe:	00835393          	srli	t2,t1,0x8
80000502:	0ff3f613          	zext.b	a2,t2
80000506:	c3d0                	sw	a2,4(a5)
E:\NucleiStudio_Workspace\e203Whetstone_test\Debug/../hbird_sdk/SoC/hbirdv2/Common/Source/Drivers/hbirdv2_uart.c:13
    uart->DLL = uart_div        & 0xFF;
80000508:	0ff37693          	zext.b	a3,t1
8000050c:	c394                	sw	a3,0(a5)
E:\NucleiStudio_Workspace\e203Whetstone_test\Debug/../hbird_sdk/SoC/hbirdv2/Common/Source/Drivers/hbirdv2_uart.c:14
    uart->FCR = 0xC6;
8000050e:	0107a423          	sw	a6,8(a5)
E:\NucleiStudio_Workspace\e203Whetstone_test\Debug/../hbird_sdk/SoC/hbirdv2/Common/Source/Drivers/hbirdv2_uart.c:15
    uart->LCR = 0x03;
80000512:	0117a623          	sw	a7,12(a5)
E:\NucleiStudio_Workspace\e203Whetstone_test\Debug/../hbird_sdk/SoC/hbirdv2/Common/Source/Drivers/hbirdv2_uart.c:17
    return 0;
80000516:	8082                	ret
E:\NucleiStudio_Workspace\e203Whetstone_test\Debug/../hbird_sdk/SoC/hbirdv2/Common/Source/Drivers/hbirdv2_uart.c:7
        return -1;
80000518:	557d                	li	a0,-1
E:\NucleiStudio_Workspace\e203Whetstone_test\Debug/../hbird_sdk/SoC/hbirdv2/Common/Source/Drivers/hbirdv2_uart.c:18
}
8000051a:	8082                	ret

8000051c <uart_write>:
uart_write():
E:\NucleiStudio_Workspace\e203Whetstone_test\Debug/../hbird_sdk/SoC/hbirdv2/Common/Source/Drivers/hbirdv2_uart.c:68
    return 0;
}

int32_t uart_write(UART_TypeDef *uart, uint8_t val)
{
    if (__RARELY(uart == NULL)) {
8000051c:	c909                	beqz	a0,8000052e <uart_write+0x12>
E:\NucleiStudio_Workspace\e203Whetstone_test\Debug/../hbird_sdk/SoC/hbirdv2/Common/Source/Drivers/hbirdv2_uart.c:73 (discriminator 1)
        return -1;
    }
#ifndef SIMULATION_SPIKE
#ifndef SIMULATION_XLSPIKE
    while ((uart->LSR & 0x20) == 0);
8000051e:	495c                	lw	a5,20(a0)
80000520:	0207f293          	andi	t0,a5,32
80000524:	fe028de3          	beqz	t0,8000051e <uart_write+0x2>
E:\NucleiStudio_Workspace\e203Whetstone_test\Debug/../hbird_sdk/SoC/hbirdv2/Common/Source/Drivers/hbirdv2_uart.c:75
#endif
    uart->THR = val;
80000528:	c10c                	sw	a1,0(a0)
E:\NucleiStudio_Workspace\e203Whetstone_test\Debug/../hbird_sdk/SoC/hbirdv2/Common/Source/Drivers/hbirdv2_uart.c:80
#else
    extern void htif_putc(char ch);
    htif_putc(val);
#endif
    return 0;
8000052a:	4501                	li	a0,0
8000052c:	8082                	ret
E:\NucleiStudio_Workspace\e203Whetstone_test\Debug/../hbird_sdk/SoC/hbirdv2/Common/Source/Drivers/hbirdv2_uart.c:69
        return -1;
8000052e:	557d                	li	a0,-1
E:\NucleiStudio_Workspace\e203Whetstone_test\Debug/../hbird_sdk/SoC/hbirdv2/Common/Source/Drivers/hbirdv2_uart.c:81
}
80000530:	8082                	ret

80000532 <uart_read>:
uart_read():
E:\NucleiStudio_Workspace\e203Whetstone_test\Debug/../hbird_sdk/SoC/hbirdv2/Common/Source/Drivers/hbirdv2_uart.c:86

uint8_t uart_read(UART_TypeDef *uart)
{
    uint32_t reg;
    if (__RARELY(uart == NULL)) {
80000532:	c911                	beqz	a0,80000546 <uart_read+0x14>
E:\NucleiStudio_Workspace\e203Whetstone_test\Debug/../hbird_sdk/SoC/hbirdv2/Common/Source/Drivers/hbirdv2_uart.c:90 (discriminator 1)
        return -1;
    }
    
    while ((uart->LSR & 0x1) == 0);
80000534:	495c                	lw	a5,20(a0)
80000536:	0017f293          	andi	t0,a5,1
8000053a:	fe028de3          	beqz	t0,80000534 <uart_read+0x2>
E:\NucleiStudio_Workspace\e203Whetstone_test\Debug/../hbird_sdk/SoC/hbirdv2/Common/Source/Drivers/hbirdv2_uart.c:91
    reg = uart->RBR;
8000053e:	4108                	lw	a0,0(a0)
E:\NucleiStudio_Workspace\e203Whetstone_test\Debug/../hbird_sdk/SoC/hbirdv2/Common/Source/Drivers/hbirdv2_uart.c:93
    
    return (uint8_t)(reg & 0xFF);
80000540:	0ff57513          	zext.b	a0,a0
80000544:	8082                	ret
E:\NucleiStudio_Workspace\e203Whetstone_test\Debug/../hbird_sdk/SoC/hbirdv2/Common/Source/Drivers/hbirdv2_uart.c:87
        return -1;
80000546:	0ff00513          	li	a0,255
E:\NucleiStudio_Workspace\e203Whetstone_test\Debug/../hbird_sdk/SoC/hbirdv2/Common/Source/Drivers/hbirdv2_uart.c:94
}
8000054a:	8082                	ret

8000054c <get_cpu_freq>:
SysTimer_GetLoadValue():
E:\NucleiStudio_Workspace\e203Whetstone_test\hbird_sdk\NMSIS\Core\Include/core_feature_timer.h:106
 * - Load value is 64bits wide.
 * - \ref SysTimer_SetLoadValue
 */
__STATIC_FORCEINLINE uint64_t SysTimer_GetLoadValue(void)
{
    return SysTimer->MTIME;
8000054c:	0200c7b7          	lui	a5,0x200c
80000550:	ff87a683          	lw	a3,-8(a5) # 200bff8 <__stack_size+0x200b7f8>
80000554:	ffc7a783          	lw	a5,-4(a5)
get_cpu_freq():
E:\NucleiStudio_Workspace\e203Whetstone_test\Debug/../hbird_sdk/SoC/hbirdv2/Common/Source/hbirdv2_common.c:31
    return (delta_mcycle / delta_mtime) * mtime_freq
           + ((delta_mcycle % delta_mtime) * mtime_freq) / delta_mtime;
}

uint32_t get_cpu_freq(void)
{
80000558:	1141                	addi	sp,sp,-16
8000055a:	c606                	sw	ra,12(sp)
8000055c:	c422                	sw	s0,8(sp)
8000055e:	c226                	sw	s1,4(sp)
SysTimer_GetLoadValue():
E:\NucleiStudio_Workspace\e203Whetstone_test\hbird_sdk\NMSIS\Core\Include/core_feature_timer.h:106
80000560:	0200c637          	lui	a2,0x200c
measure_cpu_freq():
E:\NucleiStudio_Workspace\e203Whetstone_test\Debug/../hbird_sdk/SoC/hbirdv2/Common/Source/hbirdv2_common.c:15
    uint32_t tmp = (uint32_t)SysTimer_GetLoadValue();
80000564:	80b6                	mv	ra,a3
SysTimer_GetLoadValue():
E:\NucleiStudio_Workspace\e203Whetstone_test\hbird_sdk\NMSIS\Core\Include/core_feature_timer.h:106
80000566:	ff862703          	lw	a4,-8(a2) # 200bff8 <__stack_size+0x200b7f8>
8000056a:	ffc62783          	lw	a5,-4(a2)
measure_cpu_freq():
E:\NucleiStudio_Workspace\e203Whetstone_test\Debug/../hbird_sdk/SoC/hbirdv2/Common/Source/hbirdv2_common.c:18
        start_mcycle = __RV_CSR_READ(CSR_MCYCLE);
8000056e:	b00027f3          	csrr	a5,mcycle
E:\NucleiStudio_Workspace\e203Whetstone_test\Debug/../hbird_sdk/SoC/hbirdv2/Common/Source/hbirdv2_common.c:19
    } while (start_mtime == tmp);
80000572:	fee08ae3          	beq	ra,a4,80000566 <get_cpu_freq+0x1a>
SysTimer_GetLoadValue():
E:\NucleiStudio_Workspace\e203Whetstone_test\hbird_sdk\NMSIS\Core\Include/core_feature_timer.h:106
80000576:	0200c2b7          	lui	t0,0x200c
8000057a:	ff82a583          	lw	a1,-8(t0) # 200bff8 <__stack_size+0x200b7f8>
8000057e:	ffc2a603          	lw	a2,-4(t0)
measure_cpu_freq():
E:\NucleiStudio_Workspace\e203Whetstone_test\Debug/../hbird_sdk/SoC/hbirdv2/Common/Source/hbirdv2_common.c:23
        delta_mcycle = __RV_CSR_READ(CSR_MCYCLE) - start_mcycle;
80000582:	b00026f3          	csrr	a3,mcycle
E:\NucleiStudio_Workspace\e203Whetstone_test\Debug/../hbird_sdk/SoC/hbirdv2/Common/Source/hbirdv2_common.c:24
    } while (delta_mtime < n);
80000586:	feb70ae3          	beq	a4,a1,8000057a <get_cpu_freq+0x2e>
SysTimer_GetLoadValue():
E:\NucleiStudio_Workspace\e203Whetstone_test\hbird_sdk\NMSIS\Core\Include/core_feature_timer.h:106
8000058a:	ff82a683          	lw	a3,-8(t0)
8000058e:	ffc2a783          	lw	a5,-4(t0)
80000592:	0200c337          	lui	t1,0x200c
measure_cpu_freq():
E:\NucleiStudio_Workspace\e203Whetstone_test\Debug/../hbird_sdk/SoC/hbirdv2/Common/Source/hbirdv2_common.c:15
    uint32_t tmp = (uint32_t)SysTimer_GetLoadValue();
80000596:	83b6                	mv	t2,a3
SysTimer_GetLoadValue():
E:\NucleiStudio_Workspace\e203Whetstone_test\hbird_sdk\NMSIS\Core\Include/core_feature_timer.h:106
80000598:	ff832803          	lw	a6,-8(t1) # 200bff8 <__stack_size+0x200b7f8>
8000059c:	ffc32783          	lw	a5,-4(t1)
measure_cpu_freq():
E:\NucleiStudio_Workspace\e203Whetstone_test\Debug/../hbird_sdk/SoC/hbirdv2/Common/Source/hbirdv2_common.c:18
        start_mcycle = __RV_CSR_READ(CSR_MCYCLE);
800005a0:	b00024f3          	csrr	s1,mcycle
E:\NucleiStudio_Workspace\e203Whetstone_test\Debug/../hbird_sdk/SoC/hbirdv2/Common/Source/hbirdv2_common.c:19
    } while (start_mtime == tmp);
800005a4:	ff038ae3          	beq	t2,a6,80000598 <get_cpu_freq+0x4c>
SysTimer_GetLoadValue():
E:\NucleiStudio_Workspace\e203Whetstone_test\hbird_sdk\NMSIS\Core\Include/core_feature_timer.h:106
800005a8:	0200c537          	lui	a0,0x200c
measure_cpu_freq():
E:\NucleiStudio_Workspace\e203Whetstone_test\Debug/../hbird_sdk/SoC/hbirdv2/Common/Source/hbirdv2_common.c:24
    } while (delta_mtime < n);
800005ac:	06300893          	li	a7,99
SysTimer_GetLoadValue():
E:\NucleiStudio_Workspace\e203Whetstone_test\hbird_sdk\NMSIS\Core\Include/core_feature_timer.h:106
800005b0:	ff852403          	lw	s0,-8(a0) # 200bff8 <__stack_size+0x200b7f8>
800005b4:	ffc52683          	lw	a3,-4(a0)
measure_cpu_freq():
E:\NucleiStudio_Workspace\e203Whetstone_test\Debug/../hbird_sdk/SoC/hbirdv2/Common/Source/hbirdv2_common.c:22
        delta_mtime = (uint32_t)SysTimer_GetLoadValue() - start_mtime;
800005b8:	41040433          	sub	s0,s0,a6
E:\NucleiStudio_Workspace\e203Whetstone_test\Debug/../hbird_sdk/SoC/hbirdv2/Common/Source/hbirdv2_common.c:23
        delta_mcycle = __RV_CSR_READ(CSR_MCYCLE) - start_mcycle;
800005bc:	b0002e73          	csrr	t3,mcycle
E:\NucleiStudio_Workspace\e203Whetstone_test\Debug/../hbird_sdk/SoC/hbirdv2/Common/Source/hbirdv2_common.c:24
    } while (delta_mtime < n);
800005c0:	fe88f8e3          	bgeu	a7,s0,800005b0 <get_cpu_freq+0x64>
E:\NucleiStudio_Workspace\e203Whetstone_test\Debug/../hbird_sdk/SoC/hbirdv2/Common/Source/hbirdv2_common.c:23
        delta_mcycle = __RV_CSR_READ(CSR_MCYCLE) - start_mcycle;
800005c4:	409e04b3          	sub	s1,t3,s1
E:\NucleiStudio_Workspace\e203Whetstone_test\Debug/../hbird_sdk/SoC/hbirdv2/Common/Source/hbirdv2_common.c:27
           + ((delta_mcycle % delta_mtime) * mtime_freq) / delta_mtime;
800005c8:	0284feb3          	remu	t4,s1,s0
800005cc:	8622                	mv	a2,s0
800005ce:	4681                	li	a3,0
800005d0:	00fe9513          	slli	a0,t4,0xf
800005d4:	011ed593          	srli	a1,t4,0x11
800005d8:	241020ef          	jal	ra,80003018 <__udivdi3>
E:\NucleiStudio_Workspace\e203Whetstone_test\Debug/../hbird_sdk/SoC/hbirdv2/Common/Source/hbirdv2_common.c:26
    return (delta_mcycle / delta_mtime) * mtime_freq
800005dc:	0284df33          	divu	t5,s1,s0
get_cpu_freq():
E:\NucleiStudio_Workspace\e203Whetstone_test\Debug/../hbird_sdk/SoC/hbirdv2/Common/Source/hbirdv2_common.c:40
    measure_cpu_freq(1);
    // measure for real
    cpu_freq = measure_cpu_freq(100);

    return cpu_freq;
}
800005e0:	40b2                	lw	ra,12(sp)
800005e2:	4422                	lw	s0,8(sp)
800005e4:	4492                	lw	s1,4(sp)
800005e6:	0141                	addi	sp,sp,16
measure_cpu_freq():
E:\NucleiStudio_Workspace\e203Whetstone_test\Debug/../hbird_sdk/SoC/hbirdv2/Common/Source/hbirdv2_common.c:27
           + ((delta_mcycle % delta_mtime) * mtime_freq) / delta_mtime;
800005e8:	00ff1f93          	slli	t6,t5,0xf
get_cpu_freq():
E:\NucleiStudio_Workspace\e203Whetstone_test\Debug/../hbird_sdk/SoC/hbirdv2/Common/Source/hbirdv2_common.c:40
}
800005ec:	957e                	add	a0,a0,t6
800005ee:	8082                	ret

800005f0 <system_default_exception_handler>:
system_default_exception_handler():
E:\NucleiStudio_Workspace\e203Whetstone_test\Debug/../hbird_sdk/SoC/hbirdv2/Common/Source/system_hbirdv2.c:168
 * \details
 * This function provided a default exception handling code for all exception ids.
 * By default, It will just print some information for debug, Vendor can customize it according to its requirements.
 */
static void system_default_exception_handler(unsigned long mcause, unsigned long sp)
{
800005f0:	1141                	addi	sp,sp,-16
800005f2:	c422                	sw	s0,8(sp)
800005f4:	842a                	mv	s0,a0
E:\NucleiStudio_Workspace\e203Whetstone_test\Debug/../hbird_sdk/SoC/hbirdv2/Common/Source/system_hbirdv2.c:170
    /* TODO: Uncomment this if you have implement printf function */
    printf("Trap in Exception\r\n");
800005f6:	00009517          	auipc	a0,0x9
800005fa:	8ea50513          	addi	a0,a0,-1814 # 80008ee0 <__trunctfdf2+0x388>
E:\NucleiStudio_Workspace\e203Whetstone_test\Debug/../hbird_sdk/SoC/hbirdv2/Common/Source/system_hbirdv2.c:168
{
800005fe:	c606                	sw	ra,12(sp)
E:\NucleiStudio_Workspace\e203Whetstone_test\Debug/../hbird_sdk/SoC/hbirdv2/Common/Source/system_hbirdv2.c:170
    printf("Trap in Exception\r\n");
80000600:	2f3040ef          	jal	ra,800050f2 <puts>
E:\NucleiStudio_Workspace\e203Whetstone_test\Debug/../hbird_sdk/SoC/hbirdv2/Common/Source/system_hbirdv2.c:171
    printf("MCAUSE: 0x%lx\r\n", mcause);
80000604:	85a2                	mv	a1,s0
80000606:	00009517          	auipc	a0,0x9
8000060a:	8ee50513          	addi	a0,a0,-1810 # 80008ef4 <__trunctfdf2+0x39c>
8000060e:	199040ef          	jal	ra,80004fa6 <iprintf>
E:\NucleiStudio_Workspace\e203Whetstone_test\Debug/../hbird_sdk/SoC/hbirdv2/Common/Source/system_hbirdv2.c:172
    printf("MEPC  : 0x%lx\r\n", __RV_CSR_READ(CSR_MEPC));
80000612:	341025f3          	csrr	a1,mepc
80000616:	00009517          	auipc	a0,0x9
8000061a:	8ee50513          	addi	a0,a0,-1810 # 80008f04 <__trunctfdf2+0x3ac>
8000061e:	189040ef          	jal	ra,80004fa6 <iprintf>
E:\NucleiStudio_Workspace\e203Whetstone_test\Debug/../hbird_sdk/SoC/hbirdv2/Common/Source/system_hbirdv2.c:173
    printf("MTVAL : 0x%lx\r\n", __RV_CSR_READ(CSR_MBADADDR));
80000622:	343025f3          	csrr	a1,mtval
80000626:	00009517          	auipc	a0,0x9
8000062a:	8ee50513          	addi	a0,a0,-1810 # 80008f14 <__trunctfdf2+0x3bc>
8000062e:	179040ef          	jal	ra,80004fa6 <iprintf>
E:\NucleiStudio_Workspace\e203Whetstone_test\Debug/../hbird_sdk/SoC/hbirdv2/Common/Source/system_hbirdv2.c:174 (discriminator 1)
    while(1);
80000632:	a001                	j	80000632 <system_default_exception_handler+0x42>

80000634 <system_default_interrupt_handler>:
system_default_interrupt_handler():
E:\NucleiStudio_Workspace\e203Whetstone_test\Debug/../hbird_sdk/SoC/hbirdv2/Common/Source/system_hbirdv2.c:183
 * \brief      System Default Interrupt Handler
 * \details
 * This function provided a default interrupt handling code for all interrupt ids.
 */
static void system_default_interrupt_handler(unsigned long mcause, unsigned long sp)
{
80000634:	1141                	addi	sp,sp,-16
80000636:	c422                	sw	s0,8(sp)
80000638:	842a                	mv	s0,a0
E:\NucleiStudio_Workspace\e203Whetstone_test\Debug/../hbird_sdk/SoC/hbirdv2/Common/Source/system_hbirdv2.c:185
    /* TODO: Uncomment this if you have implement printf function */
    printf("Trap in Interrupt\r\n");
8000063a:	00009517          	auipc	a0,0x9
8000063e:	8ea50513          	addi	a0,a0,-1814 # 80008f24 <__trunctfdf2+0x3cc>
E:\NucleiStudio_Workspace\e203Whetstone_test\Debug/../hbird_sdk/SoC/hbirdv2/Common/Source/system_hbirdv2.c:183
{
80000642:	c606                	sw	ra,12(sp)
E:\NucleiStudio_Workspace\e203Whetstone_test\Debug/../hbird_sdk/SoC/hbirdv2/Common/Source/system_hbirdv2.c:185
    printf("Trap in Interrupt\r\n");
80000644:	2af040ef          	jal	ra,800050f2 <puts>
E:\NucleiStudio_Workspace\e203Whetstone_test\Debug/../hbird_sdk/SoC/hbirdv2/Common/Source/system_hbirdv2.c:186
    printf("MCAUSE: 0x%lx\r\n", mcause);
80000648:	85a2                	mv	a1,s0
8000064a:	00009517          	auipc	a0,0x9
8000064e:	8aa50513          	addi	a0,a0,-1878 # 80008ef4 <__trunctfdf2+0x39c>
80000652:	155040ef          	jal	ra,80004fa6 <iprintf>
E:\NucleiStudio_Workspace\e203Whetstone_test\Debug/../hbird_sdk/SoC/hbirdv2/Common/Source/system_hbirdv2.c:187
    printf("MEPC  : 0x%lx\r\n", __RV_CSR_READ(CSR_MEPC));
80000656:	341025f3          	csrr	a1,mepc
8000065a:	00009517          	auipc	a0,0x9
8000065e:	8aa50513          	addi	a0,a0,-1878 # 80008f04 <__trunctfdf2+0x3ac>
80000662:	145040ef          	jal	ra,80004fa6 <iprintf>
E:\NucleiStudio_Workspace\e203Whetstone_test\Debug/../hbird_sdk/SoC/hbirdv2/Common/Source/system_hbirdv2.c:188
    printf("MTVAL : 0x%lx\r\n", __RV_CSR_READ(CSR_MBADADDR));
80000666:	343025f3          	csrr	a1,mtval
E:\NucleiStudio_Workspace\e203Whetstone_test\Debug/../hbird_sdk/SoC/hbirdv2/Common/Source/system_hbirdv2.c:189
}
8000066a:	4422                	lw	s0,8(sp)
8000066c:	40b2                	lw	ra,12(sp)
E:\NucleiStudio_Workspace\e203Whetstone_test\Debug/../hbird_sdk/SoC/hbirdv2/Common/Source/system_hbirdv2.c:188
    printf("MTVAL : 0x%lx\r\n", __RV_CSR_READ(CSR_MBADADDR));
8000066e:	00009517          	auipc	a0,0x9
80000672:	8a650513          	addi	a0,a0,-1882 # 80008f14 <__trunctfdf2+0x3bc>
E:\NucleiStudio_Workspace\e203Whetstone_test\Debug/../hbird_sdk/SoC/hbirdv2/Common/Source/system_hbirdv2.c:189
}
80000676:	0141                	addi	sp,sp,16
E:\NucleiStudio_Workspace\e203Whetstone_test\Debug/../hbird_sdk/SoC/hbirdv2/Common/Source/system_hbirdv2.c:188
    printf("MTVAL : 0x%lx\r\n", __RV_CSR_READ(CSR_MBADADDR));
80000678:	12f0406f          	j	80004fa6 <iprintf>

8000067c <SystemInit>:
SystemInit():
E:\NucleiStudio_Workspace\e203Whetstone_test\Debug/../hbird_sdk/SoC/hbirdv2/Common/Source/system_hbirdv2.c:125
    SystemCoreClock = SYSTEM_CLOCK;
8000067c:	04c4b7b7          	lui	a5,0x4c4b
80000680:	40078293          	addi	t0,a5,1024 # 4c4b400 <__stack_size+0x4c4ac00>
80000684:	10000717          	auipc	a4,0x10000
80000688:	b4572823          	sw	t0,-1200(a4) # 900001d4 <SystemCoreClock>
E:\NucleiStudio_Workspace\e203Whetstone_test\Debug/../hbird_sdk/SoC/hbirdv2/Common/Source/system_hbirdv2.c:126
}
8000068c:	8082                	ret

8000068e <core_trap_handler>:
core_trap_handler():
E:\NucleiStudio_Workspace\e203Whetstone_test\Debug/../hbird_sdk/SoC/hbirdv2/Common/Source/system_hbirdv2.c:322
 * - If you want to register core exception handler, please use \ref Exception_Register_EXC
 * - If you want to register core interrupt handler, please use \ref Interrupt_Register_CoreIRQ
 * - If you want to register external interrupt handler, please use \ref Interrupt_Register_ExtIRQ
 */
uint32_t core_trap_handler(unsigned long mcause, unsigned long sp)
{
8000068e:	1141                	addi	sp,sp,-16
80000690:	c606                	sw	ra,12(sp)
E:\NucleiStudio_Workspace\e203Whetstone_test\Debug/../hbird_sdk/SoC/hbirdv2/Common/Source/system_hbirdv2.c:325
    if (mcause & MCAUSE_INTERRUPT) {
        INT_HANDLER int_handler = NULL;
        uint32_t irqn = (uint32_t)(mcause & 0X00000fff);
80000692:	01451793          	slli	a5,a0,0x14
E:\NucleiStudio_Workspace\e203Whetstone_test\Debug/../hbird_sdk/SoC/hbirdv2/Common/Source/system_hbirdv2.c:322
{
80000696:	c422                	sw	s0,8(sp)
E:\NucleiStudio_Workspace\e203Whetstone_test\Debug/../hbird_sdk/SoC/hbirdv2/Common/Source/system_hbirdv2.c:325
        uint32_t irqn = (uint32_t)(mcause & 0X00000fff);
80000698:	0147d093          	srli	ra,a5,0x14
E:\NucleiStudio_Workspace\e203Whetstone_test\Debug/../hbird_sdk/SoC/hbirdv2/Common/Source/system_hbirdv2.c:323
    if (mcause & MCAUSE_INTERRUPT) {
8000069c:	04054263          	bltz	a0,800006e0 <core_trap_handler+0x52>
core_exception_handler():
E:\NucleiStudio_Workspace\e203Whetstone_test\Debug/../hbird_sdk/SoC/hbirdv2/Common/Source/system_hbirdv2.c:365
static uint32_t core_exception_handler(unsigned long mcause, unsigned long sp)
{
    uint32_t EXCn = (uint32_t)(mcause & 0X00000fff);
    EXC_HANDLER exc_handler;

    if ((EXCn < MAX_SYSTEM_EXCEPTION_NUM) && (EXCn >= 0)) {
800006a0:	4629                	li	a2,10
800006a2:	872a                	mv	a4,a0
800006a4:	86ae                	mv	a3,a1
800006a6:	00167e63          	bgeu	a2,ra,800006c2 <core_trap_handler+0x34>
E:\NucleiStudio_Workspace\e203Whetstone_test\Debug/../hbird_sdk/SoC/hbirdv2/Common/Source/system_hbirdv2.c:368
        exc_handler = (EXC_HANDLER)SystemExceptionHandlers[EXCn];
    } else {
        exc_handler = (EXC_HANDLER)system_default_exception_handler;
800006aa:	00000317          	auipc	t1,0x0
800006ae:	f4630313          	addi	t1,t1,-186 # 800005f0 <system_default_exception_handler>
E:\NucleiStudio_Workspace\e203Whetstone_test\Debug/../hbird_sdk/SoC/hbirdv2/Common/Source/system_hbirdv2.c:371
    }
    if (exc_handler != NULL) {
        exc_handler(mcause, sp);
800006b2:	85b6                	mv	a1,a3
800006b4:	853a                	mv	a0,a4
800006b6:	9302                	jalr	t1
core_trap_handler():
E:\NucleiStudio_Workspace\e203Whetstone_test\Debug/../hbird_sdk/SoC/hbirdv2/Common/Source/system_hbirdv2.c:347
}
800006b8:	40b2                	lw	ra,12(sp)
800006ba:	4422                	lw	s0,8(sp)
800006bc:	4501                	li	a0,0
800006be:	0141                	addi	sp,sp,16
800006c0:	8082                	ret
core_exception_handler():
E:\NucleiStudio_Workspace\e203Whetstone_test\Debug/../hbird_sdk/SoC/hbirdv2/Common/Source/system_hbirdv2.c:366
        exc_handler = (EXC_HANDLER)SystemExceptionHandlers[EXCn];
800006c2:	00209293          	slli	t0,ra,0x2
800006c6:	a4418393          	addi	t2,gp,-1468 # 90000414 <SystemExceptionHandlers>
800006ca:	00538433          	add	s0,t2,t0
800006ce:	00042303          	lw	t1,0(s0)
E:\NucleiStudio_Workspace\e203Whetstone_test\Debug/../hbird_sdk/SoC/hbirdv2/Common/Source/system_hbirdv2.c:370
    if (exc_handler != NULL) {
800006d2:	fe0310e3          	bnez	t1,800006b2 <core_trap_handler+0x24>
core_trap_handler():
E:\NucleiStudio_Workspace\e203Whetstone_test\Debug/../hbird_sdk/SoC/hbirdv2/Common/Source/system_hbirdv2.c:347
}
800006d6:	40b2                	lw	ra,12(sp)
800006d8:	4422                	lw	s0,8(sp)
800006da:	4501                	li	a0,0
800006dc:	0141                	addi	sp,sp,16
800006de:	8082                	ret
E:\NucleiStudio_Workspace\e203Whetstone_test\Debug/../hbird_sdk/SoC/hbirdv2/Common/Source/system_hbirdv2.c:326
        if (irqn == IRQ_M_EXT) {
800006e0:	482d                	li	a6,11
800006e2:	01008d63          	beq	ra,a6,800006fc <core_trap_handler+0x6e>
E:\NucleiStudio_Workspace\e203Whetstone_test\Debug/../hbird_sdk/SoC/hbirdv2/Common/Source/system_hbirdv2.c:338
            int_handler = (INT_HANDLER)(SystemCoreInterruptHandlers[irqn]);
800006e6:	00209893          	slli	a7,ra,0x2
800006ea:	a1c18e13          	addi	t3,gp,-1508 # 900003ec <SystemCoreInterruptHandlers>
800006ee:	011e0eb3          	add	t4,t3,a7
800006f2:	000ea303          	lw	t1,0(t4)
E:\NucleiStudio_Workspace\e203Whetstone_test\Debug/../hbird_sdk/SoC/hbirdv2/Common/Source/system_hbirdv2.c:339
            if (int_handler != NULL) {
800006f6:	fc0310e3          	bnez	t1,800006b6 <core_trap_handler+0x28>
800006fa:	bf7d                	j	800006b8 <core_trap_handler+0x2a>
PLIC_ClaimInterrupt():
E:\NucleiStudio_Workspace\e203Whetstone_test\hbird_sdk\NMSIS\Core\Include/core_feature_plic.h:273
 * \sa
 * - \ref PLIC_CompleteInterrupt
 */
__STATIC_FORCEINLINE uint32_t PLIC_ClaimInterrupt(void)
{
    uint32_t hartid = __RV_CSR_READ(CSR_MHARTID);
800006fc:	f1402f73          	csrr	t5,mhartid
E:\NucleiStudio_Workspace\e203Whetstone_test\hbird_sdk\NMSIS\Core\Include/core_feature_plic.h:274
    volatile uint32_t *claim_reg = (uint32_t *)((PLIC_BASE) + PLIC_CLAIM_OFFSET + \
80000700:	0c2007b7          	lui	a5,0xc200
E:\NucleiStudio_Workspace\e203Whetstone_test\hbird_sdk\NMSIS\Core\Include/core_feature_plic.h:275
                    + (hartid << PLIC_CLAIM_SHIFT_PER_TARGET));
80000704:	00cf1f93          	slli	t6,t5,0xc
E:\NucleiStudio_Workspace\e203Whetstone_test\hbird_sdk\NMSIS\Core\Include/core_feature_plic.h:274
    volatile uint32_t *claim_reg = (uint32_t *)((PLIC_BASE) + PLIC_CLAIM_OFFSET + \
80000708:	00478093          	addi	ra,a5,4 # c200004 <__stack_size+0xc1ff804>
8000070c:	001f8733          	add	a4,t6,ra
E:\NucleiStudio_Workspace\e203Whetstone_test\hbird_sdk\NMSIS\Core\Include/core_feature_plic.h:277

    return (*claim_reg);
80000710:	4300                	lw	s0,0(a4)
core_trap_handler():
E:\NucleiStudio_Workspace\e203Whetstone_test\Debug/../hbird_sdk/SoC/hbirdv2/Common/Source/system_hbirdv2.c:329
            if (irqn < __PLIC_INTNUM) {
80000712:	46c1                	li	a3,16
80000714:	fa86e2e3          	bltu	a3,s0,800006b8 <core_trap_handler+0x2a>
E:\NucleiStudio_Workspace\e203Whetstone_test\Debug/../hbird_sdk/SoC/hbirdv2/Common/Source/system_hbirdv2.c:330
                int_handler = (INT_HANDLER)(SystemExtInterruptHandlers[irqn]);
80000718:	00241613          	slli	a2,s0,0x2
8000071c:	a7018313          	addi	t1,gp,-1424 # 90000440 <SystemExtInterruptHandlers>
80000720:	00c302b3          	add	t0,t1,a2
80000724:	0002a383          	lw	t2,0(t0)
E:\NucleiStudio_Workspace\e203Whetstone_test\Debug/../hbird_sdk/SoC/hbirdv2/Common/Source/system_hbirdv2.c:331
                if (int_handler != NULL) {
80000728:	00038363          	beqz	t2,8000072e <core_trap_handler+0xa0>
E:\NucleiStudio_Workspace\e203Whetstone_test\Debug/../hbird_sdk/SoC/hbirdv2/Common/Source/system_hbirdv2.c:332
                    int_handler(mcause, sp);
8000072c:	9382                	jalr	t2
PLIC_CompleteInterrupt():
E:\NucleiStudio_Workspace\e203Whetstone_test\hbird_sdk\NMSIS\Core\Include/core_feature_plic.h:298
 * \sa
 * - \ref PLIC_ClaimInterrupt
 */
__STATIC_FORCEINLINE void PLIC_CompleteInterrupt(uint32_t source)
{
    uint32_t hartid = __RV_CSR_READ(CSR_MHARTID);
8000072e:	f1402573          	csrr	a0,mhartid
E:\NucleiStudio_Workspace\e203Whetstone_test\hbird_sdk\NMSIS\Core\Include/core_feature_plic.h:299
    volatile uint32_t *complete_reg = (uint32_t *)((PLIC_BASE) + PLIC_CLAIM_OFFSET + \
80000732:	0c200837          	lui	a6,0xc200
E:\NucleiStudio_Workspace\e203Whetstone_test\hbird_sdk\NMSIS\Core\Include/core_feature_plic.h:300
                    + (hartid << PLIC_CLAIM_SHIFT_PER_TARGET));
80000736:	00c51593          	slli	a1,a0,0xc
E:\NucleiStudio_Workspace\e203Whetstone_test\hbird_sdk\NMSIS\Core\Include/core_feature_plic.h:299
    volatile uint32_t *complete_reg = (uint32_t *)((PLIC_BASE) + PLIC_CLAIM_OFFSET + \
8000073a:	00480893          	addi	a7,a6,4 # c200004 <__stack_size+0xc1ff804>
8000073e:	01158e33          	add	t3,a1,a7
E:\NucleiStudio_Workspace\e203Whetstone_test\hbird_sdk\NMSIS\Core\Include/core_feature_plic.h:302

    *complete_reg = source;
80000742:	008e2023          	sw	s0,0(t3)
E:\NucleiStudio_Workspace\e203Whetstone_test\hbird_sdk\NMSIS\Core\Include/core_feature_plic.h:303
}
80000746:	bf8d                	j	800006b8 <core_trap_handler+0x2a>

80000748 <_premain_init>:
_premain_init():
E:\NucleiStudio_Workspace\e203Whetstone_test\Debug/../hbird_sdk/SoC/hbirdv2/Common/Source/system_hbirdv2.c:464
 * For RISC-V gnu toolchain, _init function might not be called
 * by __libc_init_array function, so we defined a new function
 * to do initialization
 */
void _premain_init(void)
{
80000748:	1141                	addi	sp,sp,-16
8000074a:	c606                	sw	ra,12(sp)
8000074c:	c422                	sw	s0,8(sp)
E:\NucleiStudio_Workspace\e203Whetstone_test\Debug/../hbird_sdk/SoC/hbirdv2/Common/Source/system_hbirdv2.c:466
    /* TODO: Add your own initialization code here, called before main */
    SystemCoreClock = get_cpu_freq();
8000074e:	3bfd                	jal	8000054c <get_cpu_freq>
80000750:	87aa                	mv	a5,a0
80000752:	10000417          	auipc	s0,0x10000
80000756:	a8240413          	addi	s0,s0,-1406 # 900001d4 <SystemCoreClock>
E:\NucleiStudio_Workspace\e203Whetstone_test\Debug/../hbird_sdk/SoC/hbirdv2/Common/Source/system_hbirdv2.c:468
#if ! defined(SIMULATION_SPIKE) && ! defined(SIMULATION_XLSPIKE)
    gpio_iof_config(GPIOA, IOF_UART_MASK);
8000075a:	000305b7          	lui	a1,0x30
8000075e:	10012537          	lui	a0,0x10012
E:\NucleiStudio_Workspace\e203Whetstone_test\Debug/../hbird_sdk/SoC/hbirdv2/Common/Source/system_hbirdv2.c:466
    SystemCoreClock = get_cpu_freq();
80000762:	c01c                	sw	a5,0(s0)
E:\NucleiStudio_Workspace\e203Whetstone_test\Debug/../hbird_sdk/SoC/hbirdv2/Common/Source/system_hbirdv2.c:468
    gpio_iof_config(GPIOA, IOF_UART_MASK);
80000764:	3395                	jal	800004c8 <gpio_iof_config>
E:\NucleiStudio_Workspace\e203Whetstone_test\Debug/../hbird_sdk/SoC/hbirdv2/Common/Source/system_hbirdv2.c:469
    uart_init(SOC_DEBUG_UART, 115200);
80000766:	65f1                	lui	a1,0x1c
80000768:	20058593          	addi	a1,a1,512 # 1c200 <__stack_size+0x1ba00>
8000076c:	10013537          	lui	a0,0x10013
80000770:	33ad                	jal	800004da <uart_init>
SystemBannerPrint():
E:\NucleiStudio_Workspace\e203Whetstone_test\Debug/../hbird_sdk/SoC/hbirdv2/Common/Source/system_hbirdv2.c:381
    printf("HummingBird SDK Build Time: %s, %s\r\n", __DATE__, __TIME__);
80000772:	00008617          	auipc	a2,0x8
80000776:	7c660613          	addi	a2,a2,1990 # 80008f38 <__trunctfdf2+0x3e0>
8000077a:	00008597          	auipc	a1,0x8
8000077e:	7ca58593          	addi	a1,a1,1994 # 80008f44 <__trunctfdf2+0x3ec>
80000782:	00008517          	auipc	a0,0x8
80000786:	7ce50513          	addi	a0,a0,1998 # 80008f50 <__trunctfdf2+0x3f8>
8000078a:	01d040ef          	jal	ra,80004fa6 <iprintf>
E:\NucleiStudio_Workspace\e203Whetstone_test\Debug/../hbird_sdk/SoC/hbirdv2/Common/Source/system_hbirdv2.c:383
    printf("Download Mode: %s\r\n", DOWNLOAD_MODE_STRING);
8000078e:	00008597          	auipc	a1,0x8
80000792:	7ea58593          	addi	a1,a1,2026 # 80008f78 <__trunctfdf2+0x420>
80000796:	00008517          	auipc	a0,0x8
8000079a:	7e650513          	addi	a0,a0,2022 # 80008f7c <__trunctfdf2+0x424>
8000079e:	009040ef          	jal	ra,80004fa6 <iprintf>
E:\NucleiStudio_Workspace\e203Whetstone_test\Debug/../hbird_sdk/SoC/hbirdv2/Common/Source/system_hbirdv2.c:385
    printf("CPU Frequency %lu Hz\r\n", SystemCoreClock);
800007a2:	400c                	lw	a1,0(s0)
800007a4:	00008517          	auipc	a0,0x8
800007a8:	7ec50513          	addi	a0,a0,2028 # 80008f90 <__trunctfdf2+0x438>
800007ac:	7fa040ef          	jal	ra,80004fa6 <iprintf>
Interrupt_Init():
E:\NucleiStudio_Workspace\e203Whetstone_test\Debug/../hbird_sdk/SoC/hbirdv2/Common/Source/system_hbirdv2.c:216
        SystemExtInterruptHandlers[i] = (unsigned long)system_default_interrupt_handler;
800007b0:	00000297          	auipc	t0,0x0
800007b4:	e8428293          	addi	t0,t0,-380 # 80000634 <system_default_interrupt_handler>
800007b8:	a7018713          	addi	a4,gp,-1424 # 90000440 <SystemExtInterruptHandlers>
Exception_Init():
E:\NucleiStudio_Workspace\e203Whetstone_test\Debug/../hbird_sdk/SoC/hbirdv2/Common/Source/system_hbirdv2.c:201
        SystemExceptionHandlers[i] = (unsigned long)system_default_exception_handler;
800007bc:	00000617          	auipc	a2,0x0
800007c0:	e3460613          	addi	a2,a2,-460 # 800005f0 <system_default_exception_handler>
800007c4:	a4418693          	addi	a3,gp,-1468 # 90000414 <SystemExceptionHandlers>
Interrupt_Init():
E:\NucleiStudio_Workspace\e203Whetstone_test\Debug/../hbird_sdk/SoC/hbirdv2/Common/Source/system_hbirdv2.c:219
        SystemCoreInterruptHandlers[i] = (unsigned long)system_default_interrupt_handler;
800007c8:	a1c18313          	addi	t1,gp,-1508 # 900003ec <SystemCoreInterruptHandlers>
Exception_Init():
E:\NucleiStudio_Workspace\e203Whetstone_test\Debug/../hbird_sdk/SoC/hbirdv2/Common/Source/system_hbirdv2.c:201
        SystemExceptionHandlers[i] = (unsigned long)system_default_exception_handler;
800007cc:	c290                	sw	a2,0(a3)
800007ce:	c2d0                	sw	a2,4(a3)
800007d0:	c690                	sw	a2,8(a3)
800007d2:	c6d0                	sw	a2,12(a3)
800007d4:	ca90                	sw	a2,16(a3)
800007d6:	cad0                	sw	a2,20(a3)
800007d8:	ce90                	sw	a2,24(a3)
800007da:	ced0                	sw	a2,28(a3)
800007dc:	d290                	sw	a2,32(a3)
800007de:	d2d0                	sw	a2,36(a3)
800007e0:	d690                	sw	a2,40(a3)
Interrupt_Init():
E:\NucleiStudio_Workspace\e203Whetstone_test\Debug/../hbird_sdk/SoC/hbirdv2/Common/Source/system_hbirdv2.c:216
        SystemExtInterruptHandlers[i] = (unsigned long)system_default_interrupt_handler;
800007e2:	00572023          	sw	t0,0(a4)
800007e6:	00572223          	sw	t0,4(a4)
800007ea:	00572423          	sw	t0,8(a4)
800007ee:	00572623          	sw	t0,12(a4)
800007f2:	00572823          	sw	t0,16(a4)
800007f6:	00572a23          	sw	t0,20(a4)
800007fa:	00572c23          	sw	t0,24(a4)
800007fe:	00572e23          	sw	t0,28(a4)
80000802:	02572023          	sw	t0,32(a4)
80000806:	02572223          	sw	t0,36(a4)
8000080a:	02572423          	sw	t0,40(a4)
8000080e:	02572623          	sw	t0,44(a4)
80000812:	02572823          	sw	t0,48(a4)
80000816:	02572a23          	sw	t0,52(a4)
8000081a:	02572c23          	sw	t0,56(a4)
8000081e:	02572e23          	sw	t0,60(a4)
80000822:	04572023          	sw	t0,64(a4)
E:\NucleiStudio_Workspace\e203Whetstone_test\Debug/../hbird_sdk/SoC/hbirdv2/Common/Source/system_hbirdv2.c:219
        SystemCoreInterruptHandlers[i] = (unsigned long)system_default_interrupt_handler;
80000826:	00532023          	sw	t0,0(t1)
8000082a:	00532223          	sw	t0,4(t1)
8000082e:	00532423          	sw	t0,8(t1)
80000832:	00532623          	sw	t0,12(t1)
80000836:	00532823          	sw	t0,16(t1)
8000083a:	00532a23          	sw	t0,20(t1)
8000083e:	00532c23          	sw	t0,24(t1)
80000842:	00532e23          	sw	t0,28(t1)
80000846:	02532023          	sw	t0,32(t1)
8000084a:	02532223          	sw	t0,36(t1)
PLIC_DisableInterrupt():
E:\NucleiStudio_Workspace\e203Whetstone_test\hbird_sdk\NMSIS\Core\Include/core_feature_plic.h:191
    uint32_t hartid = __RV_CSR_READ(CSR_MHARTID);
8000084e:	f14023f3          	csrr	t2,mhartid
E:\NucleiStudio_Workspace\e203Whetstone_test\hbird_sdk\NMSIS\Core\Include/core_feature_plic.h:193
                    (hartid << PLIC_ENABLE_SHIFT_PER_TARGET) + (source >> 5) * 4);
80000852:	0c002837          	lui	a6,0xc002
80000856:	00739513          	slli	a0,t2,0x7
8000085a:	010508b3          	add	a7,a0,a6
E:\NucleiStudio_Workspace\e203Whetstone_test\hbird_sdk\NMSIS\Core\Include/core_feature_plic.h:195
    uint32_t current = *enable_reg;
8000085e:	0008ae03          	lw	t3,0(a7)
PLIC_SetPriority():
E:\NucleiStudio_Workspace\e203Whetstone_test\hbird_sdk\NMSIS\Core\Include/core_feature_plic.h:237
    *priority_reg = priority;
80000862:	0c000eb7          	lui	t4,0xc000
PLIC_DisableInterrupt():
E:\NucleiStudio_Workspace\e203Whetstone_test\hbird_sdk\NMSIS\Core\Include/core_feature_plic.h:196
    current = current & (~(1<<(source&0x1F)));
80000866:	ffee7f13          	andi	t5,t3,-2
E:\NucleiStudio_Workspace\e203Whetstone_test\hbird_sdk\NMSIS\Core\Include/core_feature_plic.h:197
    *enable_reg = current;
8000086a:	01e8a023          	sw	t5,0(a7)
PLIC_SetPriority():
E:\NucleiStudio_Workspace\e203Whetstone_test\hbird_sdk\NMSIS\Core\Include/core_feature_plic.h:237
    *priority_reg = priority;
8000086e:	000ea023          	sw	zero,0(t4) # c000000 <__stack_size+0xbfff800>
PLIC_DisableInterrupt():
E:\NucleiStudio_Workspace\e203Whetstone_test\hbird_sdk\NMSIS\Core\Include/core_feature_plic.h:191
    uint32_t hartid = __RV_CSR_READ(CSR_MHARTID);
80000872:	f1402ff3          	csrr	t6,mhartid
E:\NucleiStudio_Workspace\e203Whetstone_test\hbird_sdk\NMSIS\Core\Include/core_feature_plic.h:193
                    (hartid << PLIC_ENABLE_SHIFT_PER_TARGET) + (source >> 5) * 4);
80000876:	007f9793          	slli	a5,t6,0x7
8000087a:	01078433          	add	s0,a5,a6
E:\NucleiStudio_Workspace\e203Whetstone_test\hbird_sdk\NMSIS\Core\Include/core_feature_plic.h:195
    uint32_t current = *enable_reg;
8000087e:	400c                	lw	a1,0(s0)
E:\NucleiStudio_Workspace\e203Whetstone_test\hbird_sdk\NMSIS\Core\Include/core_feature_plic.h:196
    current = current & (~(1<<(source&0x1F)));
80000880:	ffd5f293          	andi	t0,a1,-3
E:\NucleiStudio_Workspace\e203Whetstone_test\hbird_sdk\NMSIS\Core\Include/core_feature_plic.h:197
    *enable_reg = current;
80000884:	00542023          	sw	t0,0(s0)
PLIC_SetPriority():
E:\NucleiStudio_Workspace\e203Whetstone_test\hbird_sdk\NMSIS\Core\Include/core_feature_plic.h:237
    *priority_reg = priority;
80000888:	000ea223          	sw	zero,4(t4)
PLIC_DisableInterrupt():
E:\NucleiStudio_Workspace\e203Whetstone_test\hbird_sdk\NMSIS\Core\Include/core_feature_plic.h:191
    uint32_t hartid = __RV_CSR_READ(CSR_MHARTID);
8000088c:	f1402773          	csrr	a4,mhartid
E:\NucleiStudio_Workspace\e203Whetstone_test\hbird_sdk\NMSIS\Core\Include/core_feature_plic.h:193
                    (hartid << PLIC_ENABLE_SHIFT_PER_TARGET) + (source >> 5) * 4);
80000890:	00771613          	slli	a2,a4,0x7
80000894:	010606b3          	add	a3,a2,a6
E:\NucleiStudio_Workspace\e203Whetstone_test\hbird_sdk\NMSIS\Core\Include/core_feature_plic.h:195
    uint32_t current = *enable_reg;
80000898:	0006a303          	lw	t1,0(a3)
E:\NucleiStudio_Workspace\e203Whetstone_test\hbird_sdk\NMSIS\Core\Include/core_feature_plic.h:196
    current = current & (~(1<<(source&0x1F)));
8000089c:	ffb37393          	andi	t2,t1,-5
E:\NucleiStudio_Workspace\e203Whetstone_test\hbird_sdk\NMSIS\Core\Include/core_feature_plic.h:197
    *enable_reg = current;
800008a0:	0076a023          	sw	t2,0(a3)
PLIC_SetPriority():
E:\NucleiStudio_Workspace\e203Whetstone_test\hbird_sdk\NMSIS\Core\Include/core_feature_plic.h:237
    *priority_reg = priority;
800008a4:	000ea423          	sw	zero,8(t4)
PLIC_DisableInterrupt():
E:\NucleiStudio_Workspace\e203Whetstone_test\hbird_sdk\NMSIS\Core\Include/core_feature_plic.h:191
    uint32_t hartid = __RV_CSR_READ(CSR_MHARTID);
800008a8:	f1402573          	csrr	a0,mhartid
E:\NucleiStudio_Workspace\e203Whetstone_test\hbird_sdk\NMSIS\Core\Include/core_feature_plic.h:193
                    (hartid << PLIC_ENABLE_SHIFT_PER_TARGET) + (source >> 5) * 4);
800008ac:	00751893          	slli	a7,a0,0x7
800008b0:	01088e33          	add	t3,a7,a6
E:\NucleiStudio_Workspace\e203Whetstone_test\hbird_sdk\NMSIS\Core\Include/core_feature_plic.h:195
    uint32_t current = *enable_reg;
800008b4:	000e2f03          	lw	t5,0(t3)
E:\NucleiStudio_Workspace\e203Whetstone_test\hbird_sdk\NMSIS\Core\Include/core_feature_plic.h:196
    current = current & (~(1<<(source&0x1F)));
800008b8:	ff7f7f93          	andi	t6,t5,-9
E:\NucleiStudio_Workspace\e203Whetstone_test\hbird_sdk\NMSIS\Core\Include/core_feature_plic.h:197
    *enable_reg = current;
800008bc:	01fe2023          	sw	t6,0(t3)
PLIC_SetPriority():
E:\NucleiStudio_Workspace\e203Whetstone_test\hbird_sdk\NMSIS\Core\Include/core_feature_plic.h:237
    *priority_reg = priority;
800008c0:	000ea623          	sw	zero,12(t4)
PLIC_DisableInterrupt():
E:\NucleiStudio_Workspace\e203Whetstone_test\hbird_sdk\NMSIS\Core\Include/core_feature_plic.h:191
    uint32_t hartid = __RV_CSR_READ(CSR_MHARTID);
800008c4:	f14027f3          	csrr	a5,mhartid
E:\NucleiStudio_Workspace\e203Whetstone_test\hbird_sdk\NMSIS\Core\Include/core_feature_plic.h:193
                    (hartid << PLIC_ENABLE_SHIFT_PER_TARGET) + (source >> 5) * 4);
800008c8:	00779413          	slli	s0,a5,0x7
800008cc:	010405b3          	add	a1,s0,a6
E:\NucleiStudio_Workspace\e203Whetstone_test\hbird_sdk\NMSIS\Core\Include/core_feature_plic.h:195
    uint32_t current = *enable_reg;
800008d0:	0005a283          	lw	t0,0(a1)
E:\NucleiStudio_Workspace\e203Whetstone_test\hbird_sdk\NMSIS\Core\Include/core_feature_plic.h:196
    current = current & (~(1<<(source&0x1F)));
800008d4:	fef2f713          	andi	a4,t0,-17
E:\NucleiStudio_Workspace\e203Whetstone_test\hbird_sdk\NMSIS\Core\Include/core_feature_plic.h:197
    *enable_reg = current;
800008d8:	c198                	sw	a4,0(a1)
PLIC_SetPriority():
E:\NucleiStudio_Workspace\e203Whetstone_test\hbird_sdk\NMSIS\Core\Include/core_feature_plic.h:237
    *priority_reg = priority;
800008da:	000ea823          	sw	zero,16(t4)
PLIC_DisableInterrupt():
E:\NucleiStudio_Workspace\e203Whetstone_test\hbird_sdk\NMSIS\Core\Include/core_feature_plic.h:191
    uint32_t hartid = __RV_CSR_READ(CSR_MHARTID);
800008de:	f1402673          	csrr	a2,mhartid
E:\NucleiStudio_Workspace\e203Whetstone_test\hbird_sdk\NMSIS\Core\Include/core_feature_plic.h:193
                    (hartid << PLIC_ENABLE_SHIFT_PER_TARGET) + (source >> 5) * 4);
800008e2:	00761693          	slli	a3,a2,0x7
800008e6:	01068333          	add	t1,a3,a6
E:\NucleiStudio_Workspace\e203Whetstone_test\hbird_sdk\NMSIS\Core\Include/core_feature_plic.h:195
    uint32_t current = *enable_reg;
800008ea:	00032383          	lw	t2,0(t1)
E:\NucleiStudio_Workspace\e203Whetstone_test\hbird_sdk\NMSIS\Core\Include/core_feature_plic.h:196
    current = current & (~(1<<(source&0x1F)));
800008ee:	fdf3f513          	andi	a0,t2,-33
E:\NucleiStudio_Workspace\e203Whetstone_test\hbird_sdk\NMSIS\Core\Include/core_feature_plic.h:197
    *enable_reg = current;
800008f2:	00a32023          	sw	a0,0(t1)
PLIC_SetPriority():
E:\NucleiStudio_Workspace\e203Whetstone_test\hbird_sdk\NMSIS\Core\Include/core_feature_plic.h:237
    *priority_reg = priority;
800008f6:	000eaa23          	sw	zero,20(t4)
PLIC_DisableInterrupt():
E:\NucleiStudio_Workspace\e203Whetstone_test\hbird_sdk\NMSIS\Core\Include/core_feature_plic.h:191
    uint32_t hartid = __RV_CSR_READ(CSR_MHARTID);
800008fa:	f14028f3          	csrr	a7,mhartid
E:\NucleiStudio_Workspace\e203Whetstone_test\hbird_sdk\NMSIS\Core\Include/core_feature_plic.h:193
                    (hartid << PLIC_ENABLE_SHIFT_PER_TARGET) + (source >> 5) * 4);
800008fe:	00789e13          	slli	t3,a7,0x7
80000902:	010e0f33          	add	t5,t3,a6
E:\NucleiStudio_Workspace\e203Whetstone_test\hbird_sdk\NMSIS\Core\Include/core_feature_plic.h:195
    uint32_t current = *enable_reg;
80000906:	000f2f83          	lw	t6,0(t5)
E:\NucleiStudio_Workspace\e203Whetstone_test\hbird_sdk\NMSIS\Core\Include/core_feature_plic.h:196
    current = current & (~(1<<(source&0x1F)));
8000090a:	fbfff793          	andi	a5,t6,-65
E:\NucleiStudio_Workspace\e203Whetstone_test\hbird_sdk\NMSIS\Core\Include/core_feature_plic.h:197
    *enable_reg = current;
8000090e:	00ff2023          	sw	a5,0(t5)
PLIC_SetPriority():
E:\NucleiStudio_Workspace\e203Whetstone_test\hbird_sdk\NMSIS\Core\Include/core_feature_plic.h:237
    *priority_reg = priority;
80000912:	000eac23          	sw	zero,24(t4)
PLIC_DisableInterrupt():
E:\NucleiStudio_Workspace\e203Whetstone_test\hbird_sdk\NMSIS\Core\Include/core_feature_plic.h:191
    uint32_t hartid = __RV_CSR_READ(CSR_MHARTID);
80000916:	f1402473          	csrr	s0,mhartid
E:\NucleiStudio_Workspace\e203Whetstone_test\hbird_sdk\NMSIS\Core\Include/core_feature_plic.h:193
                    (hartid << PLIC_ENABLE_SHIFT_PER_TARGET) + (source >> 5) * 4);
8000091a:	00741593          	slli	a1,s0,0x7
8000091e:	010582b3          	add	t0,a1,a6
E:\NucleiStudio_Workspace\e203Whetstone_test\hbird_sdk\NMSIS\Core\Include/core_feature_plic.h:195
    uint32_t current = *enable_reg;
80000922:	0002a703          	lw	a4,0(t0)
E:\NucleiStudio_Workspace\e203Whetstone_test\hbird_sdk\NMSIS\Core\Include/core_feature_plic.h:196
    current = current & (~(1<<(source&0x1F)));
80000926:	f7f77613          	andi	a2,a4,-129
E:\NucleiStudio_Workspace\e203Whetstone_test\hbird_sdk\NMSIS\Core\Include/core_feature_plic.h:197
    *enable_reg = current;
8000092a:	00c2a023          	sw	a2,0(t0)
PLIC_SetPriority():
E:\NucleiStudio_Workspace\e203Whetstone_test\hbird_sdk\NMSIS\Core\Include/core_feature_plic.h:237
    *priority_reg = priority;
8000092e:	000eae23          	sw	zero,28(t4)
PLIC_DisableInterrupt():
E:\NucleiStudio_Workspace\e203Whetstone_test\hbird_sdk\NMSIS\Core\Include/core_feature_plic.h:191
    uint32_t hartid = __RV_CSR_READ(CSR_MHARTID);
80000932:	f14026f3          	csrr	a3,mhartid
E:\NucleiStudio_Workspace\e203Whetstone_test\hbird_sdk\NMSIS\Core\Include/core_feature_plic.h:193
                    (hartid << PLIC_ENABLE_SHIFT_PER_TARGET) + (source >> 5) * 4);
80000936:	00769313          	slli	t1,a3,0x7
8000093a:	010303b3          	add	t2,t1,a6
E:\NucleiStudio_Workspace\e203Whetstone_test\hbird_sdk\NMSIS\Core\Include/core_feature_plic.h:195
    uint32_t current = *enable_reg;
8000093e:	0003a503          	lw	a0,0(t2)
E:\NucleiStudio_Workspace\e203Whetstone_test\hbird_sdk\NMSIS\Core\Include/core_feature_plic.h:196
    current = current & (~(1<<(source&0x1F)));
80000942:	eff57893          	andi	a7,a0,-257
E:\NucleiStudio_Workspace\e203Whetstone_test\hbird_sdk\NMSIS\Core\Include/core_feature_plic.h:197
    *enable_reg = current;
80000946:	0113a023          	sw	a7,0(t2)
PLIC_SetPriority():
E:\NucleiStudio_Workspace\e203Whetstone_test\hbird_sdk\NMSIS\Core\Include/core_feature_plic.h:237
    *priority_reg = priority;
8000094a:	020ea023          	sw	zero,32(t4)
PLIC_DisableInterrupt():
E:\NucleiStudio_Workspace\e203Whetstone_test\hbird_sdk\NMSIS\Core\Include/core_feature_plic.h:191
    uint32_t hartid = __RV_CSR_READ(CSR_MHARTID);
8000094e:	f1402e73          	csrr	t3,mhartid
E:\NucleiStudio_Workspace\e203Whetstone_test\hbird_sdk\NMSIS\Core\Include/core_feature_plic.h:193
                    (hartid << PLIC_ENABLE_SHIFT_PER_TARGET) + (source >> 5) * 4);
80000952:	007e1f13          	slli	t5,t3,0x7
80000956:	010f0fb3          	add	t6,t5,a6
E:\NucleiStudio_Workspace\e203Whetstone_test\hbird_sdk\NMSIS\Core\Include/core_feature_plic.h:195
    uint32_t current = *enable_reg;
8000095a:	000fa783          	lw	a5,0(t6)
E:\NucleiStudio_Workspace\e203Whetstone_test\hbird_sdk\NMSIS\Core\Include/core_feature_plic.h:196
    current = current & (~(1<<(source&0x1F)));
8000095e:	dff7f413          	andi	s0,a5,-513
E:\NucleiStudio_Workspace\e203Whetstone_test\hbird_sdk\NMSIS\Core\Include/core_feature_plic.h:197
    *enable_reg = current;
80000962:	008fa023          	sw	s0,0(t6)
PLIC_SetPriority():
E:\NucleiStudio_Workspace\e203Whetstone_test\hbird_sdk\NMSIS\Core\Include/core_feature_plic.h:237
    *priority_reg = priority;
80000966:	020ea223          	sw	zero,36(t4)
PLIC_DisableInterrupt():
E:\NucleiStudio_Workspace\e203Whetstone_test\hbird_sdk\NMSIS\Core\Include/core_feature_plic.h:191
    uint32_t hartid = __RV_CSR_READ(CSR_MHARTID);
8000096a:	f14025f3          	csrr	a1,mhartid
E:\NucleiStudio_Workspace\e203Whetstone_test\hbird_sdk\NMSIS\Core\Include/core_feature_plic.h:193
                    (hartid << PLIC_ENABLE_SHIFT_PER_TARGET) + (source >> 5) * 4);
8000096e:	00759293          	slli	t0,a1,0x7
80000972:	01028733          	add	a4,t0,a6
E:\NucleiStudio_Workspace\e203Whetstone_test\hbird_sdk\NMSIS\Core\Include/core_feature_plic.h:195
    uint32_t current = *enable_reg;
80000976:	4310                	lw	a2,0(a4)
E:\NucleiStudio_Workspace\e203Whetstone_test\hbird_sdk\NMSIS\Core\Include/core_feature_plic.h:196
    current = current & (~(1<<(source&0x1F)));
80000978:	bff67693          	andi	a3,a2,-1025
E:\NucleiStudio_Workspace\e203Whetstone_test\hbird_sdk\NMSIS\Core\Include/core_feature_plic.h:197
    *enable_reg = current;
8000097c:	c314                	sw	a3,0(a4)
PLIC_SetPriority():
E:\NucleiStudio_Workspace\e203Whetstone_test\hbird_sdk\NMSIS\Core\Include/core_feature_plic.h:237
    *priority_reg = priority;
8000097e:	020ea423          	sw	zero,40(t4)
PLIC_DisableInterrupt():
E:\NucleiStudio_Workspace\e203Whetstone_test\hbird_sdk\NMSIS\Core\Include/core_feature_plic.h:191
    uint32_t hartid = __RV_CSR_READ(CSR_MHARTID);
80000982:	f1402373          	csrr	t1,mhartid
E:\NucleiStudio_Workspace\e203Whetstone_test\hbird_sdk\NMSIS\Core\Include/core_feature_plic.h:193
                    (hartid << PLIC_ENABLE_SHIFT_PER_TARGET) + (source >> 5) * 4);
80000986:	00731393          	slli	t2,t1,0x7
8000098a:	010388b3          	add	a7,t2,a6
E:\NucleiStudio_Workspace\e203Whetstone_test\hbird_sdk\NMSIS\Core\Include/core_feature_plic.h:195
    uint32_t current = *enable_reg;
8000098e:	0008ae03          	lw	t3,0(a7)
E:\NucleiStudio_Workspace\e203Whetstone_test\hbird_sdk\NMSIS\Core\Include/core_feature_plic.h:196
    current = current & (~(1<<(source&0x1F)));
80000992:	7f7d                	lui	t5,0xfffff
80000994:	7fff0513          	addi	a0,t5,2047 # fffff7ff <_sp+0x6ffef7ff>
80000998:	00ae7fb3          	and	t6,t3,a0
E:\NucleiStudio_Workspace\e203Whetstone_test\hbird_sdk\NMSIS\Core\Include/core_feature_plic.h:197
    *enable_reg = current;
8000099c:	01f8a023          	sw	t6,0(a7)
PLIC_SetPriority():
E:\NucleiStudio_Workspace\e203Whetstone_test\hbird_sdk\NMSIS\Core\Include/core_feature_plic.h:237
    *priority_reg = priority;
800009a0:	020ea623          	sw	zero,44(t4)
PLIC_DisableInterrupt():
E:\NucleiStudio_Workspace\e203Whetstone_test\hbird_sdk\NMSIS\Core\Include/core_feature_plic.h:191
    uint32_t hartid = __RV_CSR_READ(CSR_MHARTID);
800009a4:	f14027f3          	csrr	a5,mhartid
E:\NucleiStudio_Workspace\e203Whetstone_test\hbird_sdk\NMSIS\Core\Include/core_feature_plic.h:193
                    (hartid << PLIC_ENABLE_SHIFT_PER_TARGET) + (source >> 5) * 4);
800009a8:	00779413          	slli	s0,a5,0x7
800009ac:	010402b3          	add	t0,s0,a6
E:\NucleiStudio_Workspace\e203Whetstone_test\hbird_sdk\NMSIS\Core\Include/core_feature_plic.h:195
    uint32_t current = *enable_reg;
800009b0:	0002a583          	lw	a1,0(t0)
E:\NucleiStudio_Workspace\e203Whetstone_test\hbird_sdk\NMSIS\Core\Include/core_feature_plic.h:196
    current = current & (~(1<<(source&0x1F)));
800009b4:	ffff0713          	addi	a4,t5,-1
800009b8:	00e5f633          	and	a2,a1,a4
E:\NucleiStudio_Workspace\e203Whetstone_test\hbird_sdk\NMSIS\Core\Include/core_feature_plic.h:197
    *enable_reg = current;
800009bc:	00c2a023          	sw	a2,0(t0)
PLIC_SetPriority():
E:\NucleiStudio_Workspace\e203Whetstone_test\hbird_sdk\NMSIS\Core\Include/core_feature_plic.h:237
    *priority_reg = priority;
800009c0:	020ea823          	sw	zero,48(t4)
PLIC_DisableInterrupt():
E:\NucleiStudio_Workspace\e203Whetstone_test\hbird_sdk\NMSIS\Core\Include/core_feature_plic.h:191
    uint32_t hartid = __RV_CSR_READ(CSR_MHARTID);
800009c4:	f14026f3          	csrr	a3,mhartid
E:\NucleiStudio_Workspace\e203Whetstone_test\hbird_sdk\NMSIS\Core\Include/core_feature_plic.h:193
                    (hartid << PLIC_ENABLE_SHIFT_PER_TARGET) + (source >> 5) * 4);
800009c8:	00769313          	slli	t1,a3,0x7
800009cc:	010303b3          	add	t2,t1,a6
E:\NucleiStudio_Workspace\e203Whetstone_test\hbird_sdk\NMSIS\Core\Include/core_feature_plic.h:195
    uint32_t current = *enable_reg;
800009d0:	0003a883          	lw	a7,0(t2)
E:\NucleiStudio_Workspace\e203Whetstone_test\hbird_sdk\NMSIS\Core\Include/core_feature_plic.h:196
    current = current & (~(1<<(source&0x1F)));
800009d4:	7e79                	lui	t3,0xffffe
800009d6:	fffe0f13          	addi	t5,t3,-1 # ffffdfff <_sp+0x6ffedfff>
800009da:	01e8f533          	and	a0,a7,t5
E:\NucleiStudio_Workspace\e203Whetstone_test\hbird_sdk\NMSIS\Core\Include/core_feature_plic.h:197
    *enable_reg = current;
800009de:	00a3a023          	sw	a0,0(t2)
PLIC_SetPriority():
E:\NucleiStudio_Workspace\e203Whetstone_test\hbird_sdk\NMSIS\Core\Include/core_feature_plic.h:237
    *priority_reg = priority;
800009e2:	020eaa23          	sw	zero,52(t4)
PLIC_DisableInterrupt():
E:\NucleiStudio_Workspace\e203Whetstone_test\hbird_sdk\NMSIS\Core\Include/core_feature_plic.h:191
    uint32_t hartid = __RV_CSR_READ(CSR_MHARTID);
800009e6:	f1402ff3          	csrr	t6,mhartid
E:\NucleiStudio_Workspace\e203Whetstone_test\hbird_sdk\NMSIS\Core\Include/core_feature_plic.h:193
                    (hartid << PLIC_ENABLE_SHIFT_PER_TARGET) + (source >> 5) * 4);
800009ea:	007f9793          	slli	a5,t6,0x7
800009ee:	01078433          	add	s0,a5,a6
E:\NucleiStudio_Workspace\e203Whetstone_test\hbird_sdk\NMSIS\Core\Include/core_feature_plic.h:195
    uint32_t current = *enable_reg;
800009f2:	00042283          	lw	t0,0(s0)
E:\NucleiStudio_Workspace\e203Whetstone_test\hbird_sdk\NMSIS\Core\Include/core_feature_plic.h:196
    current = current & (~(1<<(source&0x1F)));
800009f6:	75f1                	lui	a1,0xffffc
800009f8:	fff58713          	addi	a4,a1,-1 # ffffbfff <_sp+0x6ffebfff>
800009fc:	00e2f633          	and	a2,t0,a4
E:\NucleiStudio_Workspace\e203Whetstone_test\hbird_sdk\NMSIS\Core\Include/core_feature_plic.h:197
    *enable_reg = current;
80000a00:	c010                	sw	a2,0(s0)
PLIC_SetPriority():
E:\NucleiStudio_Workspace\e203Whetstone_test\hbird_sdk\NMSIS\Core\Include/core_feature_plic.h:237
    *priority_reg = priority;
80000a02:	020eac23          	sw	zero,56(t4)
PLIC_DisableInterrupt():
E:\NucleiStudio_Workspace\e203Whetstone_test\hbird_sdk\NMSIS\Core\Include/core_feature_plic.h:191
    uint32_t hartid = __RV_CSR_READ(CSR_MHARTID);
80000a06:	f14026f3          	csrr	a3,mhartid
E:\NucleiStudio_Workspace\e203Whetstone_test\hbird_sdk\NMSIS\Core\Include/core_feature_plic.h:193
                    (hartid << PLIC_ENABLE_SHIFT_PER_TARGET) + (source >> 5) * 4);
80000a0a:	00769313          	slli	t1,a3,0x7
80000a0e:	010303b3          	add	t2,t1,a6
E:\NucleiStudio_Workspace\e203Whetstone_test\hbird_sdk\NMSIS\Core\Include/core_feature_plic.h:195
    uint32_t current = *enable_reg;
80000a12:	0003a883          	lw	a7,0(t2)
E:\NucleiStudio_Workspace\e203Whetstone_test\hbird_sdk\NMSIS\Core\Include/core_feature_plic.h:196
    current = current & (~(1<<(source&0x1F)));
80000a16:	7e61                	lui	t3,0xffff8
80000a18:	fffe0f13          	addi	t5,t3,-1 # ffff7fff <_sp+0x6ffe7fff>
80000a1c:	01e8f533          	and	a0,a7,t5
E:\NucleiStudio_Workspace\e203Whetstone_test\hbird_sdk\NMSIS\Core\Include/core_feature_plic.h:197
    *enable_reg = current;
80000a20:	00a3a023          	sw	a0,0(t2)
PLIC_SetPriority():
E:\NucleiStudio_Workspace\e203Whetstone_test\hbird_sdk\NMSIS\Core\Include/core_feature_plic.h:237
    *priority_reg = priority;
80000a24:	020eae23          	sw	zero,60(t4)
PLIC_DisableInterrupt():
E:\NucleiStudio_Workspace\e203Whetstone_test\hbird_sdk\NMSIS\Core\Include/core_feature_plic.h:191
    uint32_t hartid = __RV_CSR_READ(CSR_MHARTID);
80000a28:	f1402ff3          	csrr	t6,mhartid
E:\NucleiStudio_Workspace\e203Whetstone_test\hbird_sdk\NMSIS\Core\Include/core_feature_plic.h:193
                    (hartid << PLIC_ENABLE_SHIFT_PER_TARGET) + (source >> 5) * 4);
80000a2c:	007f9793          	slli	a5,t6,0x7
80000a30:	983e                	add	a6,a6,a5
E:\NucleiStudio_Workspace\e203Whetstone_test\hbird_sdk\NMSIS\Core\Include/core_feature_plic.h:195
    uint32_t current = *enable_reg;
80000a32:	00082403          	lw	s0,0(a6) # c002000 <__stack_size+0xc001800>
E:\NucleiStudio_Workspace\e203Whetstone_test\hbird_sdk\NMSIS\Core\Include/core_feature_plic.h:196
    current = current & (~(1<<(source&0x1F)));
80000a36:	72c1                	lui	t0,0xffff0
80000a38:	fff28593          	addi	a1,t0,-1 # fffeffff <_sp+0x6ffdffff>
80000a3c:	00b47733          	and	a4,s0,a1
E:\NucleiStudio_Workspace\e203Whetstone_test\hbird_sdk\NMSIS\Core\Include/core_feature_plic.h:197
    *enable_reg = current;
80000a40:	00e82023          	sw	a4,0(a6)
PLIC_SetPriority():
E:\NucleiStudio_Workspace\e203Whetstone_test\hbird_sdk\NMSIS\Core\Include/core_feature_plic.h:237
    *priority_reg = priority;
80000a44:	040ea023          	sw	zero,64(t4)
PLIC_SetThreshold():
E:\NucleiStudio_Workspace\e203Whetstone_test\hbird_sdk\NMSIS\Core\Include/core_feature_plic.h:135
    uint32_t hartid = __RV_CSR_READ(CSR_MHARTID);
80000a48:	f1402ef3          	csrr	t4,mhartid
E:\NucleiStudio_Workspace\e203Whetstone_test\hbird_sdk\NMSIS\Core\Include/core_feature_plic.h:137
                    PLIC_THRESHOLD_OFFSET + (hartid << PLIC_THRESHOLD_SHIFT_PER_TARGET));
80000a4c:	0c2006b7          	lui	a3,0xc200
_premain_init():
E:\NucleiStudio_Workspace\e203Whetstone_test\Debug/../hbird_sdk/SoC/hbirdv2/Common/Source/system_hbirdv2.c:481
    Interrupt_Init();
#if defined(__PLIC_PRESENT) && __PLIC_PRESENT == 1
    /* PLIC initilization */
    PLIC_Init(__PLIC_INTNUM);
#endif
}
80000a50:	40b2                	lw	ra,12(sp)
80000a52:	4422                	lw	s0,8(sp)
PLIC_SetThreshold():
E:\NucleiStudio_Workspace\e203Whetstone_test\hbird_sdk\NMSIS\Core\Include/core_feature_plic.h:137
80000a54:	00ce9613          	slli	a2,t4,0xc
80000a58:	00d60333          	add	t1,a2,a3
E:\NucleiStudio_Workspace\e203Whetstone_test\hbird_sdk\NMSIS\Core\Include/core_feature_plic.h:139
    *thresh_reg = thresh;
80000a5c:	00032023          	sw	zero,0(t1)
_premain_init():
E:\NucleiStudio_Workspace\e203Whetstone_test\Debug/../hbird_sdk/SoC/hbirdv2/Common/Source/system_hbirdv2.c:481
80000a60:	0141                	addi	sp,sp,16
80000a62:	8082                	ret

80000a64 <_postmain_fini>:
_postmain_fini():
E:\NucleiStudio_Workspace\e203Whetstone_test\Debug/../hbird_sdk/SoC/hbirdv2/Common/Source/system_hbirdv2.c:507
#ifdef SIMULATION_RTL
extern void rtlsim_exit(int status);
    rtlsim_exit(status);
#endif

}
80000a64:	8082                	ret

80000a66 <_init>:
_init():
E:\NucleiStudio_Workspace\e203Whetstone_test\Debug/../hbird_sdk/SoC/hbirdv2/Common/Source/system_hbirdv2.c:521
 * Please use \ref _premain_init function now
 */
void _init(void)
{
    /* Don't put any code here, please use _premain_init now */
}
80000a66:	8082                	ret

80000a68 <_fini>:
_fini():
80000a68:	8082                	ret

80000a6a <start_time>:
SysTimer_GetLoadValue():
E:\NucleiStudio_Workspace\e203Whetstone_test\hbird_sdk\NMSIS\Core\Include/core_feature_timer.h:106
80000a6a:	0200c7b7          	lui	a5,0x200c
80000a6e:	ff87a503          	lw	a0,-8(a5) # 200bff8 <__stack_size+0x200b7f8>
80000a72:	ffc7a583          	lw	a1,-4(a5)
start_time():
E:\NucleiStudio_Workspace\e203Whetstone_test\Debug/../application/cpuidc.c:22
	theseSecs = time() ;
	return;
}

void start_time()
{
80000a76:	1141                	addi	sp,sp,-16
80000a78:	c606                	sw	ra,12(sp)
time():
E:\NucleiStudio_Workspace\e203Whetstone_test\Debug/../application/cpuidc.c:12
    return (SPDP) SysTimer_GetLoadValue() / SOC_TIMER_FREQ;
80000a7a:	542020ef          	jal	ra,80002fbc <__floatundisf>
80000a7e:	0ffff797          	auipc	a5,0xffff
80000a82:	7ba7a787          	flw	fa5,1978(a5) # 90000238 <_impure_ptr+0x60>
80000a86:	10f57553          	fmul.s	fa0,fa0,fa5
getSecs():
E:\NucleiStudio_Workspace\e203Whetstone_test\Debug/../application/cpuidc.c:17
	theseSecs = time() ;
80000a8a:	9fc18293          	addi	t0,gp,-1540 # 900003cc <theseSecs>
start_time():
E:\NucleiStudio_Workspace\e203Whetstone_test\Debug/../application/cpuidc.c:26
	getSecs();
	startSecs = theseSecs;
	return;
}
80000a8e:	40b2                	lw	ra,12(sp)
getSecs():
E:\NucleiStudio_Workspace\e203Whetstone_test\Debug/../application/cpuidc.c:17
	theseSecs = time() ;
80000a90:	00a2a027          	fsw	fa0,0(t0)
start_time():
E:\NucleiStudio_Workspace\e203Whetstone_test\Debug/../application/cpuidc.c:24
	startSecs = theseSecs;
80000a94:	0002a007          	flw	ft0,0(t0)
80000a98:	9e01ac27          	fsw	ft0,-1544(gp) # 900003c8 <startSecs>
E:\NucleiStudio_Workspace\e203Whetstone_test\Debug/../application/cpuidc.c:26
}
80000a9c:	0141                	addi	sp,sp,16
80000a9e:	8082                	ret

80000aa0 <end_time>:
SysTimer_GetLoadValue():
E:\NucleiStudio_Workspace\e203Whetstone_test\hbird_sdk\NMSIS\Core\Include/core_feature_timer.h:106
80000aa0:	0200c7b7          	lui	a5,0x200c
80000aa4:	ff87a503          	lw	a0,-8(a5) # 200bff8 <__stack_size+0x200b7f8>
80000aa8:	ffc7a583          	lw	a1,-4(a5)
end_time():
E:\NucleiStudio_Workspace\e203Whetstone_test\Debug/../application/cpuidc.c:29

void end_time()
{
80000aac:	1141                	addi	sp,sp,-16
80000aae:	c606                	sw	ra,12(sp)
time():
E:\NucleiStudio_Workspace\e203Whetstone_test\Debug/../application/cpuidc.c:12
    return (SPDP) SysTimer_GetLoadValue() / SOC_TIMER_FREQ;
80000ab0:	50c020ef          	jal	ra,80002fbc <__floatundisf>
80000ab4:	0ffff797          	auipc	a5,0xffff
80000ab8:	7847a787          	flw	fa5,1924(a5) # 90000238 <_impure_ptr+0x60>
80000abc:	10f57553          	fmul.s	fa0,fa0,fa5
getSecs():
E:\NucleiStudio_Workspace\e203Whetstone_test\Debug/../application/cpuidc.c:17
	theseSecs = time() ;
80000ac0:	9fc18293          	addi	t0,gp,-1540 # 900003cc <theseSecs>
end_time():
E:\NucleiStudio_Workspace\e203Whetstone_test\Debug/../application/cpuidc.c:35
	getSecs();
//	printf("theseSecs = %f \n", theseSecs);
//	printf("startSecs = %f \n", startSecs);
	secs = theseSecs - startSecs;
	return;
}
80000ac4:	40b2                	lw	ra,12(sp)
getSecs():
E:\NucleiStudio_Workspace\e203Whetstone_test\Debug/../application/cpuidc.c:17
	theseSecs = time() ;
80000ac6:	00a2a027          	fsw	fa0,0(t0)
end_time():
E:\NucleiStudio_Workspace\e203Whetstone_test\Debug/../application/cpuidc.c:33
	secs = theseSecs - startSecs;
80000aca:	0002a007          	flw	ft0,0(t0)
80000ace:	9f81a707          	flw	fa4,-1544(gp) # 900003c8 <startSecs>
80000ad2:	08e070d3          	fsub.s	ft1,ft0,fa4
80000ad6:	9e11aa27          	fsw	ft1,-1548(gp) # 900003c4 <secs>
E:\NucleiStudio_Workspace\e203Whetstone_test\Debug/../application/cpuidc.c:35
}
80000ada:	0141                	addi	sp,sp,16
80000adc:	8082                	ret

80000ade <whetstones.constprop.0>:
whetstones():
E:\NucleiStudio_Workspace\e203Whetstone_test\Debug/../application/whets.c:285

void whetstones(long xtra, long x100, int calibrate)
80000ade:	7159                	addi	sp,sp,-112
80000ae0:	d0ca                	sw	s2,96(sp)
80000ae2:	ccd2                	sw	s4,88(sp)
80000ae4:	c8da                	sw	s6,80(sp)
80000ae6:	fe22                	fsw	fs0,60(sp)
80000ae8:	fc26                	fsw	fs1,56(sp)
80000aea:	fa4a                	fsw	fs2,52(sp)
80000aec:	f652                	fsw	fs4,44(sp)
80000aee:	f456                	fsw	fs5,40(sp)
80000af0:	d686                	sw	ra,108(sp)
80000af2:	d4a2                	sw	s0,104(sp)
80000af4:	d2a6                	sw	s1,100(sp)
80000af6:	cece                	sw	s3,92(sp)
80000af8:	cad6                	sw	s5,84(sp)
80000afa:	c6de                	sw	s7,76(sp)
80000afc:	c4e2                	sw	s8,72(sp)
80000afe:	c2e6                	sw	s9,68(sp)
80000b00:	c0ea                	sw	s10,64(sp)
80000b02:	f84e                	fsw	fs3,48(sp)
80000b04:	f25a                	fsw	fs6,36(sp)
80000b06:	f05e                	fsw	fs7,32(sp)
80000b08:	ee62                	fsw	fs8,28(sp)
80000b0a:	ec66                	fsw	fs9,24(sp)
E:\NucleiStudio_Workspace\e203Whetstone_test\Debug/../application/whets.c:297
    SPDP t = 0.49999975;
    SPDP t0 = t;
    SPDP t1 = 0.50000025;
    SPDP t2 = 2.0;

    Check = 0.0;
80000b0c:	a0018a13          	addi	s4,gp,-1536 # 900003d0 <Check>
E:\NucleiStudio_Workspace\e203Whetstone_test\Debug/../application/whets.c:285
void whetstones(long xtra, long x100, int calibrate)
80000b10:	892a                	mv	s2,a0
80000b12:	8b2e                	mv	s6,a1
E:\NucleiStudio_Workspace\e203Whetstone_test\Debug/../application/whets.c:297
    Check = 0.0;
80000b14:	000a2023          	sw	zero,0(s4)
E:\NucleiStudio_Workspace\e203Whetstone_test\Debug/../application/whets.c:315

    e1[0] = 1.0;
    e1[1] = -1.0;
    e1[2] = -1.0;
    e1[3] = -1.0;
    start_time();
80000b18:	3f89                	jal	80000a6a <start_time>
E:\NucleiStudio_Workspace\e203Whetstone_test\Debug/../application/whets.c:314
    e1[3] = -1.0;
80000b1a:	0ffff797          	auipc	a5,0xffff
80000b1e:	7227a407          	flw	fs0,1826(a5) # 9000023c <_impure_ptr+0x64>
E:\NucleiStudio_Workspace\e203Whetstone_test\Debug/../application/whets.c:311
    e1[0] = 1.0;
80000b22:	0ffff797          	auipc	a5,0xffff
80000b26:	71e7a907          	flw	fs2,1822(a5) # 90000240 <_impure_ptr+0x68>
E:\NucleiStudio_Workspace\e203Whetstone_test\Debug/../application/whets.c:313
    e1[2] = -1.0;
80000b2a:	20840ad3          	fmv.s	fs5,fs0
E:\NucleiStudio_Workspace\e203Whetstone_test\Debug/../application/whets.c:312
    e1[1] = -1.0;
80000b2e:	208404d3          	fmv.s	fs1,fs0
E:\NucleiStudio_Workspace\e203Whetstone_test\Debug/../application/whets.c:311
    e1[0] = 1.0;
80000b32:	21290a53          	fmv.s	fs4,fs2
E:\NucleiStudio_Workspace\e203Whetstone_test\Debug/../application/whets.c:317
    {
        for (ix = 0; ix < xtra; ix++) {
80000b36:	13205263          	blez	s2,80000c5a <whetstones.constprop.0+0x17c>
80000b3a:	4701                	li	a4,0
E:\NucleiStudio_Workspace\e203Whetstone_test\Debug/../application/whets.c:292
    SPDP t = 0.49999975;
80000b3c:	0ffff797          	auipc	a5,0xffff
80000b40:	7087a687          	flw	fa3,1800(a5) # 90000244 <_impure_ptr+0x6c>
80000b44:	668d                	lui	a3,0x3
80000b46:	ee068793          	addi	a5,a3,-288 # 2ee0 <__stack_size+0x26e0>
E:\NucleiStudio_Workspace\e203Whetstone_test\Debug/../application/whets.c:319
            for (i = 0; i < n1 * n1mult; i++) {
                e1[0] = (e1[0] + e1[1] + e1[2] - e1[3]) * t;
80000b4a:	009af553          	fadd.s	fa0,fs5,fs1
E:\NucleiStudio_Workspace\e203Whetstone_test\Debug/../application/whets.c:320
                e1[1] = (e1[0] + e1[1] - e1[2] + e1[3]) * t;
80000b4e:	0084f4d3          	fadd.s	fs1,fs1,fs0
E:\NucleiStudio_Workspace\e203Whetstone_test\Debug/../application/whets.c:321
                e1[2] = (e1[0] - e1[1] + e1[2] + e1[3]) * t;
80000b52:	008af053          	fadd.s	ft0,fs5,fs0
E:\NucleiStudio_Workspace\e203Whetstone_test\Debug/../application/whets.c:318
            for (i = 0; i < n1 * n1mult; i++) {
80000b56:	17f1                	addi	a5,a5,-4
E:\NucleiStudio_Workspace\e203Whetstone_test\Debug/../application/whets.c:319
                e1[0] = (e1[0] + e1[1] + e1[2] - e1[3]) * t;
80000b58:	088570d3          	fsub.s	ft1,fa0,fs0
E:\NucleiStudio_Workspace\e203Whetstone_test\Debug/../application/whets.c:320
                e1[1] = (e1[0] + e1[1] - e1[2] + e1[3]) * t;
80000b5c:	0954f753          	fsub.s	fa4,fs1,fs5
E:\NucleiStudio_Workspace\e203Whetstone_test\Debug/../application/whets.c:319
                e1[0] = (e1[0] + e1[1] + e1[2] - e1[3]) * t;
80000b60:	0140f153          	fadd.s	ft2,ft1,fs4
80000b64:	10d171d3          	fmul.s	ft3,ft2,fa3
E:\NucleiStudio_Workspace\e203Whetstone_test\Debug/../application/whets.c:320
                e1[1] = (e1[0] + e1[1] - e1[2] + e1[3]) * t;
80000b68:	00377253          	fadd.s	ft4,fa4,ft3
E:\NucleiStudio_Workspace\e203Whetstone_test\Debug/../application/whets.c:321
                e1[2] = (e1[0] - e1[1] + e1[2] + e1[3]) * t;
80000b6c:	003072d3          	fadd.s	ft5,ft0,ft3
E:\NucleiStudio_Workspace\e203Whetstone_test\Debug/../application/whets.c:322
                e1[3] = (-e1[0] + e1[1] + e1[2] + e1[3]) * t;
80000b70:	083477d3          	fsub.s	fa5,fs0,ft3
E:\NucleiStudio_Workspace\e203Whetstone_test\Debug/../application/whets.c:320
                e1[1] = (e1[0] + e1[1] - e1[2] + e1[3]) * t;
80000b74:	10d27353          	fmul.s	ft6,ft4,fa3
E:\NucleiStudio_Workspace\e203Whetstone_test\Debug/../application/whets.c:321
                e1[2] = (e1[0] - e1[1] + e1[2] + e1[3]) * t;
80000b78:	0862f3d3          	fsub.s	ft7,ft5,ft6
E:\NucleiStudio_Workspace\e203Whetstone_test\Debug/../application/whets.c:322
                e1[3] = (-e1[0] + e1[1] + e1[2] + e1[3]) * t;
80000b7c:	0067f453          	fadd.s	fs0,fa5,ft6
E:\NucleiStudio_Workspace\e203Whetstone_test\Debug/../application/whets.c:321
                e1[2] = (e1[0] - e1[1] + e1[2] + e1[3]) * t;
80000b80:	10d3f853          	fmul.s	fa6,ft7,fa3
E:\NucleiStudio_Workspace\e203Whetstone_test\Debug/../application/whets.c:322
                e1[3] = (-e1[0] + e1[1] + e1[2] + e1[3]) * t;
80000b84:	01047653          	fadd.s	fa2,fs0,fa6
E:\NucleiStudio_Workspace\e203Whetstone_test\Debug/../application/whets.c:319
                e1[0] = (e1[0] + e1[1] + e1[2] - e1[3]) * t;
80000b88:	006875d3          	fadd.s	fa1,fa6,ft6
E:\NucleiStudio_Workspace\e203Whetstone_test\Debug/../application/whets.c:322
                e1[3] = (-e1[0] + e1[1] + e1[2] + e1[3]) * t;
80000b8c:	10d678d3          	fmul.s	fa7,fa2,fa3
E:\NucleiStudio_Workspace\e203Whetstone_test\Debug/../application/whets.c:319
                e1[0] = (e1[0] + e1[1] + e1[2] - e1[3]) * t;
80000b90:	0915f9d3          	fsub.s	fs3,fa1,fa7
E:\NucleiStudio_Workspace\e203Whetstone_test\Debug/../application/whets.c:320
                e1[1] = (e1[0] + e1[1] - e1[2] + e1[3]) * t;
80000b94:	01137a53          	fadd.s	fs4,ft6,fa7
E:\NucleiStudio_Workspace\e203Whetstone_test\Debug/../application/whets.c:321
                e1[2] = (e1[0] - e1[1] + e1[2] + e1[3]) * t;
80000b98:	01187ad3          	fadd.s	fs5,fa6,fa7
E:\NucleiStudio_Workspace\e203Whetstone_test\Debug/../application/whets.c:319
                e1[0] = (e1[0] + e1[1] + e1[2] - e1[3]) * t;
80000b9c:	0039fb53          	fadd.s	fs6,fs3,ft3
E:\NucleiStudio_Workspace\e203Whetstone_test\Debug/../application/whets.c:320
                e1[1] = (e1[0] + e1[1] - e1[2] + e1[3]) * t;
80000ba0:	090a7bd3          	fsub.s	fs7,fs4,fa6
E:\NucleiStudio_Workspace\e203Whetstone_test\Debug/../application/whets.c:319
                e1[0] = (e1[0] + e1[1] + e1[2] - e1[3]) * t;
80000ba4:	10db7c53          	fmul.s	fs8,fs6,fa3
E:\NucleiStudio_Workspace\e203Whetstone_test\Debug/../application/whets.c:320
                e1[1] = (e1[0] + e1[1] - e1[2] + e1[3]) * t;
80000ba8:	018bfcd3          	fadd.s	fs9,fs7,fs8
E:\NucleiStudio_Workspace\e203Whetstone_test\Debug/../application/whets.c:321
                e1[2] = (e1[0] - e1[1] + e1[2] + e1[3]) * t;
80000bac:	018afe53          	fadd.s	ft8,fs5,fs8
E:\NucleiStudio_Workspace\e203Whetstone_test\Debug/../application/whets.c:322
                e1[3] = (-e1[0] + e1[1] + e1[2] + e1[3]) * t;
80000bb0:	0988fed3          	fsub.s	ft9,fa7,fs8
E:\NucleiStudio_Workspace\e203Whetstone_test\Debug/../application/whets.c:320
                e1[1] = (e1[0] + e1[1] - e1[2] + e1[3]) * t;
80000bb4:	10dcff53          	fmul.s	ft10,fs9,fa3
E:\NucleiStudio_Workspace\e203Whetstone_test\Debug/../application/whets.c:321
                e1[2] = (e1[0] - e1[1] + e1[2] + e1[3]) * t;
80000bb8:	09ee7fd3          	fsub.s	ft11,ft8,ft10
E:\NucleiStudio_Workspace\e203Whetstone_test\Debug/../application/whets.c:322
                e1[3] = (-e1[0] + e1[1] + e1[2] + e1[3]) * t;
80000bbc:	01eef553          	fadd.s	fa0,ft9,ft10
E:\NucleiStudio_Workspace\e203Whetstone_test\Debug/../application/whets.c:321
                e1[2] = (e1[0] - e1[1] + e1[2] + e1[3]) * t;
80000bc0:	10dff053          	fmul.s	ft0,ft11,fa3
E:\NucleiStudio_Workspace\e203Whetstone_test\Debug/../application/whets.c:322
                e1[3] = (-e1[0] + e1[1] + e1[2] + e1[3]) * t;
80000bc4:	000574d3          	fadd.s	fs1,fa0,ft0
E:\NucleiStudio_Workspace\e203Whetstone_test\Debug/../application/whets.c:319
                e1[0] = (e1[0] + e1[1] + e1[2] - e1[3]) * t;
80000bc8:	01e070d3          	fadd.s	ft1,ft0,ft10
E:\NucleiStudio_Workspace\e203Whetstone_test\Debug/../application/whets.c:322
                e1[3] = (-e1[0] + e1[1] + e1[2] + e1[3]) * t;
80000bcc:	10d4f153          	fmul.s	ft2,fs1,fa3
E:\NucleiStudio_Workspace\e203Whetstone_test\Debug/../application/whets.c:319
                e1[0] = (e1[0] + e1[1] + e1[2] - e1[3]) * t;
80000bd0:	0820f1d3          	fsub.s	ft3,ft1,ft2
E:\NucleiStudio_Workspace\e203Whetstone_test\Debug/../application/whets.c:320
                e1[1] = (e1[0] + e1[1] - e1[2] + e1[3]) * t;
80000bd4:	002f7753          	fadd.s	fa4,ft10,ft2
E:\NucleiStudio_Workspace\e203Whetstone_test\Debug/../application/whets.c:321
                e1[2] = (e1[0] - e1[1] + e1[2] + e1[3]) * t;
80000bd8:	00207253          	fadd.s	ft4,ft0,ft2
E:\NucleiStudio_Workspace\e203Whetstone_test\Debug/../application/whets.c:319
                e1[0] = (e1[0] + e1[1] + e1[2] - e1[3]) * t;
80000bdc:	0181f2d3          	fadd.s	ft5,ft3,fs8
E:\NucleiStudio_Workspace\e203Whetstone_test\Debug/../application/whets.c:320
                e1[1] = (e1[0] + e1[1] - e1[2] + e1[3]) * t;
80000be0:	080777d3          	fsub.s	fa5,fa4,ft0
E:\NucleiStudio_Workspace\e203Whetstone_test\Debug/../application/whets.c:319
                e1[0] = (e1[0] + e1[1] + e1[2] - e1[3]) * t;
80000be4:	10d2f353          	fmul.s	ft6,ft5,fa3
E:\NucleiStudio_Workspace\e203Whetstone_test\Debug/../application/whets.c:320
                e1[1] = (e1[0] + e1[1] - e1[2] + e1[3]) * t;
80000be8:	0067f3d3          	fadd.s	ft7,fa5,ft6
E:\NucleiStudio_Workspace\e203Whetstone_test\Debug/../application/whets.c:321
                e1[2] = (e1[0] - e1[1] + e1[2] + e1[3]) * t;
80000bec:	00627453          	fadd.s	fs0,ft4,ft6
E:\NucleiStudio_Workspace\e203Whetstone_test\Debug/../application/whets.c:322
                e1[3] = (-e1[0] + e1[1] + e1[2] + e1[3]) * t;
80000bf0:	08617853          	fsub.s	fa6,ft2,ft6
E:\NucleiStudio_Workspace\e203Whetstone_test\Debug/../application/whets.c:320
                e1[1] = (e1[0] + e1[1] - e1[2] + e1[3]) * t;
80000bf4:	10d3f5d3          	fmul.s	fa1,ft7,fa3
E:\NucleiStudio_Workspace\e203Whetstone_test\Debug/../application/whets.c:321
                e1[2] = (e1[0] - e1[1] + e1[2] + e1[3]) * t;
80000bf8:	08b47653          	fsub.s	fa2,fs0,fa1
E:\NucleiStudio_Workspace\e203Whetstone_test\Debug/../application/whets.c:322
                e1[3] = (-e1[0] + e1[1] + e1[2] + e1[3]) * t;
80000bfc:	00b878d3          	fadd.s	fa7,fa6,fa1
E:\NucleiStudio_Workspace\e203Whetstone_test\Debug/../application/whets.c:321
                e1[2] = (e1[0] - e1[1] + e1[2] + e1[3]) * t;
80000c00:	10d679d3          	fmul.s	fs3,fa2,fa3
E:\NucleiStudio_Workspace\e203Whetstone_test\Debug/../application/whets.c:322
                e1[3] = (-e1[0] + e1[1] + e1[2] + e1[3]) * t;
80000c04:	0138fa53          	fadd.s	fs4,fa7,fs3
E:\NucleiStudio_Workspace\e203Whetstone_test\Debug/../application/whets.c:319
                e1[0] = (e1[0] + e1[1] + e1[2] - e1[3]) * t;
80000c08:	00b9fad3          	fadd.s	fs5,fs3,fa1
E:\NucleiStudio_Workspace\e203Whetstone_test\Debug/../application/whets.c:322
                e1[3] = (-e1[0] + e1[1] + e1[2] + e1[3]) * t;
80000c0c:	10da7b53          	fmul.s	fs6,fs4,fa3
E:\NucleiStudio_Workspace\e203Whetstone_test\Debug/../application/whets.c:319
                e1[0] = (e1[0] + e1[1] + e1[2] - e1[3]) * t;
80000c10:	096afbd3          	fsub.s	fs7,fs5,fs6
E:\NucleiStudio_Workspace\e203Whetstone_test\Debug/../application/whets.c:320
                e1[1] = (e1[0] + e1[1] - e1[2] + e1[3]) * t;
80000c14:	0165fc53          	fadd.s	fs8,fa1,fs6
E:\NucleiStudio_Workspace\e203Whetstone_test\Debug/../application/whets.c:321
                e1[2] = (e1[0] - e1[1] + e1[2] + e1[3]) * t;
80000c18:	0169fcd3          	fadd.s	fs9,fs3,fs6
E:\NucleiStudio_Workspace\e203Whetstone_test\Debug/../application/whets.c:319
                e1[0] = (e1[0] + e1[1] + e1[2] - e1[3]) * t;
80000c1c:	006bfe53          	fadd.s	ft8,fs7,ft6
E:\NucleiStudio_Workspace\e203Whetstone_test\Debug/../application/whets.c:320
                e1[1] = (e1[0] + e1[1] - e1[2] + e1[3]) * t;
80000c20:	093c7ed3          	fsub.s	ft9,fs8,fs3
E:\NucleiStudio_Workspace\e203Whetstone_test\Debug/../application/whets.c:319
                e1[0] = (e1[0] + e1[1] + e1[2] - e1[3]) * t;
80000c24:	10de7a53          	fmul.s	fs4,ft8,fa3
E:\NucleiStudio_Workspace\e203Whetstone_test\Debug/../application/whets.c:320
                e1[1] = (e1[0] + e1[1] - e1[2] + e1[3]) * t;
80000c28:	014eff53          	fadd.s	ft10,ft9,fs4
E:\NucleiStudio_Workspace\e203Whetstone_test\Debug/../application/whets.c:321
                e1[2] = (e1[0] - e1[1] + e1[2] + e1[3]) * t;
80000c2c:	014cffd3          	fadd.s	ft11,fs9,fs4
E:\NucleiStudio_Workspace\e203Whetstone_test\Debug/../application/whets.c:322
                e1[3] = (-e1[0] + e1[1] + e1[2] + e1[3]) * t;
80000c30:	094b7553          	fsub.s	fa0,fs6,fs4
E:\NucleiStudio_Workspace\e203Whetstone_test\Debug/../application/whets.c:320
                e1[1] = (e1[0] + e1[1] - e1[2] + e1[3]) * t;
80000c34:	10df74d3          	fmul.s	fs1,ft10,fa3
E:\NucleiStudio_Workspace\e203Whetstone_test\Debug/../application/whets.c:321
                e1[2] = (e1[0] - e1[1] + e1[2] + e1[3]) * t;
80000c38:	089ff053          	fsub.s	ft0,ft11,fs1
E:\NucleiStudio_Workspace\e203Whetstone_test\Debug/../application/whets.c:322
                e1[3] = (-e1[0] + e1[1] + e1[2] + e1[3]) * t;
80000c3c:	009570d3          	fadd.s	ft1,fa0,fs1
E:\NucleiStudio_Workspace\e203Whetstone_test\Debug/../application/whets.c:321
                e1[2] = (e1[0] - e1[1] + e1[2] + e1[3]) * t;
80000c40:	10d07ad3          	fmul.s	fs5,ft0,fa3
E:\NucleiStudio_Workspace\e203Whetstone_test\Debug/../application/whets.c:322
                e1[3] = (-e1[0] + e1[1] + e1[2] + e1[3]) * t;
80000c44:	0150f153          	fadd.s	ft2,ft1,fs5
80000c48:	10d17453          	fmul.s	fs0,ft2,fa3
E:\NucleiStudio_Workspace\e203Whetstone_test\Debug/../application/whets.c:318
            for (i = 0; i < n1 * n1mult; i++) {
80000c4c:	ee079fe3          	bnez	a5,80000b4a <whetstones.constprop.0+0x6c>
E:\NucleiStudio_Workspace\e203Whetstone_test\Debug/../application/whets.c:317
        for (ix = 0; ix < xtra; ix++) {
80000c50:	0705                	addi	a4,a4,1
E:\NucleiStudio_Workspace\e203Whetstone_test\Debug/../application/whets.c:324
            }
            t = 1.0 - t;
80000c52:	08d976d3          	fsub.s	fa3,fs2,fa3
E:\NucleiStudio_Workspace\e203Whetstone_test\Debug/../application/whets.c:317
        for (ix = 0; ix < xtra; ix++) {
80000c56:	ef2718e3          	bne	a4,s2,80000b46 <whetstones.constprop.0+0x68>
E:\NucleiStudio_Workspace\e203Whetstone_test\Debug/../application/whets.c:328
        }
        t = t0;
    }
    end_time();
80000c5a:	3599                	jal	80000aa0 <end_time>
E:\NucleiStudio_Workspace\e203Whetstone_test\Debug/../application/whets.c:329
    secs = secs / (SPDP)(n1mult);
80000c5c:	9f418b93          	addi	s7,gp,-1548 # 900003c4 <secs>
80000c60:	000ba187          	flw	ft3,0(s7)
80000c64:	0ffff797          	auipc	a5,0xffff
80000c68:	5f87a707          	flw	fa4,1528(a5) # 9000025c <_impure_ptr+0x84>
pout():
E:\NucleiStudio_Workspace\e203Whetstone_test\Debug/../application/whets.c:516
    SPDP mops, mflops;

    Check = Check + checknum;
    loop_time[section] = time;
    strcpy(headings[section], title);
    TimeUsed = TimeUsed + time;
80000c6c:	a0418993          	addi	s3,gp,-1532 # 900003d4 <TimeUsed>
whetstones():
E:\NucleiStudio_Workspace\e203Whetstone_test\Debug/../application/whets.c:329
    secs = secs / (SPDP)(n1mult);
80000c70:	10e1f253          	fmul.s	ft4,ft3,fa4
pout():
E:\NucleiStudio_Workspace\e203Whetstone_test\Debug/../application/whets.c:513
    Check = Check + checknum;
80000c74:	000a2287          	flw	ft5,0(s4)
E:\NucleiStudio_Workspace\e203Whetstone_test\Debug/../application/whets.c:516
    TimeUsed = TimeUsed + time;
80000c78:	0009a787          	flw	fa5,0(s3)
E:\NucleiStudio_Workspace\e203Whetstone_test\Debug/../application/whets.c:515
    strcpy(headings[section], title);
80000c7c:	00008497          	auipc	s1,0x8
80000c80:	4f848493          	addi	s1,s1,1272 # 80009174 <__trunctfdf2+0x61c>
E:\NucleiStudio_Workspace\e203Whetstone_test\Debug/../application/whets.c:513
    Check = Check + checknum;
80000c84:	0082f353          	fadd.s	ft6,ft5,fs0
whetstones():
E:\NucleiStudio_Workspace\e203Whetstone_test\Debug/../application/whets.c:329
    secs = secs / (SPDP)(n1mult);
80000c88:	004ba027          	fsw	ft4,0(s7)
E:\NucleiStudio_Workspace\e203Whetstone_test\Debug/../application/whets.c:330
    pout("N1 floating point\0", (float)(n1 * 16) * (float)(xtra), 1, e1[3],
80000c8c:	000bab07          	flw	fs6,0(s7)
pout():
E:\NucleiStudio_Workspace\e203Whetstone_test\Debug/../application/whets.c:515
    strcpy(headings[section], title);
80000c90:	0004d303          	lhu	t1,0(s1)
80000c94:	0024d883          	lhu	a7,2(s1)
E:\NucleiStudio_Workspace\e203Whetstone_test\Debug/../application/whets.c:516
    TimeUsed = TimeUsed + time;
80000c98:	0167f3d3          	fadd.s	ft7,fa5,fs6
E:\NucleiStudio_Workspace\e203Whetstone_test\Debug/../application/whets.c:515
    strcpy(headings[section], title);
80000c9c:	0044d803          	lhu	a6,4(s1)
80000ca0:	0064d503          	lhu	a0,6(s1)
80000ca4:	0084d583          	lhu	a1,8(s1)
80000ca8:	00a4d603          	lhu	a2,10(s1)
80000cac:	00c4d283          	lhu	t0,12(s1)
80000cb0:	00e4d383          	lhu	t2,14(s1)
80000cb4:	0104dc03          	lhu	s8,16(s1)
80000cb8:	ab418413          	addi	s0,gp,-1356 # 90000484 <headings>
E:\NucleiStudio_Workspace\e203Whetstone_test\Debug/../application/whets.c:514
    loop_time[section] = time;
80000cbc:	b5818a93          	addi	s5,gp,-1192 # 90000528 <loop_time>
E:\NucleiStudio_Workspace\e203Whetstone_test\Debug/../application/whets.c:513
    Check = Check + checknum;
80000cc0:	006a2027          	fsw	ft6,0(s4)
E:\NucleiStudio_Workspace\e203Whetstone_test\Debug/../application/whets.c:514
    loop_time[section] = time;
80000cc4:	016aa227          	fsw	fs6,4(s5)
E:\NucleiStudio_Workspace\e203Whetstone_test\Debug/../application/whets.c:515
    strcpy(headings[section], title);
80000cc8:	00641923          	sh	t1,18(s0)
80000ccc:	01141a23          	sh	a7,20(s0)
80000cd0:	01041b23          	sh	a6,22(s0)
80000cd4:	00a41c23          	sh	a0,24(s0)
80000cd8:	00b41d23          	sh	a1,26(s0)
80000cdc:	00c41e23          	sh	a2,28(s0)
80000ce0:	00541f23          	sh	t0,30(s0)
80000ce4:	02741023          	sh	t2,32(s0)
80000ce8:	03841123          	sh	s8,34(s0)
E:\NucleiStudio_Workspace\e203Whetstone_test\Debug/../application/whets.c:516
    TimeUsed = TimeUsed + time;
80000cec:	0079a027          	fsw	ft7,0(s3)
E:\NucleiStudio_Workspace\e203Whetstone_test\Debug/../application/whets.c:517
    if (calibrate == 1)
80000cf0:	4c85                	li	s9,1
whetstones():
E:\NucleiStudio_Workspace\e203Whetstone_test\Debug/../application/whets.c:330
    pout("N1 floating point\0", (float)(n1 * 16) * (float)(xtra), 1, e1[3],
80000cf2:	d00979d3          	fcvt.s.w	fs3,s2
pout():
E:\NucleiStudio_Workspace\e203Whetstone_test\Debug/../application/whets.c:517
    if (calibrate == 1)
80000cf6:	4d9b0163          	beq	s6,s9,800011b8 <whetstones.constprop.0+0x6da>
E:\NucleiStudio_Workspace\e203Whetstone_test\Debug/../application/whets.c:522

    {
        results[section] = checknum;
    }
    if (calibrate == 0) {
80000cfa:	060b1263          	bnez	s6,80000d5e <whetstones.constprop.0+0x280>
E:\NucleiStudio_Workspace\e203Whetstone_test\Debug/../application/whets.c:523
        printf("%s %20.17f    ", headings[section], results[section]);
80000cfe:	b801a507          	flw	fa0,-1152(gp) # 90000550 <results+0x4>
80000d02:	506030ef          	jal	ra,80004208 <__extendsfdf2>
80000d06:	862a                	mv	a2,a0
80000d08:	86ae                	mv	a3,a1
80000d0a:	00008517          	auipc	a0,0x8
80000d0e:	29e50513          	addi	a0,a0,670 # 80008fa8 <__trunctfdf2+0x450>
80000d12:	ac618593          	addi	a1,gp,-1338 # 90000496 <headings+0x12>
80000d16:	290040ef          	jal	ra,80004fa6 <iprintf>
E:\NucleiStudio_Workspace\e203Whetstone_test\Debug/../application/whets.c:526

        if (type == 1) {
            if (time > 0) {
80000d1a:	f0000853          	fmv.w.x	fa6,zero
80000d1e:	a1681d53          	flt.s	s10,fa6,fs6
80000d22:	000d1463          	bnez	s10,80000d2a <whetstones.constprop.0+0x24c>
80000d26:	5ef0006f          	j	80001b14 <whetstones.constprop.0+0x1036>
E:\NucleiStudio_Workspace\e203Whetstone_test\Debug/../application/whets.c:527
                mflops = ops / (1000000L * time);
80000d2a:	0ffff797          	auipc	a5,0xffff
80000d2e:	5367a587          	flw	fa1,1334(a5) # 90000260 <_impure_ptr+0x88>
80000d32:	10b9f653          	fmul.s	fa2,fs3,fa1
E:\NucleiStudio_Workspace\e203Whetstone_test\Debug/../application/whets.c:533
            } else {
                mflops = 0;
            }
            loop_mops[section] = 99999;
            loop_mflops[section] = mflops;
            printf(" %9.3f          %9.3f\n", loop_mflops[section],
80000d36:	19667553          	fdiv.s	fa0,fa2,fs6
80000d3a:	4ce030ef          	jal	ra,80004208 <__extendsfdf2>
80000d3e:	8caa                	mv	s9,a0
80000d40:	8c2e                	mv	s8,a1
80000d42:	004aa507          	flw	fa0,4(s5)
80000d46:	4c2030ef          	jal	ra,80004208 <__extendsfdf2>
80000d4a:	872a                	mv	a4,a0
80000d4c:	87ae                	mv	a5,a1
80000d4e:	8666                	mv	a2,s9
80000d50:	86e2                	mv	a3,s8
80000d52:	00008517          	auipc	a0,0x8
80000d56:	26650513          	addi	a0,a0,614 # 80008fb8 <__trunctfdf2+0x460>
80000d5a:	24c040ef          	jal	ra,80004fa6 <iprintf>
whetstones():
E:\NucleiStudio_Workspace\e203Whetstone_test\Debug/../application/whets.c:335
    start_time();
80000d5e:	3331                	jal	80000a6a <start_time>
E:\NucleiStudio_Workspace\e203Whetstone_test\Debug/../application/whets.c:337
        for (ix = 0; ix < xtra; ix++) {
80000d60:	19205163          	blez	s2,80000ee2 <whetstones.constprop.0+0x404>
80000d64:	4e01                	li	t3,0
E:\NucleiStudio_Workspace\e203Whetstone_test\Debug/../application/whets.c:326
        t = t0;
80000d66:	0ffff797          	auipc	a5,0xffff
80000d6a:	4de7a687          	flw	fa3,1246(a5) # 90000244 <_impure_ptr+0x6c>
80000d6e:	0ffff797          	auipc	a5,0xffff
80000d72:	4f67a887          	flw	fa7,1270(a5) # 90000264 <_impure_ptr+0x8c>
80000d76:	57800093          	li	ra,1400
pa():
E:\NucleiStudio_Workspace\e203Whetstone_test\Debug/../application/whets.c:481
        e[0] = (e[0] + e[1] + e[2] - e[3]) * t;
80000d7a:	009afbd3          	fadd.s	fs7,fs5,fs1
E:\NucleiStudio_Workspace\e203Whetstone_test\Debug/../application/whets.c:482
        e[1] = (e[0] + e[1] - e[2] + e[3]) * t;
80000d7e:	0084f4d3          	fadd.s	fs1,fs1,fs0
80000d82:	008afc53          	fadd.s	fs8,fs5,fs0
whetstones():
E:\NucleiStudio_Workspace\e203Whetstone_test\Debug/../application/whets.c:338
            for (i = 0; i < n2; i++) {
80000d86:	10fd                	addi	ra,ra,-1
pa():
E:\NucleiStudio_Workspace\e203Whetstone_test\Debug/../application/whets.c:481
        e[0] = (e[0] + e[1] + e[2] - e[3]) * t;
80000d88:	088bfcd3          	fsub.s	fs9,fs7,fs0
E:\NucleiStudio_Workspace\e203Whetstone_test\Debug/../application/whets.c:482
        e[1] = (e[0] + e[1] - e[2] + e[3]) * t;
80000d8c:	0954fad3          	fsub.s	fs5,fs1,fs5
E:\NucleiStudio_Workspace\e203Whetstone_test\Debug/../application/whets.c:481
        e[0] = (e[0] + e[1] + e[2] - e[3]) * t;
80000d90:	014cfa53          	fadd.s	fs4,fs9,fs4
E:\NucleiStudio_Workspace\e203Whetstone_test\Debug/../application/whets.c:482
        e[1] = (e[0] + e[1] - e[2] + e[3]) * t;
80000d94:	a8da7e43          	fmadd.s	ft8,fs4,fa3,fs5
80000d98:	c0da7ec3          	fmadd.s	ft9,fs4,fa3,fs8
80000d9c:	40da744b          	fnmsub.s	fs0,fs4,fa3,fs0
80000da0:	10de7f53          	fmul.s	ft10,ft8,fa3
E:\NucleiStudio_Workspace\e203Whetstone_test\Debug/../application/whets.c:483
        e[2] = (e[0] - e[1] + e[2] + e[3]) * t;
80000da4:	09eeffd3          	fsub.s	ft11,ft9,ft10
E:\NucleiStudio_Workspace\e203Whetstone_test\Debug/../application/whets.c:484
        e[3] = (-e[0] + e[1] + e[2] + e[3]) / t2;
80000da8:	008f7053          	fadd.s	ft0,ft10,fs0
E:\NucleiStudio_Workspace\e203Whetstone_test\Debug/../application/whets.c:481
        e[0] = (e[0] + e[1] + e[2] - e[3]) * t;
80000dac:	f0da7543          	fmadd.s	fa0,fs4,fa3,ft10
80000db0:	f0dff0cb          	fnmsub.s	ft1,ft11,fa3,ft10
E:\NucleiStudio_Workspace\e203Whetstone_test\Debug/../application/whets.c:484
        e[3] = (-e[0] + e[1] + e[2] + e[3]) / t2;
80000db4:	00dff143          	fmadd.s	ft2,ft11,fa3,ft0
E:\NucleiStudio_Workspace\e203Whetstone_test\Debug/../application/whets.c:481
        e[0] = (e[0] + e[1] + e[2] - e[3]) * t;
80000db8:	50dff1c3          	fmadd.s	ft3,ft11,fa3,fa0
E:\NucleiStudio_Workspace\e203Whetstone_test\Debug/../application/whets.c:484
        e[3] = (-e[0] + e[1] + e[2] + e[3]) / t2;
80000dbc:	11117253          	fmul.s	ft4,ft2,fa7
E:\NucleiStudio_Workspace\e203Whetstone_test\Debug/../application/whets.c:481
        e[0] = (e[0] + e[1] + e[2] - e[3]) * t;
80000dc0:	0841f2d3          	fsub.s	ft5,ft3,ft4
E:\NucleiStudio_Workspace\e203Whetstone_test\Debug/../application/whets.c:482
        e[1] = (e[0] + e[1] - e[2] + e[3]) * t;
80000dc4:	00127753          	fadd.s	fa4,ft4,ft1
80000dc8:	20dff343          	fmadd.s	ft6,ft11,fa3,ft4
80000dcc:	20d2f7cb          	fnmsub.s	fa5,ft5,fa3,ft4
80000dd0:	70d2fb43          	fmadd.s	fs6,ft5,fa3,fa4
80000dd4:	30d2f3c3          	fmadd.s	ft7,ft5,fa3,ft6
80000dd8:	10db7853          	fmul.s	fa6,fs6,fa3
E:\NucleiStudio_Workspace\e203Whetstone_test\Debug/../application/whets.c:483
        e[2] = (e[0] - e[1] + e[2] + e[3]) * t;
80000ddc:	0903f5d3          	fsub.s	fa1,ft7,fa6
E:\NucleiStudio_Workspace\e203Whetstone_test\Debug/../application/whets.c:484
        e[3] = (-e[0] + e[1] + e[2] + e[3]) / t2;
80000de0:	00f87653          	fadd.s	fa2,fa6,fa5
E:\NucleiStudio_Workspace\e203Whetstone_test\Debug/../application/whets.c:481
        e[0] = (e[0] + e[1] + e[2] - e[3]) * t;
80000de4:	80d2fbc3          	fmadd.s	fs7,ft5,fa3,fa6
80000de8:	80d5f4cb          	fnmsub.s	fs1,fa1,fa3,fa6
E:\NucleiStudio_Workspace\e203Whetstone_test\Debug/../application/whets.c:484
        e[3] = (-e[0] + e[1] + e[2] + e[3]) / t2;
80000dec:	60d5fc43          	fmadd.s	fs8,fa1,fa3,fa2
E:\NucleiStudio_Workspace\e203Whetstone_test\Debug/../application/whets.c:481
        e[0] = (e[0] + e[1] + e[2] - e[3]) * t;
80000df0:	b8d5fcc3          	fmadd.s	fs9,fa1,fa3,fs7
E:\NucleiStudio_Workspace\e203Whetstone_test\Debug/../application/whets.c:484
        e[3] = (-e[0] + e[1] + e[2] + e[3]) / t2;
80000df4:	111c7ad3          	fmul.s	fs5,fs8,fa7
E:\NucleiStudio_Workspace\e203Whetstone_test\Debug/../application/whets.c:481
        e[0] = (e[0] + e[1] + e[2] - e[3]) * t;
80000df8:	095cfa53          	fsub.s	fs4,fs9,fs5
E:\NucleiStudio_Workspace\e203Whetstone_test\Debug/../application/whets.c:482
        e[1] = (e[0] + e[1] - e[2] + e[3]) * t;
80000dfc:	0154fe53          	fadd.s	ft8,fs1,fs5
80000e00:	a8d5f443          	fmadd.s	fs0,fa1,fa3,fs5
80000e04:	a8da7ecb          	fnmsub.s	ft9,fs4,fa3,fs5
80000e08:	e0da7f43          	fmadd.s	ft10,fs4,fa3,ft8
80000e0c:	40da7fc3          	fmadd.s	ft11,fs4,fa3,fs0
80000e10:	10df7053          	fmul.s	ft0,ft10,fa3
E:\NucleiStudio_Workspace\e203Whetstone_test\Debug/../application/whets.c:483
        e[2] = (e[0] - e[1] + e[2] + e[3]) * t;
80000e14:	080ff0d3          	fsub.s	ft1,ft11,ft0
E:\NucleiStudio_Workspace\e203Whetstone_test\Debug/../application/whets.c:484
        e[3] = (-e[0] + e[1] + e[2] + e[3]) / t2;
80000e18:	01d07153          	fadd.s	ft2,ft0,ft9
E:\NucleiStudio_Workspace\e203Whetstone_test\Debug/../application/whets.c:481
        e[0] = (e[0] + e[1] + e[2] - e[3]) * t;
80000e1c:	00da7543          	fmadd.s	fa0,fs4,fa3,ft0
80000e20:	00d0f1cb          	fnmsub.s	ft3,ft1,fa3,ft0
E:\NucleiStudio_Workspace\e203Whetstone_test\Debug/../application/whets.c:484
        e[3] = (-e[0] + e[1] + e[2] + e[3]) / t2;
80000e24:	10d0f243          	fmadd.s	ft4,ft1,fa3,ft2
E:\NucleiStudio_Workspace\e203Whetstone_test\Debug/../application/whets.c:481
        e[0] = (e[0] + e[1] + e[2] - e[3]) * t;
80000e28:	50d0f2c3          	fmadd.s	ft5,ft1,fa3,fa0
E:\NucleiStudio_Workspace\e203Whetstone_test\Debug/../application/whets.c:484
        e[3] = (-e[0] + e[1] + e[2] + e[3]) / t2;
80000e2c:	11127353          	fmul.s	ft6,ft4,fa7
E:\NucleiStudio_Workspace\e203Whetstone_test\Debug/../application/whets.c:481
        e[0] = (e[0] + e[1] + e[2] - e[3]) * t;
80000e30:	0862fb53          	fsub.s	fs6,ft5,ft6
E:\NucleiStudio_Workspace\e203Whetstone_test\Debug/../application/whets.c:482
        e[1] = (e[0] + e[1] - e[2] + e[3]) * t;
80000e34:	00337753          	fadd.s	fa4,ft6,ft3
80000e38:	30d0f3c3          	fmadd.s	ft7,ft1,fa3,ft6
80000e3c:	30db77cb          	fnmsub.s	fa5,fs6,fa3,ft6
80000e40:	70db7843          	fmadd.s	fa6,fs6,fa3,fa4
80000e44:	38db75c3          	fmadd.s	fa1,fs6,fa3,ft7
80000e48:	10d87653          	fmul.s	fa2,fa6,fa3
E:\NucleiStudio_Workspace\e203Whetstone_test\Debug/../application/whets.c:483
        e[2] = (e[0] - e[1] + e[2] + e[3]) * t;
80000e4c:	08c5fbd3          	fsub.s	fs7,fa1,fa2
E:\NucleiStudio_Workspace\e203Whetstone_test\Debug/../application/whets.c:484
        e[3] = (-e[0] + e[1] + e[2] + e[3]) / t2;
80000e50:	00c7f4d3          	fadd.s	fs1,fa5,fa2
E:\NucleiStudio_Workspace\e203Whetstone_test\Debug/../application/whets.c:481
        e[0] = (e[0] + e[1] + e[2] - e[3]) * t;
80000e54:	60db7c43          	fmadd.s	fs8,fs6,fa3,fa2
80000e58:	60dbfccb          	fnmsub.s	fs9,fs7,fa3,fa2
E:\NucleiStudio_Workspace\e203Whetstone_test\Debug/../application/whets.c:484
        e[3] = (-e[0] + e[1] + e[2] + e[3]) / t2;
80000e5c:	48dbfac3          	fmadd.s	fs5,fs7,fa3,fs1
E:\NucleiStudio_Workspace\e203Whetstone_test\Debug/../application/whets.c:481
        e[0] = (e[0] + e[1] + e[2] - e[3]) * t;
80000e60:	c0dbfa43          	fmadd.s	fs4,fs7,fa3,fs8
E:\NucleiStudio_Workspace\e203Whetstone_test\Debug/../application/whets.c:484
        e[3] = (-e[0] + e[1] + e[2] + e[3]) / t2;
80000e64:	111afe53          	fmul.s	ft8,fs5,fa7
E:\NucleiStudio_Workspace\e203Whetstone_test\Debug/../application/whets.c:481
        e[0] = (e[0] + e[1] + e[2] - e[3]) * t;
80000e68:	09ca7453          	fsub.s	fs0,fs4,ft8
E:\NucleiStudio_Workspace\e203Whetstone_test\Debug/../application/whets.c:482
        e[1] = (e[0] + e[1] - e[2] + e[3]) * t;
80000e6c:	01ccfed3          	fadd.s	ft9,fs9,ft8
80000e70:	e0dbff43          	fmadd.s	ft10,fs7,fa3,ft8
80000e74:	e086ffcb          	fnmsub.s	ft11,fa3,fs0,ft8
80000e78:	e886f043          	fmadd.s	ft0,fa3,fs0,ft9
80000e7c:	f086f0c3          	fmadd.s	ft1,fa3,fs0,ft10
80000e80:	1006f153          	fmul.s	ft2,fa3,ft0
E:\NucleiStudio_Workspace\e203Whetstone_test\Debug/../application/whets.c:483
        e[2] = (e[0] - e[1] + e[2] + e[3]) * t;
80000e84:	0820f1d3          	fsub.s	ft3,ft1,ft2
E:\NucleiStudio_Workspace\e203Whetstone_test\Debug/../application/whets.c:484
        e[3] = (-e[0] + e[1] + e[2] + e[3]) / t2;
80000e88:	002ff253          	fadd.s	ft4,ft11,ft2
E:\NucleiStudio_Workspace\e203Whetstone_test\Debug/../application/whets.c:481
        e[0] = (e[0] + e[1] + e[2] - e[3]) * t;
80000e8c:	1086f543          	fmadd.s	fa0,fa3,fs0,ft2
80000e90:	1036f2cb          	fnmsub.s	ft5,fa3,ft3,ft2
E:\NucleiStudio_Workspace\e203Whetstone_test\Debug/../application/whets.c:484
        e[3] = (-e[0] + e[1] + e[2] + e[3]) / t2;
80000e94:	2036f343          	fmadd.s	ft6,fa3,ft3,ft4
E:\NucleiStudio_Workspace\e203Whetstone_test\Debug/../application/whets.c:481
        e[0] = (e[0] + e[1] + e[2] - e[3]) * t;
80000e98:	5036fb43          	fmadd.s	fs6,fa3,ft3,fa0
E:\NucleiStudio_Workspace\e203Whetstone_test\Debug/../application/whets.c:484
        e[3] = (-e[0] + e[1] + e[2] + e[3]) / t2;
80000e9c:	111373d3          	fmul.s	ft7,ft6,fa7
E:\NucleiStudio_Workspace\e203Whetstone_test\Debug/../application/whets.c:481
        e[0] = (e[0] + e[1] + e[2] - e[3]) * t;
80000ea0:	087b77d3          	fsub.s	fa5,fs6,ft7
E:\NucleiStudio_Workspace\e203Whetstone_test\Debug/../application/whets.c:482
        e[1] = (e[0] + e[1] - e[2] + e[3]) * t;
80000ea4:	0072f853          	fadd.s	fa6,ft5,ft7
80000ea8:	3836f743          	fmadd.s	fa4,fa3,ft3,ft7
E:\NucleiStudio_Workspace\e203Whetstone_test\Debug/../application/whets.c:481
        e[0] = (e[0] + e[1] + e[2] - e[3]) * t;
80000eac:	10d7fa53          	fmul.s	fs4,fa5,fa3
E:\NucleiStudio_Workspace\e203Whetstone_test\Debug/../application/whets.c:482
        e[1] = (e[0] + e[1] - e[2] + e[3]) * t;
80000eb0:	014875d3          	fadd.s	fa1,fa6,fs4
E:\NucleiStudio_Workspace\e203Whetstone_test\Debug/../application/whets.c:483
        e[2] = (e[0] - e[1] + e[2] + e[3]) * t;
80000eb4:	00ea7653          	fadd.s	fa2,fs4,fa4
E:\NucleiStudio_Workspace\e203Whetstone_test\Debug/../application/whets.c:484
        e[3] = (-e[0] + e[1] + e[2] + e[3]) / t2;
80000eb8:	0943fbd3          	fsub.s	fs7,ft7,fs4
E:\NucleiStudio_Workspace\e203Whetstone_test\Debug/../application/whets.c:482
        e[1] = (e[0] + e[1] - e[2] + e[3]) * t;
80000ebc:	10d5f4d3          	fmul.s	fs1,fa1,fa3
E:\NucleiStudio_Workspace\e203Whetstone_test\Debug/../application/whets.c:483
        e[2] = (e[0] - e[1] + e[2] + e[3]) * t;
80000ec0:	08967c53          	fsub.s	fs8,fa2,fs1
E:\NucleiStudio_Workspace\e203Whetstone_test\Debug/../application/whets.c:484
        e[3] = (-e[0] + e[1] + e[2] + e[3]) / t2;
80000ec4:	009bfcd3          	fadd.s	fs9,fs7,fs1
E:\NucleiStudio_Workspace\e203Whetstone_test\Debug/../application/whets.c:483
        e[2] = (e[0] - e[1] + e[2] + e[3]) * t;
80000ec8:	10dc7ad3          	fmul.s	fs5,fs8,fa3
E:\NucleiStudio_Workspace\e203Whetstone_test\Debug/../application/whets.c:484
        e[3] = (-e[0] + e[1] + e[2] + e[3]) / t2;
80000ecc:	015cfe53          	fadd.s	ft8,fs9,fs5
80000ed0:	111e7453          	fmul.s	fs0,ft8,fa7
whetstones():
E:\NucleiStudio_Workspace\e203Whetstone_test\Debug/../application/whets.c:338
            for (i = 0; i < n2; i++) {
80000ed4:	ea0093e3          	bnez	ra,80000d7a <whetstones.constprop.0+0x29c>
E:\NucleiStudio_Workspace\e203Whetstone_test\Debug/../application/whets.c:337
        for (ix = 0; ix < xtra; ix++) {
80000ed8:	0e05                	addi	t3,t3,1
E:\NucleiStudio_Workspace\e203Whetstone_test\Debug/../application/whets.c:341
            t = 1.0 - t;
80000eda:	08d976d3          	fsub.s	fa3,fs2,fa3
E:\NucleiStudio_Workspace\e203Whetstone_test\Debug/../application/whets.c:337
        for (ix = 0; ix < xtra; ix++) {
80000ede:	e9c91ce3          	bne	s2,t3,80000d76 <whetstones.constprop.0+0x298>
E:\NucleiStudio_Workspace\e203Whetstone_test\Debug/../application/whets.c:345
    end_time();
80000ee2:	3e7d                	jal	80000aa0 <end_time>
pout():
E:\NucleiStudio_Workspace\e203Whetstone_test\Debug/../application/whets.c:513
    Check = Check + checknum;
80000ee4:	000a2887          	flw	fa7,0(s4)
whetstones():
E:\NucleiStudio_Workspace\e203Whetstone_test\Debug/../application/whets.c:346
    pout("N2 floating point\0", (float)(n2 * 96) * (float)(xtra), 1, e1[3],
80000ee8:	000bab07          	flw	fs6,0(s7)
pout():
E:\NucleiStudio_Workspace\e203Whetstone_test\Debug/../application/whets.c:516
    TimeUsed = TimeUsed + time;
80000eec:	0009ae87          	flw	ft9,0(s3)
E:\NucleiStudio_Workspace\e203Whetstone_test\Debug/../application/whets.c:513
    Check = Check + checknum;
80000ef0:	0088ff53          	fadd.s	ft10,fa7,fs0
E:\NucleiStudio_Workspace\e203Whetstone_test\Debug/../application/whets.c:515
    strcpy(headings[section], title);
80000ef4:	0144ae83          	lw	t4,20(s1)
E:\NucleiStudio_Workspace\e203Whetstone_test\Debug/../application/whets.c:516
    TimeUsed = TimeUsed + time;
80000ef8:	016effd3          	fadd.s	ft11,ft9,fs6
E:\NucleiStudio_Workspace\e203Whetstone_test\Debug/../application/whets.c:515
    strcpy(headings[section], title);
80000efc:	0184af03          	lw	t5,24(s1)
80000f00:	01c4af83          	lw	t6,28(s1)
80000f04:	5094                	lw	a3,32(s1)
80000f06:	0244d783          	lhu	a5,36(s1)
E:\NucleiStudio_Workspace\e203Whetstone_test\Debug/../application/whets.c:513
    Check = Check + checknum;
80000f0a:	01ea2027          	fsw	ft10,0(s4)
E:\NucleiStudio_Workspace\e203Whetstone_test\Debug/../application/whets.c:514
    loop_time[section] = time;
80000f0e:	016aa427          	fsw	fs6,8(s5)
E:\NucleiStudio_Workspace\e203Whetstone_test\Debug/../application/whets.c:515
    strcpy(headings[section], title);
80000f12:	03d42223          	sw	t4,36(s0)
80000f16:	03e42423          	sw	t5,40(s0)
80000f1a:	03f42623          	sw	t6,44(s0)
80000f1e:	d814                	sw	a3,48(s0)
80000f20:	02f41a23          	sh	a5,52(s0)
E:\NucleiStudio_Workspace\e203Whetstone_test\Debug/../application/whets.c:516
    TimeUsed = TimeUsed + time;
80000f24:	01f9a027          	fsw	ft11,0(s3)
E:\NucleiStudio_Workspace\e203Whetstone_test\Debug/../application/whets.c:517
    if (calibrate == 1)
80000f28:	4705                	li	a4,1
80000f2a:	26eb0fe3          	beq	s6,a4,800019a8 <whetstones.constprop.0+0xeca>
E:\NucleiStudio_Workspace\e203Whetstone_test\Debug/../application/whets.c:522
    if (calibrate == 0) {
80000f2e:	060b1063          	bnez	s6,80000f8e <whetstones.constprop.0+0x4b0>
E:\NucleiStudio_Workspace\e203Whetstone_test\Debug/../application/whets.c:523
        printf("%s %20.17f    ", headings[section], results[section]);
80000f32:	b841a507          	flw	fa0,-1148(gp) # 90000554 <results+0x8>
80000f36:	2d2030ef          	jal	ra,80004208 <__extendsfdf2>
80000f3a:	862a                	mv	a2,a0
80000f3c:	86ae                	mv	a3,a1
80000f3e:	00008517          	auipc	a0,0x8
80000f42:	06a50513          	addi	a0,a0,106 # 80008fa8 <__trunctfdf2+0x450>
80000f46:	ad818593          	addi	a1,gp,-1320 # 900004a8 <headings+0x24>
80000f4a:	05c040ef          	jal	ra,80004fa6 <iprintf>
E:\NucleiStudio_Workspace\e203Whetstone_test\Debug/../application/whets.c:526
            if (time > 0) {
80000f4e:	f0000053          	fmv.w.x	ft0,zero
80000f52:	a1601353          	flt.s	t1,ft0,fs6
80000f56:	3a030be3          	beqz	t1,80001b0c <whetstones.constprop.0+0x102e>
E:\NucleiStudio_Workspace\e203Whetstone_test\Debug/../application/whets.c:527
                mflops = ops / (1000000L * time);
80000f5a:	0ffff797          	auipc	a5,0xffff
80000f5e:	30e7a087          	flw	ft1,782(a5) # 90000268 <_impure_ptr+0x90>
80000f62:	1019f153          	fmul.s	ft2,fs3,ft1
E:\NucleiStudio_Workspace\e203Whetstone_test\Debug/../application/whets.c:533
            printf(" %9.3f          %9.3f\n", loop_mflops[section],
80000f66:	19617553          	fdiv.s	fa0,ft2,fs6
80000f6a:	29e030ef          	jal	ra,80004208 <__extendsfdf2>
80000f6e:	8d2a                	mv	s10,a0
80000f70:	8cae                	mv	s9,a1
80000f72:	008aa507          	flw	fa0,8(s5)
80000f76:	292030ef          	jal	ra,80004208 <__extendsfdf2>
80000f7a:	872a                	mv	a4,a0
80000f7c:	87ae                	mv	a5,a1
80000f7e:	866a                	mv	a2,s10
80000f80:	86e6                	mv	a3,s9
80000f82:	00008517          	auipc	a0,0x8
80000f86:	03650513          	addi	a0,a0,54 # 80008fb8 <__trunctfdf2+0x460>
80000f8a:	01c040ef          	jal	ra,80004fa6 <iprintf>
whetstones():
E:\NucleiStudio_Workspace\e203Whetstone_test\Debug/../application/whets.c:351
    start_time();
80000f8e:	3cf1                	jal	80000a6a <start_time>
E:\NucleiStudio_Workspace\e203Whetstone_test\Debug/../application/whets.c:353
        for (ix = 0; ix < xtra; ix++) {
80000f90:	232052e3          	blez	s2,800019b4 <whetstones.constprop.0+0xed6>
E:\NucleiStudio_Workspace\e203Whetstone_test\Debug/../application/whets.c:376
    end_time();
80000f94:	3631                	jal	80000aa0 <end_time>
pout():
E:\NucleiStudio_Workspace\e203Whetstone_test\Debug/../application/whets.c:513
    Check = Check + checknum;
80000f96:	000a2707          	flw	fa4,0(s4)
whetstones():
E:\NucleiStudio_Workspace\e203Whetstone_test\Debug/../application/whets.c:377
    pout("N3 if then else  \0", (float)(n3 * 3) * (float)(xtra), 2, (SPDP)(j),
80000f9a:	000baa07          	flw	fs4,0(s7)
pout():
E:\NucleiStudio_Workspace\e203Whetstone_test\Debug/../application/whets.c:516
    TimeUsed = TimeUsed + time;
80000f9e:	0009a587          	flw	fa1,0(s3)
E:\NucleiStudio_Workspace\e203Whetstone_test\Debug/../application/whets.c:513
    Check = Check + checknum;
80000fa2:	01277653          	fadd.s	fa2,fa4,fs2
E:\NucleiStudio_Workspace\e203Whetstone_test\Debug/../application/whets.c:515
    strcpy(headings[section], title);
80000fa6:	08c4d303          	lhu	t1,140(s1)
E:\NucleiStudio_Workspace\e203Whetstone_test\Debug/../application/whets.c:516
    TimeUsed = TimeUsed + time;
80000faa:	0145fbd3          	fadd.s	fs7,fa1,fs4
E:\NucleiStudio_Workspace\e203Whetstone_test\Debug/../application/whets.c:515
    strcpy(headings[section], title);
80000fae:	08e4dc83          	lhu	s9,142(s1)
80000fb2:	0904d283          	lhu	t0,144(s1)
80000fb6:	0924d883          	lhu	a7,146(s1)
80000fba:	0944d803          	lhu	a6,148(s1)
80000fbe:	0964d503          	lhu	a0,150(s1)
80000fc2:	0984d583          	lhu	a1,152(s1)
80000fc6:	09a4d603          	lhu	a2,154(s1)
80000fca:	09c4d383          	lhu	t2,156(s1)
E:\NucleiStudio_Workspace\e203Whetstone_test\Debug/../application/whets.c:513
    Check = Check + checknum;
80000fce:	00ca2027          	fsw	fa2,0(s4)
E:\NucleiStudio_Workspace\e203Whetstone_test\Debug/../application/whets.c:514
    loop_time[section] = time;
80000fd2:	014aa627          	fsw	fs4,12(s5)
E:\NucleiStudio_Workspace\e203Whetstone_test\Debug/../application/whets.c:515
    strcpy(headings[section], title);
80000fd6:	02641b23          	sh	t1,54(s0)
80000fda:	03941c23          	sh	s9,56(s0)
80000fde:	02541d23          	sh	t0,58(s0)
80000fe2:	03141e23          	sh	a7,60(s0)
80000fe6:	03041f23          	sh	a6,62(s0)
80000fea:	04a41023          	sh	a0,64(s0)
80000fee:	04b41123          	sh	a1,66(s0)
80000ff2:	04c41223          	sh	a2,68(s0)
80000ff6:	04741323          	sh	t2,70(s0)
E:\NucleiStudio_Workspace\e203Whetstone_test\Debug/../application/whets.c:516
    TimeUsed = TimeUsed + time;
80000ffa:	0179a027          	fsw	fs7,0(s3)
E:\NucleiStudio_Workspace\e203Whetstone_test\Debug/../application/whets.c:517
    if (calibrate == 1)
80000ffe:	4c05                	li	s8,1
80001000:	1b8b0763          	beq	s6,s8,800011ae <whetstones.constprop.0+0x6d0>
E:\NucleiStudio_Workspace\e203Whetstone_test\Debug/../application/whets.c:522
    if (calibrate == 0) {
80001004:	0a0b1363          	bnez	s6,800010aa <whetstones.constprop.0+0x5cc>
E:\NucleiStudio_Workspace\e203Whetstone_test\Debug/../application/whets.c:523
        printf("%s %20.17f    ", headings[section], results[section]);
80001008:	b7c18c13          	addi	s8,gp,-1156 # 9000054c <results>
8000100c:	00cc2507          	flw	fa0,12(s8)
E:\NucleiStudio_Workspace\e203Whetstone_test\Debug/../application/whets.c:536
                   loop_time[section]);
        } else {
            if (time > 0) {
80001010:	f0000ad3          	fmv.w.x	fs5,zero
E:\NucleiStudio_Workspace\e203Whetstone_test\Debug/../application/whets.c:523
        printf("%s %20.17f    ", headings[section], results[section]);
80001014:	1f4030ef          	jal	ra,80004208 <__extendsfdf2>
80001018:	86ae                	mv	a3,a1
8000101a:	862a                	mv	a2,a0
8000101c:	aea18593          	addi	a1,gp,-1302 # 900004ba <headings+0x36>
80001020:	00008517          	auipc	a0,0x8
80001024:	f8850513          	addi	a0,a0,-120 # 80008fa8 <__trunctfdf2+0x450>
80001028:	77f030ef          	jal	ra,80004fa6 <iprintf>
E:\NucleiStudio_Workspace\e203Whetstone_test\Debug/../application/whets.c:536
            if (time > 0) {
8000102c:	a14a96d3          	flt.s	a3,fs5,fs4
80001030:	2a068fe3          	beqz	a3,80001aee <whetstones.constprop.0+0x1010>
E:\NucleiStudio_Workspace\e203Whetstone_test\Debug/../application/whets.c:537
                mops = ops / (1000000L * time);
80001034:	0ffff797          	auipc	a5,0xffff
80001038:	2387ae07          	flw	ft8,568(a5) # 9000026c <_impure_ptr+0x94>
8000103c:	11c9f453          	fmul.s	fs0,fs3,ft8
E:\NucleiStudio_Workspace\e203Whetstone_test\Debug/../application/whets.c:543
            } else {
                mops = 0;
            }
            loop_mops[section] = mops;
            loop_mflops[section] = 0;
            printf("           %9.3f%9.3f\n", loop_mops[section],
80001040:	19447553          	fdiv.s	fa0,fs0,fs4
80001044:	1c4030ef          	jal	ra,80004208 <__extendsfdf2>
80001048:	8d2a                	mv	s10,a0
8000104a:	8cae                	mv	s9,a1
8000104c:	00caa507          	flw	fa0,12(s5)
80001050:	1b8030ef          	jal	ra,80004208 <__extendsfdf2>
80001054:	872a                	mv	a4,a0
80001056:	87ae                	mv	a5,a1
80001058:	866a                	mv	a2,s10
8000105a:	86e6                	mv	a3,s9
8000105c:	00008517          	auipc	a0,0x8
80001060:	f7450513          	addi	a0,a0,-140 # 80008fd0 <__trunctfdf2+0x478>
80001064:	743030ef          	jal	ra,80004fa6 <iprintf>
whetstones():
E:\NucleiStudio_Workspace\e203Whetstone_test\Debug/../application/whets.c:386
    start_time();
80001068:	3409                	jal	80000a6a <start_time>
E:\NucleiStudio_Workspace\e203Whetstone_test\Debug/../application/whets.c:388
        for (ix = 0; ix < xtra; ix++) {
8000106a:	05204363          	bgtz	s2,800010b0 <whetstones.constprop.0+0x5d2>
E:\NucleiStudio_Workspace\e203Whetstone_test\Debug/../application/whets.c:399
    end_time();
8000106e:	3c0d                	jal	80000aa0 <end_time>
pout():
E:\NucleiStudio_Workspace\e203Whetstone_test\Debug/../application/whets.c:516
    TimeUsed = TimeUsed + time;
80001070:	0009a687          	flw	fa3,0(s3)
whetstones():
E:\NucleiStudio_Workspace\e203Whetstone_test\Debug/../application/whets.c:401
    pout("N4 fixed point   \0", (float)(n4 * 15) * (float)(xtra), 2, x, secs,
80001074:	000bab07          	flw	fs6,0(s7)
pout():
E:\NucleiStudio_Workspace\e203Whetstone_test\Debug/../application/whets.c:515
    strcpy(headings[section], title);
80001078:	0284a303          	lw	t1,40(s1)
8000107c:	02c4a283          	lw	t0,44(s1)
E:\NucleiStudio_Workspace\e203Whetstone_test\Debug/../application/whets.c:516
    TimeUsed = TimeUsed + time;
80001080:	0166f8d3          	fadd.s	fa7,fa3,fs6
E:\NucleiStudio_Workspace\e203Whetstone_test\Debug/../application/whets.c:515
    strcpy(headings[section], title);
80001084:	0304a883          	lw	a7,48(s1)
80001088:	58d8                	lw	a4,52(s1)
8000108a:	0384d783          	lhu	a5,56(s1)
E:\NucleiStudio_Workspace\e203Whetstone_test\Debug/../application/whets.c:514
    loop_time[section] = time;
8000108e:	016aa827          	fsw	fs6,16(s5)
E:\NucleiStudio_Workspace\e203Whetstone_test\Debug/../application/whets.c:515
    strcpy(headings[section], title);
80001092:	04642423          	sw	t1,72(s0)
80001096:	04542623          	sw	t0,76(s0)
8000109a:	05142823          	sw	a7,80(s0)
8000109e:	c878                	sw	a4,84(s0)
800010a0:	04f41c23          	sh	a5,88(s0)
E:\NucleiStudio_Workspace\e203Whetstone_test\Debug/../application/whets.c:516
    TimeUsed = TimeUsed + time;
800010a4:	0119a027          	fsw	fa7,0(s3)
E:\NucleiStudio_Workspace\e203Whetstone_test\Debug/../application/whets.c:522
    if (calibrate == 0) {
800010a8:	a065                	j	80001150 <whetstones.constprop.0+0x672>
whetstones():
E:\NucleiStudio_Workspace\e203Whetstone_test\Debug/../application/whets.c:386
    start_time();
800010aa:	32c1                	jal	80000a6a <start_time>
E:\NucleiStudio_Workspace\e203Whetstone_test\Debug/../application/whets.c:388
        for (ix = 0; ix < xtra; ix++) {
800010ac:	27205ee3          	blez	s2,80001b28 <whetstones.constprop.0+0x104a>
E:\NucleiStudio_Workspace\e203Whetstone_test\Debug/../application/whets.c:384
    e1[0] = 0.0;
800010b0:	f0000a53          	fmv.w.x	fs4,zero
E:\NucleiStudio_Workspace\e203Whetstone_test\Debug/../application/whets.c:388
        for (ix = 0; ix < xtra; ix++) {
800010b4:	4501                	li	a0,0
800010b6:	0ffff797          	auipc	a5,0xffff
800010ba:	1ba7ae87          	flw	ft9,442(a5) # 90000270 <_impure_ptr+0x98>
800010be:	6095                	lui	ra,0x5
800010c0:	20808813          	addi	a6,ra,520 # 5208 <__stack_size+0x4a08>
E:\NucleiStudio_Workspace\e203Whetstone_test\Debug/../application/whets.c:393
                e1[l - 2] = e1[l - 2] + j + k + l;
800010c4:	01da7f53          	fadd.s	ft10,fs4,ft9
E:\NucleiStudio_Workspace\e203Whetstone_test\Debug/../application/whets.c:389
            for (i = 0; i < n4; i++) {
800010c8:	1861                	addi	a6,a6,-8
E:\NucleiStudio_Workspace\e203Whetstone_test\Debug/../application/whets.c:393
                e1[l - 2] = e1[l - 2] + j + k + l;
800010ca:	01df7fd3          	fadd.s	ft11,ft10,ft9
800010ce:	01dff053          	fadd.s	ft0,ft11,ft9
800010d2:	01d070d3          	fadd.s	ft1,ft0,ft9
800010d6:	01d0f153          	fadd.s	ft2,ft1,ft9
800010da:	01d171d3          	fadd.s	ft3,ft2,ft9
800010de:	01d1f253          	fadd.s	ft4,ft3,ft9
800010e2:	01d27a53          	fadd.s	fs4,ft4,ft9
E:\NucleiStudio_Workspace\e203Whetstone_test\Debug/../application/whets.c:389
            for (i = 0; i < n4; i++) {
800010e6:	fc081fe3          	bnez	a6,800010c4 <whetstones.constprop.0+0x5e6>
E:\NucleiStudio_Workspace\e203Whetstone_test\Debug/../application/whets.c:388
        for (ix = 0; ix < xtra; ix++) {
800010ea:	0505                	addi	a0,a0,1
800010ec:	fca91ae3          	bne	s2,a0,800010c0 <whetstones.constprop.0+0x5e2>
E:\NucleiStudio_Workspace\e203Whetstone_test\Debug/../application/whets.c:399
    end_time();
800010f0:	3a45                	jal	80000aa0 <end_time>
E:\NucleiStudio_Workspace\e203Whetstone_test\Debug/../application/whets.c:400
    x = (e1[0] + e1[1]) / (SPDP)n4 / (SPDP)xtra; // was x = e1[0]+e1[1];
800010f2:	0ffff797          	auipc	a5,0xffff
800010f6:	1827a507          	flw	fa0,386(a5) # 90000274 <_impure_ptr+0x9c>
800010fa:	10aa72d3          	fmul.s	ft5,fs4,fa0
E:\NucleiStudio_Workspace\e203Whetstone_test\Debug/../application/whets.c:401
    pout("N4 fixed point   \0", (float)(n4 * 15) * (float)(xtra), 2, x, secs,
800010fe:	000bab07          	flw	fs6,0(s7)
pout():
E:\NucleiStudio_Workspace\e203Whetstone_test\Debug/../application/whets.c:513
    Check = Check + checknum;
80001102:	000a2307          	flw	ft6,0(s4)
E:\NucleiStudio_Workspace\e203Whetstone_test\Debug/../application/whets.c:516
    TimeUsed = TimeUsed + time;
80001106:	0009a387          	flw	ft7,0(s3)
E:\NucleiStudio_Workspace\e203Whetstone_test\Debug/../application/whets.c:515
    strcpy(headings[section], title);
8000110a:	548c                	lw	a1,40(s1)
whetstones():
E:\NucleiStudio_Workspace\e203Whetstone_test\Debug/../application/whets.c:400
    x = (e1[0] + e1[1]) / (SPDP)n4 / (SPDP)xtra; // was x = e1[0]+e1[1];
8000110c:	1932f7d3          	fdiv.s	fa5,ft5,fs3
pout():
E:\NucleiStudio_Workspace\e203Whetstone_test\Debug/../application/whets.c:516
    TimeUsed = TimeUsed + time;
80001110:	0163f853          	fadd.s	fa6,ft7,fs6
E:\NucleiStudio_Workspace\e203Whetstone_test\Debug/../application/whets.c:515
    strcpy(headings[section], title);
80001114:	54d0                	lw	a2,44(s1)
80001116:	0304a383          	lw	t2,48(s1)
8000111a:	0344ae03          	lw	t3,52(s1)
8000111e:	0384de83          	lhu	t4,56(s1)
E:\NucleiStudio_Workspace\e203Whetstone_test\Debug/../application/whets.c:514
    loop_time[section] = time;
80001122:	016aa827          	fsw	fs6,16(s5)
E:\NucleiStudio_Workspace\e203Whetstone_test\Debug/../application/whets.c:515
    strcpy(headings[section], title);
80001126:	c42c                	sw	a1,72(s0)
80001128:	c470                	sw	a2,76(s0)
8000112a:	04742823          	sw	t2,80(s0)
8000112e:	05c42a23          	sw	t3,84(s0)
80001132:	05d41c23          	sh	t4,88(s0)
E:\NucleiStudio_Workspace\e203Whetstone_test\Debug/../application/whets.c:516
    TimeUsed = TimeUsed + time;
80001136:	0109a027          	fsw	fa6,0(s3)
E:\NucleiStudio_Workspace\e203Whetstone_test\Debug/../application/whets.c:517
    if (calibrate == 1)
8000113a:	4f05                	li	t5,1
E:\NucleiStudio_Workspace\e203Whetstone_test\Debug/../application/whets.c:513
    Check = Check + checknum;
8000113c:	00f37753          	fadd.s	fa4,ft6,fa5
80001140:	00ea2027          	fsw	fa4,0(s4)
E:\NucleiStudio_Workspace\e203Whetstone_test\Debug/../application/whets.c:517
    if (calibrate == 1)
80001144:	07eb0d63          	beq	s6,t5,800011be <whetstones.constprop.0+0x6e0>
E:\NucleiStudio_Workspace\e203Whetstone_test\Debug/../application/whets.c:522
    if (calibrate == 0) {
80001148:	120b1ee3          	bnez	s6,80001a84 <whetstones.constprop.0+0xfa6>
8000114c:	b7c18c13          	addi	s8,gp,-1156 # 9000054c <results>
E:\NucleiStudio_Workspace\e203Whetstone_test\Debug/../application/whets.c:523
        printf("%s %20.17f    ", headings[section], results[section]);
80001150:	010c2507          	flw	fa0,16(s8)
80001154:	0b4030ef          	jal	ra,80004208 <__extendsfdf2>
80001158:	862a                	mv	a2,a0
8000115a:	86ae                	mv	a3,a1
8000115c:	00008517          	auipc	a0,0x8
80001160:	e4c50513          	addi	a0,a0,-436 # 80008fa8 <__trunctfdf2+0x450>
80001164:	afc18593          	addi	a1,gp,-1284 # 900004cc <headings+0x48>
80001168:	63f030ef          	jal	ra,80004fa6 <iprintf>
E:\NucleiStudio_Workspace\e203Whetstone_test\Debug/../application/whets.c:536
            if (time > 0) {
8000116c:	f00007d3          	fmv.w.x	fa5,zero
80001170:	a1679fd3          	flt.s	t6,fa5,fs6
80001174:	180f81e3          	beqz	t6,80001af6 <whetstones.constprop.0+0x1018>
E:\NucleiStudio_Workspace\e203Whetstone_test\Debug/../application/whets.c:537
                mops = ops / (1000000L * time);
80001178:	0ffff797          	auipc	a5,0xffff
8000117c:	1007a587          	flw	fa1,256(a5) # 90000278 <_impure_ptr+0xa0>
80001180:	10b9f653          	fmul.s	fa2,fs3,fa1
E:\NucleiStudio_Workspace\e203Whetstone_test\Debug/../application/whets.c:543
            printf("           %9.3f%9.3f\n", loop_mops[section],
80001184:	19667553          	fdiv.s	fa0,fa2,fs6
80001188:	080030ef          	jal	ra,80004208 <__extendsfdf2>
8000118c:	8d2a                	mv	s10,a0
8000118e:	8c2e                	mv	s8,a1
80001190:	010aa507          	flw	fa0,16(s5)
80001194:	074030ef          	jal	ra,80004208 <__extendsfdf2>
80001198:	872a                	mv	a4,a0
8000119a:	87ae                	mv	a5,a1
8000119c:	866a                	mv	a2,s10
8000119e:	86e2                	mv	a3,s8
800011a0:	00008517          	auipc	a0,0x8
800011a4:	e3050513          	addi	a0,a0,-464 # 80008fd0 <__trunctfdf2+0x478>
800011a8:	5ff030ef          	jal	ra,80004fa6 <iprintf>
800011ac:	a829                	j	800011c6 <whetstones.constprop.0+0x6e8>
E:\NucleiStudio_Workspace\e203Whetstone_test\Debug/../application/whets.c:520
        results[section] = checknum;
800011ae:	b921a427          	fsw	fs2,-1144(gp) # 90000558 <results+0xc>
whetstones():
E:\NucleiStudio_Workspace\e203Whetstone_test\Debug/../application/whets.c:386
    start_time();
800011b2:	8b9ff0ef          	jal	ra,80000a6a <start_time>
E:\NucleiStudio_Workspace\e203Whetstone_test\Debug/../application/whets.c:388
        for (ix = 0; ix < xtra; ix++) {
800011b6:	bded                	j	800010b0 <whetstones.constprop.0+0x5d2>
pout():
E:\NucleiStudio_Workspace\e203Whetstone_test\Debug/../application/whets.c:520
        results[section] = checknum;
800011b8:	b881a027          	fsw	fs0,-1152(gp) # 90000550 <results+0x4>
E:\NucleiStudio_Workspace\e203Whetstone_test\Debug/../application/whets.c:522
    if (calibrate == 0) {
800011bc:	b64d                	j	80000d5e <whetstones.constprop.0+0x280>
800011be:	b7c18d13          	addi	s10,gp,-1156 # 9000054c <results>
E:\NucleiStudio_Workspace\e203Whetstone_test\Debug/../application/whets.c:520
        results[section] = checknum;
800011c2:	00fd2827          	fsw	fa5,16(s10)
whetstones():
E:\NucleiStudio_Workspace\e203Whetstone_test\Debug/../application/whets.c:407
    start_time();
800011c6:	8a5ff0ef          	jal	ra,80000a6a <start_time>
E:\NucleiStudio_Workspace\e203Whetstone_test\Debug/../application/whets.c:409
        for (ix = 0; ix < xtra; ix++) {
800011ca:	1b2051e3          	blez	s2,80001b6c <whetstones.constprop.0+0x108e>
E:\NucleiStudio_Workspace\e203Whetstone_test\Debug/../application/whets.c:343
        t = t0;
800011ce:	0ffff797          	auipc	a5,0xffff
800011d2:	0767ab07          	flw	fs6,118(a5) # 90000244 <_impure_ptr+0x6c>
pout():
E:\NucleiStudio_Workspace\e203Whetstone_test\Debug/../application/whets.c:343
800011d6:	21290bd3          	fmv.s	fs7,fs2
whetstones():
E:\NucleiStudio_Workspace\e203Whetstone_test\Debug/../application/whets.c:343
800011da:	216b0ad3          	fmv.s	fs5,fs6
pout():
E:\NucleiStudio_Workspace\e203Whetstone_test\Debug/../application/whets.c:343
800011de:	0ffff797          	auipc	a5,0xffff
800011e2:	06a7a507          	flw	fa0,106(a5) # 90000248 <_impure_ptr+0x70>
whetstones():
E:\NucleiStudio_Workspace\e203Whetstone_test\Debug/../application/whets.c:409
        for (ix = 0; ix < xtra; ix++) {
800011e6:	4c01                	li	s8,0
E:\NucleiStudio_Workspace\e203Whetstone_test\Debug/../application/whets.c:410
            for (i = 1; i < n5; i++) {
800011e8:	6c85                	lui	s9,0x1
E:\NucleiStudio_Workspace\e203Whetstone_test\Debug/../application/whets.c:411
                x = t * atan(t2 * sin(x) * cos(x) /
800011ea:	117af453          	fmul.s	fs0,fs5,fs7
E:\NucleiStudio_Workspace\e203Whetstone_test\Debug/../application/whets.c:413
                y = t * atan(t2 * sin(y) * cos(y) /
800011ee:	10aaf4d3          	fmul.s	fs1,fs5,fa0
E:\NucleiStudio_Workspace\e203Whetstone_test\Debug/../application/whets.c:410
            for (i = 1; i < n5; i++) {
800011f2:	c7ec8d13          	addi	s10,s9,-898 # c7e <__stack_size+0x47e>
E:\NucleiStudio_Workspace\e203Whetstone_test\Debug/../application/whets.c:411
                x = t * atan(t2 * sin(x) * cos(x) /
800011f6:	20840553          	fmv.s	fa0,fs0
E:\NucleiStudio_Workspace\e203Whetstone_test\Debug/../application/whets.c:410
            for (i = 1; i < n5; i++) {
800011fa:	1d7d                	addi	s10,s10,-1
E:\NucleiStudio_Workspace\e203Whetstone_test\Debug/../application/whets.c:411
                x = t * atan(t2 * sin(x) * cos(x) /
800011fc:	5a7000ef          	jal	ra,80001fa2 <sinf>
80001200:	20a50a53          	fmv.s	fs4,fa0
80001204:	20840553          	fmv.s	fa0,fs0
80001208:	52d000ef          	jal	ra,80001f34 <cosf>
8000120c:	20a50bd3          	fmv.s	fs7,fa0
E:\NucleiStudio_Workspace\e203Whetstone_test\Debug/../application/whets.c:412
                             (cos(x + y) + cos(x - y) - 1.0));
80001210:	0084f553          	fadd.s	fa0,fs1,fs0
80001214:	521000ef          	jal	ra,80001f34 <cosf>
80001218:	20a50ed3          	fmv.s	ft9,fa0
8000121c:	08947553          	fsub.s	fa0,fs0,fs1
80001220:	21de8c53          	fmv.s	fs8,ft9
80001224:	511000ef          	jal	ra,80001f34 <cosf>
E:\NucleiStudio_Workspace\e203Whetstone_test\Debug/../application/whets.c:411
                x = t * atan(t2 * sin(x) * cos(x) /
80001228:	117a7f53          	fmul.s	ft10,fs4,fs7
E:\NucleiStudio_Workspace\e203Whetstone_test\Debug/../application/whets.c:412
                             (cos(x + y) + cos(x - y) - 1.0));
8000122c:	00ac7fd3          	fadd.s	ft11,fs8,fa0
E:\NucleiStudio_Workspace\e203Whetstone_test\Debug/../application/whets.c:411
                x = t * atan(t2 * sin(x) * cos(x) /
80001230:	01ef7053          	fadd.s	ft0,ft10,ft10
E:\NucleiStudio_Workspace\e203Whetstone_test\Debug/../application/whets.c:412
                             (cos(x + y) + cos(x - y) - 1.0));
80001234:	092ff0d3          	fsub.s	ft1,ft11,fs2
E:\NucleiStudio_Workspace\e203Whetstone_test\Debug/../application/whets.c:411
                x = t * atan(t2 * sin(x) * cos(x) /
80001238:	18107553          	fdiv.s	fa0,ft0,ft1
8000123c:	30d000ef          	jal	ra,80001d48 <atanf>
80001240:	20a50cd3          	fmv.s	fs9,fa0
E:\NucleiStudio_Workspace\e203Whetstone_test\Debug/../application/whets.c:413
                y = t * atan(t2 * sin(y) * cos(y) /
80001244:	20948553          	fmv.s	fa0,fs1
E:\NucleiStudio_Workspace\e203Whetstone_test\Debug/../application/whets.c:411
                x = t * atan(t2 * sin(x) * cos(x) /
80001248:	119af453          	fmul.s	fs0,fs5,fs9
E:\NucleiStudio_Workspace\e203Whetstone_test\Debug/../application/whets.c:413
                y = t * atan(t2 * sin(y) * cos(y) /
8000124c:	557000ef          	jal	ra,80001fa2 <sinf>
80001250:	20a50a53          	fmv.s	fs4,fa0
80001254:	20948553          	fmv.s	fa0,fs1
80001258:	4dd000ef          	jal	ra,80001f34 <cosf>
8000125c:	20a50bd3          	fmv.s	fs7,fa0
E:\NucleiStudio_Workspace\e203Whetstone_test\Debug/../application/whets.c:414
                             (cos(x + y) + cos(x - y) - 1.0));
80001260:	00947553          	fadd.s	fa0,fs0,fs1
80001264:	4d1000ef          	jal	ra,80001f34 <cosf>
80001268:	20a50153          	fmv.s	ft2,fa0
8000126c:	08947553          	fsub.s	fa0,fs0,fs1
80001270:	202104d3          	fmv.s	fs1,ft2
80001274:	4c1000ef          	jal	ra,80001f34 <cosf>
80001278:	00a4f253          	fadd.s	ft4,fs1,fa0
E:\NucleiStudio_Workspace\e203Whetstone_test\Debug/../application/whets.c:413
                y = t * atan(t2 * sin(y) * cos(y) /
8000127c:	117a71d3          	fmul.s	ft3,fs4,fs7
E:\NucleiStudio_Workspace\e203Whetstone_test\Debug/../application/whets.c:414
                             (cos(x + y) + cos(x - y) - 1.0));
80001280:	09227553          	fsub.s	fa0,ft4,fs2
E:\NucleiStudio_Workspace\e203Whetstone_test\Debug/../application/whets.c:413
                y = t * atan(t2 * sin(y) * cos(y) /
80001284:	0031f2d3          	fadd.s	ft5,ft3,ft3
80001288:	18a2f553          	fdiv.s	fa0,ft5,fa0
8000128c:	2bd000ef          	jal	ra,80001d48 <atanf>
80001290:	10aaf4d3          	fmul.s	fs1,fs5,fa0
E:\NucleiStudio_Workspace\e203Whetstone_test\Debug/../application/whets.c:410
            for (i = 1; i < n5; i++) {
80001294:	f60d11e3          	bnez	s10,800011f6 <whetstones.constprop.0+0x718>
E:\NucleiStudio_Workspace\e203Whetstone_test\Debug/../application/whets.c:409
        for (ix = 0; ix < xtra; ix++) {
80001298:	0c05                	addi	s8,s8,1
E:\NucleiStudio_Workspace\e203Whetstone_test\Debug/../application/whets.c:416
            t = 1.0 - t;
8000129a:	09597ad3          	fsub.s	fs5,fs2,fs5
E:\NucleiStudio_Workspace\e203Whetstone_test\Debug/../application/whets.c:409
        for (ix = 0; ix < xtra; ix++) {
8000129e:	09890d63          	beq	s2,s8,80001338 <whetstones.constprop.0+0x85a>
E:\NucleiStudio_Workspace\e203Whetstone_test\Debug/../application/whets.c:413
                y = t * atan(t2 * sin(y) * cos(y) /
800012a2:	20948553          	fmv.s	fa0,fs1
800012a6:	4fd000ef          	jal	ra,80001fa2 <sinf>
800012aa:	20a50a53          	fmv.s	fs4,fa0
800012ae:	20948553          	fmv.s	fa0,fs1
800012b2:	483000ef          	jal	ra,80001f34 <cosf>
800012b6:	20a50c53          	fmv.s	fs8,fa0
E:\NucleiStudio_Workspace\e203Whetstone_test\Debug/../application/whets.c:411
                x = t * atan(t2 * sin(x) * cos(x) /
800012ba:	20840553          	fmv.s	fa0,fs0
800012be:	4e5000ef          	jal	ra,80001fa2 <sinf>
800012c2:	20a50bd3          	fmv.s	fs7,fa0
800012c6:	20840553          	fmv.s	fa0,fs0
800012ca:	46b000ef          	jal	ra,80001f34 <cosf>
800012ce:	20a50cd3          	fmv.s	fs9,fa0
E:\NucleiStudio_Workspace\e203Whetstone_test\Debug/../application/whets.c:412
                             (cos(x + y) + cos(x - y) - 1.0));
800012d2:	0084f553          	fadd.s	fa0,fs1,fs0
800012d6:	45f000ef          	jal	ra,80001f34 <cosf>
800012da:	20a50753          	fmv.s	fa4,fa0
800012de:	08947553          	fsub.s	fa0,fs0,fs1
800012e2:	20e70453          	fmv.s	fs0,fa4
800012e6:	44f000ef          	jal	ra,80001f34 <cosf>
E:\NucleiStudio_Workspace\e203Whetstone_test\Debug/../application/whets.c:411
                x = t * atan(t2 * sin(x) * cos(x) /
800012ea:	119bf653          	fmul.s	fa2,fs7,fs9
E:\NucleiStudio_Workspace\e203Whetstone_test\Debug/../application/whets.c:412
                             (cos(x + y) + cos(x - y) - 1.0));
800012ee:	00a47e53          	fadd.s	ft8,fs0,fa0
E:\NucleiStudio_Workspace\e203Whetstone_test\Debug/../application/whets.c:411
                x = t * atan(t2 * sin(x) * cos(x) /
800012f2:	00c676d3          	fadd.s	fa3,fa2,fa2
E:\NucleiStudio_Workspace\e203Whetstone_test\Debug/../application/whets.c:412
                             (cos(x + y) + cos(x - y) - 1.0));
800012f6:	092e78d3          	fsub.s	fa7,ft8,fs2
E:\NucleiStudio_Workspace\e203Whetstone_test\Debug/../application/whets.c:411
                x = t * atan(t2 * sin(x) * cos(x) /
800012fa:	1916f553          	fdiv.s	fa0,fa3,fa7
800012fe:	24b000ef          	jal	ra,80001d48 <atanf>
80001302:	20a50bd3          	fmv.s	fs7,fa0
E:\NucleiStudio_Workspace\e203Whetstone_test\Debug/../application/whets.c:414
                             (cos(x + y) + cos(x - y) - 1.0));
80001306:	48aaf543          	fmadd.s	fa0,fs5,fa0,fs1
8000130a:	42b000ef          	jal	ra,80001f34 <cosf>
8000130e:	20a50ed3          	fmv.s	ft9,fa0
80001312:	497af547          	fmsub.s	fa0,fs5,fs7,fs1
80001316:	21de84d3          	fmv.s	fs1,ft9
8000131a:	41b000ef          	jal	ra,80001f34 <cosf>
8000131e:	00a4f0d3          	fadd.s	ft1,fs1,fa0
E:\NucleiStudio_Workspace\e203Whetstone_test\Debug/../application/whets.c:413
                y = t * atan(t2 * sin(y) * cos(y) /
80001322:	118a7053          	fmul.s	ft0,fs4,fs8
E:\NucleiStudio_Workspace\e203Whetstone_test\Debug/../application/whets.c:414
                             (cos(x + y) + cos(x - y) - 1.0));
80001326:	0920ffd3          	fsub.s	ft11,ft1,fs2
E:\NucleiStudio_Workspace\e203Whetstone_test\Debug/../application/whets.c:413
                y = t * atan(t2 * sin(y) * cos(y) /
8000132a:	00007f53          	fadd.s	ft10,ft0,ft0
8000132e:	19ff7553          	fdiv.s	fa0,ft10,ft11
80001332:	217000ef          	jal	ra,80001d48 <atanf>
80001336:	bd55                	j	800011ea <whetstones.constprop.0+0x70c>
E:\NucleiStudio_Workspace\e203Whetstone_test\Debug/../application/whets.c:420
    end_time();
80001338:	f68ff0ef          	jal	ra,80000aa0 <end_time>
pout():
E:\NucleiStudio_Workspace\e203Whetstone_test\Debug/../application/whets.c:513
    Check = Check + checknum;
8000133c:	000a2307          	flw	ft6,0(s4)
whetstones():
E:\NucleiStudio_Workspace\e203Whetstone_test\Debug/../application/whets.c:421
    pout("N5 sin,cos etc.  \0", (float)(n5 * 26) * (float)(xtra), 2, y, secs,
80001340:	000baa07          	flw	fs4,0(s7)
pout():
E:\NucleiStudio_Workspace\e203Whetstone_test\Debug/../application/whets.c:516
    TimeUsed = TimeUsed + time;
80001344:	0009a387          	flw	ft7,0(s3)
E:\NucleiStudio_Workspace\e203Whetstone_test\Debug/../application/whets.c:513
    Check = Check + checknum;
80001348:	00937853          	fadd.s	fa6,ft6,fs1
E:\NucleiStudio_Workspace\e203Whetstone_test\Debug/../application/whets.c:515
    strcpy(headings[section], title);
8000134c:	03c4df83          	lhu	t6,60(s1)
E:\NucleiStudio_Workspace\e203Whetstone_test\Debug/../application/whets.c:516
    TimeUsed = TimeUsed + time;
80001350:	0143f753          	fadd.s	fa4,ft7,fs4
E:\NucleiStudio_Workspace\e203Whetstone_test\Debug/../application/whets.c:515
    strcpy(headings[section], title);
80001354:	03e4d303          	lhu	t1,62(s1)
80001358:	0404d283          	lhu	t0,64(s1)
8000135c:	0424d883          	lhu	a7,66(s1)
80001360:	0444d803          	lhu	a6,68(s1)
80001364:	0464d503          	lhu	a0,70(s1)
80001368:	0484d683          	lhu	a3,72(s1)
8000136c:	04a4d703          	lhu	a4,74(s1)
80001370:	04c4d783          	lhu	a5,76(s1)
E:\NucleiStudio_Workspace\e203Whetstone_test\Debug/../application/whets.c:513
    Check = Check + checknum;
80001374:	010a2027          	fsw	fa6,0(s4)
E:\NucleiStudio_Workspace\e203Whetstone_test\Debug/../application/whets.c:514
    loop_time[section] = time;
80001378:	014aaa27          	fsw	fs4,20(s5)
E:\NucleiStudio_Workspace\e203Whetstone_test\Debug/../application/whets.c:515
    strcpy(headings[section], title);
8000137c:	05f41d23          	sh	t6,90(s0)
80001380:	04641e23          	sh	t1,92(s0)
80001384:	04541f23          	sh	t0,94(s0)
80001388:	07141023          	sh	a7,96(s0)
8000138c:	07041123          	sh	a6,98(s0)
80001390:	06a41223          	sh	a0,100(s0)
80001394:	06d41323          	sh	a3,102(s0)
80001398:	06e41423          	sh	a4,104(s0)
8000139c:	06f41523          	sh	a5,106(s0)
E:\NucleiStudio_Workspace\e203Whetstone_test\Debug/../application/whets.c:516
    TimeUsed = TimeUsed + time;
800013a0:	00e9a027          	fsw	fa4,0(s3)
E:\NucleiStudio_Workspace\e203Whetstone_test\Debug/../application/whets.c:517
    if (calibrate == 1)
800013a4:	4585                	li	a1,1
800013a6:	0abb0f63          	beq	s6,a1,80001464 <whetstones.constprop.0+0x986>
E:\NucleiStudio_Workspace\e203Whetstone_test\Debug/../application/whets.c:522
    if (calibrate == 0) {
800013aa:	6c0b1463          	bnez	s6,80001a72 <whetstones.constprop.0+0xf94>
E:\NucleiStudio_Workspace\e203Whetstone_test\Debug/../application/whets.c:523
        printf("%s %20.17f    ", headings[section], results[section]);
800013ae:	b7c18c13          	addi	s8,gp,-1156 # 9000054c <results>
800013b2:	014c2507          	flw	fa0,20(s8)
800013b6:	653020ef          	jal	ra,80004208 <__extendsfdf2>
800013ba:	862a                	mv	a2,a0
800013bc:	86ae                	mv	a3,a1
800013be:	00008517          	auipc	a0,0x8
800013c2:	bea50513          	addi	a0,a0,-1046 # 80008fa8 <__trunctfdf2+0x450>
800013c6:	b0e18593          	addi	a1,gp,-1266 # 900004de <headings+0x5a>
800013ca:	3dd030ef          	jal	ra,80004fa6 <iprintf>
E:\NucleiStudio_Workspace\e203Whetstone_test\Debug/../application/whets.c:536
            if (time > 0) {
800013ce:	f0000e53          	fmv.w.x	ft8,zero
800013d2:	a14e1cd3          	flt.s	s9,ft8,fs4
800013d6:	720c8763          	beqz	s9,80001b04 <whetstones.constprop.0+0x1026>
E:\NucleiStudio_Workspace\e203Whetstone_test\Debug/../application/whets.c:537
                mops = ops / (1000000L * time);
800013da:	0ffff797          	auipc	a5,0xffff
800013de:	ea27a687          	flw	fa3,-350(a5) # 9000027c <_impure_ptr+0xa4>
800013e2:	10d9f8d3          	fmul.s	fa7,fs3,fa3
E:\NucleiStudio_Workspace\e203Whetstone_test\Debug/../application/whets.c:543
            printf("           %9.3f%9.3f\n", loop_mops[section],
800013e6:	1948f553          	fdiv.s	fa0,fa7,fs4
800013ea:	61f020ef          	jal	ra,80004208 <__extendsfdf2>
800013ee:	8d2a                	mv	s10,a0
800013f0:	8cae                	mv	s9,a1
800013f2:	014aa507          	flw	fa0,20(s5)
800013f6:	613020ef          	jal	ra,80004208 <__extendsfdf2>
800013fa:	872a                	mv	a4,a0
800013fc:	87ae                	mv	a5,a1
800013fe:	866a                	mv	a2,s10
80001400:	86e6                	mv	a3,s9
80001402:	00008517          	auipc	a0,0x8
80001406:	bce50513          	addi	a0,a0,-1074 # 80008fd0 <__trunctfdf2+0x478>
8000140a:	39d030ef          	jal	ra,80004fa6 <iprintf>
whetstones():
E:\NucleiStudio_Workspace\e203Whetstone_test\Debug/../application/whets.c:429
    start_time();
8000140e:	e5cff0ef          	jal	ra,80000a6a <start_time>
E:\NucleiStudio_Workspace\e203Whetstone_test\Debug/../application/whets.c:431
        for (ix = 0; ix < xtra; ix++) {
80001412:	67204463          	bgtz	s2,80001a7a <whetstones.constprop.0+0xf9c>
E:\NucleiStudio_Workspace\e203Whetstone_test\Debug/../application/whets.c:437
    end_time();
80001416:	e8aff0ef          	jal	ra,80000aa0 <end_time>
pout():
E:\NucleiStudio_Workspace\e203Whetstone_test\Debug/../application/whets.c:513
    Check = Check + checknum;
8000141a:	000a2e87          	flw	ft9,0(s4)
whetstones():
E:\NucleiStudio_Workspace\e203Whetstone_test\Debug/../application/whets.c:438
    pout("N6 floating point\0", (float)(n6 * 6) * (float)(xtra), 1, z, secs,
8000141e:	000bab07          	flw	fs6,0(s7)
pout():
E:\NucleiStudio_Workspace\e203Whetstone_test\Debug/../application/whets.c:516
    TimeUsed = TimeUsed + time;
80001422:	0009ac07          	flw	fs8,0(s3)
E:\NucleiStudio_Workspace\e203Whetstone_test\Debug/../application/whets.c:513
    Check = Check + checknum;
80001426:	012eff53          	fadd.s	ft10,ft9,fs2
E:\NucleiStudio_Workspace\e203Whetstone_test\Debug/../application/whets.c:515
    strcpy(headings[section], title);
8000142a:	0504af83          	lw	t6,80(s1)
E:\NucleiStudio_Workspace\e203Whetstone_test\Debug/../application/whets.c:516
    TimeUsed = TimeUsed + time;
8000142e:	016c7fd3          	fadd.s	ft11,fs8,fs6
E:\NucleiStudio_Workspace\e203Whetstone_test\Debug/../application/whets.c:515
    strcpy(headings[section], title);
80001432:	0544a303          	lw	t1,84(s1)
80001436:	0584a283          	lw	t0,88(s1)
8000143a:	05c4a883          	lw	a7,92(s1)
8000143e:	0604d803          	lhu	a6,96(s1)
E:\NucleiStudio_Workspace\e203Whetstone_test\Debug/../application/whets.c:513
    Check = Check + checknum;
80001442:	01ea2027          	fsw	ft10,0(s4)
E:\NucleiStudio_Workspace\e203Whetstone_test\Debug/../application/whets.c:514
    loop_time[section] = time;
80001446:	016aac27          	fsw	fs6,24(s5)
E:\NucleiStudio_Workspace\e203Whetstone_test\Debug/../application/whets.c:515
    strcpy(headings[section], title);
8000144a:	07f42623          	sw	t6,108(s0)
8000144e:	06642823          	sw	t1,112(s0)
80001452:	06542a23          	sw	t0,116(s0)
80001456:	07142c23          	sw	a7,120(s0)
8000145a:	07041e23          	sh	a6,124(s0)
E:\NucleiStudio_Workspace\e203Whetstone_test\Debug/../application/whets.c:516
    TimeUsed = TimeUsed + time;
8000145e:	01f9a027          	fsw	ft11,0(s3)
E:\NucleiStudio_Workspace\e203Whetstone_test\Debug/../application/whets.c:522
    if (calibrate == 0) {
80001462:	a53d                	j	80001a90 <whetstones.constprop.0+0xfb2>
E:\NucleiStudio_Workspace\e203Whetstone_test\Debug/../application/whets.c:520
        results[section] = checknum;
80001464:	b891a827          	fsw	fs1,-1136(gp) # 90000560 <results+0x14>
whetstones():
E:\NucleiStudio_Workspace\e203Whetstone_test\Debug/../application/whets.c:429
    start_time();
80001468:	e02ff0ef          	jal	ra,80000a6a <start_time>
E:\NucleiStudio_Workspace\e203Whetstone_test\Debug/../application/whets.c:427
    y = 1.0;
8000146c:	212908d3          	fmv.s	fa7,fs2
E:\NucleiStudio_Workspace\e203Whetstone_test\Debug/../application/whets.c:431
        for (ix = 0; ix < xtra; ix++) {
80001470:	4681                	li	a3,0
80001472:	0ffff797          	auipc	a5,0xffff
80001476:	df27a007          	flw	ft0,-526(a5) # 90000264 <_impure_ptr+0x8c>
8000147a:	0ffff797          	auipc	a5,0xffff
8000147e:	e067a087          	flw	ft1,-506(a5) # 90000280 <_impure_ptr+0xa8>
80001482:	60d9                	lui	ra,0x16
80001484:	f2c08513          	addi	a0,ra,-212 # 15f2c <__stack_size+0x1572c>
p3():
E:\NucleiStudio_Workspace\e203Whetstone_test\Debug/../application/whets.c:502
    *x = t * (*x + *y);
80001488:	0128fcd3          	fadd.s	fs9,fa7,fs2
whetstones():
E:\NucleiStudio_Workspace\e203Whetstone_test\Debug/../application/whets.c:432
            for (i = 0; i < n6; i++) {
8000148c:	1559                	addi	a0,a0,-10
p3():
E:\NucleiStudio_Workspace\e203Whetstone_test\Debug/../application/whets.c:503
    *y = t1 * (*x + *y);
8000148e:	916cf443          	fmadd.s	fs0,fs9,fs6,fs2
80001492:	10147bd3          	fmul.s	fs7,fs0,ft1
E:\NucleiStudio_Workspace\e203Whetstone_test\Debug/../application/whets.c:504
    *z = (*x + *y) / t2;
80001496:	b96cf143          	fmadd.s	ft2,fs9,fs6,fs7
8000149a:	100171d3          	fmul.s	ft3,ft2,ft0
E:\NucleiStudio_Workspace\e203Whetstone_test\Debug/../application/whets.c:502
    *x = t * (*x + *y);
8000149e:	003bf253          	fadd.s	ft4,fs7,ft3
E:\NucleiStudio_Workspace\e203Whetstone_test\Debug/../application/whets.c:503
    *y = t1 * (*x + *y);
800014a2:	196272c3          	fmadd.s	ft5,ft4,fs6,ft3
800014a6:	1012f553          	fmul.s	fa0,ft5,ft1
E:\NucleiStudio_Workspace\e203Whetstone_test\Debug/../application/whets.c:504
    *z = (*x + *y) / t2;
800014aa:	516274c3          	fmadd.s	fs1,ft4,fs6,fa0
800014ae:	1004fad3          	fmul.s	fs5,fs1,ft0
E:\NucleiStudio_Workspace\e203Whetstone_test\Debug/../application/whets.c:502
    *x = t * (*x + *y);
800014b2:	01557a53          	fadd.s	fs4,fa0,fs5
E:\NucleiStudio_Workspace\e203Whetstone_test\Debug/../application/whets.c:503
    *y = t1 * (*x + *y);
800014b6:	a96a7343          	fmadd.s	ft6,fs4,fs6,fs5
800014ba:	101373d3          	fmul.s	ft7,ft6,ft1
E:\NucleiStudio_Workspace\e203Whetstone_test\Debug/../application/whets.c:504
    *z = (*x + *y) / t2;
800014be:	396a7843          	fmadd.s	fa6,fs4,fs6,ft7
800014c2:	10087753          	fmul.s	fa4,fa6,ft0
E:\NucleiStudio_Workspace\e203Whetstone_test\Debug/../application/whets.c:502
    *x = t * (*x + *y);
800014c6:	00e3f5d3          	fadd.s	fa1,ft7,fa4
E:\NucleiStudio_Workspace\e203Whetstone_test\Debug/../application/whets.c:503
    *y = t1 * (*x + *y);
800014ca:	7165f7c3          	fmadd.s	fa5,fa1,fs6,fa4
800014ce:	1017f953          	fmul.s	fs2,fa5,ft1
E:\NucleiStudio_Workspace\e203Whetstone_test\Debug/../application/whets.c:504
    *z = (*x + *y) / t2;
800014d2:	9165f643          	fmadd.s	fa2,fa1,fs6,fs2
800014d6:	10067e53          	fmul.s	ft8,fa2,ft0
E:\NucleiStudio_Workspace\e203Whetstone_test\Debug/../application/whets.c:502
    *x = t * (*x + *y);
800014da:	01c976d3          	fadd.s	fa3,fs2,ft8
E:\NucleiStudio_Workspace\e203Whetstone_test\Debug/../application/whets.c:503
    *y = t1 * (*x + *y);
800014de:	e166f8c3          	fmadd.s	fa7,fa3,fs6,ft8
800014e2:	1018fed3          	fmul.s	ft9,fa7,ft1
E:\NucleiStudio_Workspace\e203Whetstone_test\Debug/../application/whets.c:504
    *z = (*x + *y) / t2;
800014e6:	e966fc43          	fmadd.s	fs8,fa3,fs6,ft9
800014ea:	100c7f53          	fmul.s	ft10,fs8,ft0
E:\NucleiStudio_Workspace\e203Whetstone_test\Debug/../application/whets.c:502
    *x = t * (*x + *y);
800014ee:	01eeffd3          	fadd.s	ft11,ft9,ft10
E:\NucleiStudio_Workspace\e203Whetstone_test\Debug/../application/whets.c:503
    *y = t1 * (*x + *y);
800014f2:	f16ffcc3          	fmadd.s	fs9,ft11,fs6,ft10
800014f6:	101cf453          	fmul.s	fs0,fs9,ft1
E:\NucleiStudio_Workspace\e203Whetstone_test\Debug/../application/whets.c:504
    *z = (*x + *y) / t2;
800014fa:	416ffbc3          	fmadd.s	fs7,ft11,fs6,fs0
800014fe:	100bf153          	fmul.s	ft2,fs7,ft0
E:\NucleiStudio_Workspace\e203Whetstone_test\Debug/../application/whets.c:502
    *x = t * (*x + *y);
80001502:	002471d3          	fadd.s	ft3,fs0,ft2
E:\NucleiStudio_Workspace\e203Whetstone_test\Debug/../application/whets.c:503
    *y = t1 * (*x + *y);
80001506:	1161f243          	fmadd.s	ft4,ft3,fs6,ft2
8000150a:	101272d3          	fmul.s	ft5,ft4,ft1
E:\NucleiStudio_Workspace\e203Whetstone_test\Debug/../application/whets.c:504
    *z = (*x + *y) / t2;
8000150e:	2961f543          	fmadd.s	fa0,ft3,fs6,ft5
80001512:	100574d3          	fmul.s	fs1,fa0,ft0
E:\NucleiStudio_Workspace\e203Whetstone_test\Debug/../application/whets.c:502
    *x = t * (*x + *y);
80001516:	0092fad3          	fadd.s	fs5,ft5,fs1
E:\NucleiStudio_Workspace\e203Whetstone_test\Debug/../application/whets.c:503
    *y = t1 * (*x + *y);
8000151a:	496afa43          	fmadd.s	fs4,fs5,fs6,fs1
8000151e:	101a7353          	fmul.s	ft6,fs4,ft1
E:\NucleiStudio_Workspace\e203Whetstone_test\Debug/../application/whets.c:504
    *z = (*x + *y) / t2;
80001522:	316af3c3          	fmadd.s	ft7,fs5,fs6,ft6
80001526:	1003f853          	fmul.s	fa6,ft7,ft0
E:\NucleiStudio_Workspace\e203Whetstone_test\Debug/../application/whets.c:502
    *x = t * (*x + *y);
8000152a:	01037753          	fadd.s	fa4,ft6,fa6
E:\NucleiStudio_Workspace\e203Whetstone_test\Debug/../application/whets.c:503
    *y = t1 * (*x + *y);
8000152e:	816775c3          	fmadd.s	fa1,fa4,fs6,fa6
80001532:	1015f7d3          	fmul.s	fa5,fa1,ft1
E:\NucleiStudio_Workspace\e203Whetstone_test\Debug/../application/whets.c:504
    *z = (*x + *y) / t2;
80001536:	79677943          	fmadd.s	fs2,fa4,fs6,fa5
8000153a:	10097653          	fmul.s	fa2,fs2,ft0
E:\NucleiStudio_Workspace\e203Whetstone_test\Debug/../application/whets.c:502
    *x = t * (*x + *y);
8000153e:	00c7fe53          	fadd.s	ft8,fa5,fa2
E:\NucleiStudio_Workspace\e203Whetstone_test\Debug/../application/whets.c:503
    *y = t1 * (*x + *y);
80001542:	616e76c3          	fmadd.s	fa3,ft8,fs6,fa2
80001546:	1016f8d3          	fmul.s	fa7,fa3,ft1
E:\NucleiStudio_Workspace\e203Whetstone_test\Debug/../application/whets.c:504
    *z = (*x + *y) / t2;
8000154a:	896e7ec3          	fmadd.s	ft9,ft8,fs6,fa7
8000154e:	100ef953          	fmul.s	fs2,ft9,ft0
whetstones():
E:\NucleiStudio_Workspace\e203Whetstone_test\Debug/../application/whets.c:432
            for (i = 0; i < n6; i++) {
80001552:	f91d                	bnez	a0,80001488 <whetstones.constprop.0+0x9aa>
E:\NucleiStudio_Workspace\e203Whetstone_test\Debug/../application/whets.c:431
        for (ix = 0; ix < xtra; ix++) {
80001554:	0685                	addi	a3,a3,1
80001556:	f2d917e3          	bne	s2,a3,80001484 <whetstones.constprop.0+0x9a6>
E:\NucleiStudio_Workspace\e203Whetstone_test\Debug/../application/whets.c:437
    end_time();
8000155a:	d46ff0ef          	jal	ra,80000aa0 <end_time>
pout():
E:\NucleiStudio_Workspace\e203Whetstone_test\Debug/../application/whets.c:513
    Check = Check + checknum;
8000155e:	000a2007          	flw	ft0,0(s4)
whetstones():
E:\NucleiStudio_Workspace\e203Whetstone_test\Debug/../application/whets.c:438
    pout("N6 floating point\0", (float)(n6 * 6) * (float)(xtra), 1, z, secs,
80001562:	000bab07          	flw	fs6,0(s7)
pout():
E:\NucleiStudio_Workspace\e203Whetstone_test\Debug/../application/whets.c:516
    TimeUsed = TimeUsed + time;
80001566:	0009a087          	flw	ft1,0(s3)
E:\NucleiStudio_Workspace\e203Whetstone_test\Debug/../application/whets.c:513
    Check = Check + checknum;
8000156a:	01207c53          	fadd.s	fs8,ft0,fs2
E:\NucleiStudio_Workspace\e203Whetstone_test\Debug/../application/whets.c:515
    strcpy(headings[section], title);
8000156e:	48ac                	lw	a1,80(s1)
E:\NucleiStudio_Workspace\e203Whetstone_test\Debug/../application/whets.c:516
    TimeUsed = TimeUsed + time;
80001570:	0160ff53          	fadd.s	ft10,ft1,fs6
E:\NucleiStudio_Workspace\e203Whetstone_test\Debug/../application/whets.c:515
    strcpy(headings[section], title);
80001574:	0544a383          	lw	t2,84(s1)
80001578:	4cb0                	lw	a2,88(s1)
8000157a:	4cf8                	lw	a4,92(s1)
8000157c:	0604d783          	lhu	a5,96(s1)
E:\NucleiStudio_Workspace\e203Whetstone_test\Debug/../application/whets.c:513
    Check = Check + checknum;
80001580:	018a2027          	fsw	fs8,0(s4)
E:\NucleiStudio_Workspace\e203Whetstone_test\Debug/../application/whets.c:514
    loop_time[section] = time;
80001584:	016aac27          	fsw	fs6,24(s5)
E:\NucleiStudio_Workspace\e203Whetstone_test\Debug/../application/whets.c:515
    strcpy(headings[section], title);
80001588:	d46c                	sw	a1,108(s0)
8000158a:	06742823          	sw	t2,112(s0)
8000158e:	d870                	sw	a2,116(s0)
80001590:	dc38                	sw	a4,120(s0)
80001592:	06f41e23          	sh	a5,124(s0)
E:\NucleiStudio_Workspace\e203Whetstone_test\Debug/../application/whets.c:516
    TimeUsed = TimeUsed + time;
80001596:	01e9a027          	fsw	ft10,0(s3)
E:\NucleiStudio_Workspace\e203Whetstone_test\Debug/../application/whets.c:517
    if (calibrate == 1)
8000159a:	4e05                	li	t3,1
8000159c:	19cb0163          	beq	s6,t3,8000171e <whetstones.constprop.0+0xc40>
E:\NucleiStudio_Workspace\e203Whetstone_test\Debug/../application/whets.c:522
    if (calibrate == 0) {
800015a0:	4e0b0663          	beqz	s6,80001a8c <whetstones.constprop.0+0xfae>
whetstones():
E:\NucleiStudio_Workspace\e203Whetstone_test\Debug/../application/whets.c:448
    start_time();
800015a4:	cc6ff0ef          	jal	ra,80000a6a <start_time>
E:\NucleiStudio_Workspace\e203Whetstone_test\Debug/../application/whets.c:450
        for (ix = 0; ix < xtra; ix++) {
800015a8:	19205363          	blez	s2,8000172e <whetstones.constprop.0+0xc50>
E:\NucleiStudio_Workspace\e203Whetstone_test\Debug/../application/whets.c:447
    e1[2] = 3.0;
800015ac:	0ffff797          	auipc	a5,0xffff
800015b0:	ca07ac87          	flw	fs9,-864(a5) # 9000024c <_impure_ptr+0x74>
E:\NucleiStudio_Workspace\e203Whetstone_test\Debug/../application/whets.c:446
    e1[1] = 2.0;
800015b4:	0ffff797          	auipc	a5,0xffff
800015b8:	c9c7a787          	flw	fa5,-868(a5) # 90000250 <_impure_ptr+0x78>
E:\NucleiStudio_Workspace\e203Whetstone_test\Debug/../application/whets.c:450
        for (ix = 0; ix < xtra; ix++) {
800015bc:	4c01                	li	s8,0
800015be:	6fbd                	lui	t6,0xf
E:\NucleiStudio_Workspace\e203Whetstone_test\Debug/../application/whets.c:451
            for (i = 0; i < n7; i++) {
800015c0:	09df8313          	addi	t1,t6,157 # f09d <__stack_size+0xe89d>
800015c4:	a031                	j	800015d0 <whetstones.constprop.0+0xaf2>
800015c6:	20f78cd3          	fmv.s	fs9,fa5
800015ca:	212907d3          	fmv.s	fa5,fs2
800015ce:	135d                	addi	t1,t1,-9
800015d0:	fff30093          	addi	ra,t1,-1
800015d4:	219c8953          	fmv.s	fs2,fs9
800015d8:	fe0097e3          	bnez	ra,800015c6 <whetstones.constprop.0+0xae8>
E:\NucleiStudio_Workspace\e203Whetstone_test\Debug/../application/whets.c:450
        for (ix = 0; ix < xtra; ix++) {
800015dc:	0c05                	addi	s8,s8,1
800015de:	ff8911e3          	bne	s2,s8,800015c0 <whetstones.constprop.0+0xae2>
E:\NucleiStudio_Workspace\e203Whetstone_test\Debug/../application/whets.c:456
    end_time();
800015e2:	cbeff0ef          	jal	ra,80000aa0 <end_time>
pout():
E:\NucleiStudio_Workspace\e203Whetstone_test\Debug/../application/whets.c:513
    Check = Check + checknum;
800015e6:	000a2607          	flw	fa2,0(s4)
whetstones():
E:\NucleiStudio_Workspace\e203Whetstone_test\Debug/../application/whets.c:457
    pout("N7 assignments   \0", (float)(n7 * 3) * (float)(xtra), 2, e1[2], secs,
800015ea:	000bac07          	flw	fs8,0(s7)
pout():
E:\NucleiStudio_Workspace\e203Whetstone_test\Debug/../application/whets.c:516
    TimeUsed = TimeUsed + time;
800015ee:	0009ae07          	flw	ft8,0(s3)
E:\NucleiStudio_Workspace\e203Whetstone_test\Debug/../application/whets.c:513
    Check = Check + checknum;
800015f2:	019676d3          	fadd.s	fa3,fa2,fs9
E:\NucleiStudio_Workspace\e203Whetstone_test\Debug/../application/whets.c:515
    strcpy(headings[section], title);
800015f6:	0784df03          	lhu	t5,120(s1)
E:\NucleiStudio_Workspace\e203Whetstone_test\Debug/../application/whets.c:516
    TimeUsed = TimeUsed + time;
800015fa:	018e78d3          	fadd.s	fa7,ft8,fs8
E:\NucleiStudio_Workspace\e203Whetstone_test\Debug/../application/whets.c:515
    strcpy(headings[section], title);
800015fe:	07a4dc83          	lhu	s9,122(s1)
80001602:	07c4df83          	lhu	t6,124(s1)
80001606:	07e4d303          	lhu	t1,126(s1)
8000160a:	0804d283          	lhu	t0,128(s1)
8000160e:	0824d883          	lhu	a7,130(s1)
80001612:	0844d803          	lhu	a6,132(s1)
80001616:	0864d503          	lhu	a0,134(s1)
8000161a:	0884d683          	lhu	a3,136(s1)
E:\NucleiStudio_Workspace\e203Whetstone_test\Debug/../application/whets.c:513
    Check = Check + checknum;
8000161e:	00da2027          	fsw	fa3,0(s4)
E:\NucleiStudio_Workspace\e203Whetstone_test\Debug/../application/whets.c:514
    loop_time[section] = time;
80001622:	018aae27          	fsw	fs8,28(s5)
E:\NucleiStudio_Workspace\e203Whetstone_test\Debug/../application/whets.c:515
    strcpy(headings[section], title);
80001626:	07e41f23          	sh	t5,126(s0)
8000162a:	09941023          	sh	s9,128(s0)
8000162e:	09f41123          	sh	t6,130(s0)
80001632:	08641223          	sh	t1,132(s0)
80001636:	08541323          	sh	t0,134(s0)
8000163a:	09141423          	sh	a7,136(s0)
8000163e:	09041523          	sh	a6,138(s0)
80001642:	08a41623          	sh	a0,140(s0)
80001646:	08d41723          	sh	a3,142(s0)
E:\NucleiStudio_Workspace\e203Whetstone_test\Debug/../application/whets.c:516
    TimeUsed = TimeUsed + time;
8000164a:	0119a027          	fsw	fa7,0(s3)
E:\NucleiStudio_Workspace\e203Whetstone_test\Debug/../application/whets.c:517
    if (calibrate == 1)
8000164e:	4585                	li	a1,1
80001650:	34bb0163          	beq	s6,a1,80001992 <whetstones.constprop.0+0xeb4>
E:\NucleiStudio_Workspace\e203Whetstone_test\Debug/../application/whets.c:522
    if (calibrate == 0) {
80001654:	140b0c63          	beqz	s6,800017ac <whetstones.constprop.0+0xcce>
whetstones():
E:\NucleiStudio_Workspace\e203Whetstone_test\Debug/../application/whets.c:462
    start_time();
80001658:	c12ff0ef          	jal	ra,80000a6a <start_time>
E:\NucleiStudio_Workspace\e203Whetstone_test\Debug/../application/whets.c:471
    pout("N8 exp,sqrt etc. \0", (float)(n8 * 4) * (float)(xtra), 2, x, secs,
8000165c:	0ffff797          	auipc	a5,0xffff
80001660:	c307ae87          	flw	ft9,-976(a5) # 9000028c <_impure_ptr+0xb4>
80001664:	11d9fcd3          	fmul.s	fs9,fs3,ft9
pout():
E:\NucleiStudio_Workspace\e203Whetstone_test\Debug/../application/whets.c:471
80001668:	0ffff797          	auipc	a5,0xffff
8000166c:	bec7a507          	flw	fa0,-1044(a5) # 90000254 <_impure_ptr+0x7c>
whetstones():
E:\NucleiStudio_Workspace\e203Whetstone_test\Debug/../application/whets.c:464
        for (ix = 0; ix < xtra; ix++) {
80001670:	4c81                	li	s9,0
80001672:	0ffff797          	auipc	a5,0xffff
80001676:	c1e7a987          	flw	fs3,-994(a5) # 90000290 <_impure_ptr+0xb8>
E:\NucleiStudio_Workspace\e203Whetstone_test\Debug/../application/whets.c:465
            for (i = 0; i < n8; i++) {
8000167a:	6d09                	lui	s10,0x2
E:\NucleiStudio_Workspace\e203Whetstone_test\Debug/../application/whets.c:466
                x = sqrt(exp(log(x) / t1));
8000167c:	1f9000ef          	jal	ra,80002074 <logf>
80001680:	11357553          	fmul.s	fa0,fa0,fs3
E:\NucleiStudio_Workspace\e203Whetstone_test\Debug/../application/whets.c:465
            for (i = 0; i < n8; i++) {
80001684:	451d0c13          	addi	s8,s10,1105 # 2451 <__stack_size+0x1c51>
E:\NucleiStudio_Workspace\e203Whetstone_test\Debug/../application/whets.c:466
                x = sqrt(exp(log(x) / t1));
80001688:	185000ef          	jal	ra,8000200c <expf>
8000168c:	1e9000ef          	jal	ra,80002074 <logf>
80001690:	11357553          	fmul.s	fa0,fa0,fs3
80001694:	179000ef          	jal	ra,8000200c <expf>
80001698:	1dd000ef          	jal	ra,80002074 <logf>
8000169c:	11357553          	fmul.s	fa0,fa0,fs3
E:\NucleiStudio_Workspace\e203Whetstone_test\Debug/../application/whets.c:465
            for (i = 0; i < n8; i++) {
800016a0:	1c5d                	addi	s8,s8,-9
E:\NucleiStudio_Workspace\e203Whetstone_test\Debug/../application/whets.c:466
                x = sqrt(exp(log(x) / t1));
800016a2:	16b000ef          	jal	ra,8000200c <expf>
800016a6:	1cf000ef          	jal	ra,80002074 <logf>
800016aa:	11357553          	fmul.s	fa0,fa0,fs3
800016ae:	15f000ef          	jal	ra,8000200c <expf>
800016b2:	1c3000ef          	jal	ra,80002074 <logf>
800016b6:	11357553          	fmul.s	fa0,fa0,fs3
800016ba:	153000ef          	jal	ra,8000200c <expf>
800016be:	1b7000ef          	jal	ra,80002074 <logf>
800016c2:	11357553          	fmul.s	fa0,fa0,fs3
800016c6:	147000ef          	jal	ra,8000200c <expf>
800016ca:	1ab000ef          	jal	ra,80002074 <logf>
800016ce:	11357553          	fmul.s	fa0,fa0,fs3
800016d2:	13b000ef          	jal	ra,8000200c <expf>
800016d6:	19f000ef          	jal	ra,80002074 <logf>
800016da:	11357553          	fmul.s	fa0,fa0,fs3
800016de:	12f000ef          	jal	ra,8000200c <expf>
800016e2:	193000ef          	jal	ra,80002074 <logf>
800016e6:	11357553          	fmul.s	fa0,fa0,fs3
800016ea:	123000ef          	jal	ra,8000200c <expf>
800016ee:	187000ef          	jal	ra,80002074 <logf>
800016f2:	11357553          	fmul.s	fa0,fa0,fs3
800016f6:	117000ef          	jal	ra,8000200c <expf>
800016fa:	17b000ef          	jal	ra,80002074 <logf>
800016fe:	113574d3          	fmul.s	fs1,fa0,fs3
80001702:	20948553          	fmv.s	fa0,fs1
80001706:	107000ef          	jal	ra,8000200c <expf>
E:\NucleiStudio_Workspace\e203Whetstone_test\Debug/../application/whets.c:465
            for (i = 0; i < n8; i++) {
8000170a:	f80c17e3          	bnez	s8,80001698 <whetstones.constprop.0+0xbba>
E:\NucleiStudio_Workspace\e203Whetstone_test\Debug/../application/whets.c:464
        for (ix = 0; ix < xtra; ix++) {
8000170e:	0c85                	addi	s9,s9,1
80001710:	172cd363          	bge	s9,s2,80001876 <whetstones.constprop.0+0xd98>
E:\NucleiStudio_Workspace\e203Whetstone_test\Debug/../application/whets.c:466
                x = sqrt(exp(log(x) / t1));
80001714:	1134f553          	fmul.s	fa0,fs1,fs3
80001718:	0f5000ef          	jal	ra,8000200c <expf>
8000171c:	b785                	j	8000167c <whetstones.constprop.0+0xb9e>
8000171e:	b7c18d13          	addi	s10,gp,-1156 # 9000054c <results>
pout():
E:\NucleiStudio_Workspace\e203Whetstone_test\Debug/../application/whets.c:520
        results[section] = checknum;
80001722:	012d2c27          	fsw	fs2,24(s10)
whetstones():
E:\NucleiStudio_Workspace\e203Whetstone_test\Debug/../application/whets.c:448
    start_time();
80001726:	b44ff0ef          	jal	ra,80000a6a <start_time>
E:\NucleiStudio_Workspace\e203Whetstone_test\Debug/../application/whets.c:450
        for (ix = 0; ix < xtra; ix++) {
8000172a:	e92041e3          	bgtz	s2,800015ac <whetstones.constprop.0+0xace>
E:\NucleiStudio_Workspace\e203Whetstone_test\Debug/../application/whets.c:456
    end_time();
8000172e:	b72ff0ef          	jal	ra,80000aa0 <end_time>
E:\NucleiStudio_Workspace\e203Whetstone_test\Debug/../application/whets.c:457
    pout("N7 assignments   \0", (float)(n7 * 3) * (float)(xtra), 2, e1[2], secs,
80001732:	000bac07          	flw	fs8,0(s7)
pout():
E:\NucleiStudio_Workspace\e203Whetstone_test\Debug/../application/whets.c:513
    Check = Check + checknum;
80001736:	000a2b07          	flw	fs6,0(s4)
E:\NucleiStudio_Workspace\e203Whetstone_test\Debug/../application/whets.c:516
    TimeUsed = TimeUsed + time;
8000173a:	0009ab87          	flw	fs7,0(s3)
E:\NucleiStudio_Workspace\e203Whetstone_test\Debug/../application/whets.c:513
    Check = Check + checknum;
8000173e:	0ffff797          	auipc	a5,0xffff
80001742:	b0e7a107          	flw	ft2,-1266(a5) # 9000024c <_impure_ptr+0x74>
80001746:	002b71d3          	fadd.s	ft3,fs6,ft2
E:\NucleiStudio_Workspace\e203Whetstone_test\Debug/../application/whets.c:516
    TimeUsed = TimeUsed + time;
8000174a:	018bf253          	fadd.s	ft4,fs7,fs8
E:\NucleiStudio_Workspace\e203Whetstone_test\Debug/../application/whets.c:515
    strcpy(headings[section], title);
8000174e:	0784df03          	lhu	t5,120(s1)
80001752:	07a4dc83          	lhu	s9,122(s1)
80001756:	07c4df83          	lhu	t6,124(s1)
8000175a:	07e4d303          	lhu	t1,126(s1)
8000175e:	0804d283          	lhu	t0,128(s1)
80001762:	0824d883          	lhu	a7,130(s1)
80001766:	0844d803          	lhu	a6,132(s1)
8000176a:	0864d503          	lhu	a0,134(s1)
8000176e:	0884d683          	lhu	a3,136(s1)
E:\NucleiStudio_Workspace\e203Whetstone_test\Debug/../application/whets.c:513
    Check = Check + checknum;
80001772:	003a2027          	fsw	ft3,0(s4)
E:\NucleiStudio_Workspace\e203Whetstone_test\Debug/../application/whets.c:514
    loop_time[section] = time;
80001776:	018aae27          	fsw	fs8,28(s5)
E:\NucleiStudio_Workspace\e203Whetstone_test\Debug/../application/whets.c:515
    strcpy(headings[section], title);
8000177a:	07e41f23          	sh	t5,126(s0)
8000177e:	09941023          	sh	s9,128(s0)
80001782:	09f41123          	sh	t6,130(s0)
80001786:	08641223          	sh	t1,132(s0)
8000178a:	08541323          	sh	t0,134(s0)
8000178e:	09141423          	sh	a7,136(s0)
80001792:	09041523          	sh	a6,138(s0)
80001796:	08a41623          	sh	a0,140(s0)
8000179a:	08d41723          	sh	a3,142(s0)
E:\NucleiStudio_Workspace\e203Whetstone_test\Debug/../application/whets.c:516
    TimeUsed = TimeUsed + time;
8000179e:	0049a027          	fsw	ft4,0(s3)
E:\NucleiStudio_Workspace\e203Whetstone_test\Debug/../application/whets.c:517
    if (calibrate == 1)
800017a2:	4585                	li	a1,1
800017a4:	4ebb0b63          	beq	s6,a1,80001c9a <whetstones.constprop.0+0x11bc>
E:\NucleiStudio_Workspace\e203Whetstone_test\Debug/../application/whets.c:522
    if (calibrate == 0) {
800017a8:	480b1c63          	bnez	s6,80001c40 <whetstones.constprop.0+0x1162>
E:\NucleiStudio_Workspace\e203Whetstone_test\Debug/../application/whets.c:523
        printf("%s %20.17f    ", headings[section], results[section]);
800017ac:	b7c18c13          	addi	s8,gp,-1156 # 9000054c <results>
800017b0:	01cc2507          	flw	fa0,28(s8)
800017b4:	255020ef          	jal	ra,80004208 <__extendsfdf2>
800017b8:	862a                	mv	a2,a0
800017ba:	86ae                	mv	a3,a1
800017bc:	00007517          	auipc	a0,0x7
800017c0:	7ec50513          	addi	a0,a0,2028 # 80008fa8 <__trunctfdf2+0x450>
800017c4:	b3218593          	addi	a1,gp,-1230 # 90000502 <headings+0x7e>
800017c8:	7de030ef          	jal	ra,80004fa6 <iprintf>
E:\NucleiStudio_Workspace\e203Whetstone_test\Debug/../application/whets.c:536
            if (time > 0) {
800017cc:	f0000053          	fmv.w.x	ft0,zero
800017d0:	a18013d3          	flt.s	t2,ft0,fs8
800017d4:	34038463          	beqz	t2,80001b1c <whetstones.constprop.0+0x103e>
E:\NucleiStudio_Workspace\e203Whetstone_test\Debug/../application/whets.c:537
                mops = ops / (1000000L * time);
800017d8:	0ffff797          	auipc	a5,0xffff
800017dc:	ab07a087          	flw	ft1,-1360(a5) # 90000288 <_impure_ptr+0xb0>
800017e0:	1019ff53          	fmul.s	ft10,fs3,ft1
E:\NucleiStudio_Workspace\e203Whetstone_test\Debug/../application/whets.c:543
            printf("           %9.3f%9.3f\n", loop_mops[section],
800017e4:	198f7553          	fdiv.s	fa0,ft10,fs8
800017e8:	221020ef          	jal	ra,80004208 <__extendsfdf2>
800017ec:	8d2a                	mv	s10,a0
800017ee:	8cae                	mv	s9,a1
800017f0:	01caa507          	flw	fa0,28(s5)
800017f4:	215020ef          	jal	ra,80004208 <__extendsfdf2>
800017f8:	872a                	mv	a4,a0
800017fa:	87ae                	mv	a5,a1
800017fc:	866a                	mv	a2,s10
800017fe:	86e6                	mv	a3,s9
80001800:	00007517          	auipc	a0,0x7
80001804:	7d050513          	addi	a0,a0,2000 # 80008fd0 <__trunctfdf2+0x478>
80001808:	79e030ef          	jal	ra,80004fa6 <iprintf>
whetstones():
E:\NucleiStudio_Workspace\e203Whetstone_test\Debug/../application/whets.c:462
    start_time();
8000180c:	a5eff0ef          	jal	ra,80000a6a <start_time>
E:\NucleiStudio_Workspace\e203Whetstone_test\Debug/../application/whets.c:471
    pout("N8 exp,sqrt etc. \0", (float)(n8 * 4) * (float)(xtra), 2, x, secs,
80001810:	0ffff797          	auipc	a5,0xffff
80001814:	a7c7af87          	flw	ft11,-1412(a5) # 9000028c <_impure_ptr+0xb4>
80001818:	11f9fcd3          	fmul.s	fs9,fs3,ft11
E:\NucleiStudio_Workspace\e203Whetstone_test\Debug/../application/whets.c:464
        for (ix = 0; ix < xtra; ix++) {
8000181c:	e52046e3          	bgtz	s2,80001668 <whetstones.constprop.0+0xb8a>
E:\NucleiStudio_Workspace\e203Whetstone_test\Debug/../application/whets.c:470
    end_time();
80001820:	a80ff0ef          	jal	ra,80000aa0 <end_time>
E:\NucleiStudio_Workspace\e203Whetstone_test\Debug/../application/whets.c:471
    pout("N8 exp,sqrt etc. \0", (float)(n8 * 4) * (float)(xtra), 2, x, secs,
80001824:	000ba407          	flw	fs0,0(s7)
pout():
E:\NucleiStudio_Workspace\e203Whetstone_test\Debug/../application/whets.c:513
    Check = Check + checknum;
80001828:	000a2b07          	flw	fs6,0(s4)
E:\NucleiStudio_Workspace\e203Whetstone_test\Debug/../application/whets.c:516
    TimeUsed = TimeUsed + time;
8000182c:	0009ab87          	flw	fs7,0(s3)
E:\NucleiStudio_Workspace\e203Whetstone_test\Debug/../application/whets.c:513
    Check = Check + checknum;
80001830:	0ffff797          	auipc	a5,0xffff
80001834:	a287a107          	flw	ft2,-1496(a5) # 90000258 <_impure_ptr+0x80>
80001838:	002b71d3          	fadd.s	ft3,fs6,ft2
E:\NucleiStudio_Workspace\e203Whetstone_test\Debug/../application/whets.c:516
    TimeUsed = TimeUsed + time;
8000183c:	008bf253          	fadd.s	ft4,fs7,fs0
E:\NucleiStudio_Workspace\e203Whetstone_test\Debug/../application/whets.c:515
    strcpy(headings[section], title);
80001840:	0644a903          	lw	s2,100(s1)
80001844:	0684ab03          	lw	s6,104(s1)
80001848:	06c4ab83          	lw	s7,108(s1)
8000184c:	0704ae03          	lw	t3,112(s1)
80001850:	0744d483          	lhu	s1,116(s1)
E:\NucleiStudio_Workspace\e203Whetstone_test\Debug/../application/whets.c:513
    Check = Check + checknum;
80001854:	003a2027          	fsw	ft3,0(s4)
E:\NucleiStudio_Workspace\e203Whetstone_test\Debug/../application/whets.c:514
    loop_time[section] = time;
80001858:	028aa027          	fsw	fs0,32(s5)
E:\NucleiStudio_Workspace\e203Whetstone_test\Debug/../application/whets.c:515
    strcpy(headings[section], title);
8000185c:	09242823          	sw	s2,144(s0)
80001860:	09642a23          	sw	s6,148(s0)
80001864:	09742c23          	sw	s7,152(s0)
80001868:	09c42e23          	sw	t3,156(s0)
8000186c:	0a941023          	sh	s1,160(s0)
E:\NucleiStudio_Workspace\e203Whetstone_test\Debug/../application/whets.c:516
    TimeUsed = TimeUsed + time;
80001870:	0049a027          	fsw	ft4,0(s3)
E:\NucleiStudio_Workspace\e203Whetstone_test\Debug/../application/whets.c:522
    if (calibrate == 0) {
80001874:	a8b1                	j	800018d0 <whetstones.constprop.0+0xdf2>
80001876:	e62a                	fsw	fa0,12(sp)
whetstones():
E:\NucleiStudio_Workspace\e203Whetstone_test\Debug/../application/whets.c:470
    end_time();
80001878:	a28ff0ef          	jal	ra,80000aa0 <end_time>
pout():
E:\NucleiStudio_Workspace\e203Whetstone_test\Debug/../application/whets.c:513
    Check = Check + checknum;
8000187c:	000a2507          	flw	fa0,0(s4)
whetstones():
E:\NucleiStudio_Workspace\e203Whetstone_test\Debug/../application/whets.c:471
    pout("N8 exp,sqrt etc. \0", (float)(n8 * 4) * (float)(xtra), 2, x, secs,
80001880:	000ba407          	flw	fs0,0(s7)
pout():
E:\NucleiStudio_Workspace\e203Whetstone_test\Debug/../application/whets.c:516
    TimeUsed = TimeUsed + time;
80001884:	0009aa87          	flw	fs5,0(s3)
E:\NucleiStudio_Workspace\e203Whetstone_test\Debug/../application/whets.c:513
    Check = Check + checknum;
80001888:	65b2                	flw	fa1,12(sp)
E:\NucleiStudio_Workspace\e203Whetstone_test\Debug/../application/whets.c:515
    strcpy(headings[section], title);
8000188a:	0644ae83          	lw	t4,100(s1)
E:\NucleiStudio_Workspace\e203Whetstone_test\Debug/../application/whets.c:516
    TimeUsed = TimeUsed + time;
8000188e:	008af353          	fadd.s	ft6,fs5,fs0
E:\NucleiStudio_Workspace\e203Whetstone_test\Debug/../application/whets.c:513
    Check = Check + checknum;
80001892:	00b57a53          	fadd.s	fs4,fa0,fa1
E:\NucleiStudio_Workspace\e203Whetstone_test\Debug/../application/whets.c:515
    strcpy(headings[section], title);
80001896:	54b0                	lw	a2,104(s1)
80001898:	06c4af03          	lw	t5,108(s1)
8000189c:	58b8                	lw	a4,112(s1)
8000189e:	0744d783          	lhu	a5,116(s1)
800018a2:	09d42823          	sw	t4,144(s0)
800018a6:	08c42a23          	sw	a2,148(s0)
800018aa:	09e42c23          	sw	t5,152(s0)
800018ae:	08e42e23          	sw	a4,156(s0)
800018b2:	0af41023          	sh	a5,160(s0)
E:\NucleiStudio_Workspace\e203Whetstone_test\Debug/../application/whets.c:513
    Check = Check + checknum;
800018b6:	014a2027          	fsw	fs4,0(s4)
E:\NucleiStudio_Workspace\e203Whetstone_test\Debug/../application/whets.c:514
    loop_time[section] = time;
800018ba:	028aa027          	fsw	fs0,32(s5)
E:\NucleiStudio_Workspace\e203Whetstone_test\Debug/../application/whets.c:516
    TimeUsed = TimeUsed + time;
800018be:	0069a027          	fsw	ft6,0(s3)
E:\NucleiStudio_Workspace\e203Whetstone_test\Debug/../application/whets.c:517
    if (calibrate == 1)
800018c2:	4405                	li	s0,1
800018c4:	088b0b63          	beq	s6,s0,8000195a <whetstones.constprop.0+0xe7c>
E:\NucleiStudio_Workspace\e203Whetstone_test\Debug/../application/whets.c:522
    if (calibrate == 0) {
800018c8:	080b1d63          	bnez	s6,80001962 <whetstones.constprop.0+0xe84>
800018cc:	b7c18c13          	addi	s8,gp,-1156 # 9000054c <results>
E:\NucleiStudio_Workspace\e203Whetstone_test\Debug/../application/whets.c:523
        printf("%s %20.17f    ", headings[section], results[section]);
800018d0:	020c2507          	flw	fa0,32(s8)
800018d4:	135020ef          	jal	ra,80004208 <__extendsfdf2>
800018d8:	862a                	mv	a2,a0
800018da:	86ae                	mv	a3,a1
800018dc:	00007517          	auipc	a0,0x7
800018e0:	6cc50513          	addi	a0,a0,1740 # 80008fa8 <__trunctfdf2+0x450>
800018e4:	b4418593          	addi	a1,gp,-1212 # 90000514 <headings+0x90>
800018e8:	6be030ef          	jal	ra,80004fa6 <iprintf>
E:\NucleiStudio_Workspace\e203Whetstone_test\Debug/../application/whets.c:536
            if (time > 0) {
800018ec:	f00003d3          	fmv.w.x	ft7,zero
800018f0:	a08399d3          	flt.s	s3,ft7,fs0
800018f4:	22098763          	beqz	s3,80001b22 <whetstones.constprop.0+0x1044>
E:\NucleiStudio_Workspace\e203Whetstone_test\Debug/../application/whets.c:537
                mops = ops / (1000000L * time);
800018f8:	0ffff797          	auipc	a5,0xffff
800018fc:	99c7a807          	flw	fa6,-1636(a5) # 90000294 <_impure_ptr+0xbc>
80001900:	110cf5d3          	fmul.s	fa1,fs9,fa6
E:\NucleiStudio_Workspace\e203Whetstone_test\Debug/../application/whets.c:543
            printf("           %9.3f%9.3f\n", loop_mops[section],
80001904:	1885f553          	fdiv.s	fa0,fa1,fs0
80001908:	101020ef          	jal	ra,80004208 <__extendsfdf2>
8000190c:	8a2a                	mv	s4,a0
8000190e:	892e                	mv	s2,a1
80001910:	020aa507          	flw	fa0,32(s5)
80001914:	0f5020ef          	jal	ra,80004208 <__extendsfdf2>
whetstones():
E:\NucleiStudio_Workspace\e203Whetstone_test\Debug/../application/whets.c:475
}
80001918:	5426                	lw	s0,104(sp)
8000191a:	50b6                	lw	ra,108(sp)
8000191c:	5496                	lw	s1,100(sp)
8000191e:	49f6                	lw	s3,92(sp)
80001920:	4ad6                	lw	s5,84(sp)
80001922:	4b46                	lw	s6,80(sp)
80001924:	4bb6                	lw	s7,76(sp)
80001926:	4c26                	lw	s8,72(sp)
80001928:	4c96                	lw	s9,68(sp)
8000192a:	4d06                	lw	s10,64(sp)
8000192c:	7472                	flw	fs0,60(sp)
8000192e:	74e2                	flw	fs1,56(sp)
80001930:	7952                	flw	fs2,52(sp)
80001932:	79c2                	flw	fs3,48(sp)
80001934:	7a32                	flw	fs4,44(sp)
80001936:	7aa2                	flw	fs5,40(sp)
80001938:	7b12                	flw	fs6,36(sp)
8000193a:	7b82                	flw	fs7,32(sp)
8000193c:	6c72                	flw	fs8,28(sp)
8000193e:	6ce2                	flw	fs9,24(sp)
pout():
E:\NucleiStudio_Workspace\e203Whetstone_test\Debug/../application/whets.c:543
            printf("           %9.3f%9.3f\n", loop_mops[section],
80001940:	8652                	mv	a2,s4
80001942:	86ca                	mv	a3,s2
whetstones():
E:\NucleiStudio_Workspace\e203Whetstone_test\Debug/../application/whets.c:475
}
80001944:	4a66                	lw	s4,88(sp)
80001946:	5906                	lw	s2,96(sp)
pout():
E:\NucleiStudio_Workspace\e203Whetstone_test\Debug/../application/whets.c:543
            printf("           %9.3f%9.3f\n", loop_mops[section],
80001948:	872a                	mv	a4,a0
8000194a:	87ae                	mv	a5,a1
8000194c:	00007517          	auipc	a0,0x7
80001950:	68450513          	addi	a0,a0,1668 # 80008fd0 <__trunctfdf2+0x478>
whetstones():
E:\NucleiStudio_Workspace\e203Whetstone_test\Debug/../application/whets.c:475
}
80001954:	6165                	addi	sp,sp,112
pout():
E:\NucleiStudio_Workspace\e203Whetstone_test\Debug/../application/whets.c:543
            printf("           %9.3f%9.3f\n", loop_mops[section],
80001956:	6500306f          	j	80004fa6 <iprintf>
8000195a:	b7c18d13          	addi	s10,gp,-1156 # 9000054c <results>
E:\NucleiStudio_Workspace\e203Whetstone_test\Debug/../application/whets.c:520
        results[section] = checknum;
8000195e:	02bd2027          	fsw	fa1,32(s10)
whetstones():
E:\NucleiStudio_Workspace\e203Whetstone_test\Debug/../application/whets.c:475
}
80001962:	50b6                	lw	ra,108(sp)
80001964:	5426                	lw	s0,104(sp)
80001966:	5496                	lw	s1,100(sp)
80001968:	5906                	lw	s2,96(sp)
8000196a:	49f6                	lw	s3,92(sp)
8000196c:	4a66                	lw	s4,88(sp)
8000196e:	4ad6                	lw	s5,84(sp)
80001970:	4b46                	lw	s6,80(sp)
80001972:	4bb6                	lw	s7,76(sp)
80001974:	4c26                	lw	s8,72(sp)
80001976:	4c96                	lw	s9,68(sp)
80001978:	4d06                	lw	s10,64(sp)
8000197a:	7472                	flw	fs0,60(sp)
8000197c:	74e2                	flw	fs1,56(sp)
8000197e:	7952                	flw	fs2,52(sp)
80001980:	79c2                	flw	fs3,48(sp)
80001982:	7a32                	flw	fs4,44(sp)
80001984:	7aa2                	flw	fs5,40(sp)
80001986:	7b12                	flw	fs6,36(sp)
80001988:	7b82                	flw	fs7,32(sp)
8000198a:	6c72                	flw	fs8,28(sp)
8000198c:	6ce2                	flw	fs9,24(sp)
8000198e:	6165                	addi	sp,sp,112
80001990:	8082                	ret
pout():
E:\NucleiStudio_Workspace\e203Whetstone_test\Debug/../application/whets.c:520
        results[section] = checknum;
80001992:	b991ac27          	fsw	fs9,-1128(gp) # 90000568 <results+0x1c>
whetstones():
E:\NucleiStudio_Workspace\e203Whetstone_test\Debug/../application/whets.c:462
    start_time();
80001996:	8d4ff0ef          	jal	ra,80000a6a <start_time>
E:\NucleiStudio_Workspace\e203Whetstone_test\Debug/../application/whets.c:471
    pout("N8 exp,sqrt etc. \0", (float)(n8 * 4) * (float)(xtra), 2, x, secs,
8000199a:	0ffff797          	auipc	a5,0xffff
8000199e:	8f27a287          	flw	ft5,-1806(a5) # 9000028c <_impure_ptr+0xb4>
800019a2:	1059fcd3          	fmul.s	fs9,fs3,ft5
800019a6:	b1c9                	j	80001668 <whetstones.constprop.0+0xb8a>
pout():
E:\NucleiStudio_Workspace\e203Whetstone_test\Debug/../application/whets.c:520
        results[section] = checknum;
800019a8:	b881a227          	fsw	fs0,-1148(gp) # 90000554 <results+0x8>
whetstones():
E:\NucleiStudio_Workspace\e203Whetstone_test\Debug/../application/whets.c:351
    start_time();
800019ac:	8beff0ef          	jal	ra,80000a6a <start_time>
E:\NucleiStudio_Workspace\e203Whetstone_test\Debug/../application/whets.c:353
        for (ix = 0; ix < xtra; ix++) {
800019b0:	df204263          	bgtz	s2,80000f94 <whetstones.constprop.0+0x4b6>
E:\NucleiStudio_Workspace\e203Whetstone_test\Debug/../application/whets.c:376
    end_time();
800019b4:	8ecff0ef          	jal	ra,80000aa0 <end_time>
pout():
E:\NucleiStudio_Workspace\e203Whetstone_test\Debug/../application/whets.c:513
    Check = Check + checknum;
800019b8:	000a2187          	flw	ft3,0(s4)
whetstones():
E:\NucleiStudio_Workspace\e203Whetstone_test\Debug/../application/whets.c:377
    pout("N3 if then else  \0", (float)(n3 * 3) * (float)(xtra), 2, (SPDP)(j),
800019bc:	000baa07          	flw	fs4,0(s7)
pout():
E:\NucleiStudio_Workspace\e203Whetstone_test\Debug/../application/whets.c:516
    TimeUsed = TimeUsed + time;
800019c0:	0009a207          	flw	ft4,0(s3)
E:\NucleiStudio_Workspace\e203Whetstone_test\Debug/../application/whets.c:513
    Check = Check + checknum;
800019c4:	0121f553          	fadd.s	fa0,ft3,fs2
E:\NucleiStudio_Workspace\e203Whetstone_test\Debug/../application/whets.c:515
    strcpy(headings[section], title);
800019c8:	08c4d283          	lhu	t0,140(s1)
E:\NucleiStudio_Workspace\e203Whetstone_test\Debug/../application/whets.c:516
    TimeUsed = TimeUsed + time;
800019cc:	014272d3          	fadd.s	ft5,ft4,fs4
E:\NucleiStudio_Workspace\e203Whetstone_test\Debug/../application/whets.c:515
    strcpy(headings[section], title);
800019d0:	08e4d883          	lhu	a7,142(s1)
800019d4:	0904d803          	lhu	a6,144(s1)
800019d8:	0924d503          	lhu	a0,146(s1)
800019dc:	0944d583          	lhu	a1,148(s1)
800019e0:	0964d603          	lhu	a2,150(s1)
800019e4:	0984d383          	lhu	t2,152(s1)
800019e8:	09a4dc03          	lhu	s8,154(s1)
800019ec:	09c4de03          	lhu	t3,156(s1)
E:\NucleiStudio_Workspace\e203Whetstone_test\Debug/../application/whets.c:513
    Check = Check + checknum;
800019f0:	00aa2027          	fsw	fa0,0(s4)
E:\NucleiStudio_Workspace\e203Whetstone_test\Debug/../application/whets.c:514
    loop_time[section] = time;
800019f4:	014aa627          	fsw	fs4,12(s5)
E:\NucleiStudio_Workspace\e203Whetstone_test\Debug/../application/whets.c:515
    strcpy(headings[section], title);
800019f8:	02541b23          	sh	t0,54(s0)
800019fc:	03141c23          	sh	a7,56(s0)
80001a00:	03041d23          	sh	a6,58(s0)
80001a04:	02a41e23          	sh	a0,60(s0)
80001a08:	02b41f23          	sh	a1,62(s0)
80001a0c:	04c41023          	sh	a2,64(s0)
80001a10:	04741123          	sh	t2,66(s0)
80001a14:	05841223          	sh	s8,68(s0)
80001a18:	05c41323          	sh	t3,70(s0)
E:\NucleiStudio_Workspace\e203Whetstone_test\Debug/../application/whets.c:516
    TimeUsed = TimeUsed + time;
80001a1c:	0059a027          	fsw	ft5,0(s3)
E:\NucleiStudio_Workspace\e203Whetstone_test\Debug/../application/whets.c:517
    if (calibrate == 1)
80001a20:	4e85                	li	t4,1
80001a22:	dfdb1163          	bne	s6,t4,80001004 <whetstones.constprop.0+0x526>
E:\NucleiStudio_Workspace\e203Whetstone_test\Debug/../application/whets.c:520
        results[section] = checknum;
80001a26:	b7c18d13          	addi	s10,gp,-1156 # 9000054c <results>
80001a2a:	012d2627          	fsw	fs2,12(s10)
whetstones():
E:\NucleiStudio_Workspace\e203Whetstone_test\Debug/../application/whets.c:386
    start_time();
80001a2e:	83cff0ef          	jal	ra,80000a6a <start_time>
E:\NucleiStudio_Workspace\e203Whetstone_test\Debug/../application/whets.c:399
    end_time();
80001a32:	86eff0ef          	jal	ra,80000aa0 <end_time>
E:\NucleiStudio_Workspace\e203Whetstone_test\Debug/../application/whets.c:401
    pout("N4 fixed point   \0", (float)(n4 * 15) * (float)(xtra), 2, x, secs,
80001a36:	000ba307          	flw	ft6,0(s7)
pout():
E:\NucleiStudio_Workspace\e203Whetstone_test\Debug/../application/whets.c:516
    TimeUsed = TimeUsed + time;
80001a3a:	0009a387          	flw	ft7,0(s3)
E:\NucleiStudio_Workspace\e203Whetstone_test\Debug/../application/whets.c:515
    strcpy(headings[section], title);
80001a3e:	0284af03          	lw	t5,40(s1)
80001a42:	02c4af83          	lw	t6,44(s1)
E:\NucleiStudio_Workspace\e203Whetstone_test\Debug/../application/whets.c:516
    TimeUsed = TimeUsed + time;
80001a46:	0063f853          	fadd.s	fa6,ft7,ft6
E:\NucleiStudio_Workspace\e203Whetstone_test\Debug/../application/whets.c:515
    strcpy(headings[section], title);
80001a4a:	5894                	lw	a3,48(s1)
80001a4c:	58d8                	lw	a4,52(s1)
80001a4e:	0384d783          	lhu	a5,56(s1)
whetstones():
E:\NucleiStudio_Workspace\e203Whetstone_test\Debug/../application/whets.c:400
    x = (e1[0] + e1[1]) / (SPDP)n4 / (SPDP)xtra; // was x = e1[0]+e1[1];
80001a52:	f00007d3          	fmv.w.x	fa5,zero
pout():
E:\NucleiStudio_Workspace\e203Whetstone_test\Debug/../application/whets.c:514
    loop_time[section] = time;
80001a56:	006aa827          	fsw	ft6,16(s5)
E:\NucleiStudio_Workspace\e203Whetstone_test\Debug/../application/whets.c:515
    strcpy(headings[section], title);
80001a5a:	05e42423          	sw	t5,72(s0)
80001a5e:	05f42623          	sw	t6,76(s0)
80001a62:	c834                	sw	a3,80(s0)
80001a64:	c878                	sw	a4,84(s0)
80001a66:	04f41c23          	sh	a5,88(s0)
E:\NucleiStudio_Workspace\e203Whetstone_test\Debug/../application/whets.c:516
    TimeUsed = TimeUsed + time;
80001a6a:	0109a027          	fsw	fa6,0(s3)
E:\NucleiStudio_Workspace\e203Whetstone_test\Debug/../application/whets.c:517
    if (calibrate == 1)
80001a6e:	f54ff06f          	j	800011c2 <whetstones.constprop.0+0x6e4>
whetstones():
E:\NucleiStudio_Workspace\e203Whetstone_test\Debug/../application/whets.c:429
    start_time();
80001a72:	ff9fe0ef          	jal	ra,80000a6a <start_time>
E:\NucleiStudio_Workspace\e203Whetstone_test\Debug/../application/whets.c:431
        for (ix = 0; ix < xtra; ix++) {
80001a76:	29205363          	blez	s2,80001cfc <whetstones.constprop.0+0x121e>
80001a7a:	0fffe797          	auipc	a5,0xfffe
80001a7e:	7ca7ab07          	flw	fs6,1994(a5) # 90000244 <_impure_ptr+0x6c>
80001a82:	b2ed                	j	8000146c <whetstones.constprop.0+0x98e>
E:\NucleiStudio_Workspace\e203Whetstone_test\Debug/../application/whets.c:407
    start_time();
80001a84:	fe7fe0ef          	jal	ra,80000a6a <start_time>
E:\NucleiStudio_Workspace\e203Whetstone_test\Debug/../application/whets.c:409
        for (ix = 0; ix < xtra; ix++) {
80001a88:	f46ff06f          	j	800011ce <whetstones.constprop.0+0x6f0>
80001a8c:	b7c18c13          	addi	s8,gp,-1156 # 9000054c <results>
pout():
E:\NucleiStudio_Workspace\e203Whetstone_test\Debug/../application/whets.c:523
        printf("%s %20.17f    ", headings[section], results[section]);
80001a90:	018c2507          	flw	fa0,24(s8)
80001a94:	774020ef          	jal	ra,80004208 <__extendsfdf2>
80001a98:	862a                	mv	a2,a0
80001a9a:	86ae                	mv	a3,a1
80001a9c:	00007517          	auipc	a0,0x7
80001aa0:	50c50513          	addi	a0,a0,1292 # 80008fa8 <__trunctfdf2+0x450>
80001aa4:	b2018593          	addi	a1,gp,-1248 # 900004f0 <headings+0x6c>
80001aa8:	4fe030ef          	jal	ra,80004fa6 <iprintf>
E:\NucleiStudio_Workspace\e203Whetstone_test\Debug/../application/whets.c:526
            if (time > 0) {
80001aac:	f0000fd3          	fmv.w.x	ft11,zero
80001ab0:	a16f9ed3          	flt.s	t4,ft11,fs6
80001ab4:	040e8563          	beqz	t4,80001afe <whetstones.constprop.0+0x1020>
E:\NucleiStudio_Workspace\e203Whetstone_test\Debug/../application/whets.c:527
                mflops = ops / (1000000L * time);
80001ab8:	0fffe797          	auipc	a5,0xfffe
80001abc:	7cc7ac87          	flw	fs9,1996(a5) # 90000284 <_impure_ptr+0xac>
80001ac0:	1199f453          	fmul.s	fs0,fs3,fs9
E:\NucleiStudio_Workspace\e203Whetstone_test\Debug/../application/whets.c:533
            printf(" %9.3f          %9.3f\n", loop_mflops[section],
80001ac4:	19647553          	fdiv.s	fa0,fs0,fs6
80001ac8:	740020ef          	jal	ra,80004208 <__extendsfdf2>
80001acc:	8d2a                	mv	s10,a0
80001ace:	8c2e                	mv	s8,a1
80001ad0:	018aa507          	flw	fa0,24(s5)
80001ad4:	734020ef          	jal	ra,80004208 <__extendsfdf2>
80001ad8:	872a                	mv	a4,a0
80001ada:	87ae                	mv	a5,a1
80001adc:	866a                	mv	a2,s10
80001ade:	86e2                	mv	a3,s8
80001ae0:	00007517          	auipc	a0,0x7
80001ae4:	4d850513          	addi	a0,a0,1240 # 80008fb8 <__trunctfdf2+0x460>
80001ae8:	4be030ef          	jal	ra,80004fa6 <iprintf>
80001aec:	bc65                	j	800015a4 <whetstones.constprop.0+0xac6>
80001aee:	4d01                	li	s10,0
80001af0:	4c81                	li	s9,0
80001af2:	d5aff06f          	j	8000104c <whetstones.constprop.0+0x56e>
80001af6:	4d01                	li	s10,0
80001af8:	4c01                	li	s8,0
80001afa:	e96ff06f          	j	80001190 <whetstones.constprop.0+0x6b2>
80001afe:	4d01                	li	s10,0
80001b00:	4c01                	li	s8,0
80001b02:	b7f9                	j	80001ad0 <whetstones.constprop.0+0xff2>
80001b04:	4d01                	li	s10,0
80001b06:	4c81                	li	s9,0
80001b08:	8ebff06f          	j	800013f2 <whetstones.constprop.0+0x914>
80001b0c:	4d01                	li	s10,0
80001b0e:	4c81                	li	s9,0
80001b10:	c62ff06f          	j	80000f72 <whetstones.constprop.0+0x494>
80001b14:	4c81                	li	s9,0
80001b16:	4c01                	li	s8,0
80001b18:	a2aff06f          	j	80000d42 <whetstones.constprop.0+0x264>
80001b1c:	4d01                	li	s10,0
80001b1e:	4c81                	li	s9,0
80001b20:	b9c1                	j	800017f0 <whetstones.constprop.0+0xd12>
80001b22:	4a01                	li	s4,0
80001b24:	4901                	li	s2,0
80001b26:	b3ed                	j	80001910 <whetstones.constprop.0+0xe32>
whetstones():
E:\NucleiStudio_Workspace\e203Whetstone_test\Debug/../application/whets.c:399
    end_time();
80001b28:	f79fe0ef          	jal	ra,80000aa0 <end_time>
E:\NucleiStudio_Workspace\e203Whetstone_test\Debug/../application/whets.c:401
    pout("N4 fixed point   \0", (float)(n4 * 15) * (float)(xtra), 2, x, secs,
80001b2c:	000ba487          	flw	fs1,0(s7)
pout():
E:\NucleiStudio_Workspace\e203Whetstone_test\Debug/../application/whets.c:516
    TimeUsed = TimeUsed + time;
80001b30:	0009ac07          	flw	fs8,0(s3)
E:\NucleiStudio_Workspace\e203Whetstone_test\Debug/../application/whets.c:515
    strcpy(headings[section], title);
80001b34:	0284ae03          	lw	t3,40(s1)
80001b38:	02c4ae83          	lw	t4,44(s1)
E:\NucleiStudio_Workspace\e203Whetstone_test\Debug/../application/whets.c:516
    TimeUsed = TimeUsed + time;
80001b3c:	009c7cd3          	fadd.s	fs9,fs8,fs1
E:\NucleiStudio_Workspace\e203Whetstone_test\Debug/../application/whets.c:515
    strcpy(headings[section], title);
80001b40:	0304ad03          	lw	s10,48(s1)
80001b44:	0344af03          	lw	t5,52(s1)
80001b48:	0384df83          	lhu	t6,56(s1)
80001b4c:	05c42423          	sw	t3,72(s0)
80001b50:	05d42623          	sw	t4,76(s0)
80001b54:	05a42823          	sw	s10,80(s0)
80001b58:	05e42a23          	sw	t5,84(s0)
80001b5c:	05f41c23          	sh	t6,88(s0)
E:\NucleiStudio_Workspace\e203Whetstone_test\Debug/../application/whets.c:514
    loop_time[section] = time;
80001b60:	009aa827          	fsw	fs1,16(s5)
E:\NucleiStudio_Workspace\e203Whetstone_test\Debug/../application/whets.c:516
    TimeUsed = TimeUsed + time;
80001b64:	0199a027          	fsw	fs9,0(s3)
whetstones():
E:\NucleiStudio_Workspace\e203Whetstone_test\Debug/../application/whets.c:407
    start_time();
80001b68:	f03fe0ef          	jal	ra,80000a6a <start_time>
E:\NucleiStudio_Workspace\e203Whetstone_test\Debug/../application/whets.c:420
    end_time();
80001b6c:	f35fe0ef          	jal	ra,80000aa0 <end_time>
E:\NucleiStudio_Workspace\e203Whetstone_test\Debug/../application/whets.c:421
    pout("N5 sin,cos etc.  \0", (float)(n5 * 26) * (float)(xtra), 2, y, secs,
80001b70:	000baa07          	flw	fs4,0(s7)
pout():
E:\NucleiStudio_Workspace\e203Whetstone_test\Debug/../application/whets.c:513
    Check = Check + checknum;
80001b74:	000a2b87          	flw	fs7,0(s4)
E:\NucleiStudio_Workspace\e203Whetstone_test\Debug/../application/whets.c:516
    TimeUsed = TimeUsed + time;
80001b78:	0009a487          	flw	fs1,0(s3)
E:\NucleiStudio_Workspace\e203Whetstone_test\Debug/../application/whets.c:513
    Check = Check + checknum;
80001b7c:	0fffe797          	auipc	a5,0xfffe
80001b80:	6e87ac07          	flw	fs8,1768(a5) # 90000264 <_impure_ptr+0x8c>
80001b84:	018bfcd3          	fadd.s	fs9,fs7,fs8
E:\NucleiStudio_Workspace\e203Whetstone_test\Debug/../application/whets.c:516
    TimeUsed = TimeUsed + time;
80001b88:	0144fad3          	fadd.s	fs5,fs1,fs4
E:\NucleiStudio_Workspace\e203Whetstone_test\Debug/../application/whets.c:515
    strcpy(headings[section], title);
80001b8c:	03c4dc83          	lhu	s9,60(s1)
80001b90:	03e4d303          	lhu	t1,62(s1)
80001b94:	0404d283          	lhu	t0,64(s1)
80001b98:	0424d883          	lhu	a7,66(s1)
80001b9c:	0444d803          	lhu	a6,68(s1)
80001ba0:	0464d503          	lhu	a0,70(s1)
80001ba4:	0484d683          	lhu	a3,72(s1)
80001ba8:	04a4d703          	lhu	a4,74(s1)
80001bac:	04c4d783          	lhu	a5,76(s1)
E:\NucleiStudio_Workspace\e203Whetstone_test\Debug/../application/whets.c:513
    Check = Check + checknum;
80001bb0:	019a2027          	fsw	fs9,0(s4)
E:\NucleiStudio_Workspace\e203Whetstone_test\Debug/../application/whets.c:514
    loop_time[section] = time;
80001bb4:	014aaa27          	fsw	fs4,20(s5)
E:\NucleiStudio_Workspace\e203Whetstone_test\Debug/../application/whets.c:515
    strcpy(headings[section], title);
80001bb8:	05941d23          	sh	s9,90(s0)
80001bbc:	04641e23          	sh	t1,92(s0)
80001bc0:	04541f23          	sh	t0,94(s0)
80001bc4:	07141023          	sh	a7,96(s0)
80001bc8:	07041123          	sh	a6,98(s0)
80001bcc:	06a41223          	sh	a0,100(s0)
80001bd0:	06d41323          	sh	a3,102(s0)
80001bd4:	06e41423          	sh	a4,104(s0)
80001bd8:	06f41523          	sh	a5,106(s0)
E:\NucleiStudio_Workspace\e203Whetstone_test\Debug/../application/whets.c:516
    TimeUsed = TimeUsed + time;
80001bdc:	0159a027          	fsw	fs5,0(s3)
E:\NucleiStudio_Workspace\e203Whetstone_test\Debug/../application/whets.c:517
    if (calibrate == 1)
80001be0:	4585                	li	a1,1
80001be2:	fcbb1463          	bne	s6,a1,800013aa <whetstones.constprop.0+0x8cc>
E:\NucleiStudio_Workspace\e203Whetstone_test\Debug/../application/whets.c:520
        results[section] = checknum;
80001be6:	b7c18d13          	addi	s10,gp,-1156 # 9000054c <results>
80001bea:	018d2a27          	fsw	fs8,20(s10)
whetstones():
E:\NucleiStudio_Workspace\e203Whetstone_test\Debug/../application/whets.c:429
    start_time();
80001bee:	e7dfe0ef          	jal	ra,80000a6a <start_time>
E:\NucleiStudio_Workspace\e203Whetstone_test\Debug/../application/whets.c:437
    end_time();
80001bf2:	eaffe0ef          	jal	ra,80000aa0 <end_time>
E:\NucleiStudio_Workspace\e203Whetstone_test\Debug/../application/whets.c:438
    pout("N6 floating point\0", (float)(n6 * 6) * (float)(xtra), 1, z, secs,
80001bf6:	000bae07          	flw	ft8,0(s7)
pout():
E:\NucleiStudio_Workspace\e203Whetstone_test\Debug/../application/whets.c:513
    Check = Check + checknum;
80001bfa:	000a2407          	flw	fs0,0(s4)
E:\NucleiStudio_Workspace\e203Whetstone_test\Debug/../application/whets.c:516
    TimeUsed = TimeUsed + time;
80001bfe:	0009ab07          	flw	fs6,0(s3)
E:\NucleiStudio_Workspace\e203Whetstone_test\Debug/../application/whets.c:515
    strcpy(headings[section], title);
80001c02:	0504a383          	lw	t2,80(s1)
E:\NucleiStudio_Workspace\e203Whetstone_test\Debug/../application/whets.c:513
    Check = Check + checknum;
80001c06:	012476d3          	fadd.s	fa3,fs0,fs2
E:\NucleiStudio_Workspace\e203Whetstone_test\Debug/../application/whets.c:516
    TimeUsed = TimeUsed + time;
80001c0a:	01cb78d3          	fadd.s	fa7,fs6,ft8
E:\NucleiStudio_Workspace\e203Whetstone_test\Debug/../application/whets.c:515
    strcpy(headings[section], title);
80001c0e:	48f0                	lw	a2,84(s1)
80001c10:	0584ae03          	lw	t3,88(s1)
80001c14:	05c4ae83          	lw	t4,92(s1)
80001c18:	0604df03          	lhu	t5,96(s1)
E:\NucleiStudio_Workspace\e203Whetstone_test\Debug/../application/whets.c:513
    Check = Check + checknum;
80001c1c:	00da2027          	fsw	fa3,0(s4)
E:\NucleiStudio_Workspace\e203Whetstone_test\Debug/../application/whets.c:514
    loop_time[section] = time;
80001c20:	01caac27          	fsw	ft8,24(s5)
E:\NucleiStudio_Workspace\e203Whetstone_test\Debug/../application/whets.c:515
    strcpy(headings[section], title);
80001c24:	06742623          	sw	t2,108(s0)
80001c28:	d830                	sw	a2,112(s0)
80001c2a:	07c42a23          	sw	t3,116(s0)
80001c2e:	07d42c23          	sw	t4,120(s0)
80001c32:	07e41e23          	sh	t5,124(s0)
E:\NucleiStudio_Workspace\e203Whetstone_test\Debug/../application/whets.c:516
    TimeUsed = TimeUsed + time;
80001c36:	0119a027          	fsw	fa7,0(s3)
E:\NucleiStudio_Workspace\e203Whetstone_test\Debug/../application/whets.c:520
        results[section] = checknum;
80001c3a:	012d2c27          	fsw	fs2,24(s10)
E:\NucleiStudio_Workspace\e203Whetstone_test\Debug/../application/whets.c:522
    if (calibrate == 0) {
80001c3e:	b4e5                	j	80001726 <whetstones.constprop.0+0xc48>
whetstones():
E:\NucleiStudio_Workspace\e203Whetstone_test\Debug/../application/whets.c:462
    start_time();
80001c40:	e2bfe0ef          	jal	ra,80000a6a <start_time>
E:\NucleiStudio_Workspace\e203Whetstone_test\Debug/../application/whets.c:470
    end_time();
80001c44:	e5dfe0ef          	jal	ra,80000aa0 <end_time>
pout():
E:\NucleiStudio_Workspace\e203Whetstone_test\Debug/../application/whets.c:513
    Check = Check + checknum;
80001c48:	000a2287          	flw	ft5,0(s4)
whetstones():
E:\NucleiStudio_Workspace\e203Whetstone_test\Debug/../application/whets.c:471
    pout("N8 exp,sqrt etc. \0", (float)(n8 * 4) * (float)(xtra), 2, x, secs,
80001c4c:	000ba987          	flw	fs3,0(s7)
pout():
E:\NucleiStudio_Workspace\e203Whetstone_test\Debug/../application/whets.c:516
    TimeUsed = TimeUsed + time;
80001c50:	0009a507          	flw	fa0,0(s3)
E:\NucleiStudio_Workspace\e203Whetstone_test\Debug/../application/whets.c:513
    Check = Check + checknum;
80001c54:	0fffe797          	auipc	a5,0xfffe
80001c58:	6047a487          	flw	fs1,1540(a5) # 90000258 <_impure_ptr+0x80>
80001c5c:	0092fad3          	fadd.s	fs5,ft5,fs1
E:\NucleiStudio_Workspace\e203Whetstone_test\Debug/../application/whets.c:516
    TimeUsed = TimeUsed + time;
80001c60:	01357a53          	fadd.s	fs4,fa0,fs3
E:\NucleiStudio_Workspace\e203Whetstone_test\Debug/../application/whets.c:515
    strcpy(headings[section], title);
80001c64:	0644a903          	lw	s2,100(s1)
80001c68:	0684ab03          	lw	s6,104(s1)
80001c6c:	06c4ab83          	lw	s7,108(s1)
80001c70:	0704a383          	lw	t2,112(s1)
80001c74:	0744d483          	lhu	s1,116(s1)
E:\NucleiStudio_Workspace\e203Whetstone_test\Debug/../application/whets.c:513
    Check = Check + checknum;
80001c78:	015a2027          	fsw	fs5,0(s4)
E:\NucleiStudio_Workspace\e203Whetstone_test\Debug/../application/whets.c:514
    loop_time[section] = time;
80001c7c:	033aa027          	fsw	fs3,32(s5)
E:\NucleiStudio_Workspace\e203Whetstone_test\Debug/../application/whets.c:515
    strcpy(headings[section], title);
80001c80:	09242823          	sw	s2,144(s0)
80001c84:	09642a23          	sw	s6,148(s0)
80001c88:	09742c23          	sw	s7,152(s0)
80001c8c:	08742e23          	sw	t2,156(s0)
80001c90:	0a941023          	sh	s1,160(s0)
E:\NucleiStudio_Workspace\e203Whetstone_test\Debug/../application/whets.c:516
    TimeUsed = TimeUsed + time;
80001c94:	0149a027          	fsw	fs4,0(s3)
E:\NucleiStudio_Workspace\e203Whetstone_test\Debug/../application/whets.c:517
    if (calibrate == 1)
80001c98:	b1e9                	j	80001962 <whetstones.constprop.0+0xe84>
E:\NucleiStudio_Workspace\e203Whetstone_test\Debug/../application/whets.c:520
        results[section] = checknum;
80001c9a:	b7c18d13          	addi	s10,gp,-1156 # 9000054c <results>
80001c9e:	002d2e27          	fsw	ft2,28(s10)
whetstones():
E:\NucleiStudio_Workspace\e203Whetstone_test\Debug/../application/whets.c:462
    start_time();
80001ca2:	dc9fe0ef          	jal	ra,80000a6a <start_time>
E:\NucleiStudio_Workspace\e203Whetstone_test\Debug/../application/whets.c:470
    end_time();
80001ca6:	dfbfe0ef          	jal	ra,80000aa0 <end_time>
E:\NucleiStudio_Workspace\e203Whetstone_test\Debug/../application/whets.c:471
    pout("N8 exp,sqrt etc. \0", (float)(n8 * 4) * (float)(xtra), 2, x, secs,
80001caa:	000ba307          	flw	ft6,0(s7)
pout():
E:\NucleiStudio_Workspace\e203Whetstone_test\Debug/../application/whets.c:513
    Check = Check + checknum;
80001cae:	000a2387          	flw	ft7,0(s4)
E:\NucleiStudio_Workspace\e203Whetstone_test\Debug/../application/whets.c:516
    TimeUsed = TimeUsed + time;
80001cb2:	0009a807          	flw	fa6,0(s3)
E:\NucleiStudio_Workspace\e203Whetstone_test\Debug/../application/whets.c:513
    Check = Check + checknum;
80001cb6:	0fffe797          	auipc	a5,0xfffe
80001cba:	5a27a587          	flw	fa1,1442(a5) # 90000258 <_impure_ptr+0x80>
80001cbe:	00b3f753          	fadd.s	fa4,ft7,fa1
E:\NucleiStudio_Workspace\e203Whetstone_test\Debug/../application/whets.c:516
    TimeUsed = TimeUsed + time;
80001cc2:	006877d3          	fadd.s	fa5,fa6,ft6
E:\NucleiStudio_Workspace\e203Whetstone_test\Debug/../application/whets.c:515
    strcpy(headings[section], title);
80001cc6:	0644ae03          	lw	t3,100(s1)
80001cca:	54b0                	lw	a2,104(s1)
80001ccc:	06c4ae83          	lw	t4,108(s1)
80001cd0:	58b8                	lw	a4,112(s1)
80001cd2:	0744d783          	lhu	a5,116(s1)
E:\NucleiStudio_Workspace\e203Whetstone_test\Debug/../application/whets.c:513
    Check = Check + checknum;
80001cd6:	00ea2027          	fsw	fa4,0(s4)
E:\NucleiStudio_Workspace\e203Whetstone_test\Debug/../application/whets.c:514
    loop_time[section] = time;
80001cda:	026aa027          	fsw	ft6,32(s5)
E:\NucleiStudio_Workspace\e203Whetstone_test\Debug/../application/whets.c:515
    strcpy(headings[section], title);
80001cde:	09c42823          	sw	t3,144(s0)
80001ce2:	08c42a23          	sw	a2,148(s0)
80001ce6:	09d42c23          	sw	t4,152(s0)
80001cea:	08e42e23          	sw	a4,156(s0)
80001cee:	0af41023          	sh	a5,160(s0)
E:\NucleiStudio_Workspace\e203Whetstone_test\Debug/../application/whets.c:516
    TimeUsed = TimeUsed + time;
80001cf2:	00f9a027          	fsw	fa5,0(s3)
E:\NucleiStudio_Workspace\e203Whetstone_test\Debug/../application/whets.c:520
        results[section] = checknum;
80001cf6:	02bd2027          	fsw	fa1,32(s10)
E:\NucleiStudio_Workspace\e203Whetstone_test\Debug/../application/whets.c:522
    if (calibrate == 0) {
80001cfa:	b1a5                	j	80001962 <whetstones.constprop.0+0xe84>
whetstones():
E:\NucleiStudio_Workspace\e203Whetstone_test\Debug/../application/whets.c:437
    end_time();
80001cfc:	da5fe0ef          	jal	ra,80000aa0 <end_time>
pout():
E:\NucleiStudio_Workspace\e203Whetstone_test\Debug/../application/whets.c:513
    Check = Check + checknum;
80001d00:	000a2587          	flw	fa1,0(s4)
whetstones():
E:\NucleiStudio_Workspace\e203Whetstone_test\Debug/../application/whets.c:438
    pout("N6 floating point\0", (float)(n6 * 6) * (float)(xtra), 1, z, secs,
80001d04:	000bab07          	flw	fs6,0(s7)
pout():
E:\NucleiStudio_Workspace\e203Whetstone_test\Debug/../application/whets.c:516
    TimeUsed = TimeUsed + time;
80001d08:	0009a787          	flw	fa5,0(s3)
E:\NucleiStudio_Workspace\e203Whetstone_test\Debug/../application/whets.c:513
    Check = Check + checknum;
80001d0c:	0125f953          	fadd.s	fs2,fa1,fs2
E:\NucleiStudio_Workspace\e203Whetstone_test\Debug/../application/whets.c:515
    strcpy(headings[section], title);
80001d10:	0504a383          	lw	t2,80(s1)
E:\NucleiStudio_Workspace\e203Whetstone_test\Debug/../application/whets.c:516
    TimeUsed = TimeUsed + time;
80001d14:	0167f653          	fadd.s	fa2,fa5,fs6
E:\NucleiStudio_Workspace\e203Whetstone_test\Debug/../application/whets.c:515
    strcpy(headings[section], title);
80001d18:	48f0                	lw	a2,84(s1)
80001d1a:	0584ae03          	lw	t3,88(s1)
80001d1e:	05c4ae83          	lw	t4,92(s1)
80001d22:	0604df03          	lhu	t5,96(s1)
E:\NucleiStudio_Workspace\e203Whetstone_test\Debug/../application/whets.c:513
    Check = Check + checknum;
80001d26:	012a2027          	fsw	fs2,0(s4)
E:\NucleiStudio_Workspace\e203Whetstone_test\Debug/../application/whets.c:514
    loop_time[section] = time;
80001d2a:	016aac27          	fsw	fs6,24(s5)
E:\NucleiStudio_Workspace\e203Whetstone_test\Debug/../application/whets.c:515
    strcpy(headings[section], title);
80001d2e:	06742623          	sw	t2,108(s0)
80001d32:	d830                	sw	a2,112(s0)
80001d34:	07c42a23          	sw	t3,116(s0)
80001d38:	07d42c23          	sw	t4,120(s0)
80001d3c:	07e41e23          	sh	t5,124(s0)
E:\NucleiStudio_Workspace\e203Whetstone_test\Debug/../application/whets.c:516
    TimeUsed = TimeUsed + time;
80001d40:	00c9a027          	fsw	fa2,0(s3)
E:\NucleiStudio_Workspace\e203Whetstone_test\Debug/../application/whets.c:517
    if (calibrate == 1)
80001d44:	85dff06f          	j	800015a0 <whetstones.constprop.0+0xac2>

80001d48 <atanf>:
atanf():
80001d48:	e00507d3          	fmv.x.w	a5,fa0
80001d4c:	1141                	addi	sp,sp,-16
80001d4e:	c422                	sw	s0,8(sp)
80001d50:	00179413          	slli	s0,a5,0x1
80001d54:	c226                	sw	s1,4(sp)
80001d56:	c606                	sw	ra,12(sp)
80001d58:	8005                	srli	s0,s0,0x1
80001d5a:	50800737          	lui	a4,0x50800
80001d5e:	84be                	mv	s1,a5
80001d60:	02e44863          	blt	s0,a4,80001d90 <atanf+0x48>
80001d64:	7f800737          	lui	a4,0x7f800
80001d68:	00875763          	bge	a4,s0,80001d76 <atanf+0x2e>
80001d6c:	00a577d3          	fadd.s	fa5,fa0,fa0
80001d70:	e00787d3          	fmv.x.w	a5,fa5
80001d74:	a039                	j	80001d82 <atanf+0x3a>
80001d76:	1af04a63          	bgtz	a5,80001f2a <atanf+0x1e2>
80001d7a:	0fffe797          	auipc	a5,0xfffe
80001d7e:	52a7a783          	lw	a5,1322(a5) # 900002a4 <_impure_ptr+0xcc>
80001d82:	40b2                	lw	ra,12(sp)
80001d84:	4422                	lw	s0,8(sp)
80001d86:	4492                	lw	s1,4(sp)
80001d88:	f0078553          	fmv.w.x	fa0,a5
80001d8c:	0141                	addi	sp,sp,16
80001d8e:	8082                	ret
80001d90:	3ee00737          	lui	a4,0x3ee00
80001d94:	02e45563          	bge	s0,a4,80001dbe <atanf+0x76>
80001d98:	31000737          	lui	a4,0x31000
80001d9c:	00e45f63          	bge	s0,a4,80001dba <atanf+0x72>
80001da0:	0fffe717          	auipc	a4,0xfffe
80001da4:	50872787          	flw	fa5,1288(a4) # 900002a8 <_impure_ptr+0xd0>
80001da8:	00f577d3          	fadd.s	fa5,fa0,fa5
80001dac:	0fffe717          	auipc	a4,0xfffe
80001db0:	49472707          	flw	fa4,1172(a4) # 90000240 <_impure_ptr+0x68>
80001db4:	a0f71753          	flt.s	a4,fa4,fa5
80001db8:	f769                	bnez	a4,80001d82 <atanf+0x3a>
80001dba:	577d                	li	a4,-1
80001dbc:	a81d                	j	80001df2 <atanf+0xaa>
80001dbe:	2af9                	jal	80001f9c <fabsf>
80001dc0:	3f9807b7          	lui	a5,0x3f980
80001dc4:	0ef45763          	bge	s0,a5,80001eb2 <atanf+0x16a>
80001dc8:	3f3007b7          	lui	a5,0x3f300
80001dcc:	0cf45563          	bge	s0,a5,80001e96 <atanf+0x14e>
80001dd0:	0fffe797          	auipc	a5,0xfffe
80001dd4:	4807a707          	flw	fa4,1152(a5) # 90000250 <_impure_ptr+0x78>
80001dd8:	0fffe797          	auipc	a5,0xfffe
80001ddc:	4647a787          	flw	fa5,1124(a5) # 9000023c <_impure_ptr+0x64>
80001de0:	78e577c3          	fmadd.s	fa5,fa0,fa4,fa5
80001de4:	00e57553          	fadd.s	fa0,fa0,fa4
80001de8:	4701                	li	a4,0
80001dea:	18a7f7d3          	fdiv.s	fa5,fa5,fa0
80001dee:	e00787d3          	fmv.x.w	a5,fa5
80001df2:	f00787d3          	fmv.w.x	fa5,a5
80001df6:	0fffe697          	auipc	a3,0xfffe
80001dfa:	4be6a707          	flw	fa4,1214(a3) # 900002b4 <_impure_ptr+0xdc>
80001dfe:	0fffe697          	auipc	a3,0xfffe
80001e02:	4ce6a587          	flw	fa1,1230(a3) # 900002cc <_impure_ptr+0xf4>
80001e06:	10f7f653          	fmul.s	fa2,fa5,fa5
80001e0a:	0fffe697          	auipc	a3,0xfffe
80001e0e:	4a66a787          	flw	fa5,1190(a3) # 900002b0 <_impure_ptr+0xd8>
80001e12:	10c676d3          	fmul.s	fa3,fa2,fa2
80001e16:	70f6f7c3          	fmadd.s	fa5,fa3,fa5,fa4
80001e1a:	0fffe697          	auipc	a3,0xfffe
80001e1e:	49e6a707          	flw	fa4,1182(a3) # 900002b8 <_impure_ptr+0xe0>
80001e22:	70d7f7c3          	fmadd.s	fa5,fa5,fa3,fa4
80001e26:	0fffe697          	auipc	a3,0xfffe
80001e2a:	4966a707          	flw	fa4,1174(a3) # 900002bc <_impure_ptr+0xe4>
80001e2e:	70d7f7c3          	fmadd.s	fa5,fa5,fa3,fa4
80001e32:	0fffe697          	auipc	a3,0xfffe
80001e36:	48e6a707          	flw	fa4,1166(a3) # 900002c0 <_impure_ptr+0xe8>
80001e3a:	70d7f7c3          	fmadd.s	fa5,fa5,fa3,fa4
80001e3e:	0fffe697          	auipc	a3,0xfffe
80001e42:	4866a707          	flw	fa4,1158(a3) # 900002c4 <_impure_ptr+0xec>
80001e46:	70d7f7c3          	fmadd.s	fa5,fa5,fa3,fa4
80001e4a:	0fffe697          	auipc	a3,0xfffe
80001e4e:	47e6a707          	flw	fa4,1150(a3) # 900002c8 <_impure_ptr+0xf0>
80001e52:	58e6f743          	fmadd.s	fa4,fa3,fa4,fa1
80001e56:	0fffe697          	auipc	a3,0xfffe
80001e5a:	47a6a587          	flw	fa1,1146(a3) # 900002d0 <_impure_ptr+0xf8>
80001e5e:	58d77743          	fmadd.s	fa4,fa4,fa3,fa1
80001e62:	0fffe697          	auipc	a3,0xfffe
80001e66:	4726a587          	flw	fa1,1138(a3) # 900002d4 <_impure_ptr+0xfc>
80001e6a:	58d77743          	fmadd.s	fa4,fa4,fa3,fa1
80001e6e:	0fffe697          	auipc	a3,0xfffe
80001e72:	46a6a587          	flw	fa1,1130(a3) # 900002d8 <_impure_ptr+0x100>
80001e76:	56fd                	li	a3,-1
80001e78:	58d77743          	fmadd.s	fa4,fa4,fa3,fa1
80001e7c:	10d77753          	fmul.s	fa4,fa4,fa3
80001e80:	70c7f7c3          	fmadd.s	fa5,fa5,fa2,fa4
80001e84:	f0078753          	fmv.w.x	fa4,a5
80001e88:	10f777d3          	fmul.s	fa5,fa4,fa5
80001e8c:	06d71363          	bne	a4,a3,80001ef2 <atanf+0x1aa>
80001e90:	08f777d3          	fsub.s	fa5,fa4,fa5
80001e94:	bdf1                	j	80001d70 <atanf+0x28>
80001e96:	0fffe797          	auipc	a5,0xfffe
80001e9a:	3aa7a787          	flw	fa5,938(a5) # 90000240 <_impure_ptr+0x68>
80001e9e:	08f57753          	fsub.s	fa4,fa0,fa5
80001ea2:	00f57553          	fadd.s	fa0,fa0,fa5
80001ea6:	4705                	li	a4,1
80001ea8:	18a777d3          	fdiv.s	fa5,fa4,fa0
80001eac:	e00787d3          	fmv.x.w	a5,fa5
80001eb0:	b789                	j	80001df2 <atanf+0xaa>
80001eb2:	401c07b7          	lui	a5,0x401c0
80001eb6:	02f45463          	bge	s0,a5,80001ede <atanf+0x196>
80001eba:	0fffe797          	auipc	a5,0xfffe
80001ebe:	3f27a787          	flw	fa5,1010(a5) # 900002ac <_impure_ptr+0xd4>
80001ec2:	0fffe797          	auipc	a5,0xfffe
80001ec6:	37e7a687          	flw	fa3,894(a5) # 90000240 <_impure_ptr+0x68>
80001eca:	08f57753          	fsub.s	fa4,fa0,fa5
80001ece:	68f57543          	fmadd.s	fa0,fa0,fa5,fa3
80001ed2:	4709                	li	a4,2
80001ed4:	18a777d3          	fdiv.s	fa5,fa4,fa0
80001ed8:	e00787d3          	fmv.x.w	a5,fa5
80001edc:	bf19                	j	80001df2 <atanf+0xaa>
80001ede:	0fffe797          	auipc	a5,0xfffe
80001ee2:	35e7a787          	flw	fa5,862(a5) # 9000023c <_impure_ptr+0x64>
80001ee6:	18a7f7d3          	fdiv.s	fa5,fa5,fa0
80001eea:	470d                	li	a4,3
80001eec:	e00787d3          	fmv.x.w	a5,fa5
80001ef0:	b709                	j	80001df2 <atanf+0xaa>
80001ef2:	070a                	slli	a4,a4,0x2
80001ef4:	00007697          	auipc	a3,0x7
80001ef8:	32068693          	addi	a3,a3,800 # 80009214 <atanhi>
80001efc:	00007617          	auipc	a2,0x7
80001f00:	32860613          	addi	a2,a2,808 # 80009224 <atanlo>
80001f04:	96ba                	add	a3,a3,a4
80001f06:	9732                	add	a4,a4,a2
80001f08:	6318                	flw	fa4,0(a4)
80001f0a:	08e7f7d3          	fsub.s	fa5,fa5,fa4
80001f0e:	f0078753          	fmv.w.x	fa4,a5
80001f12:	08e7f7d3          	fsub.s	fa5,fa5,fa4
80001f16:	6298                	flw	fa4,0(a3)
80001f18:	08f777d3          	fsub.s	fa5,fa4,fa5
80001f1c:	e00787d3          	fmv.x.w	a5,fa5
80001f20:	e604d1e3          	bgez	s1,80001d82 <atanf+0x3a>
80001f24:	20f797d3          	fneg.s	fa5,fa5
80001f28:	b5a1                	j	80001d70 <atanf+0x28>
80001f2a:	0fffe797          	auipc	a5,0xfffe
80001f2e:	3767a783          	lw	a5,886(a5) # 900002a0 <_impure_ptr+0xc8>
80001f32:	bd81                	j	80001d82 <atanf+0x3a>

80001f34 <cosf>:
cosf():
80001f34:	e00507d3          	fmv.x.w	a5,fa0
80001f38:	3f4916b7          	lui	a3,0x3f491
80001f3c:	fd868693          	addi	a3,a3,-40 # 3f490fd8 <__stack_size+0x3f4907d8>
80001f40:	00179713          	slli	a4,a5,0x1
80001f44:	8305                	srli	a4,a4,0x1
80001f46:	00e6c663          	blt	a3,a4,80001f52 <cosf+0x1e>
80001f4a:	f00005d3          	fmv.w.x	fa1,zero
80001f4e:	7a40006f          	j	800026f2 <__kernel_cosf>
80001f52:	7f8006b7          	lui	a3,0x7f800
80001f56:	00d74563          	blt	a4,a3,80001f60 <cosf+0x2c>
80001f5a:	08a57553          	fsub.s	fa0,fa0,fa0
80001f5e:	8082                	ret
80001f60:	1101                	addi	sp,sp,-32
80001f62:	0028                	addi	a0,sp,8
80001f64:	ce06                	sw	ra,28(sp)
80001f66:	2b39                	jal	80002484 <__ieee754_rem_pio2f>
80001f68:	890d                	andi	a0,a0,3
80001f6a:	4785                	li	a5,1
80001f6c:	65b2                	flw	fa1,12(sp)
80001f6e:	6522                	flw	fa0,8(sp)
80001f70:	00f50a63          	beq	a0,a5,80001f84 <cosf+0x50>
80001f74:	4789                	li	a5,2
80001f76:	00f50d63          	beq	a0,a5,80001f90 <cosf+0x5c>
80001f7a:	ed09                	bnez	a0,80001f94 <cosf+0x60>
80001f7c:	2f9d                	jal	800026f2 <__kernel_cosf>
80001f7e:	40f2                	lw	ra,28(sp)
80001f80:	6105                	addi	sp,sp,32
80001f82:	8082                	ret
80001f84:	4505                	li	a0,1
80001f86:	5d7000ef          	jal	ra,80002d5c <__kernel_sinf>
80001f8a:	20a51553          	fneg.s	fa0,fa0
80001f8e:	bfc5                	j	80001f7e <cosf+0x4a>
80001f90:	278d                	jal	800026f2 <__kernel_cosf>
80001f92:	bfe5                	j	80001f8a <cosf+0x56>
80001f94:	4505                	li	a0,1
80001f96:	5c7000ef          	jal	ra,80002d5c <__kernel_sinf>
80001f9a:	b7d5                	j	80001f7e <cosf+0x4a>

80001f9c <fabsf>:
fabsf():
80001f9c:	20a52553          	fabs.s	fa0,fa0
80001fa0:	8082                	ret

80001fa2 <sinf>:
sinf():
80001fa2:	e00507d3          	fmv.x.w	a5,fa0
80001fa6:	3f4916b7          	lui	a3,0x3f491
80001faa:	fd868693          	addi	a3,a3,-40 # 3f490fd8 <__stack_size+0x3f4907d8>
80001fae:	00179713          	slli	a4,a5,0x1
80001fb2:	8305                	srli	a4,a4,0x1
80001fb4:	00e6c763          	blt	a3,a4,80001fc2 <sinf+0x20>
80001fb8:	f00005d3          	fmv.w.x	fa1,zero
80001fbc:	4501                	li	a0,0
80001fbe:	59f0006f          	j	80002d5c <__kernel_sinf>
80001fc2:	7f8006b7          	lui	a3,0x7f800
80001fc6:	00d74563          	blt	a4,a3,80001fd0 <sinf+0x2e>
80001fca:	08a57553          	fsub.s	fa0,fa0,fa0
80001fce:	8082                	ret
80001fd0:	1101                	addi	sp,sp,-32
80001fd2:	0028                	addi	a0,sp,8
80001fd4:	ce06                	sw	ra,28(sp)
80001fd6:	217d                	jal	80002484 <__ieee754_rem_pio2f>
80001fd8:	890d                	andi	a0,a0,3
80001fda:	4785                	li	a5,1
80001fdc:	65b2                	flw	fa1,12(sp)
80001fde:	6522                	flw	fa0,8(sp)
80001fe0:	00f50c63          	beq	a0,a5,80001ff8 <sinf+0x56>
80001fe4:	4789                	li	a5,2
80001fe6:	00f50b63          	beq	a0,a5,80001ffc <sinf+0x5a>
80001fea:	ed19                	bnez	a0,80002008 <sinf+0x66>
80001fec:	4505                	li	a0,1
80001fee:	56f000ef          	jal	ra,80002d5c <__kernel_sinf>
80001ff2:	40f2                	lw	ra,28(sp)
80001ff4:	6105                	addi	sp,sp,32
80001ff6:	8082                	ret
80001ff8:	2ded                	jal	800026f2 <__kernel_cosf>
80001ffa:	bfe5                	j	80001ff2 <sinf+0x50>
80001ffc:	4505                	li	a0,1
80001ffe:	55f000ef          	jal	ra,80002d5c <__kernel_sinf>
80002002:	20a51553          	fneg.s	fa0,fa0
80002006:	b7f5                	j	80001ff2 <sinf+0x50>
80002008:	25ed                	jal	800026f2 <__kernel_cosf>
8000200a:	bfe5                	j	80002002 <sinf+0x60>

8000200c <expf>:
expf():
8000200c:	1101                	addi	sp,sp,-32
8000200e:	e426                	fsw	fs1,8(sp)
80002010:	20a504d3          	fmv.s	fs1,fa0
80002014:	e622                	fsw	fs0,12(sp)
80002016:	ce06                	sw	ra,28(sp)
80002018:	2855                	jal	800020cc <__ieee754_expf>
8000201a:	20a50453          	fmv.s	fs0,fa0
8000201e:	20948553          	fmv.s	fa0,fs1
80002022:	623000ef          	jal	ra,80002e44 <finitef>
80002026:	c10d                	beqz	a0,80002048 <expf+0x3c>
80002028:	0fffe797          	auipc	a5,0xfffe
8000202c:	2b87a787          	flw	fa5,696(a5) # 900002e0 <_impure_ptr+0x108>
80002030:	a09797d3          	flt.s	a5,fa5,fs1
80002034:	c38d                	beqz	a5,80002056 <expf+0x4a>
80002036:	4f8020ef          	jal	ra,8000452e <__errno>
8000203a:	02200793          	li	a5,34
8000203e:	c11c                	sw	a5,0(a0)
80002040:	0fffe797          	auipc	a5,0xfffe
80002044:	29c7a407          	flw	fs0,668(a5) # 900002dc <_impure_ptr+0x104>
80002048:	40f2                	lw	ra,28(sp)
8000204a:	20840553          	fmv.s	fa0,fs0
8000204e:	64a2                	flw	fs1,8(sp)
80002050:	6432                	flw	fs0,12(sp)
80002052:	6105                	addi	sp,sp,32
80002054:	8082                	ret
80002056:	0fffe797          	auipc	a5,0xfffe
8000205a:	28e7a787          	flw	fa5,654(a5) # 900002e4 <_impure_ptr+0x10c>
8000205e:	a0f497d3          	flt.s	a5,fs1,fa5
80002062:	d3fd                	beqz	a5,80002048 <expf+0x3c>
80002064:	4ca020ef          	jal	ra,8000452e <__errno>
80002068:	02200793          	li	a5,34
8000206c:	f0000453          	fmv.w.x	fs0,zero
80002070:	c11c                	sw	a5,0(a0)
80002072:	bfd9                	j	80002048 <expf+0x3c>

80002074 <logf>:
logf():
80002074:	1101                	addi	sp,sp,-32
80002076:	e622                	fsw	fs0,12(sp)
80002078:	20a50453          	fmv.s	fs0,fa0
8000207c:	ce06                	sw	ra,28(sp)
8000207e:	2401                	jal	8000227e <__ieee754_logf>
80002080:	a08427d3          	feq.s	a5,fs0,fs0
80002084:	c395                	beqz	a5,800020a8 <logf+0x34>
80002086:	f00007d3          	fmv.w.x	fa5,zero
8000208a:	a08797d3          	flt.s	a5,fa5,fs0
8000208e:	ef89                	bnez	a5,800020a8 <logf+0x34>
80002090:	a0f427d3          	feq.s	a5,fs0,fa5
80002094:	cf91                	beqz	a5,800020b0 <logf+0x3c>
80002096:	498020ef          	jal	ra,8000452e <__errno>
8000209a:	02200793          	li	a5,34
8000209e:	c11c                	sw	a5,0(a0)
800020a0:	0fffe797          	auipc	a5,0xfffe
800020a4:	2487a507          	flw	fa0,584(a5) # 900002e8 <_impure_ptr+0x110>
800020a8:	40f2                	lw	ra,28(sp)
800020aa:	6432                	flw	fs0,12(sp)
800020ac:	6105                	addi	sp,sp,32
800020ae:	8082                	ret
800020b0:	47e020ef          	jal	ra,8000452e <__errno>
800020b4:	40f2                	lw	ra,28(sp)
800020b6:	6432                	flw	fs0,12(sp)
800020b8:	02100793          	li	a5,33
800020bc:	c11c                	sw	a5,0(a0)
800020be:	00007517          	auipc	a0,0x7
800020c2:	eb650513          	addi	a0,a0,-330 # 80008f74 <__trunctfdf2+0x41c>
800020c6:	6105                	addi	sp,sp,32
800020c8:	6210006f          	j	80002ee8 <nanf>

800020cc <__ieee754_expf>:
__ieee754_expf():
800020cc:	e00507d3          	fmv.x.w	a5,fa0
800020d0:	7f800737          	lui	a4,0x7f800
800020d4:	00179693          	slli	a3,a5,0x1
800020d8:	8285                	srli	a3,a3,0x1
800020da:	00d77763          	bgeu	a4,a3,800020e8 <__ieee754_expf+0x1c>
800020de:	00a577d3          	fadd.s	fa5,fa0,fa0
800020e2:	e00787d3          	fmv.x.w	a5,fa5
800020e6:	a801                	j	800020f6 <__ieee754_expf+0x2a>
800020e8:	01f7d613          	srli	a2,a5,0x1f
800020ec:	00e69863          	bne	a3,a4,800020fc <__ieee754_expf+0x30>
800020f0:	c219                	beqz	a2,800020f6 <__ieee754_expf+0x2a>
800020f2:	00000793          	li	a5,0
800020f6:	f0078553          	fmv.w.x	fa0,a5
800020fa:	8082                	ret
800020fc:	42b17737          	lui	a4,0x42b17
80002100:	21770713          	addi	a4,a4,535 # 42b17217 <__stack_size+0x42b16a17>
80002104:	00f75563          	bge	a4,a5,8000210e <__ieee754_expf+0x42>
80002108:	4501                	li	a0,0
8000210a:	5310006f          	j	80002e3a <__math_oflowf>
8000210e:	0007db63          	bgez	a5,80002124 <__ieee754_expf+0x58>
80002112:	42cff737          	lui	a4,0x42cff
80002116:	1b570713          	addi	a4,a4,437 # 42cff1b5 <__stack_size+0x42cfe9b5>
8000211a:	00d77563          	bgeu	a4,a3,80002124 <__ieee754_expf+0x58>
8000211e:	4501                	li	a0,0
80002120:	5110006f          	j	80002e30 <__math_uflowf>
80002124:	3eb17737          	lui	a4,0x3eb17
80002128:	21870713          	addi	a4,a4,536 # 3eb17218 <__stack_size+0x3eb16a18>
8000212c:	0fffe597          	auipc	a1,0xfffe
80002130:	1145a607          	flw	fa2,276(a1) # 90000240 <_impure_ptr+0x68>
80002134:	0ed77063          	bgeu	a4,a3,80002214 <__ieee754_expf+0x148>
80002138:	3f851737          	lui	a4,0x3f851
8000213c:	59170713          	addi	a4,a4,1425 # 3f851591 <__stack_size+0x3f850d91>
80002140:	00261593          	slli	a1,a2,0x2
80002144:	08d76b63          	bltu	a4,a3,800021da <__ieee754_expf+0x10e>
80002148:	9e018713          	addi	a4,gp,-1568 # 900003b0 <ln2HI>
8000214c:	972e                	add	a4,a4,a1
8000214e:	630c                	flw	fa1,0(a4)
80002150:	f00787d3          	fmv.w.x	fa5,a5
80002154:	9e818713          	addi	a4,gp,-1560 # 900003b8 <ln2LO>
80002158:	972e                	add	a4,a4,a1
8000215a:	08b7f5d3          	fsub.s	fa1,fa5,fa1
8000215e:	6318                	flw	fa4,0(a4)
80002160:	4705                	li	a4,1
80002162:	8f11                	sub	a4,a4,a2
80002164:	8f11                	sub	a4,a4,a2
80002166:	08e5f7d3          	fsub.s	fa5,fa1,fa4
8000216a:	e00787d3          	fmv.x.w	a5,fa5
8000216e:	f00786d3          	fmv.w.x	fa3,a5
80002172:	0fffe697          	auipc	a3,0xfffe
80002176:	18a6a507          	flw	fa0,394(a3) # 900002fc <_impure_ptr+0x124>
8000217a:	0fffe697          	auipc	a3,0xfffe
8000217e:	17e6a787          	flw	fa5,382(a3) # 900002f8 <_impure_ptr+0x120>
80002182:	10d6f6d3          	fmul.s	fa3,fa3,fa3
80002186:	50f6f7c3          	fmadd.s	fa5,fa3,fa5,fa0
8000218a:	0fffe697          	auipc	a3,0xfffe
8000218e:	1766a507          	flw	fa0,374(a3) # 90000300 <_impure_ptr+0x128>
80002192:	50d7f7c3          	fmadd.s	fa5,fa5,fa3,fa0
80002196:	0fffe697          	auipc	a3,0xfffe
8000219a:	16e6a507          	flw	fa0,366(a3) # 90000304 <_impure_ptr+0x12c>
8000219e:	50d7f7c3          	fmadd.s	fa5,fa5,fa3,fa0
800021a2:	0fffe697          	auipc	a3,0xfffe
800021a6:	1666a507          	flw	fa0,358(a3) # 90000308 <_impure_ptr+0x130>
800021aa:	50d7f7c3          	fmadd.s	fa5,fa5,fa3,fa0
800021ae:	f0078553          	fmv.w.x	fa0,a5
800021b2:	50d7f7cb          	fnmsub.s	fa5,fa5,fa3,fa0
800021b6:	10f576d3          	fmul.s	fa3,fa0,fa5
800021ba:	0fffe697          	auipc	a3,0xfffe
800021be:	0966a507          	flw	fa0,150(a3) # 90000250 <_impure_ptr+0x78>
800021c2:	ef2d                	bnez	a4,8000223c <__ieee754_expf+0x170>
800021c4:	08a7f7d3          	fsub.s	fa5,fa5,fa0
800021c8:	f0078753          	fmv.w.x	fa4,a5
800021cc:	18f6f7d3          	fdiv.s	fa5,fa3,fa5
800021d0:	08e7f7d3          	fsub.s	fa5,fa5,fa4
800021d4:	08f677d3          	fsub.s	fa5,fa2,fa5
800021d8:	b729                	j	800020e2 <__ieee754_expf+0x16>
800021da:	9d818713          	addi	a4,gp,-1576 # 900003a8 <halF>
800021de:	972e                	add	a4,a4,a1
800021e0:	6318                	flw	fa4,0(a4)
800021e2:	f00786d3          	fmv.w.x	fa3,a5
800021e6:	0fffe697          	auipc	a3,0xfffe
800021ea:	1066a787          	flw	fa5,262(a3) # 900002ec <_impure_ptr+0x114>
800021ee:	0fffe697          	auipc	a3,0xfffe
800021f2:	1026a587          	flw	fa1,258(a3) # 900002f0 <_impure_ptr+0x118>
800021f6:	70f6f7c3          	fmadd.s	fa5,fa3,fa5,fa4
800021fa:	c0079753          	fcvt.w.s	a4,fa5,rtz
800021fe:	0fffe797          	auipc	a5,0xfffe
80002202:	0f67a787          	flw	fa5,246(a5) # 900002f4 <_impure_ptr+0x11c>
80002206:	d0077753          	fcvt.s.w	fa4,a4
8000220a:	68b775cb          	fnmsub.s	fa1,fa4,fa1,fa3
8000220e:	10f77753          	fmul.s	fa4,fa4,fa5
80002212:	bf91                	j	80002166 <__ieee754_expf+0x9a>
80002214:	34000737          	lui	a4,0x34000
80002218:	02e6f063          	bgeu	a3,a4,80002238 <__ieee754_expf+0x16c>
8000221c:	f00786d3          	fmv.w.x	fa3,a5
80002220:	0fffe717          	auipc	a4,0xfffe
80002224:	08872787          	flw	fa5,136(a4) # 900002a8 <_impure_ptr+0xd0>
80002228:	00f6f7d3          	fadd.s	fa5,fa3,fa5
8000222c:	a0f61753          	flt.s	a4,fa2,fa5
80002230:	c701                	beqz	a4,80002238 <__ieee754_expf+0x16c>
80002232:	00c6f7d3          	fadd.s	fa5,fa3,fa2
80002236:	b575                	j	800020e2 <__ieee754_expf+0x16>
80002238:	4701                	li	a4,0
8000223a:	bf15                	j	8000216e <__ieee754_expf+0xa2>
8000223c:	08f577d3          	fsub.s	fa5,fa0,fa5
80002240:	f8300793          	li	a5,-125
80002244:	18f6f6d3          	fdiv.s	fa3,fa3,fa5
80002248:	08d77753          	fsub.s	fa4,fa4,fa3
8000224c:	08b77753          	fsub.s	fa4,fa4,fa1
80002250:	08e677d3          	fsub.s	fa5,fa2,fa4
80002254:	e00786d3          	fmv.x.w	a3,fa5
80002258:	00f74663          	blt	a4,a5,80002264 <__ieee754_expf+0x198>
8000225c:	075e                	slli	a4,a4,0x17
8000225e:	00d707b3          	add	a5,a4,a3
80002262:	bd51                	j	800020f6 <__ieee754_expf+0x2a>
80002264:	06470793          	addi	a5,a4,100
80002268:	07de                	slli	a5,a5,0x17
8000226a:	97b6                	add	a5,a5,a3
8000226c:	f0078753          	fmv.w.x	fa4,a5
80002270:	0fffe717          	auipc	a4,0xfffe
80002274:	09c72787          	flw	fa5,156(a4) # 9000030c <_impure_ptr+0x134>
80002278:	10f777d3          	fmul.s	fa5,fa4,fa5
8000227c:	b59d                	j	800020e2 <__ieee754_expf+0x16>

8000227e <__ieee754_logf>:
__ieee754_logf():
8000227e:	e00507d3          	fmv.x.w	a5,fa0
80002282:	00179693          	slli	a3,a5,0x1
80002286:	873e                	mv	a4,a5
80002288:	ea91                	bnez	a3,8000229c <__ieee754_logf+0x1e>
8000228a:	0fffe797          	auipc	a5,0xfffe
8000228e:	0867a507          	flw	fa0,134(a5) # 90000310 <_impure_ptr+0x138>
80002292:	f00007d3          	fmv.w.x	fa5,zero
80002296:	18f57553          	fdiv.s	fa0,fa0,fa5
8000229a:	8082                	ret
8000229c:	0007d563          	bgez	a5,800022a6 <__ieee754_logf+0x28>
800022a0:	08a57553          	fsub.s	fa0,fa0,fa0
800022a4:	b7fd                	j	80002292 <__ieee754_logf+0x14>
800022a6:	7f8006b7          	lui	a3,0x7f800
800022aa:	00d7c563          	blt	a5,a3,800022b4 <__ieee754_logf+0x36>
800022ae:	00a57553          	fadd.s	fa0,fa0,fa0
800022b2:	8082                	ret
800022b4:	008006b7          	lui	a3,0x800
800022b8:	4601                	li	a2,0
800022ba:	00d7db63          	bge	a5,a3,800022d0 <__ieee754_logf+0x52>
800022be:	0fffe717          	auipc	a4,0xfffe
800022c2:	05672787          	flw	fa5,86(a4) # 90000314 <_impure_ptr+0x13c>
800022c6:	10f577d3          	fmul.s	fa5,fa0,fa5
800022ca:	561d                	li	a2,-25
800022cc:	e0078753          	fmv.x.w	a4,fa5
800022d0:	41775693          	srai	a3,a4,0x17
800022d4:	f8168693          	addi	a3,a3,-127 # 7fff81 <__stack_size+0x7ff781>
800022d8:	96b2                	add	a3,a3,a2
800022da:	00800637          	lui	a2,0x800
800022de:	fff60793          	addi	a5,a2,-1 # 7fffff <__stack_size+0x7ff7ff>
800022e2:	8f7d                	and	a4,a4,a5
800022e4:	004b07b7          	lui	a5,0x4b0
800022e8:	b2078793          	addi	a5,a5,-1248 # 4afb20 <__stack_size+0x4af320>
800022ec:	97ba                	add	a5,a5,a4
800022ee:	8ff1                	and	a5,a5,a2
800022f0:	4177d593          	srai	a1,a5,0x17
800022f4:	96ae                	add	a3,a3,a1
800022f6:	3f8005b7          	lui	a1,0x3f800
800022fa:	8fad                	xor	a5,a5,a1
800022fc:	8fd9                	or	a5,a5,a4
800022fe:	f00787d3          	fmv.w.x	fa5,a5
80002302:	1641                	addi	a2,a2,-16
80002304:	00f70793          	addi	a5,a4,15
80002308:	0fffe597          	auipc	a1,0xfffe
8000230c:	f385a507          	flw	fa0,-200(a1) # 90000240 <_impure_ptr+0x68>
80002310:	8e7d                	and	a2,a2,a5
80002312:	08a7f553          	fsub.s	fa0,fa5,fa0
80002316:	ee25                	bnez	a2,8000238e <__ieee754_logf+0x110>
80002318:	f00007d3          	fmv.w.x	fa5,zero
8000231c:	a0f527d3          	feq.s	a5,fa0,fa5
80002320:	c785                	beqz	a5,80002348 <__ieee754_logf+0xca>
80002322:	20f78553          	fmv.s	fa0,fa5
80002326:	14068e63          	beqz	a3,80002482 <__ieee754_logf+0x204>
8000232a:	d006f553          	fcvt.s.w	fa0,a3
8000232e:	0fffe797          	auipc	a5,0xfffe
80002332:	fc67a787          	flw	fa5,-58(a5) # 900002f4 <_impure_ptr+0x11c>
80002336:	0fffe797          	auipc	a5,0xfffe
8000233a:	fba7a707          	flw	fa4,-70(a5) # 900002f0 <_impure_ptr+0x118>
8000233e:	10f577d3          	fmul.s	fa5,fa0,fa5
80002342:	78e57543          	fmadd.s	fa0,fa0,fa4,fa5
80002346:	8082                	ret
80002348:	0fffe797          	auipc	a5,0xfffe
8000234c:	f7c7a707          	flw	fa4,-132(a5) # 900002c4 <_impure_ptr+0xec>
80002350:	0fffe797          	auipc	a5,0xfffe
80002354:	f147a687          	flw	fa3,-236(a5) # 90000264 <_impure_ptr+0x8c>
80002358:	10a577d3          	fmul.s	fa5,fa0,fa0
8000235c:	68e5774b          	fnmsub.s	fa4,fa0,fa4,fa3
80002360:	10e7f7d3          	fmul.s	fa5,fa5,fa4
80002364:	e681                	bnez	a3,8000236c <__ieee754_logf+0xee>
80002366:	08f57553          	fsub.s	fa0,fa0,fa5
8000236a:	8082                	ret
8000236c:	d006f6d3          	fcvt.s.w	fa3,a3
80002370:	0fffe797          	auipc	a5,0xfffe
80002374:	f847a707          	flw	fa4,-124(a5) # 900002f4 <_impure_ptr+0x11c>
80002378:	78e6f7cb          	fnmsub.s	fa5,fa3,fa4,fa5
8000237c:	08a7f7d3          	fsub.s	fa5,fa5,fa0
80002380:	0fffe797          	auipc	a5,0xfffe
80002384:	f707a507          	flw	fa0,-144(a5) # 900002f0 <_impure_ptr+0x118>
80002388:	78a6f547          	fmsub.s	fa0,fa3,fa0,fa5
8000238c:	8082                	ret
8000238e:	0fffe797          	auipc	a5,0xfffe
80002392:	ec27a787          	flw	fa5,-318(a5) # 90000250 <_impure_ptr+0x78>
80002396:	00f577d3          	fadd.s	fa5,fa0,fa5
8000239a:	0fffe797          	auipc	a5,0xfffe
8000239e:	f7e7a707          	flw	fa4,-130(a5) # 90000318 <_impure_ptr+0x140>
800023a2:	0fffe797          	auipc	a5,0xfffe
800023a6:	f867a087          	flw	ft1,-122(a5) # 90000328 <_impure_ptr+0x150>
800023aa:	ffcf6637          	lui	a2,0xffcf6
800023ae:	c3060613          	addi	a2,a2,-976 # ffcf5c30 <_sp+0x6fce5c30>
800023b2:	18f576d3          	fdiv.s	fa3,fa0,fa5
800023b6:	0fffe797          	auipc	a5,0xfffe
800023ba:	f667a787          	flw	fa5,-154(a5) # 9000031c <_impure_ptr+0x144>
800023be:	963a                	add	a2,a2,a4
800023c0:	d006f5d3          	fcvt.s.w	fa1,a3
800023c4:	10d6f053          	fmul.s	ft0,fa3,fa3
800023c8:	10007653          	fmul.s	fa2,ft0,ft0
800023cc:	78e67743          	fmadd.s	fa4,fa2,fa4,fa5
800023d0:	0fffe797          	auipc	a5,0xfffe
800023d4:	f507a787          	flw	fa5,-176(a5) # 90000320 <_impure_ptr+0x148>
800023d8:	78c77743          	fmadd.s	fa4,fa4,fa2,fa5
800023dc:	0fffe797          	auipc	a5,0xfffe
800023e0:	f487a787          	flw	fa5,-184(a5) # 90000324 <_impure_ptr+0x14c>
800023e4:	08f677c3          	fmadd.s	fa5,fa2,fa5,ft1
800023e8:	0fffe797          	auipc	a5,0xfffe
800023ec:	f447a087          	flw	ft1,-188(a5) # 9000032c <_impure_ptr+0x154>
800023f0:	08c7f7c3          	fmadd.s	fa5,fa5,fa2,ft1
800023f4:	0fffe797          	auipc	a5,0xfffe
800023f8:	f3c7a087          	flw	ft1,-196(a5) # 90000330 <_impure_ptr+0x158>
800023fc:	0035c7b7          	lui	a5,0x35c
80002400:	28878793          	addi	a5,a5,648 # 35c288 <__stack_size+0x35ba88>
80002404:	40e78733          	sub	a4,a5,a4
80002408:	08c7f7c3          	fmadd.s	fa5,fa5,fa2,ft1
8000240c:	8f51                	or	a4,a4,a2
8000240e:	1007f7d3          	fmul.s	fa5,fa5,ft0
80002412:	78c777c3          	fmadd.s	fa5,fa4,fa2,fa5
80002416:	04e05363          	blez	a4,8000245c <__ieee754_logf+0x1de>
8000241a:	0fffe797          	auipc	a5,0xfffe
8000241e:	e4a7a707          	flw	fa4,-438(a5) # 90000264 <_impure_ptr+0x8c>
80002422:	10e57753          	fmul.s	fa4,fa0,fa4
80002426:	10a77753          	fmul.s	fa4,fa4,fa0
8000242a:	00e7f7d3          	fadd.s	fa5,fa5,fa4
8000242e:	10d7f7d3          	fmul.s	fa5,fa5,fa3
80002432:	e681                	bnez	a3,8000243a <__ieee754_logf+0x1bc>
80002434:	08f777d3          	fsub.s	fa5,fa4,fa5
80002438:	b73d                	j	80002366 <__ieee754_logf+0xe8>
8000243a:	0fffe797          	auipc	a5,0xfffe
8000243e:	eba7a687          	flw	fa3,-326(a5) # 900002f4 <_impure_ptr+0x11c>
80002442:	78d5f7c3          	fmadd.s	fa5,fa1,fa3,fa5
80002446:	08f77753          	fsub.s	fa4,fa4,fa5
8000244a:	08a77753          	fsub.s	fa4,fa4,fa0
8000244e:	0fffe797          	auipc	a5,0xfffe
80002452:	ea27a507          	flw	fa0,-350(a5) # 900002f0 <_impure_ptr+0x118>
80002456:	70a5f547          	fmsub.s	fa0,fa1,fa0,fa4
8000245a:	8082                	ret
8000245c:	08f577d3          	fsub.s	fa5,fa0,fa5
80002460:	10d7f7d3          	fmul.s	fa5,fa5,fa3
80002464:	d289                	beqz	a3,80002366 <__ieee754_logf+0xe8>
80002466:	0fffe797          	auipc	a5,0xfffe
8000246a:	e8e7a707          	flw	fa4,-370(a5) # 900002f4 <_impure_ptr+0x11c>
8000246e:	78e5f7cb          	fnmsub.s	fa5,fa1,fa4,fa5
80002472:	08a7f7d3          	fsub.s	fa5,fa5,fa0
80002476:	0fffe797          	auipc	a5,0xfffe
8000247a:	e7a7a507          	flw	fa0,-390(a5) # 900002f0 <_impure_ptr+0x118>
8000247e:	78a5f547          	fmsub.s	fa0,fa1,fa0,fa5
80002482:	8082                	ret

80002484 <__ieee754_rem_pio2f>:
__ieee754_rem_pio2f():
80002484:	e00507d3          	fmv.x.w	a5,fa0
80002488:	1101                	addi	sp,sp,-32
8000248a:	cc22                	sw	s0,24(sp)
8000248c:	3f491737          	lui	a4,0x3f491
80002490:	00179413          	slli	s0,a5,0x1
80002494:	ca26                	sw	s1,20(sp)
80002496:	ce06                	sw	ra,28(sp)
80002498:	c84a                	sw	s2,16(sp)
8000249a:	8005                	srli	s0,s0,0x1
8000249c:	fd870713          	addi	a4,a4,-40 # 3f490fd8 <__stack_size+0x3f4907d8>
800024a0:	84aa                	mv	s1,a0
800024a2:	00874763          	blt	a4,s0,800024b0 <__ieee754_rem_pio2f+0x2c>
800024a6:	e088                	fsw	fa0,0(s1)
800024a8:	00052223          	sw	zero,4(a0)
800024ac:	4501                	li	a0,0
800024ae:	a0a1                	j	800024f6 <__ieee754_rem_pio2f+0x72>
800024b0:	4016d737          	lui	a4,0x4016d
800024b4:	be370713          	addi	a4,a4,-1053 # 4016cbe3 <__stack_size+0x4016c3e3>
800024b8:	893e                	mv	s2,a5
800024ba:	08874c63          	blt	a4,s0,80002552 <__ieee754_rem_pio2f+0xce>
800024be:	0fffe717          	auipc	a4,0xfffe
800024c2:	e7672787          	flw	fa5,-394(a4) # 90000334 <_impure_ptr+0x15c>
800024c6:	3fc91737          	lui	a4,0x3fc91
800024ca:	9841                	andi	s0,s0,-16
800024cc:	fd070713          	addi	a4,a4,-48 # 3fc90fd0 <__stack_size+0x3fc907d0>
800024d0:	04f05463          	blez	a5,80002518 <__ieee754_rem_pio2f+0x94>
800024d4:	08f577d3          	fsub.s	fa5,fa0,fa5
800024d8:	02e40563          	beq	s0,a4,80002502 <__ieee754_rem_pio2f+0x7e>
800024dc:	0fffe797          	auipc	a5,0xfffe
800024e0:	e5c7a707          	flw	fa4,-420(a5) # 90000338 <_impure_ptr+0x160>
800024e4:	08e7f6d3          	fsub.s	fa3,fa5,fa4
800024e8:	4505                	li	a0,1
800024ea:	08d7f7d3          	fsub.s	fa5,fa5,fa3
800024ee:	e094                	fsw	fa3,0(s1)
800024f0:	08e7f7d3          	fsub.s	fa5,fa5,fa4
800024f4:	e0dc                	fsw	fa5,4(s1)
800024f6:	40f2                	lw	ra,28(sp)
800024f8:	4462                	lw	s0,24(sp)
800024fa:	44d2                	lw	s1,20(sp)
800024fc:	4942                	lw	s2,16(sp)
800024fe:	6105                	addi	sp,sp,32
80002500:	8082                	ret
80002502:	0fffe797          	auipc	a5,0xfffe
80002506:	e3a7a707          	flw	fa4,-454(a5) # 9000033c <_impure_ptr+0x164>
8000250a:	08e7f7d3          	fsub.s	fa5,fa5,fa4
8000250e:	0fffe797          	auipc	a5,0xfffe
80002512:	e327a707          	flw	fa4,-462(a5) # 90000340 <_impure_ptr+0x168>
80002516:	b7f9                	j	800024e4 <__ieee754_rem_pio2f+0x60>
80002518:	00f577d3          	fadd.s	fa5,fa0,fa5
8000251c:	02e40063          	beq	s0,a4,8000253c <__ieee754_rem_pio2f+0xb8>
80002520:	0fffe797          	auipc	a5,0xfffe
80002524:	e187a707          	flw	fa4,-488(a5) # 90000338 <_impure_ptr+0x160>
80002528:	00e7f6d3          	fadd.s	fa3,fa5,fa4
8000252c:	557d                	li	a0,-1
8000252e:	08d7f7d3          	fsub.s	fa5,fa5,fa3
80002532:	e094                	fsw	fa3,0(s1)
80002534:	00e7f7d3          	fadd.s	fa5,fa5,fa4
80002538:	e0dc                	fsw	fa5,4(s1)
8000253a:	bf75                	j	800024f6 <__ieee754_rem_pio2f+0x72>
8000253c:	0fffe797          	auipc	a5,0xfffe
80002540:	e007a707          	flw	fa4,-512(a5) # 9000033c <_impure_ptr+0x164>
80002544:	00e7f7d3          	fadd.s	fa5,fa5,fa4
80002548:	0fffe797          	auipc	a5,0xfffe
8000254c:	df87a707          	flw	fa4,-520(a5) # 90000340 <_impure_ptr+0x168>
80002550:	bfe1                	j	80002528 <__ieee754_rem_pio2f+0xa4>
80002552:	43491737          	lui	a4,0x43491
80002556:	f8070713          	addi	a4,a4,-128 # 43490f80 <__stack_size+0x43490780>
8000255a:	10874363          	blt	a4,s0,80002660 <__ieee754_rem_pio2f+0x1dc>
8000255e:	a3fff0ef          	jal	ra,80001f9c <fabsf>
80002562:	0fffe797          	auipc	a5,0xfffe
80002566:	d027a707          	flw	fa4,-766(a5) # 90000264 <_impure_ptr+0x8c>
8000256a:	0fffe797          	auipc	a5,0xfffe
8000256e:	dda7a787          	flw	fa5,-550(a5) # 90000344 <_impure_ptr+0x16c>
80002572:	70f577c3          	fmadd.s	fa5,fa0,fa5,fa4
80002576:	c0079553          	fcvt.w.s	a0,fa5,rtz
8000257a:	0fffe797          	auipc	a5,0xfffe
8000257e:	dba7a787          	flw	fa5,-582(a5) # 90000334 <_impure_ptr+0x15c>
80002582:	d0057753          	fcvt.s.w	fa4,a0
80002586:	50f7754b          	fnmsub.s	fa0,fa4,fa5,fa0
8000258a:	0fffe797          	auipc	a5,0xfffe
8000258e:	dae7a787          	flw	fa5,-594(a5) # 90000338 <_impure_ptr+0x160>
80002592:	10f777d3          	fmul.s	fa5,fa4,fa5
80002596:	47fd                	li	a5,31
80002598:	08f576d3          	fsub.s	fa3,fa0,fa5
8000259c:	e0068753          	fmv.x.w	a4,fa3
800025a0:	04a7c263          	blt	a5,a0,800025e4 <__ieee754_rem_pio2f+0x160>
800025a4:	fff50693          	addi	a3,a0,-1
800025a8:	00269613          	slli	a2,a3,0x2
800025ac:	00007697          	auipc	a3,0x7
800025b0:	c8868693          	addi	a3,a3,-888 # 80009234 <npio2_hw>
800025b4:	96b2                	add	a3,a3,a2
800025b6:	4294                	lw	a3,0(a3)
800025b8:	f0047793          	andi	a5,s0,-256
800025bc:	02d78463          	beq	a5,a3,800025e4 <__ieee754_rem_pio2f+0x160>
800025c0:	c098                	sw	a4,0(s1)
800025c2:	6098                	flw	fa4,0(s1)
800025c4:	08e57553          	fsub.s	fa0,fa0,fa4
800025c8:	08f57553          	fsub.s	fa0,fa0,fa5
800025cc:	e0c8                	fsw	fa0,4(s1)
800025ce:	f20954e3          	bgez	s2,800024f6 <__ieee754_rem_pio2f+0x72>
800025d2:	20e71753          	fneg.s	fa4,fa4
800025d6:	20a51553          	fneg.s	fa0,fa0
800025da:	e098                	fsw	fa4,0(s1)
800025dc:	e0c8                	fsw	fa0,4(s1)
800025de:	40a00533          	neg	a0,a0
800025e2:	bf11                	j	800024f6 <__ieee754_rem_pio2f+0x72>
800025e4:	01775793          	srli	a5,a4,0x17
800025e8:	845d                	srai	s0,s0,0x17
800025ea:	0ff7f793          	zext.b	a5,a5
800025ee:	40f407b3          	sub	a5,s0,a5
800025f2:	46a1                	li	a3,8
800025f4:	fcf6d6e3          	bge	a3,a5,800025c0 <__ieee754_rem_pio2f+0x13c>
800025f8:	0fffe797          	auipc	a5,0xfffe
800025fc:	d447a787          	flw	fa5,-700(a5) # 9000033c <_impure_ptr+0x164>
80002600:	50f776cb          	fnmsub.s	fa3,fa4,fa5,fa0
80002604:	08d57553          	fsub.s	fa0,fa0,fa3
80002608:	50f7754b          	fnmsub.s	fa0,fa4,fa5,fa0
8000260c:	0fffe797          	auipc	a5,0xfffe
80002610:	d347a787          	flw	fa5,-716(a5) # 90000340 <_impure_ptr+0x168>
80002614:	50f777c7          	fmsub.s	fa5,fa4,fa5,fa0
80002618:	08f6f653          	fsub.s	fa2,fa3,fa5
8000261c:	e0060753          	fmv.x.w	a4,fa2
80002620:	01775793          	srli	a5,a4,0x17
80002624:	0ff7f793          	zext.b	a5,a5
80002628:	8c1d                	sub	s0,s0,a5
8000262a:	47e5                	li	a5,25
8000262c:	0087c663          	blt	a5,s0,80002638 <__ieee754_rem_pio2f+0x1b4>
80002630:	20d68553          	fmv.s	fa0,fa3
80002634:	e090                	fsw	fa2,0(s1)
80002636:	b771                	j	800025c2 <__ieee754_rem_pio2f+0x13e>
80002638:	0fffe797          	auipc	a5,0xfffe
8000263c:	d107a787          	flw	fa5,-752(a5) # 90000348 <_impure_ptr+0x170>
80002640:	68f7754b          	fnmsub.s	fa0,fa4,fa5,fa3
80002644:	08a6f6d3          	fsub.s	fa3,fa3,fa0
80002648:	68f776cb          	fnmsub.s	fa3,fa4,fa5,fa3
8000264c:	0fffe797          	auipc	a5,0xfffe
80002650:	d007a787          	flw	fa5,-768(a5) # 9000034c <_impure_ptr+0x174>
80002654:	68f777c7          	fmsub.s	fa5,fa4,fa5,fa3
80002658:	08f57753          	fsub.s	fa4,fa0,fa5
8000265c:	e098                	fsw	fa4,0(s1)
8000265e:	b795                	j	800025c2 <__ieee754_rem_pio2f+0x13e>
80002660:	7f800737          	lui	a4,0x7f800
80002664:	00e44763          	blt	s0,a4,80002672 <__ieee754_rem_pio2f+0x1ee>
80002668:	08a577d3          	fsub.s	fa5,fa0,fa0
8000266c:	e15c                	fsw	fa5,4(a0)
8000266e:	e11c                	fsw	fa5,0(a0)
80002670:	bd35                	j	800024ac <__ieee754_rem_pio2f+0x28>
80002672:	41745613          	srai	a2,s0,0x17
80002676:	f7a60613          	addi	a2,a2,-134
8000267a:	01761793          	slli	a5,a2,0x17
8000267e:	8c1d                	sub	s0,s0,a5
80002680:	f00407d3          	fmv.w.x	fa5,s0
80002684:	f0040753          	fmv.w.x	fa4,s0
80002688:	468d                	li	a3,3
8000268a:	c00797d3          	fcvt.w.s	a5,fa5,rtz
8000268e:	d007f7d3          	fcvt.s.w	fa5,a5
80002692:	0fffe797          	auipc	a5,0xfffe
80002696:	cbe7a687          	flw	fa3,-834(a5) # 90000350 <_impure_ptr+0x178>
8000269a:	e23e                	fsw	fa5,4(sp)
8000269c:	08f777d3          	fsub.s	fa5,fa4,fa5
800026a0:	10d7f7d3          	fmul.s	fa5,fa5,fa3
800026a4:	c00797d3          	fcvt.w.s	a5,fa5,rtz
800026a8:	d007f753          	fcvt.s.w	fa4,a5
800026ac:	08e7f7d3          	fsub.s	fa5,fa5,fa4
800026b0:	e43a                	fsw	fa4,8(sp)
800026b2:	10d7f7d3          	fmul.s	fa5,fa5,fa3
800026b6:	f00006d3          	fmv.w.x	fa3,zero
800026ba:	a0d7a7d3          	feq.s	a5,fa5,fa3
800026be:	e63e                	fsw	fa5,12(sp)
800026c0:	c791                	beqz	a5,800026cc <__ieee754_rem_pio2f+0x248>
800026c2:	a0d726d3          	feq.s	a3,fa4,fa3
800026c6:	0016b693          	seqz	a3,a3
800026ca:	0685                	addi	a3,a3,1
800026cc:	00007797          	auipc	a5,0x7
800026d0:	be878793          	addi	a5,a5,-1048 # 800092b4 <two_over_pi>
800026d4:	4709                	li	a4,2
800026d6:	85a6                	mv	a1,s1
800026d8:	0048                	addi	a0,sp,4
800026da:	20e5                	jal	800027c2 <__kernel_rem_pio2f>
800026dc:	e0095de3          	bgez	s2,800024f6 <__ieee754_rem_pio2f+0x72>
800026e0:	609c                	flw	fa5,0(s1)
800026e2:	20f797d3          	fneg.s	fa5,fa5
800026e6:	e09c                	fsw	fa5,0(s1)
800026e8:	60dc                	flw	fa5,4(s1)
800026ea:	20f797d3          	fneg.s	fa5,fa5
800026ee:	e0dc                	fsw	fa5,4(s1)
800026f0:	b5fd                	j	800025de <__ieee754_rem_pio2f+0x15a>

800026f2 <__kernel_cosf>:
__kernel_cosf():
800026f2:	e0050753          	fmv.x.w	a4,fa0
800026f6:	320006b7          	lui	a3,0x32000
800026fa:	0fffe617          	auipc	a2,0xfffe
800026fe:	b4662607          	flw	fa2,-1210(a2) # 90000240 <_impure_ptr+0x68>
80002702:	00171793          	slli	a5,a4,0x1
80002706:	8385                	srli	a5,a5,0x1
80002708:	00d7d963          	bge	a5,a3,8000271a <__kernel_cosf+0x28>
8000270c:	f00707d3          	fmv.w.x	fa5,a4
80002710:	20c60553          	fmv.s	fa0,fa2
80002714:	c00796d3          	fcvt.w.s	a3,fa5,rtz
80002718:	cebd                	beqz	a3,80002796 <__kernel_cosf+0xa4>
8000271a:	f00707d3          	fmv.w.x	fa5,a4
8000271e:	0fffe697          	auipc	a3,0xfffe
80002722:	c3a6a707          	flw	fa4,-966(a3) # 90000358 <_impure_ptr+0x180>
80002726:	0fffe697          	auipc	a3,0xfffe
8000272a:	c426a507          	flw	fa0,-958(a3) # 90000368 <_impure_ptr+0x190>
8000272e:	10f7f6d3          	fmul.s	fa3,fa5,fa5
80002732:	0fffe697          	auipc	a3,0xfffe
80002736:	c2a6a787          	flw	fa5,-982(a3) # 9000035c <_impure_ptr+0x184>
8000273a:	78e6f743          	fmadd.s	fa4,fa3,fa4,fa5
8000273e:	0fffe697          	auipc	a3,0xfffe
80002742:	c226a787          	flw	fa5,-990(a3) # 90000360 <_impure_ptr+0x188>
80002746:	78d77743          	fmadd.s	fa4,fa4,fa3,fa5
8000274a:	0fffe697          	auipc	a3,0xfffe
8000274e:	c1a6a787          	flw	fa5,-998(a3) # 90000364 <_impure_ptr+0x18c>
80002752:	78d77743          	fmadd.s	fa4,fa4,fa3,fa5
80002756:	0fffe697          	auipc	a3,0xfffe
8000275a:	b0e6a787          	flw	fa5,-1266(a3) # 90000264 <_impure_ptr+0x8c>
8000275e:	10f6f7d3          	fmul.s	fa5,fa3,fa5
80002762:	50d77743          	fmadd.s	fa4,fa4,fa3,fa0
80002766:	0fffe697          	auipc	a3,0xfffe
8000276a:	c066a507          	flw	fa0,-1018(a3) # 9000036c <_impure_ptr+0x194>
8000276e:	50d77743          	fmadd.s	fa4,fa4,fa3,fa0
80002772:	f0070553          	fmv.w.x	fa0,a4
80002776:	3e99a737          	lui	a4,0x3e99a
8000277a:	99970713          	addi	a4,a4,-1639 # 3e999999 <__stack_size+0x3e999199>
8000277e:	10b575d3          	fmul.s	fa1,fa0,fa1
80002782:	10d77753          	fmul.s	fa4,fa4,fa3
80002786:	58e6f747          	fmsub.s	fa4,fa3,fa4,fa1
8000278a:	00f74763          	blt	a4,a5,80002798 <__kernel_cosf+0xa6>
8000278e:	08e7f553          	fsub.s	fa0,fa5,fa4
80002792:	08a67553          	fsub.s	fa0,fa2,fa0
80002796:	8082                	ret
80002798:	3f480737          	lui	a4,0x3f480
8000279c:	00f74e63          	blt	a4,a5,800027b8 <__kernel_cosf+0xc6>
800027a0:	ff000737          	lui	a4,0xff000
800027a4:	97ba                	add	a5,a5,a4
800027a6:	f00786d3          	fmv.w.x	fa3,a5
800027aa:	08d7f553          	fsub.s	fa0,fa5,fa3
800027ae:	08d67653          	fsub.s	fa2,fa2,fa3
800027b2:	08e57553          	fsub.s	fa0,fa0,fa4
800027b6:	bff1                	j	80002792 <__kernel_cosf+0xa0>
800027b8:	0fffe797          	auipc	a5,0xfffe
800027bc:	b9c7a783          	lw	a5,-1124(a5) # 90000354 <_impure_ptr+0x17c>
800027c0:	b7dd                	j	800027a6 <__kernel_cosf+0xb4>

800027c2 <__kernel_rem_pio2f>:
__kernel_rem_pio2f():
800027c2:	7121                	addi	sp,sp,-448
800027c4:	1b512223          	sw	s5,420(sp)
800027c8:	19912a23          	sw	s9,404(sp)
800027cc:	8aba                	mv	s5,a4
800027ce:	8cbe                	mv	s9,a5
800027d0:	070a                	slli	a4,a4,0x2
800027d2:	00007797          	auipc	a5,0x7
800027d6:	e2678793          	addi	a5,a5,-474 # 800095f8 <init_jk>
800027da:	97ba                	add	a5,a5,a4
800027dc:	1b412423          	sw	s4,424(sp)
800027e0:	1b612023          	sw	s6,416(sp)
800027e4:	19812c23          	sw	s8,408(sp)
800027e8:	0007ab03          	lw	s6,0(a5)
800027ec:	19b12623          	sw	s11,396(sp)
800027f0:	1a112e23          	sw	ra,444(sp)
800027f4:	1a812c23          	sw	s0,440(sp)
800027f8:	1a912a23          	sw	s1,436(sp)
800027fc:	1b212823          	sw	s2,432(sp)
80002800:	1b312623          	sw	s3,428(sp)
80002804:	19712e23          	sw	s7,412(sp)
80002808:	19a12823          	sw	s10,400(sp)
8000280c:	16812e27          	fsw	fs0,380(sp)
80002810:	16912c27          	fsw	fs1,376(sp)
80002814:	17212a27          	fsw	fs2,372(sp)
80002818:	17312827          	fsw	fs3,368(sp)
8000281c:	17412627          	fsw	fs4,364(sp)
80002820:	17512427          	fsw	fs5,360(sp)
80002824:	17612227          	fsw	fs6,356(sp)
80002828:	c62a                	sw	a0,12(sp)
8000282a:	57f1                	li	a5,-4
8000282c:	8dae                	mv	s11,a1
8000282e:	fff68c13          	addi	s8,a3,-1
80002832:	4a01                	li	s4,0
80002834:	00f64763          	blt	a2,a5,80002842 <__kernel_rem_pio2f+0x80>
80002838:	ffd60a13          	addi	s4,a2,-3
8000283c:	47a1                	li	a5,8
8000283e:	02fa4a33          	div	s4,s4,a5
80002842:	001a0b93          	addi	s7,s4,1
80002846:	0b8e                	slli	s7,s7,0x3
80002848:	418a0833          	sub	a6,s4,s8
8000284c:	41760933          	sub	s2,a2,s7
80002850:	018b08b3          	add	a7,s6,s8
80002854:	1898                	addi	a4,sp,112
80002856:	87c2                	mv	a5,a6
80002858:	41078533          	sub	a0,a5,a6
8000285c:	02a8d163          	bge	a7,a0,8000287e <__kernel_rem_pio2f+0xbc>
80002860:	8536                	mv	a0,a3
80002862:	11010813          	addi	a6,sp,272
80002866:	40d507b3          	sub	a5,a0,a3
8000286a:	04fb4a63          	blt	s6,a5,800028be <__kernel_rem_pio2f+0xfc>
8000286e:	1898                	addi	a4,sp,112
80002870:	00251793          	slli	a5,a0,0x2
80002874:	97ba                	add	a5,a5,a4
80002876:	f00007d3          	fmv.w.x	fa5,zero
8000287a:	4701                	li	a4,0
8000287c:	a80d                	j	800028ae <__kernel_rem_pio2f+0xec>
8000287e:	f00007d3          	fmv.w.x	fa5,zero
80002882:	0007c863          	bltz	a5,80002892 <__kernel_rem_pio2f+0xd0>
80002886:	00279513          	slli	a0,a5,0x2
8000288a:	9566                	add	a0,a0,s9
8000288c:	4108                	lw	a0,0(a0)
8000288e:	d00577d3          	fcvt.s.w	fa5,a0
80002892:	e31c                	fsw	fa5,0(a4)
80002894:	0785                	addi	a5,a5,1
80002896:	0711                	addi	a4,a4,4
80002898:	b7c1                	j	80002858 <__kernel_rem_pio2f+0x96>
8000289a:	45b2                	lw	a1,12(sp)
8000289c:	00271893          	slli	a7,a4,0x2
800028a0:	6398                	flw	fa4,0(a5)
800028a2:	98ae                	add	a7,a7,a1
800028a4:	0008a687          	flw	fa3,0(a7)
800028a8:	0705                	addi	a4,a4,1
800028aa:	78e6f7c3          	fmadd.s	fa5,fa3,fa4,fa5
800028ae:	17f1                	addi	a5,a5,-4
800028b0:	feec55e3          	bge	s8,a4,8000289a <__kernel_rem_pio2f+0xd8>
800028b4:	00f82027          	fsw	fa5,0(a6)
800028b8:	0505                	addi	a0,a0,1
800028ba:	0811                	addi	a6,a6,4
800028bc:	b76d                	j	80002866 <__kernel_rem_pio2f+0xa4>
800028be:	101c                	addi	a5,sp,32
800028c0:	002b1d13          	slli	s10,s6,0x2
800028c4:	9d3e                	add	s10,s10,a5
800028c6:	002a1793          	slli	a5,s4,0x2
800028ca:	c83e                	sw	a5,16(sp)
800028cc:	89da                	mv	s3,s6
800028ce:	0fffe797          	auipc	a5,0xfffe
800028d2:	aa27aa07          	flw	fs4,-1374(a5) # 90000370 <_impure_ptr+0x198>
800028d6:	0fffe797          	auipc	a5,0xfffe
800028da:	a7a7aa87          	flw	fs5,-1414(a5) # 90000350 <_impure_ptr+0x178>
800028de:	0fffe797          	auipc	a5,0xfffe
800028e2:	a967a907          	flw	fs2,-1386(a5) # 90000374 <_impure_ptr+0x19c>
800028e6:	0fffe797          	auipc	a5,0xfffe
800028ea:	a927a987          	flw	fs3,-1390(a5) # 90000378 <_impure_ptr+0x1a0>
800028ee:	0fffe797          	auipc	a5,0xfffe
800028f2:	9527a487          	flw	fs1,-1710(a5) # 90000240 <_impure_ptr+0x68>
800028f6:	0fffe797          	auipc	a5,0xfffe
800028fa:	96e7ab07          	flw	fs6,-1682(a5) # 90000264 <_impure_ptr+0x8c>
800028fe:	00299413          	slli	s0,s3,0x2
80002902:	129c                	addi	a5,sp,352
80002904:	97a2                	add	a5,a5,s0
80002906:	02010813          	addi	a6,sp,32
8000290a:	fb07a507          	flw	fa0,-80(a5)
8000290e:	8742                	mv	a4,a6
80002910:	87ce                	mv	a5,s3
80002912:	10f04763          	bgtz	a5,80002a20 <__kernel_rem_pio2f+0x25e>
80002916:	854a                	mv	a0,s2
80002918:	ce36                	sw	a3,28(sp)
8000291a:	cc32                	sw	a2,24(sp)
8000291c:	ca42                	sw	a6,20(sp)
8000291e:	2bd1                	jal	80002ef2 <scalbnf>
80002920:	20a50453          	fmv.s	fs0,fa0
80002924:	11257553          	fmul.s	fa0,fa0,fs2
80002928:	232d                	jal	80002e52 <floorf>
8000292a:	4135744b          	fnmsub.s	fs0,fa0,fs3,fs0
8000292e:	4852                	lw	a6,20(sp)
80002930:	4662                	lw	a2,24(sp)
80002932:	46f2                	lw	a3,28(sp)
80002934:	c0041a53          	fcvt.w.s	s4,fs0,rtz
80002938:	d00a7553          	fcvt.s.w	fa0,s4
8000293c:	08a47453          	fsub.s	fs0,fs0,fa0
80002940:	11205563          	blez	s2,80002a4a <__kernel_rem_pio2f+0x288>
80002944:	fff98793          	addi	a5,s3,-1
80002948:	078a                	slli	a5,a5,0x2
8000294a:	1298                	addi	a4,sp,352
8000294c:	97ba                	add	a5,a5,a4
8000294e:	ec07a483          	lw	s1,-320(a5)
80002952:	4521                	li	a0,8
80002954:	412508b3          	sub	a7,a0,s2
80002958:	4114d533          	sra	a0,s1,a7
8000295c:	9a2a                	add	s4,s4,a0
8000295e:	01151533          	sll	a0,a0,a7
80002962:	8c89                	sub	s1,s1,a0
80002964:	ec97a023          	sw	s1,-320(a5)
80002968:	479d                	li	a5,7
8000296a:	412787b3          	sub	a5,a5,s2
8000296e:	40f4d4b3          	sra	s1,s1,a5
80002972:	04905363          	blez	s1,800029b8 <__kernel_rem_pio2f+0x1f6>
80002976:	0a05                	addi	s4,s4,1
80002978:	4881                	li	a7,0
8000297a:	4501                	li	a0,0
8000297c:	0ff00313          	li	t1,255
80002980:	10000e13          	li	t3,256
80002984:	0f38c463          	blt	a7,s3,80002a6c <__kernel_rem_pio2f+0x2aa>
80002988:	01205863          	blez	s2,80002998 <__kernel_rem_pio2f+0x1d6>
8000298c:	4785                	li	a5,1
8000298e:	10f90263          	beq	s2,a5,80002a92 <__kernel_rem_pio2f+0x2d0>
80002992:	4789                	li	a5,2
80002994:	10f90b63          	beq	s2,a5,80002aaa <__kernel_rem_pio2f+0x2e8>
80002998:	4789                	li	a5,2
8000299a:	00f49f63          	bne	s1,a5,800029b8 <__kernel_rem_pio2f+0x1f6>
8000299e:	0884f453          	fsub.s	fs0,fs1,fs0
800029a2:	c919                	beqz	a0,800029b8 <__kernel_rem_pio2f+0x1f6>
800029a4:	20948553          	fmv.s	fa0,fs1
800029a8:	854a                	mv	a0,s2
800029aa:	cc36                	sw	a3,24(sp)
800029ac:	ca32                	sw	a2,20(sp)
800029ae:	2391                	jal	80002ef2 <scalbnf>
800029b0:	08a47453          	fsub.s	fs0,fs0,fa0
800029b4:	46e2                	lw	a3,24(sp)
800029b6:	4652                	lw	a2,20(sp)
800029b8:	f00007d3          	fmv.w.x	fa5,zero
800029bc:	a0f427d3          	feq.s	a5,fs0,fa5
800029c0:	18078063          	beqz	a5,80002b40 <__kernel_rem_pio2f+0x37e>
800029c4:	fff98413          	addi	s0,s3,-1
800029c8:	87a2                	mv	a5,s0
800029ca:	4501                	li	a0,0
800029cc:	0f67d963          	bge	a5,s6,80002abe <__kernel_rem_pio2f+0x2fc>
800029d0:	14050663          	beqz	a0,80002b1c <__kernel_rem_pio2f+0x35a>
800029d4:	00241793          	slli	a5,s0,0x2
800029d8:	1018                	addi	a4,sp,32
800029da:	97ba                	add	a5,a5,a4
800029dc:	439c                	lw	a5,0(a5)
800029de:	1961                	addi	s2,s2,-8
800029e0:	14078e63          	beqz	a5,80002b3c <__kernel_rem_pio2f+0x37a>
800029e4:	0fffe797          	auipc	a5,0xfffe
800029e8:	85c7a507          	flw	fa0,-1956(a5) # 90000240 <_impure_ptr+0x68>
800029ec:	854a                	mv	a0,s2
800029ee:	2311                	jal	80002ef2 <scalbnf>
800029f0:	87a2                	mv	a5,s0
800029f2:	0fffe717          	auipc	a4,0xfffe
800029f6:	97e72707          	flw	fa4,-1666(a4) # 90000370 <_impure_ptr+0x198>
800029fa:	1a07d563          	bgez	a5,80002ba4 <__kernel_rem_pio2f+0x3e2>
800029fe:	86a2                	mv	a3,s0
80002a00:	1e06c563          	bltz	a3,80002bea <__kernel_rem_pio2f+0x428>
80002a04:	0a1c                	addi	a5,sp,272
80002a06:	00269613          	slli	a2,a3,0x2
80002a0a:	963e                	add	a2,a2,a5
80002a0c:	f00007d3          	fmv.w.x	fa5,zero
80002a10:	00007517          	auipc	a0,0x7
80002a14:	bbc50513          	addi	a0,a0,-1092 # 800095cc <PIo2>
80002a18:	4581                	li	a1,0
80002a1a:	40d407b3          	sub	a5,s0,a3
80002a1e:	aa5d                	j	80002bd4 <__kernel_rem_pio2f+0x412>
80002a20:	114577d3          	fmul.s	fa5,fa0,fs4
80002a24:	17fd                	addi	a5,a5,-1
80002a26:	0a0c                	addi	a1,sp,272
80002a28:	c0079553          	fcvt.w.s	a0,fa5,rtz
80002a2c:	d00577d3          	fcvt.s.w	fa5,a0
80002a30:	5157f54b          	fnmsub.s	fa0,fa5,fs5,fa0
80002a34:	c0051553          	fcvt.w.s	a0,fa0,rtz
80002a38:	c308                	sw	a0,0(a4)
80002a3a:	00279513          	slli	a0,a5,0x2
80002a3e:	952e                	add	a0,a0,a1
80002a40:	6108                	flw	fa0,0(a0)
80002a42:	0711                	addi	a4,a4,4
80002a44:	00a7f553          	fadd.s	fa0,fa5,fa0
80002a48:	b5e9                	j	80002912 <__kernel_rem_pio2f+0x150>
80002a4a:	00091b63          	bnez	s2,80002a60 <__kernel_rem_pio2f+0x29e>
80002a4e:	fff98793          	addi	a5,s3,-1
80002a52:	078a                	slli	a5,a5,0x2
80002a54:	1298                	addi	a4,sp,352
80002a56:	97ba                	add	a5,a5,a4
80002a58:	ec07a483          	lw	s1,-320(a5)
80002a5c:	849d                	srai	s1,s1,0x7
80002a5e:	bf11                	j	80002972 <__kernel_rem_pio2f+0x1b0>
80002a60:	a08b07d3          	fle.s	a5,fs6,fs0
80002a64:	4481                	li	s1,0
80002a66:	dba9                	beqz	a5,800029b8 <__kernel_rem_pio2f+0x1f6>
80002a68:	4489                	li	s1,2
80002a6a:	b731                	j	80002976 <__kernel_rem_pio2f+0x1b4>
80002a6c:	00082783          	lw	a5,0(a6)
80002a70:	e919                	bnez	a0,80002a86 <__kernel_rem_pio2f+0x2c4>
80002a72:	c791                	beqz	a5,80002a7e <__kernel_rem_pio2f+0x2bc>
80002a74:	40fe07b3          	sub	a5,t3,a5
80002a78:	00f82023          	sw	a5,0(a6)
80002a7c:	4785                	li	a5,1
80002a7e:	0885                	addi	a7,a7,1
80002a80:	0811                	addi	a6,a6,4
80002a82:	853e                	mv	a0,a5
80002a84:	b701                	j	80002984 <__kernel_rem_pio2f+0x1c2>
80002a86:	40f307b3          	sub	a5,t1,a5
80002a8a:	00f82023          	sw	a5,0(a6)
80002a8e:	87aa                	mv	a5,a0
80002a90:	b7fd                	j	80002a7e <__kernel_rem_pio2f+0x2bc>
80002a92:	fff98793          	addi	a5,s3,-1
80002a96:	078a                	slli	a5,a5,0x2
80002a98:	1298                	addi	a4,sp,352
80002a9a:	97ba                	add	a5,a5,a4
80002a9c:	ec07a803          	lw	a6,-320(a5)
80002aa0:	07f87813          	andi	a6,a6,127
80002aa4:	ed07a023          	sw	a6,-320(a5)
80002aa8:	bdc5                	j	80002998 <__kernel_rem_pio2f+0x1d6>
80002aaa:	fff98793          	addi	a5,s3,-1
80002aae:	078a                	slli	a5,a5,0x2
80002ab0:	1298                	addi	a4,sp,352
80002ab2:	97ba                	add	a5,a5,a4
80002ab4:	ec07a803          	lw	a6,-320(a5)
80002ab8:	03f87813          	andi	a6,a6,63
80002abc:	b7e5                	j	80002aa4 <__kernel_rem_pio2f+0x2e2>
80002abe:	00279813          	slli	a6,a5,0x2
80002ac2:	1018                	addi	a4,sp,32
80002ac4:	983a                	add	a6,a6,a4
80002ac6:	00082803          	lw	a6,0(a6)
80002aca:	17fd                	addi	a5,a5,-1
80002acc:	01056533          	or	a0,a0,a6
80002ad0:	bdf5                	j	800029cc <__kernel_rem_pio2f+0x20a>
80002ad2:	0505                	addi	a0,a0,1
80002ad4:	17f1                	addi	a5,a5,-4
80002ad6:	4398                	lw	a4,0(a5)
80002ad8:	df6d                	beqz	a4,80002ad2 <__kernel_rem_pio2f+0x310>
80002ada:	00d987b3          	add	a5,s3,a3
80002ade:	078a                	slli	a5,a5,0x2
80002ae0:	188c                	addi	a1,sp,112
80002ae2:	00198713          	addi	a4,s3,1
80002ae6:	97ae                	add	a5,a5,a1
80002ae8:	99aa                	add	s3,s3,a0
80002aea:	e0e9cae3          	blt	s3,a4,800028fe <__kernel_rem_pio2f+0x13c>
80002aee:	45c2                	lw	a1,16(sp)
80002af0:	00271513          	slli	a0,a4,0x2
80002af4:	88be                	mv	a7,a5
80002af6:	00a58833          	add	a6,a1,a0
80002afa:	9866                	add	a6,a6,s9
80002afc:	00082803          	lw	a6,0(a6)
80002b00:	d00877d3          	fcvt.s.w	fa5,a6
80002b04:	4801                	li	a6,0
80002b06:	e39c                	fsw	fa5,0(a5)
80002b08:	f00007d3          	fmv.w.x	fa5,zero
80002b0c:	010c5b63          	bge	s8,a6,80002b22 <__kernel_rem_pio2f+0x360>
80002b10:	0a0c                	addi	a1,sp,272
80002b12:	952e                	add	a0,a0,a1
80002b14:	e11c                	fsw	fa5,0(a0)
80002b16:	0705                	addi	a4,a4,1
80002b18:	0791                	addi	a5,a5,4
80002b1a:	bfc1                	j	80002aea <__kernel_rem_pio2f+0x328>
80002b1c:	87ea                	mv	a5,s10
80002b1e:	4505                	li	a0,1
80002b20:	bf55                	j	80002ad4 <__kernel_rem_pio2f+0x312>
80002b22:	45b2                	lw	a1,12(sp)
80002b24:	00281313          	slli	t1,a6,0x2
80002b28:	0008a707          	flw	fa4,0(a7)
80002b2c:	932e                	add	t1,t1,a1
80002b2e:	00032687          	flw	fa3,0(t1)
80002b32:	0805                	addi	a6,a6,1
80002b34:	18f1                	addi	a7,a7,-4
80002b36:	78e6f7c3          	fmadd.s	fa5,fa3,fa4,fa5
80002b3a:	bfc9                	j	80002b0c <__kernel_rem_pio2f+0x34a>
80002b3c:	147d                	addi	s0,s0,-1
80002b3e:	bd59                	j	800029d4 <__kernel_rem_pio2f+0x212>
80002b40:	20840553          	fmv.s	fa0,fs0
80002b44:	40cb8533          	sub	a0,s7,a2
80002b48:	266d                	jal	80002ef2 <scalbnf>
80002b4a:	0fffe797          	auipc	a5,0xfffe
80002b4e:	8067a787          	flw	fa5,-2042(a5) # 90000350 <_impure_ptr+0x178>
80002b52:	a0a787d3          	fle.s	a5,fa5,fa0
80002b56:	cf9d                	beqz	a5,80002b94 <__kernel_rem_pio2f+0x3d2>
80002b58:	0fffe797          	auipc	a5,0xfffe
80002b5c:	8187a707          	flw	fa4,-2024(a5) # 90000370 <_impure_ptr+0x198>
80002b60:	10e57753          	fmul.s	fa4,fa0,fa4
80002b64:	1298                	addi	a4,sp,352
80002b66:	0921                	addi	s2,s2,8
80002b68:	c00717d3          	fcvt.w.s	a5,fa4,rtz
80002b6c:	d007f753          	fcvt.s.w	fa4,a5
80002b70:	129c                	addi	a5,sp,352
80002b72:	943e                	add	s0,s0,a5
80002b74:	50f7754b          	fnmsub.s	fa0,fa4,fa5,fa0
80002b78:	c00716d3          	fcvt.w.s	a3,fa4,rtz
80002b7c:	c00517d3          	fcvt.w.s	a5,fa0,rtz
80002b80:	ecf42023          	sw	a5,-320(s0)
80002b84:	00198413          	addi	s0,s3,1
80002b88:	00241793          	slli	a5,s0,0x2
80002b8c:	97ba                	add	a5,a5,a4
80002b8e:	ecd7a023          	sw	a3,-320(a5)
80002b92:	bd89                	j	800029e4 <__kernel_rem_pio2f+0x222>
80002b94:	129c                	addi	a5,sp,352
80002b96:	943e                	add	s0,s0,a5
80002b98:	c00517d3          	fcvt.w.s	a5,fa0,rtz
80002b9c:	ecf42023          	sw	a5,-320(s0)
80002ba0:	844e                	mv	s0,s3
80002ba2:	b589                	j	800029e4 <__kernel_rem_pio2f+0x222>
80002ba4:	00279693          	slli	a3,a5,0x2
80002ba8:	0a18                	addi	a4,sp,272
80002baa:	00d70633          	add	a2,a4,a3
80002bae:	1018                	addi	a4,sp,32
80002bb0:	96ba                	add	a3,a3,a4
80002bb2:	4294                	lw	a3,0(a3)
80002bb4:	17fd                	addi	a5,a5,-1
80002bb6:	d006f7d3          	fcvt.s.w	fa5,a3
80002bba:	10a7f7d3          	fmul.s	fa5,fa5,fa0
80002bbe:	10e57553          	fmul.s	fa0,fa0,fa4
80002bc2:	e21c                	fsw	fa5,0(a2)
80002bc4:	bd1d                	j	800029fa <__kernel_rem_pio2f+0x238>
80002bc6:	6114                	flw	fa3,0(a0)
80002bc8:	6218                	flw	fa4,0(a2)
80002bca:	0585                	addi	a1,a1,1
80002bcc:	0511                	addi	a0,a0,4
80002bce:	78e6f7c3          	fmadd.s	fa5,fa3,fa4,fa5
80002bd2:	0611                	addi	a2,a2,4
80002bd4:	00bb4463          	blt	s6,a1,80002bdc <__kernel_rem_pio2f+0x41a>
80002bd8:	feb7d7e3          	bge	a5,a1,80002bc6 <__kernel_rem_pio2f+0x404>
80002bdc:	078a                	slli	a5,a5,0x2
80002bde:	1298                	addi	a4,sp,352
80002be0:	97ba                	add	a5,a5,a4
80002be2:	f6f7a027          	fsw	fa5,-160(a5)
80002be6:	16fd                	addi	a3,a3,-1
80002be8:	bd21                	j	80002a00 <__kernel_rem_pio2f+0x23e>
80002bea:	4789                	li	a5,2
80002bec:	0757c463          	blt	a5,s5,80002c54 <__kernel_rem_pio2f+0x492>
80002bf0:	11504163          	bgtz	s5,80002cf2 <__kernel_rem_pio2f+0x530>
80002bf4:	f00007d3          	fmv.w.x	fa5,zero
80002bf8:	0a0a8663          	beqz	s5,80002ca4 <__kernel_rem_pio2f+0x4e2>
80002bfc:	1bc12083          	lw	ra,444(sp)
80002c00:	1b812403          	lw	s0,440(sp)
80002c04:	1b412483          	lw	s1,436(sp)
80002c08:	1b012903          	lw	s2,432(sp)
80002c0c:	1ac12983          	lw	s3,428(sp)
80002c10:	1a412a83          	lw	s5,420(sp)
80002c14:	1a012b03          	lw	s6,416(sp)
80002c18:	19c12b83          	lw	s7,412(sp)
80002c1c:	19812c03          	lw	s8,408(sp)
80002c20:	19412c83          	lw	s9,404(sp)
80002c24:	19012d03          	lw	s10,400(sp)
80002c28:	18c12d83          	lw	s11,396(sp)
80002c2c:	17c12407          	flw	fs0,380(sp)
80002c30:	17812487          	flw	fs1,376(sp)
80002c34:	17412907          	flw	fs2,372(sp)
80002c38:	17012987          	flw	fs3,368(sp)
80002c3c:	16c12a07          	flw	fs4,364(sp)
80002c40:	16812a87          	flw	fs5,360(sp)
80002c44:	16412b07          	flw	fs6,356(sp)
80002c48:	007a7513          	andi	a0,s4,7
80002c4c:	1a812a03          	lw	s4,424(sp)
80002c50:	6139                	addi	sp,sp,448
80002c52:	8082                	ret
80002c54:	478d                	li	a5,3
80002c56:	fafa93e3          	bne	s5,a5,80002bfc <__kernel_rem_pio2f+0x43a>
80002c5a:	00241793          	slli	a5,s0,0x2
80002c5e:	0198                	addi	a4,sp,192
80002c60:	97ba                	add	a5,a5,a4
80002c62:	86be                	mv	a3,a5
80002c64:	8622                	mv	a2,s0
80002c66:	16f1                	addi	a3,a3,-4
80002c68:	08c04e63          	bgtz	a2,80002d04 <__kernel_rem_pio2f+0x542>
80002c6c:	86a2                	mv	a3,s0
80002c6e:	4605                	li	a2,1
80002c70:	17f1                	addi	a5,a5,-4
80002c72:	0ad64563          	blt	a2,a3,80002d1c <__kernel_rem_pio2f+0x55a>
80002c76:	f00007d3          	fmv.w.x	fa5,zero
80002c7a:	4685                	li	a3,1
80002c7c:	0a86cc63          	blt	a3,s0,80002d34 <__kernel_rem_pio2f+0x572>
80002c80:	668e                	flw	fa3,192(sp)
80002c82:	671e                	flw	fa4,196(sp)
80002c84:	e0e9                	bnez	s1,80002d46 <__kernel_rem_pio2f+0x584>
80002c86:	00dda027          	fsw	fa3,0(s11)
80002c8a:	00eda227          	fsw	fa4,4(s11)
80002c8e:	00fda427          	fsw	fa5,8(s11)
80002c92:	b7ad                	j	80002bfc <__kernel_rem_pio2f+0x43a>
80002c94:	00241793          	slli	a5,s0,0x2
80002c98:	0198                	addi	a4,sp,192
80002c9a:	97ba                	add	a5,a5,a4
80002c9c:	6398                	flw	fa4,0(a5)
80002c9e:	147d                	addi	s0,s0,-1
80002ca0:	00e7f7d3          	fadd.s	fa5,fa5,fa4
80002ca4:	fe0458e3          	bgez	s0,80002c94 <__kernel_rem_pio2f+0x4d2>
80002ca8:	c099                	beqz	s1,80002cae <__kernel_rem_pio2f+0x4ec>
80002caa:	20f797d3          	fneg.s	fa5,fa5
80002cae:	00fda027          	fsw	fa5,0(s11)
80002cb2:	b7a9                	j	80002bfc <__kernel_rem_pio2f+0x43a>
80002cb4:	00279693          	slli	a3,a5,0x2
80002cb8:	0198                	addi	a4,sp,192
80002cba:	96ba                	add	a3,a3,a4
80002cbc:	629c                	flw	fa5,0(a3)
80002cbe:	17fd                	addi	a5,a5,-1
80002cc0:	00f77753          	fadd.s	fa4,fa4,fa5
80002cc4:	fe07d8e3          	bgez	a5,80002cb4 <__kernel_rem_pio2f+0x4f2>
80002cc8:	20e707d3          	fmv.s	fa5,fa4
80002ccc:	c099                	beqz	s1,80002cd2 <__kernel_rem_pio2f+0x510>
80002cce:	20e717d3          	fneg.s	fa5,fa4
80002cd2:	00fda027          	fsw	fa5,0(s11)
80002cd6:	678e                	flw	fa5,192(sp)
80002cd8:	019c                	addi	a5,sp,192
80002cda:	4685                	li	a3,1
80002cdc:	08e7f7d3          	fsub.s	fa5,fa5,fa4
80002ce0:	0791                	addi	a5,a5,4
80002ce2:	00d45c63          	bge	s0,a3,80002cfa <__kernel_rem_pio2f+0x538>
80002ce6:	c099                	beqz	s1,80002cec <__kernel_rem_pio2f+0x52a>
80002ce8:	20f797d3          	fneg.s	fa5,fa5
80002cec:	00fda227          	fsw	fa5,4(s11)
80002cf0:	b731                	j	80002bfc <__kernel_rem_pio2f+0x43a>
80002cf2:	f0000753          	fmv.w.x	fa4,zero
80002cf6:	87a2                	mv	a5,s0
80002cf8:	b7f1                	j	80002cc4 <__kernel_rem_pio2f+0x502>
80002cfa:	6398                	flw	fa4,0(a5)
80002cfc:	0685                	addi	a3,a3,1
80002cfe:	00e7f7d3          	fadd.s	fa5,fa5,fa4
80002d02:	bff9                	j	80002ce0 <__kernel_rem_pio2f+0x51e>
80002d04:	629c                	flw	fa5,0(a3)
80002d06:	62d4                	flw	fa3,4(a3)
80002d08:	167d                	addi	a2,a2,-1
80002d0a:	00d7f753          	fadd.s	fa4,fa5,fa3
80002d0e:	08e7f7d3          	fsub.s	fa5,fa5,fa4
80002d12:	e298                	fsw	fa4,0(a3)
80002d14:	00d7f7d3          	fadd.s	fa5,fa5,fa3
80002d18:	e2dc                	fsw	fa5,4(a3)
80002d1a:	b7b1                	j	80002c66 <__kernel_rem_pio2f+0x4a4>
80002d1c:	639c                	flw	fa5,0(a5)
80002d1e:	63d4                	flw	fa3,4(a5)
80002d20:	16fd                	addi	a3,a3,-1
80002d22:	00d7f753          	fadd.s	fa4,fa5,fa3
80002d26:	08e7f7d3          	fsub.s	fa5,fa5,fa4
80002d2a:	e398                	fsw	fa4,0(a5)
80002d2c:	00d7f7d3          	fadd.s	fa5,fa5,fa3
80002d30:	e3dc                	fsw	fa5,4(a5)
80002d32:	bf3d                	j	80002c70 <__kernel_rem_pio2f+0x4ae>
80002d34:	00241793          	slli	a5,s0,0x2
80002d38:	0198                	addi	a4,sp,192
80002d3a:	97ba                	add	a5,a5,a4
80002d3c:	6398                	flw	fa4,0(a5)
80002d3e:	147d                	addi	s0,s0,-1
80002d40:	00e7f7d3          	fadd.s	fa5,fa5,fa4
80002d44:	bf25                	j	80002c7c <__kernel_rem_pio2f+0x4ba>
80002d46:	20d696d3          	fneg.s	fa3,fa3
80002d4a:	20e71753          	fneg.s	fa4,fa4
80002d4e:	20f797d3          	fneg.s	fa5,fa5
80002d52:	00dda027          	fsw	fa3,0(s11)
80002d56:	00eda227          	fsw	fa4,4(s11)
80002d5a:	bf15                	j	80002c8e <__kernel_rem_pio2f+0x4cc>

80002d5c <__kernel_sinf>:
__kernel_sinf():
80002d5c:	e00507d3          	fmv.x.w	a5,fa0
80002d60:	320006b7          	lui	a3,0x32000
80002d64:	00179713          	slli	a4,a5,0x1
80002d68:	8305                	srli	a4,a4,0x1
80002d6a:	00d75563          	bge	a4,a3,80002d74 <__kernel_sinf+0x18>
80002d6e:	c0051753          	fcvt.w.s	a4,fa0,rtz
80002d72:	c325                	beqz	a4,80002dd2 <__kernel_sinf+0x76>
80002d74:	f00787d3          	fmv.w.x	fa5,a5
80002d78:	0fffd717          	auipc	a4,0xfffd
80002d7c:	60872607          	flw	fa2,1544(a4) # 90000380 <_impure_ptr+0x1a8>
80002d80:	10f7f753          	fmul.s	fa4,fa5,fa5
80002d84:	10e7f6d3          	fmul.s	fa3,fa5,fa4
80002d88:	0fffd717          	auipc	a4,0xfffd
80002d8c:	5f472787          	flw	fa5,1524(a4) # 9000037c <_impure_ptr+0x1a4>
80002d90:	60f777c3          	fmadd.s	fa5,fa4,fa5,fa2
80002d94:	0fffd717          	auipc	a4,0xfffd
80002d98:	5f072607          	flw	fa2,1520(a4) # 90000384 <_impure_ptr+0x1ac>
80002d9c:	60e7f7c3          	fmadd.s	fa5,fa5,fa4,fa2
80002da0:	0fffd717          	auipc	a4,0xfffd
80002da4:	5e872607          	flw	fa2,1512(a4) # 90000388 <_impure_ptr+0x1b0>
80002da8:	60e7f7c3          	fmadd.s	fa5,fa5,fa4,fa2
80002dac:	0fffd717          	auipc	a4,0xfffd
80002db0:	5e072607          	flw	fa2,1504(a4) # 9000038c <_impure_ptr+0x1b4>
80002db4:	60e7f7c3          	fmadd.s	fa5,fa5,fa4,fa2
80002db8:	e105                	bnez	a0,80002dd8 <__kernel_sinf+0x7c>
80002dba:	0fffd717          	auipc	a4,0xfffd
80002dbe:	5d672607          	flw	fa2,1494(a4) # 90000390 <_impure_ptr+0x1b8>
80002dc2:	60f777c3          	fmadd.s	fa5,fa4,fa5,fa2
80002dc6:	f0078753          	fmv.w.x	fa4,a5
80002dca:	70d7f7c3          	fmadd.s	fa5,fa5,fa3,fa4
80002dce:	e00787d3          	fmv.x.w	a5,fa5
80002dd2:	f0078553          	fmv.w.x	fa0,a5
80002dd6:	8082                	ret
80002dd8:	10f6f7d3          	fmul.s	fa5,fa3,fa5
80002ddc:	0fffd717          	auipc	a4,0xfffd
80002de0:	48872607          	flw	fa2,1160(a4) # 90000264 <_impure_ptr+0x8c>
80002de4:	78c5f7c7          	fmsub.s	fa5,fa1,fa2,fa5
80002de8:	58e7f747          	fmsub.s	fa4,fa5,fa4,fa1
80002dec:	0fffd717          	auipc	a4,0xfffd
80002df0:	51c72787          	flw	fa5,1308(a4) # 90000308 <_impure_ptr+0x130>
80002df4:	70f6f6c3          	fmadd.s	fa3,fa3,fa5,fa4
80002df8:	f00787d3          	fmv.w.x	fa5,a5
80002dfc:	08d7f7d3          	fsub.s	fa5,fa5,fa3
80002e00:	b7f9                	j	80002dce <__kernel_sinf+0x72>

80002e02 <with_errnof>:
with_errnof():
80002e02:	1101                	addi	sp,sp,-32
80002e04:	cc22                	sw	s0,24(sp)
80002e06:	ce06                	sw	ra,28(sp)
80002e08:	e62a                	fsw	fa0,12(sp)
80002e0a:	842a                	mv	s0,a0
80002e0c:	722010ef          	jal	ra,8000452e <__errno>
80002e10:	40f2                	lw	ra,28(sp)
80002e12:	c100                	sw	s0,0(a0)
80002e14:	4462                	lw	s0,24(sp)
80002e16:	6532                	flw	fa0,12(sp)
80002e18:	6105                	addi	sp,sp,32
80002e1a:	8082                	ret

80002e1c <xflowf>:
xflowf():
80002e1c:	20a517d3          	fneg.s	fa5,fa0
80002e20:	e119                	bnez	a0,80002e26 <xflowf+0xa>
80002e22:	20a507d3          	fmv.s	fa5,fa0
80002e26:	10a7f553          	fmul.s	fa0,fa5,fa0
80002e2a:	02200513          	li	a0,34
80002e2e:	bfd1                	j	80002e02 <with_errnof>

80002e30 <__math_uflowf>:
__math_uflowf():
80002e30:	0fffd797          	auipc	a5,0xfffd
80002e34:	5647a507          	flw	fa0,1380(a5) # 90000394 <_impure_ptr+0x1bc>
80002e38:	b7d5                	j	80002e1c <xflowf>

80002e3a <__math_oflowf>:
__math_oflowf():
80002e3a:	0fffd797          	auipc	a5,0xfffd
80002e3e:	55e7a507          	flw	fa0,1374(a5) # 90000398 <_impure_ptr+0x1c0>
80002e42:	bfe9                	j	80002e1c <xflowf>

80002e44 <finitef>:
finitef():
80002e44:	e0051553          	fclass.s	a0,fa0
80002e48:	38157513          	andi	a0,a0,897
80002e4c:	00153513          	seqz	a0,a0
80002e50:	8082                	ret

80002e52 <floorf>:
floorf():
80002e52:	e00507d3          	fmv.x.w	a5,fa0
80002e56:	4759                	li	a4,22
80002e58:	00179693          	slli	a3,a5,0x1
80002e5c:	0016d613          	srli	a2,a3,0x1
80002e60:	82e1                	srli	a3,a3,0x18
80002e62:	f8168693          	addi	a3,a3,-127 # 31ffff81 <__stack_size+0x31fff781>
80002e66:	06d74463          	blt	a4,a3,80002ece <floorf+0x7c>
80002e6a:	873e                	mv	a4,a5
80002e6c:	0206d463          	bgez	a3,80002e94 <floorf+0x42>
80002e70:	0fffd697          	auipc	a3,0xfffd
80002e74:	4386a787          	flw	fa5,1080(a3) # 900002a8 <_impure_ptr+0xd0>
80002e78:	00f577d3          	fadd.s	fa5,fa0,fa5
80002e7c:	f0000753          	fmv.w.x	fa4,zero
80002e80:	a0f717d3          	flt.s	a5,fa4,fa5
80002e84:	c791                	beqz	a5,80002e90 <floorf+0x3e>
80002e86:	04075f63          	bgez	a4,80002ee4 <floorf+0x92>
80002e8a:	c219                	beqz	a2,80002e90 <floorf+0x3e>
80002e8c:	bf800737          	lui	a4,0xbf800
80002e90:	87ba                	mv	a5,a4
80002e92:	a0b1                	j	80002ede <floorf+0x8c>
80002e94:	008005b7          	lui	a1,0x800
80002e98:	fff58613          	addi	a2,a1,-1 # 7fffff <__stack_size+0x7ff7ff>
80002e9c:	40d65633          	sra	a2,a2,a3
80002ea0:	00f67533          	and	a0,a2,a5
80002ea4:	cd0d                	beqz	a0,80002ede <floorf+0x8c>
80002ea6:	0fffd517          	auipc	a0,0xfffd
80002eaa:	40252787          	flw	fa5,1026(a0) # 900002a8 <_impure_ptr+0xd0>
80002eae:	00f577d3          	fadd.s	fa5,fa0,fa5
80002eb2:	f0000753          	fmv.w.x	fa4,zero
80002eb6:	a0f717d3          	flt.s	a5,fa4,fa5
80002eba:	dbf9                	beqz	a5,80002e90 <floorf+0x3e>
80002ebc:	00075563          	bgez	a4,80002ec6 <floorf+0x74>
80002ec0:	40d5d6b3          	sra	a3,a1,a3
80002ec4:	9736                	add	a4,a4,a3
80002ec6:	fff64613          	not	a2,a2
80002eca:	8f71                	and	a4,a4,a2
80002ecc:	b7d1                	j	80002e90 <floorf+0x3e>
80002ece:	7f800737          	lui	a4,0x7f800
80002ed2:	00e66663          	bltu	a2,a4,80002ede <floorf+0x8c>
80002ed6:	00a577d3          	fadd.s	fa5,fa0,fa0
80002eda:	e00787d3          	fmv.x.w	a5,fa5
80002ede:	f0078553          	fmv.w.x	fa0,a5
80002ee2:	8082                	ret
80002ee4:	4701                	li	a4,0
80002ee6:	b76d                	j	80002e90 <floorf+0x3e>

80002ee8 <nanf>:
nanf():
80002ee8:	0fffd797          	auipc	a5,0xfffd
80002eec:	4b47a507          	flw	fa0,1204(a5) # 9000039c <_impure_ptr+0x1c4>
80002ef0:	8082                	ret

80002ef2 <scalbnf>:
scalbnf():
80002ef2:	e00507d3          	fmv.x.w	a5,fa0
80002ef6:	00179613          	slli	a2,a5,0x1
80002efa:	00165713          	srli	a4,a2,0x1
80002efe:	c659                	beqz	a2,80002f8c <scalbnf+0x9a>
80002f00:	7f800637          	lui	a2,0x7f800
80002f04:	00c76763          	bltu	a4,a2,80002f12 <scalbnf+0x20>
80002f08:	00a577d3          	fadd.s	fa5,fa0,fa0
80002f0c:	e00787d3          	fmv.x.w	a5,fa5
80002f10:	a8b5                	j	80002f8c <scalbnf+0x9a>
80002f12:	00c7f6b3          	and	a3,a5,a2
80002f16:	eab9                	bnez	a3,80002f6c <scalbnf+0x7a>
80002f18:	0fffd717          	auipc	a4,0xfffd
80002f1c:	3fc72787          	flw	fa5,1020(a4) # 90000314 <_impure_ptr+0x13c>
80002f20:	10f577d3          	fmul.s	fa5,fa0,fa5
80002f24:	7751                	lui	a4,0xffff4
80002f26:	cb070713          	addi	a4,a4,-848 # ffff3cb0 <_sp+0x6ffe3cb0>
80002f2a:	e00787d3          	fmv.x.w	a5,fa5
80002f2e:	02e54863          	blt	a0,a4,80002f5e <scalbnf+0x6c>
80002f32:	4177d713          	srai	a4,a5,0x17
80002f36:	0ff77713          	zext.b	a4,a4
80002f3a:	86be                	mv	a3,a5
80002f3c:	171d                	addi	a4,a4,-25
80002f3e:	6631                	lui	a2,0xc
80002f40:	35060613          	addi	a2,a2,848 # c350 <__stack_size+0xbb50>
80002f44:	02a65763          	bge	a2,a0,80002f72 <scalbnf+0x80>
80002f48:	0fffd717          	auipc	a4,0xfffd
80002f4c:	36072707          	flw	fa4,864(a4) # 900002a8 <_impure_ptr+0xd0>
80002f50:	f00787d3          	fmv.w.x	fa5,a5
80002f54:	20f707d3          	fsgnj.s	fa5,fa4,fa5
80002f58:	10f777d3          	fmul.s	fa5,fa4,fa5
80002f5c:	bf45                	j	80002f0c <scalbnf+0x1a>
80002f5e:	0fffd717          	auipc	a4,0xfffd
80002f62:	44272787          	flw	fa5,1090(a4) # 900003a0 <_impure_ptr+0x1c8>
80002f66:	f0078753          	fmv.w.x	fa4,a5
80002f6a:	b7fd                	j	80002f58 <scalbnf+0x66>
80002f6c:	86be                	mv	a3,a5
80002f6e:	835d                	srli	a4,a4,0x17
80002f70:	b7f9                	j	80002f3e <scalbnf+0x4c>
80002f72:	953a                	add	a0,a0,a4
80002f74:	0fe00713          	li	a4,254
80002f78:	fca748e3          	blt	a4,a0,80002f48 <scalbnf+0x56>
80002f7c:	00a05b63          	blez	a0,80002f92 <scalbnf+0xa0>
80002f80:	808007b7          	lui	a5,0x80800
80002f84:	17fd                	addi	a5,a5,-1
80002f86:	8ff5                	and	a5,a5,a3
80002f88:	055e                	slli	a0,a0,0x17
80002f8a:	8fc9                	or	a5,a5,a0
80002f8c:	f0078553          	fmv.w.x	fa0,a5
80002f90:	8082                	ret
80002f92:	5729                	li	a4,-22
80002f94:	00e55763          	bge	a0,a4,80002fa2 <scalbnf+0xb0>
80002f98:	0fffd717          	auipc	a4,0xfffd
80002f9c:	40872707          	flw	fa4,1032(a4) # 900003a0 <_impure_ptr+0x1c8>
80002fa0:	bf45                	j	80002f50 <scalbnf+0x5e>
80002fa2:	01950793          	addi	a5,a0,25
80002fa6:	80800537          	lui	a0,0x80800
80002faa:	157d                	addi	a0,a0,-1
80002fac:	07de                	slli	a5,a5,0x17
80002fae:	8ee9                	and	a3,a3,a0
80002fb0:	8fd5                	or	a5,a5,a3
80002fb2:	0fffd717          	auipc	a4,0xfffd
80002fb6:	3f272787          	flw	fa5,1010(a4) # 900003a4 <_impure_ptr+0x1cc>
80002fba:	b775                	j	80002f66 <scalbnf+0x74>

80002fbc <__floatundisf>:
__floatundisf():
/Local/xl_ci/toolchain/riscv-gnu-toolchain/riscv-gcc/libgcc/libgcc2.c:1733
80002fbc:	1141                	addi	sp,sp,-16
80002fbe:	c422                	sw	s0,8(sp)
80002fc0:	c606                	sw	ra,12(sp)
80002fc2:	c226                	sw	s1,4(sp)
80002fc4:	c04a                	sw	s2,0(sp)
/Local/xl_ci/toolchain/riscv-gnu-toolchain/riscv-gcc/libgcc/libgcc2.c:1764
80002fc6:	002007b7          	lui	a5,0x200
/Local/xl_ci/toolchain/riscv-gnu-toolchain/riscv-gcc/libgcc/libgcc2.c:1733
80002fca:	842a                	mv	s0,a0
80002fcc:	852e                	mv	a0,a1
/Local/xl_ci/toolchain/riscv-gnu-toolchain/riscv-gcc/libgcc/libgcc2.c:1764
80002fce:	00f5eb63          	bltu	a1,a5,80002fe4 <__floatundisf+0x28>
/Local/xl_ci/toolchain/riscv-gnu-toolchain/riscv-gcc/libgcc/libgcc2.c:1766
80002fd2:	7ff47793          	andi	a5,s0,2047
80002fd6:	c799                	beqz	a5,80002fe4 <__floatundisf+0x28>
/Local/xl_ci/toolchain/riscv-gnu-toolchain/riscv-gcc/libgcc/libgcc2.c:1769
80002fd8:	6785                	lui	a5,0x1
/Local/xl_ci/toolchain/riscv-gnu-toolchain/riscv-gcc/libgcc/libgcc2.c:1768
80002fda:	80047413          	andi	s0,s0,-2048
/Local/xl_ci/toolchain/riscv-gnu-toolchain/riscv-gcc/libgcc/libgcc2.c:1769
80002fde:	80078793          	addi	a5,a5,-2048 # 800 <__stack_size>
80002fe2:	8c5d                	or	s0,s0,a5
/Local/xl_ci/toolchain/riscv-gnu-toolchain/riscv-gcc/libgcc/libgcc2.c:1775
80002fe4:	1d6010ef          	jal	ra,800041ba <__floatunsidf>
/Local/xl_ci/toolchain/riscv-gnu-toolchain/riscv-gcc/libgcc/libgcc2.c:1776
80002fe8:	0fffd797          	auipc	a5,0xfffd
80002fec:	1f878793          	addi	a5,a5,504 # 900001e0 <_impure_ptr+0x8>
80002ff0:	4390                	lw	a2,0(a5)
80002ff2:	43d4                	lw	a3,4(a5)
80002ff4:	42f000ef          	jal	ra,80003c22 <__muldf3>
80002ff8:	892a                	mv	s2,a0
/Local/xl_ci/toolchain/riscv-gnu-toolchain/riscv-gcc/libgcc/libgcc2.c:1777
80002ffa:	8522                	mv	a0,s0
/Local/xl_ci/toolchain/riscv-gnu-toolchain/riscv-gcc/libgcc/libgcc2.c:1776
80002ffc:	84ae                	mv	s1,a1
/Local/xl_ci/toolchain/riscv-gnu-toolchain/riscv-gcc/libgcc/libgcc2.c:1777
80002ffe:	1bc010ef          	jal	ra,800041ba <__floatunsidf>
80003002:	864a                	mv	a2,s2
80003004:	86a6                	mv	a3,s1
80003006:	2e8d                	jal	80003378 <__adddf3>
/Local/xl_ci/toolchain/riscv-gnu-toolchain/riscv-gcc/libgcc/libgcc2.c:1778
80003008:	2be010ef          	jal	ra,800042c6 <__truncdfsf2>
/Local/xl_ci/toolchain/riscv-gnu-toolchain/riscv-gcc/libgcc/libgcc2.c:1820
8000300c:	40b2                	lw	ra,12(sp)
8000300e:	4422                	lw	s0,8(sp)
80003010:	4492                	lw	s1,4(sp)
80003012:	4902                	lw	s2,0(sp)
80003014:	0141                	addi	sp,sp,16
80003016:	8082                	ret

80003018 <__udivdi3>:
__udivdi3():
/Local/xl_ci/toolchain/riscv-gnu-toolchain/riscv-gcc/libgcc/libgcc2.c:1319
80003018:	88aa                	mv	a7,a0
8000301a:	87ae                	mv	a5,a1
__udivmoddi4():
/Local/xl_ci/toolchain/riscv-gnu-toolchain/riscv-gcc/libgcc/libgcc2.c:1024
8000301c:	8832                	mv	a6,a2
/Local/xl_ci/toolchain/riscv-gnu-toolchain/riscv-gcc/libgcc/libgcc2.c:1025
8000301e:	8536                	mv	a0,a3
/Local/xl_ci/toolchain/riscv-gnu-toolchain/riscv-gcc/libgcc/libgcc2.c:1026
80003020:	8346                	mv	t1,a7
/Local/xl_ci/toolchain/riscv-gnu-toolchain/riscv-gcc/libgcc/libgcc2.c:1064
80003022:	20069663          	bnez	a3,8000322e <__udivdi3+0x216>
/Local/xl_ci/toolchain/riscv-gnu-toolchain/riscv-gcc/libgcc/libgcc2.c:1066
80003026:	00006697          	auipc	a3,0x6
8000302a:	61a68693          	addi	a3,a3,1562 # 80009640 <__clz_tab>
8000302e:	0ac5ff63          	bgeu	a1,a2,800030ec <__udivdi3+0xd4>
/Local/xl_ci/toolchain/riscv-gnu-toolchain/riscv-gcc/libgcc/libgcc2.c:1070
80003032:	6741                	lui	a4,0x10
80003034:	0ae67563          	bgeu	a2,a4,800030de <__udivdi3+0xc6>
80003038:	0ff00713          	li	a4,255
8000303c:	00c73733          	sltu	a4,a4,a2
80003040:	070e                	slli	a4,a4,0x3
80003042:	00e65533          	srl	a0,a2,a4
80003046:	96aa                	add	a3,a3,a0
80003048:	0006c683          	lbu	a3,0(a3)
8000304c:	02000513          	li	a0,32
80003050:	9736                	add	a4,a4,a3
80003052:	40e506b3          	sub	a3,a0,a4
/Local/xl_ci/toolchain/riscv-gnu-toolchain/riscv-gcc/libgcc/libgcc2.c:1072
80003056:	00e50b63          	beq	a0,a4,8000306c <__udivdi3+0x54>
/Local/xl_ci/toolchain/riscv-gnu-toolchain/riscv-gcc/libgcc/libgcc2.c:1078
8000305a:	00d795b3          	sll	a1,a5,a3
8000305e:	00e8d733          	srl	a4,a7,a4
/Local/xl_ci/toolchain/riscv-gnu-toolchain/riscv-gcc/libgcc/libgcc2.c:1077
80003062:	00d61833          	sll	a6,a2,a3
/Local/xl_ci/toolchain/riscv-gnu-toolchain/riscv-gcc/libgcc/libgcc2.c:1078
80003066:	8dd9                	or	a1,a1,a4
/Local/xl_ci/toolchain/riscv-gnu-toolchain/riscv-gcc/libgcc/libgcc2.c:1079
80003068:	00d89333          	sll	t1,a7,a3
/Local/xl_ci/toolchain/riscv-gnu-toolchain/riscv-gcc/libgcc/libgcc2.c:1082
8000306c:	01085893          	srli	a7,a6,0x10
80003070:	0315d6b3          	divu	a3,a1,a7
80003074:	01081613          	slli	a2,a6,0x10
80003078:	8241                	srli	a2,a2,0x10
8000307a:	01035793          	srli	a5,t1,0x10
8000307e:	0315f733          	remu	a4,a1,a7
80003082:	8536                	mv	a0,a3
80003084:	02d605b3          	mul	a1,a2,a3
80003088:	0742                	slli	a4,a4,0x10
8000308a:	8fd9                	or	a5,a5,a4
8000308c:	00b7fc63          	bgeu	a5,a1,800030a4 <__udivdi3+0x8c>
80003090:	97c2                	add	a5,a5,a6
80003092:	fff68513          	addi	a0,a3,-1
80003096:	0107e763          	bltu	a5,a6,800030a4 <__udivdi3+0x8c>
8000309a:	00b7f563          	bgeu	a5,a1,800030a4 <__udivdi3+0x8c>
8000309e:	ffe68513          	addi	a0,a3,-2
800030a2:	97c2                	add	a5,a5,a6
800030a4:	8f8d                	sub	a5,a5,a1
800030a6:	0317f733          	remu	a4,a5,a7
800030aa:	0342                	slli	t1,t1,0x10
800030ac:	01035313          	srli	t1,t1,0x10
800030b0:	0317d7b3          	divu	a5,a5,a7
800030b4:	0742                	slli	a4,a4,0x10
800030b6:	00676333          	or	t1,a4,t1
800030ba:	02f606b3          	mul	a3,a2,a5
800030be:	863e                	mv	a2,a5
800030c0:	00d37b63          	bgeu	t1,a3,800030d6 <__udivdi3+0xbe>
800030c4:	9342                	add	t1,t1,a6
800030c6:	fff78613          	addi	a2,a5,-1
800030ca:	01036663          	bltu	t1,a6,800030d6 <__udivdi3+0xbe>
800030ce:	00d37463          	bgeu	t1,a3,800030d6 <__udivdi3+0xbe>
800030d2:	ffe78613          	addi	a2,a5,-2
800030d6:	0542                	slli	a0,a0,0x10
800030d8:	8d51                	or	a0,a0,a2
/Local/xl_ci/toolchain/riscv-gnu-toolchain/riscv-gcc/libgcc/libgcc2.c:1209
800030da:	4581                	li	a1,0
800030dc:	a85d                	j	80003192 <__udivdi3+0x17a>
/Local/xl_ci/toolchain/riscv-gnu-toolchain/riscv-gcc/libgcc/libgcc2.c:1070
800030de:	01000537          	lui	a0,0x1000
800030e2:	4741                	li	a4,16
800030e4:	f4a66fe3          	bltu	a2,a0,80003042 <__udivdi3+0x2a>
800030e8:	4761                	li	a4,24
800030ea:	bfa1                	j	80003042 <__udivdi3+0x2a>
/Local/xl_ci/toolchain/riscv-gnu-toolchain/riscv-gcc/libgcc/libgcc2.c:1091
800030ec:	e601                	bnez	a2,800030f4 <__udivdi3+0xdc>
/Local/xl_ci/toolchain/riscv-gnu-toolchain/riscv-gcc/libgcc/libgcc2.c:1092
800030ee:	4705                	li	a4,1
800030f0:	02c75833          	divu	a6,a4,a2
/Local/xl_ci/toolchain/riscv-gnu-toolchain/riscv-gcc/libgcc/libgcc2.c:1094
800030f4:	6741                	lui	a4,0x10
800030f6:	08e87f63          	bgeu	a6,a4,80003194 <__udivdi3+0x17c>
800030fa:	0ff00713          	li	a4,255
800030fe:	01077363          	bgeu	a4,a6,80003104 <__udivdi3+0xec>
80003102:	4521                	li	a0,8
80003104:	00a85733          	srl	a4,a6,a0
80003108:	96ba                	add	a3,a3,a4
8000310a:	0006c703          	lbu	a4,0(a3)
8000310e:	02000613          	li	a2,32
80003112:	972a                	add	a4,a4,a0
80003114:	40e606b3          	sub	a3,a2,a4
/Local/xl_ci/toolchain/riscv-gnu-toolchain/riscv-gcc/libgcc/libgcc2.c:1096
80003118:	08e61563          	bne	a2,a4,800031a2 <__udivdi3+0x18a>
/Local/xl_ci/toolchain/riscv-gnu-toolchain/riscv-gcc/libgcc/libgcc2.c:1105
8000311c:	410787b3          	sub	a5,a5,a6
/Local/xl_ci/toolchain/riscv-gnu-toolchain/riscv-gcc/libgcc/libgcc2.c:1106
80003120:	4585                	li	a1,1
/Local/xl_ci/toolchain/riscv-gnu-toolchain/riscv-gcc/libgcc/libgcc2.c:1124
80003122:	01085893          	srli	a7,a6,0x10
80003126:	01081613          	slli	a2,a6,0x10
8000312a:	8241                	srli	a2,a2,0x10
8000312c:	01035713          	srli	a4,t1,0x10
80003130:	0317f6b3          	remu	a3,a5,a7
80003134:	0317d7b3          	divu	a5,a5,a7
80003138:	06c2                	slli	a3,a3,0x10
8000313a:	8f55                	or	a4,a4,a3
8000313c:	02f60e33          	mul	t3,a2,a5
80003140:	853e                	mv	a0,a5
80003142:	01c77c63          	bgeu	a4,t3,8000315a <__udivdi3+0x142>
80003146:	9742                	add	a4,a4,a6
80003148:	fff78513          	addi	a0,a5,-1
8000314c:	01076763          	bltu	a4,a6,8000315a <__udivdi3+0x142>
80003150:	01c77563          	bgeu	a4,t3,8000315a <__udivdi3+0x142>
80003154:	ffe78513          	addi	a0,a5,-2
80003158:	9742                	add	a4,a4,a6
8000315a:	41c70733          	sub	a4,a4,t3
8000315e:	031777b3          	remu	a5,a4,a7
80003162:	0342                	slli	t1,t1,0x10
80003164:	01035313          	srli	t1,t1,0x10
80003168:	03175733          	divu	a4,a4,a7
8000316c:	07c2                	slli	a5,a5,0x10
8000316e:	0067e333          	or	t1,a5,t1
80003172:	02e606b3          	mul	a3,a2,a4
80003176:	863a                	mv	a2,a4
80003178:	00d37b63          	bgeu	t1,a3,8000318e <__udivdi3+0x176>
8000317c:	9342                	add	t1,t1,a6
8000317e:	fff70613          	addi	a2,a4,-1 # ffff <__stack_size+0xf7ff>
80003182:	01036663          	bltu	t1,a6,8000318e <__udivdi3+0x176>
80003186:	00d37463          	bgeu	t1,a3,8000318e <__udivdi3+0x176>
8000318a:	ffe70613          	addi	a2,a4,-2
8000318e:	0542                	slli	a0,a0,0x10
80003190:	8d51                	or	a0,a0,a2
__udivdi3():
/Local/xl_ci/toolchain/riscv-gnu-toolchain/riscv-gcc/libgcc/libgcc2.c:1321
80003192:	8082                	ret
__udivmoddi4():
/Local/xl_ci/toolchain/riscv-gnu-toolchain/riscv-gcc/libgcc/libgcc2.c:1094
80003194:	01000737          	lui	a4,0x1000
80003198:	4541                	li	a0,16
8000319a:	f6e865e3          	bltu	a6,a4,80003104 <__udivdi3+0xec>
8000319e:	4561                	li	a0,24
800031a0:	b795                	j	80003104 <__udivdi3+0xec>
/Local/xl_ci/toolchain/riscv-gnu-toolchain/riscv-gcc/libgcc/libgcc2.c:1114
800031a2:	00d81833          	sll	a6,a6,a3
/Local/xl_ci/toolchain/riscv-gnu-toolchain/riscv-gcc/libgcc/libgcc2.c:1115
800031a6:	00e7d533          	srl	a0,a5,a4
/Local/xl_ci/toolchain/riscv-gnu-toolchain/riscv-gcc/libgcc/libgcc2.c:1117
800031aa:	00d89333          	sll	t1,a7,a3
/Local/xl_ci/toolchain/riscv-gnu-toolchain/riscv-gcc/libgcc/libgcc2.c:1116
800031ae:	00d797b3          	sll	a5,a5,a3
800031b2:	00e8d733          	srl	a4,a7,a4
/Local/xl_ci/toolchain/riscv-gnu-toolchain/riscv-gcc/libgcc/libgcc2.c:1119
800031b6:	01085893          	srli	a7,a6,0x10
/Local/xl_ci/toolchain/riscv-gnu-toolchain/riscv-gcc/libgcc/libgcc2.c:1116
800031ba:	00f76633          	or	a2,a4,a5
/Local/xl_ci/toolchain/riscv-gnu-toolchain/riscv-gcc/libgcc/libgcc2.c:1119
800031be:	03157733          	remu	a4,a0,a7
800031c2:	01081793          	slli	a5,a6,0x10
800031c6:	83c1                	srli	a5,a5,0x10
800031c8:	01065593          	srli	a1,a2,0x10
800031cc:	03155533          	divu	a0,a0,a7
800031d0:	0742                	slli	a4,a4,0x10
800031d2:	8f4d                	or	a4,a4,a1
800031d4:	02a786b3          	mul	a3,a5,a0
800031d8:	85aa                	mv	a1,a0
800031da:	00d77c63          	bgeu	a4,a3,800031f2 <__udivdi3+0x1da>
800031de:	9742                	add	a4,a4,a6
800031e0:	fff50593          	addi	a1,a0,-1 # ffffff <__stack_size+0xfff7ff>
800031e4:	01076763          	bltu	a4,a6,800031f2 <__udivdi3+0x1da>
800031e8:	00d77563          	bgeu	a4,a3,800031f2 <__udivdi3+0x1da>
800031ec:	ffe50593          	addi	a1,a0,-2
800031f0:	9742                	add	a4,a4,a6
800031f2:	40d706b3          	sub	a3,a4,a3
800031f6:	0316f733          	remu	a4,a3,a7
800031fa:	0642                	slli	a2,a2,0x10
800031fc:	8241                	srli	a2,a2,0x10
800031fe:	0316d6b3          	divu	a3,a3,a7
80003202:	0742                	slli	a4,a4,0x10
80003204:	02d78533          	mul	a0,a5,a3
80003208:	00c767b3          	or	a5,a4,a2
8000320c:	8736                	mv	a4,a3
8000320e:	00a7fc63          	bgeu	a5,a0,80003226 <__udivdi3+0x20e>
80003212:	97c2                	add	a5,a5,a6
80003214:	fff68713          	addi	a4,a3,-1
80003218:	0107e763          	bltu	a5,a6,80003226 <__udivdi3+0x20e>
8000321c:	00a7f563          	bgeu	a5,a0,80003226 <__udivdi3+0x20e>
80003220:	ffe68713          	addi	a4,a3,-2
80003224:	97c2                	add	a5,a5,a6
80003226:	05c2                	slli	a1,a1,0x10
80003228:	8f89                	sub	a5,a5,a0
8000322a:	8dd9                	or	a1,a1,a4
8000322c:	bddd                	j	80003122 <__udivdi3+0x10a>
/Local/xl_ci/toolchain/riscv-gnu-toolchain/riscv-gcc/libgcc/libgcc2.c:1140
8000322e:	14d5e263          	bltu	a1,a3,80003372 <__udivdi3+0x35a>
/Local/xl_ci/toolchain/riscv-gnu-toolchain/riscv-gcc/libgcc/libgcc2.c:1159
80003232:	6741                	lui	a4,0x10
80003234:	02e6ff63          	bgeu	a3,a4,80003272 <__udivdi3+0x25a>
80003238:	0ff00713          	li	a4,255
8000323c:	00d735b3          	sltu	a1,a4,a3
80003240:	058e                	slli	a1,a1,0x3
80003242:	00b6d533          	srl	a0,a3,a1
80003246:	00006717          	auipc	a4,0x6
8000324a:	3fa70713          	addi	a4,a4,1018 # 80009640 <__clz_tab>
8000324e:	972a                	add	a4,a4,a0
80003250:	00074703          	lbu	a4,0(a4)
80003254:	02000513          	li	a0,32
80003258:	972e                	add	a4,a4,a1
8000325a:	40e505b3          	sub	a1,a0,a4
/Local/xl_ci/toolchain/riscv-gnu-toolchain/riscv-gcc/libgcc/libgcc2.c:1160
8000325e:	02e51163          	bne	a0,a4,80003280 <__udivdi3+0x268>
/Local/xl_ci/toolchain/riscv-gnu-toolchain/riscv-gcc/libgcc/libgcc2.c:1172
80003262:	4505                	li	a0,1
/Local/xl_ci/toolchain/riscv-gnu-toolchain/riscv-gcc/libgcc/libgcc2.c:1170
80003264:	f2f6e7e3          	bltu	a3,a5,80003192 <__udivdi3+0x17a>
80003268:	00c8b533          	sltu	a0,a7,a2
8000326c:	00154513          	xori	a0,a0,1
80003270:	b70d                	j	80003192 <__udivdi3+0x17a>
/Local/xl_ci/toolchain/riscv-gnu-toolchain/riscv-gcc/libgcc/libgcc2.c:1159
80003272:	01000737          	lui	a4,0x1000
80003276:	45c1                	li	a1,16
80003278:	fce6e5e3          	bltu	a3,a4,80003242 <__udivdi3+0x22a>
8000327c:	45e1                	li	a1,24
8000327e:	b7d1                	j	80003242 <__udivdi3+0x22a>
/Local/xl_ci/toolchain/riscv-gnu-toolchain/riscv-gcc/libgcc/libgcc2.c:1194
80003280:	00e65833          	srl	a6,a2,a4
80003284:	00b696b3          	sll	a3,a3,a1
80003288:	00d86833          	or	a6,a6,a3
/Local/xl_ci/toolchain/riscv-gnu-toolchain/riscv-gcc/libgcc/libgcc2.c:1196
8000328c:	00e7d333          	srl	t1,a5,a4
/Local/xl_ci/toolchain/riscv-gnu-toolchain/riscv-gcc/libgcc/libgcc2.c:1200
80003290:	01085e93          	srli	t4,a6,0x10
80003294:	03d376b3          	remu	a3,t1,t4
/Local/xl_ci/toolchain/riscv-gnu-toolchain/riscv-gcc/libgcc/libgcc2.c:1197
80003298:	00b797b3          	sll	a5,a5,a1
8000329c:	00e8d733          	srl	a4,a7,a4
/Local/xl_ci/toolchain/riscv-gnu-toolchain/riscv-gcc/libgcc/libgcc2.c:1195
800032a0:	00b61e33          	sll	t3,a2,a1
/Local/xl_ci/toolchain/riscv-gnu-toolchain/riscv-gcc/libgcc/libgcc2.c:1197
800032a4:	00f76633          	or	a2,a4,a5
/Local/xl_ci/toolchain/riscv-gnu-toolchain/riscv-gcc/libgcc/libgcc2.c:1200
800032a8:	01081793          	slli	a5,a6,0x10
800032ac:	83c1                	srli	a5,a5,0x10
800032ae:	01065713          	srli	a4,a2,0x10
800032b2:	03d35333          	divu	t1,t1,t4
800032b6:	06c2                	slli	a3,a3,0x10
800032b8:	8f55                	or	a4,a4,a3
800032ba:	02678f33          	mul	t5,a5,t1
800032be:	851a                	mv	a0,t1
800032c0:	01e77c63          	bgeu	a4,t5,800032d8 <__udivdi3+0x2c0>
800032c4:	9742                	add	a4,a4,a6
800032c6:	fff30513          	addi	a0,t1,-1
800032ca:	01076763          	bltu	a4,a6,800032d8 <__udivdi3+0x2c0>
800032ce:	01e77563          	bgeu	a4,t5,800032d8 <__udivdi3+0x2c0>
800032d2:	ffe30513          	addi	a0,t1,-2
800032d6:	9742                	add	a4,a4,a6
800032d8:	41e70733          	sub	a4,a4,t5
800032dc:	03d776b3          	remu	a3,a4,t4
800032e0:	03d75733          	divu	a4,a4,t4
800032e4:	06c2                	slli	a3,a3,0x10
800032e6:	02e78333          	mul	t1,a5,a4
800032ea:	01061793          	slli	a5,a2,0x10
800032ee:	83c1                	srli	a5,a5,0x10
800032f0:	8fd5                	or	a5,a5,a3
800032f2:	863a                	mv	a2,a4
800032f4:	0067fc63          	bgeu	a5,t1,8000330c <__udivdi3+0x2f4>
800032f8:	97c2                	add	a5,a5,a6
800032fa:	fff70613          	addi	a2,a4,-1 # ffffff <__stack_size+0xfff7ff>
800032fe:	0107e763          	bltu	a5,a6,8000330c <__udivdi3+0x2f4>
80003302:	0067f563          	bgeu	a5,t1,8000330c <__udivdi3+0x2f4>
80003306:	ffe70613          	addi	a2,a4,-2
8000330a:	97c2                	add	a5,a5,a6
8000330c:	0542                	slli	a0,a0,0x10
/Local/xl_ci/toolchain/riscv-gnu-toolchain/riscv-gcc/libgcc/libgcc2.c:1201
8000330e:	6ec1                	lui	t4,0x10
/Local/xl_ci/toolchain/riscv-gnu-toolchain/riscv-gcc/libgcc/libgcc2.c:1200
80003310:	8d51                	or	a0,a0,a2
/Local/xl_ci/toolchain/riscv-gnu-toolchain/riscv-gcc/libgcc/libgcc2.c:1201
80003312:	fffe8693          	addi	a3,t4,-1 # ffff <__stack_size+0xf7ff>
80003316:	010e5613          	srli	a2,t3,0x10
8000331a:	01055813          	srli	a6,a0,0x10
/Local/xl_ci/toolchain/riscv-gnu-toolchain/riscv-gcc/libgcc/libgcc2.c:1200
8000331e:	406787b3          	sub	a5,a5,t1
/Local/xl_ci/toolchain/riscv-gnu-toolchain/riscv-gcc/libgcc/libgcc2.c:1201
80003322:	00d57333          	and	t1,a0,a3
80003326:	00de76b3          	and	a3,t3,a3
8000332a:	02d30e33          	mul	t3,t1,a3
8000332e:	02d806b3          	mul	a3,a6,a3
80003332:	010e5713          	srli	a4,t3,0x10
80003336:	02c30333          	mul	t1,t1,a2
8000333a:	9336                	add	t1,t1,a3
8000333c:	971a                	add	a4,a4,t1
8000333e:	02c80833          	mul	a6,a6,a2
80003342:	00d77363          	bgeu	a4,a3,80003348 <__udivdi3+0x330>
80003346:	9876                	add	a6,a6,t4
80003348:	01075693          	srli	a3,a4,0x10
8000334c:	9836                	add	a6,a6,a3
/Local/xl_ci/toolchain/riscv-gnu-toolchain/riscv-gcc/libgcc/libgcc2.c:1203
8000334e:	0307e063          	bltu	a5,a6,8000336e <__udivdi3+0x356>
80003352:	d90794e3          	bne	a5,a6,800030da <__udivdi3+0xc2>
/Local/xl_ci/toolchain/riscv-gnu-toolchain/riscv-gcc/libgcc/libgcc2.c:1201
80003356:	67c1                	lui	a5,0x10
80003358:	17fd                	addi	a5,a5,-1
8000335a:	8f7d                	and	a4,a4,a5
8000335c:	0742                	slli	a4,a4,0x10
8000335e:	00fe7e33          	and	t3,t3,a5
/Local/xl_ci/toolchain/riscv-gnu-toolchain/riscv-gcc/libgcc/libgcc2.c:1198
80003362:	00b898b3          	sll	a7,a7,a1
/Local/xl_ci/toolchain/riscv-gnu-toolchain/riscv-gcc/libgcc/libgcc2.c:1201
80003366:	9772                	add	a4,a4,t3
/Local/xl_ci/toolchain/riscv-gnu-toolchain/riscv-gcc/libgcc/libgcc2.c:1209
80003368:	4581                	li	a1,0
/Local/xl_ci/toolchain/riscv-gnu-toolchain/riscv-gcc/libgcc/libgcc2.c:1203
8000336a:	e2e8f4e3          	bgeu	a7,a4,80003192 <__udivdi3+0x17a>
/Local/xl_ci/toolchain/riscv-gnu-toolchain/riscv-gcc/libgcc/libgcc2.c:1205
8000336e:	157d                	addi	a0,a0,-1
__udivdi3():
/Local/xl_ci/toolchain/riscv-gnu-toolchain/riscv-gcc/libgcc/libgcc2.c:1206
80003370:	b3ad                	j	800030da <__udivdi3+0xc2>
__udivmoddi4():
/Local/xl_ci/toolchain/riscv-gnu-toolchain/riscv-gcc/libgcc/libgcc2.c:1145
80003372:	4581                	li	a1,0
/Local/xl_ci/toolchain/riscv-gnu-toolchain/riscv-gcc/libgcc/libgcc2.c:1144
80003374:	4501                	li	a0,0
80003376:	bd31                	j	80003192 <__udivdi3+0x17a>

80003378 <__adddf3>:
__adddf3():
/Local/xl_ci/toolchain/riscv-gnu-toolchain/riscv-gcc/libgcc/soft-fp/adddf3.c:36
80003378:	1101                	addi	sp,sp,-32
8000337a:	ce06                	sw	ra,28(sp)
8000337c:	cc22                	sw	s0,24(sp)
8000337e:	ca26                	sw	s1,20(sp)
80003380:	c84a                	sw	s2,16(sp)
80003382:	c64e                	sw	s3,12(sp)
80003384:	c452                	sw	s4,8(sp)
/Local/xl_ci/toolchain/riscv-gnu-toolchain/riscv-gcc/libgcc/soft-fp/adddf3.c:43
80003386:	002029f3          	frrm	s3
/Local/xl_ci/toolchain/riscv-gnu-toolchain/riscv-gcc/libgcc/soft-fp/adddf3.c:44
8000338a:	001008b7          	lui	a7,0x100
8000338e:	18fd                	addi	a7,a7,-1
80003390:	00b8f733          	and	a4,a7,a1
80003394:	0145d413          	srli	s0,a1,0x14
80003398:	01f5d493          	srli	s1,a1,0x1f
/Local/xl_ci/toolchain/riscv-gnu-toolchain/riscv-gcc/libgcc/soft-fp/adddf3.c:45
8000339c:	0146d593          	srli	a1,a3,0x14
/Local/xl_ci/toolchain/riscv-gnu-toolchain/riscv-gcc/libgcc/soft-fp/adddf3.c:44
800033a0:	00371793          	slli	a5,a4,0x3
/Local/xl_ci/toolchain/riscv-gnu-toolchain/riscv-gcc/libgcc/soft-fp/adddf3.c:45
800033a4:	00d8f8b3          	and	a7,a7,a3
/Local/xl_ci/toolchain/riscv-gnu-toolchain/riscv-gcc/libgcc/soft-fp/adddf3.c:44
800033a8:	01d55713          	srli	a4,a0,0x1d
800033ac:	7ff47413          	andi	s0,s0,2047
/Local/xl_ci/toolchain/riscv-gnu-toolchain/riscv-gcc/libgcc/soft-fp/adddf3.c:45
800033b0:	7ff5f593          	andi	a1,a1,2047
/Local/xl_ci/toolchain/riscv-gnu-toolchain/riscv-gcc/libgcc/soft-fp/adddf3.c:44
800033b4:	8f5d                	or	a4,a4,a5
/Local/xl_ci/toolchain/riscv-gnu-toolchain/riscv-gcc/libgcc/soft-fp/adddf3.c:45
800033b6:	01f6d313          	srli	t1,a3,0x1f
/Local/xl_ci/toolchain/riscv-gnu-toolchain/riscv-gcc/libgcc/soft-fp/adddf3.c:44
800033ba:	00351793          	slli	a5,a0,0x3
/Local/xl_ci/toolchain/riscv-gnu-toolchain/riscv-gcc/libgcc/soft-fp/adddf3.c:45
800033be:	01d65693          	srli	a3,a2,0x1d
800033c2:	088e                	slli	a7,a7,0x3
800033c4:	40b40533          	sub	a0,s0,a1
800033c8:	00361813          	slli	a6,a2,0x3
800033cc:	0116e6b3          	or	a3,a3,a7
/Local/xl_ci/toolchain/riscv-gnu-toolchain/riscv-gcc/libgcc/soft-fp/adddf3.c:46
800033d0:	862a                	mv	a2,a0
800033d2:	34649163          	bne	s1,t1,80003714 <__adddf3+0x39c>
/Local/xl_ci/toolchain/riscv-gnu-toolchain/riscv-gcc/libgcc/soft-fp/adddf3.c:46 (discriminator 7)
800033d6:	10a05963          	blez	a0,800034e8 <__adddf3+0x170>
/Local/xl_ci/toolchain/riscv-gnu-toolchain/riscv-gcc/libgcc/soft-fp/adddf3.c:46 (discriminator 9)
800033da:	e1b9                	bnez	a1,80003420 <__adddf3+0xa8>
/Local/xl_ci/toolchain/riscv-gnu-toolchain/riscv-gcc/libgcc/soft-fp/adddf3.c:46 (discriminator 11)
800033dc:	0106e533          	or	a0,a3,a6
800033e0:	e511                	bnez	a0,800033ec <__adddf3+0x74>
/Local/xl_ci/toolchain/riscv-gnu-toolchain/riscv-gcc/libgcc/soft-fp/adddf3.c:46 (discriminator 204)
800033e2:	7ff00693          	li	a3,2047
800033e6:	2ad61c63          	bne	a2,a3,8000369e <__adddf3+0x326>
800033ea:	a839                	j	80003408 <__adddf3+0x90>
/Local/xl_ci/toolchain/riscv-gnu-toolchain/riscv-gcc/libgcc/soft-fp/adddf3.c:46 (discriminator 14)
800033ec:	fff60513          	addi	a0,a2,-1
800033f0:	e901                	bnez	a0,80003400 <__adddf3+0x88>
/Local/xl_ci/toolchain/riscv-gnu-toolchain/riscv-gcc/libgcc/soft-fp/adddf3.c:46 (discriminator 23)
800033f2:	983e                	add	a6,a6,a5
800033f4:	96ba                	add	a3,a3,a4
800033f6:	00f837b3          	sltu	a5,a6,a5
800033fa:	96be                	add	a3,a3,a5
/Local/xl_ci/toolchain/riscv-gnu-toolchain/riscv-gcc/libgcc/soft-fp/adddf3.c:45 (discriminator 80)
800033fc:	4605                	li	a2,1
/Local/xl_ci/toolchain/riscv-gnu-toolchain/riscv-gcc/libgcc/soft-fp/adddf3.c:46 (discriminator 80)
800033fe:	a059                	j	80003484 <__adddf3+0x10c>
/Local/xl_ci/toolchain/riscv-gnu-toolchain/riscv-gcc/libgcc/soft-fp/adddf3.c:46 (discriminator 24)
80003400:	7ff00893          	li	a7,2047
80003404:	05161163          	bne	a2,a7,80003446 <__adddf3+0xce>
/Local/xl_ci/toolchain/riscv-gnu-toolchain/riscv-gcc/libgcc/soft-fp/adddf3.c:46 (discriminator 219)
80003408:	00f766b3          	or	a3,a4,a5
8000340c:	6e068c63          	beqz	a3,80003b04 <__adddf3+0x78c>
/Local/xl_ci/toolchain/riscv-gnu-toolchain/riscv-gcc/libgcc/soft-fp/adddf3.c:46 (discriminator 221)
80003410:	004006b7          	lui	a3,0x400
80003414:	8ef9                	and	a3,a3,a4
/Local/xl_ci/toolchain/riscv-gnu-toolchain/riscv-gcc/libgcc/soft-fp/adddf3.c:47 (discriminator 221)
80003416:	4401                	li	s0,0
/Local/xl_ci/toolchain/riscv-gnu-toolchain/riscv-gcc/libgcc/soft-fp/adddf3.c:46 (discriminator 221)
80003418:	20069263          	bnez	a3,8000361c <__adddf3+0x2a4>
/Local/xl_ci/toolchain/riscv-gnu-toolchain/riscv-gcc/libgcc/soft-fp/adddf3.c:46
8000341c:	45c1                	li	a1,16
8000341e:	aafd                	j	8000361c <__adddf3+0x2a4>
/Local/xl_ci/toolchain/riscv-gnu-toolchain/riscv-gcc/libgcc/soft-fp/adddf3.c:46 (discriminator 12)
80003420:	7ff00613          	li	a2,2047
80003424:	00c41e63          	bne	s0,a2,80003440 <__adddf3+0xc8>
/Local/xl_ci/toolchain/riscv-gnu-toolchain/riscv-gcc/libgcc/soft-fp/adddf3.c:46 (discriminator 230)
80003428:	00f766b3          	or	a3,a4,a5
8000342c:	6c068f63          	beqz	a3,80003b0a <__adddf3+0x792>
/Local/xl_ci/toolchain/riscv-gnu-toolchain/riscv-gcc/libgcc/soft-fp/adddf3.c:46 (discriminator 232)
80003430:	004006b7          	lui	a3,0x400
80003434:	8ef9                	and	a3,a3,a4
80003436:	12068563          	beqz	a3,80003560 <__adddf3+0x1e8>
/Local/xl_ci/toolchain/riscv-gnu-toolchain/riscv-gcc/libgcc/soft-fp/adddf3.c:46
8000343a:	7ff00613          	li	a2,2047
8000343e:	a485                	j	8000369e <__adddf3+0x326>
/Local/xl_ci/toolchain/riscv-gnu-toolchain/riscv-gcc/libgcc/soft-fp/adddf3.c:46 (discriminator 38)
80003440:	00800637          	lui	a2,0x800
80003444:	8ed1                	or	a3,a3,a2
/Local/xl_ci/toolchain/riscv-gnu-toolchain/riscv-gcc/libgcc/soft-fp/adddf3.c:46 (discriminator 47)
80003446:	03800613          	li	a2,56
8000344a:	08a64a63          	blt	a2,a0,800034de <__adddf3+0x166>
/Local/xl_ci/toolchain/riscv-gnu-toolchain/riscv-gcc/libgcc/soft-fp/adddf3.c:46 (discriminator 48)
8000344e:	467d                	li	a2,31
80003450:	06a64063          	blt	a2,a0,800034b0 <__adddf3+0x138>
/Local/xl_ci/toolchain/riscv-gnu-toolchain/riscv-gcc/libgcc/soft-fp/adddf3.c:46 (discriminator 50)
80003454:	02000613          	li	a2,32
80003458:	8e09                	sub	a2,a2,a0
8000345a:	00a858b3          	srl	a7,a6,a0
8000345e:	00c695b3          	sll	a1,a3,a2
80003462:	00c81833          	sll	a6,a6,a2
80003466:	0115e5b3          	or	a1,a1,a7
8000346a:	01003833          	snez	a6,a6
8000346e:	0105e833          	or	a6,a1,a6
80003472:	00a6d533          	srl	a0,a3,a0
/Local/xl_ci/toolchain/riscv-gnu-toolchain/riscv-gcc/libgcc/soft-fp/adddf3.c:46 (discriminator 64)
80003476:	983e                	add	a6,a6,a5
80003478:	953a                	add	a0,a0,a4
8000347a:	00f837b3          	sltu	a5,a6,a5
8000347e:	00f506b3          	add	a3,a0,a5
/Local/xl_ci/toolchain/riscv-gnu-toolchain/riscv-gcc/libgcc/soft-fp/adddf3.c:44 (discriminator 64)
80003482:	8622                	mv	a2,s0
/Local/xl_ci/toolchain/riscv-gnu-toolchain/riscv-gcc/libgcc/soft-fp/adddf3.c:46 (discriminator 122)
80003484:	008007b7          	lui	a5,0x800
80003488:	8ff5                	and	a5,a5,a3
8000348a:	cbb5                	beqz	a5,800034fe <__adddf3+0x186>
/Local/xl_ci/toolchain/riscv-gnu-toolchain/riscv-gcc/libgcc/soft-fp/adddf3.c:46 (discriminator 182)
8000348c:	0605                	addi	a2,a2,1
8000348e:	7ff00793          	li	a5,2047
80003492:	26f60163          	beq	a2,a5,800036f4 <__adddf3+0x37c>
/Local/xl_ci/toolchain/riscv-gnu-toolchain/riscv-gcc/libgcc/soft-fp/adddf3.c:46
80003496:	ff800737          	lui	a4,0xff800
8000349a:	177d                	addi	a4,a4,-1
8000349c:	00185793          	srli	a5,a6,0x1
800034a0:	8f75                	and	a4,a4,a3
800034a2:	00187813          	andi	a6,a6,1
800034a6:	0107e833          	or	a6,a5,a6
800034aa:	01f71793          	slli	a5,a4,0x1f
800034ae:	a2ed                	j	80003698 <__adddf3+0x320>
/Local/xl_ci/toolchain/riscv-gnu-toolchain/riscv-gcc/libgcc/soft-fp/adddf3.c:46 (discriminator 51)
800034b0:	fe050593          	addi	a1,a0,-32
800034b4:	02000893          	li	a7,32
800034b8:	00b6d5b3          	srl	a1,a3,a1
800034bc:	4601                	li	a2,0
800034be:	01150863          	beq	a0,a7,800034ce <__adddf3+0x156>
/Local/xl_ci/toolchain/riscv-gnu-toolchain/riscv-gcc/libgcc/soft-fp/adddf3.c:46 (discriminator 58)
800034c2:	04000613          	li	a2,64
800034c6:	40a60533          	sub	a0,a2,a0
800034ca:	00a69633          	sll	a2,a3,a0
/Local/xl_ci/toolchain/riscv-gnu-toolchain/riscv-gcc/libgcc/soft-fp/adddf3.c:46 (discriminator 61)
800034ce:	01066833          	or	a6,a2,a6
800034d2:	01003833          	snez	a6,a6
800034d6:	0105e833          	or	a6,a1,a6
/Local/xl_ci/toolchain/riscv-gnu-toolchain/riscv-gcc/libgcc/soft-fp/adddf3.c:46 (discriminator 49)
800034da:	4501                	li	a0,0
800034dc:	bf69                	j	80003476 <__adddf3+0xfe>
800034de:	0106e833          	or	a6,a3,a6
800034e2:	01003833          	snez	a6,a6
800034e6:	bfd5                	j	800034da <__adddf3+0x162>
/Local/xl_ci/toolchain/riscv-gnu-toolchain/riscv-gcc/libgcc/soft-fp/adddf3.c:46 (discriminator 10)
800034e8:	c97d                	beqz	a0,800035de <__adddf3+0x266>
/Local/xl_ci/toolchain/riscv-gnu-toolchain/riscv-gcc/libgcc/soft-fp/adddf3.c:46 (discriminator 66)
800034ea:	40858633          	sub	a2,a1,s0
800034ee:	e821                	bnez	s0,8000353e <__adddf3+0x1c6>
/Local/xl_ci/toolchain/riscv-gnu-toolchain/riscv-gcc/libgcc/soft-fp/adddf3.c:46 (discriminator 68)
800034f0:	00f76533          	or	a0,a4,a5
800034f4:	e911                	bnez	a0,80003508 <__adddf3+0x190>
/Local/xl_ci/toolchain/riscv-gnu-toolchain/riscv-gcc/libgcc/soft-fp/adddf3.c:46 (discriminator 70)
800034f6:	7ff00793          	li	a5,2047
/Local/xl_ci/toolchain/riscv-gnu-toolchain/riscv-gcc/libgcc/soft-fp/adddf3.c:46 (discriminator 261)
800034fa:	02f60663          	beq	a2,a5,80003526 <__adddf3+0x1ae>
/Local/xl_ci/toolchain/riscv-gnu-toolchain/riscv-gcc/libgcc/soft-fp/adddf3.c:47 (discriminator 421)
800034fe:	8736                	mv	a4,a3
80003500:	87c2                	mv	a5,a6
80003502:	40060163          	beqz	a2,80003904 <__adddf3+0x58c>
80003506:	aa61                	j	8000369e <__adddf3+0x326>
/Local/xl_ci/toolchain/riscv-gnu-toolchain/riscv-gcc/libgcc/soft-fp/adddf3.c:46 (discriminator 71)
80003508:	fff60893          	addi	a7,a2,-1 # 7fffff <__stack_size+0x7ff7ff>
8000350c:	00089963          	bnez	a7,8000351e <__adddf3+0x1a6>
/Local/xl_ci/toolchain/riscv-gnu-toolchain/riscv-gcc/libgcc/soft-fp/adddf3.c:46 (discriminator 80)
80003510:	97c2                	add	a5,a5,a6
80003512:	0107b833          	sltu	a6,a5,a6
80003516:	96ba                	add	a3,a3,a4
80003518:	96c2                	add	a3,a3,a6
8000351a:	883e                	mv	a6,a5
8000351c:	b5c5                	j	800033fc <__adddf3+0x84>
/Local/xl_ci/toolchain/riscv-gnu-toolchain/riscv-gcc/libgcc/soft-fp/adddf3.c:46 (discriminator 81)
8000351e:	7ff00513          	li	a0,2047
80003522:	04a61563          	bne	a2,a0,8000356c <__adddf3+0x1f4>
/Local/xl_ci/toolchain/riscv-gnu-toolchain/riscv-gcc/libgcc/soft-fp/adddf3.c:46 (discriminator 263)
80003526:	0106e7b3          	or	a5,a3,a6
8000352a:	5e078363          	beqz	a5,80003b10 <__adddf3+0x798>
/Local/xl_ci/toolchain/riscv-gnu-toolchain/riscv-gcc/libgcc/soft-fp/adddf3.c:46 (discriminator 265)
8000352e:	004007b7          	lui	a5,0x400
80003532:	8ff5                	and	a5,a5,a3
80003534:	8736                	mv	a4,a3
80003536:	5c079f63          	bnez	a5,80003b14 <__adddf3+0x79c>
/Local/xl_ci/toolchain/riscv-gnu-toolchain/riscv-gcc/libgcc/soft-fp/adddf3.c:45
8000353a:	87c2                	mv	a5,a6
8000353c:	b5c5                	j	8000341c <__adddf3+0xa4>
/Local/xl_ci/toolchain/riscv-gnu-toolchain/riscv-gcc/libgcc/soft-fp/adddf3.c:46 (discriminator 69)
8000353e:	7ff00513          	li	a0,2047
80003542:	02a59163          	bne	a1,a0,80003564 <__adddf3+0x1ec>
/Local/xl_ci/toolchain/riscv-gnu-toolchain/riscv-gcc/libgcc/soft-fp/adddf3.c:46 (discriminator 96)
80003546:	0106e7b3          	or	a5,a3,a6
8000354a:	5a078063          	beqz	a5,80003aea <__adddf3+0x772>
/Local/xl_ci/toolchain/riscv-gnu-toolchain/riscv-gcc/libgcc/soft-fp/adddf3.c:46 (discriminator 98)
8000354e:	004007b7          	lui	a5,0x400
80003552:	8ff5                	and	a5,a5,a3
80003554:	8736                	mv	a4,a3
80003556:	58079f63          	bnez	a5,80003af4 <__adddf3+0x77c>
/Local/xl_ci/toolchain/riscv-gnu-toolchain/riscv-gcc/libgcc/soft-fp/adddf3.c:45
8000355a:	87c2                	mv	a5,a6
/Local/xl_ci/toolchain/riscv-gnu-toolchain/riscv-gcc/libgcc/soft-fp/adddf3.c:46
8000355c:	7ff00613          	li	a2,2047
/Local/xl_ci/toolchain/riscv-gnu-toolchain/riscv-gcc/libgcc/soft-fp/adddf3.c:47
80003560:	4401                	li	s0,0
80003562:	bd6d                	j	8000341c <__adddf3+0xa4>
/Local/xl_ci/toolchain/riscv-gnu-toolchain/riscv-gcc/libgcc/soft-fp/adddf3.c:46 (discriminator 95)
80003564:	00800537          	lui	a0,0x800
80003568:	8f49                	or	a4,a4,a0
8000356a:	88b2                	mv	a7,a2
/Local/xl_ci/toolchain/riscv-gnu-toolchain/riscv-gcc/libgcc/soft-fp/adddf3.c:46 (discriminator 104)
8000356c:	03800613          	li	a2,56
80003570:	07164363          	blt	a2,a7,800035d6 <__adddf3+0x25e>
/Local/xl_ci/toolchain/riscv-gnu-toolchain/riscv-gcc/libgcc/soft-fp/adddf3.c:46 (discriminator 105)
80003574:	467d                	li	a2,31
80003576:	03164b63          	blt	a2,a7,800035ac <__adddf3+0x234>
/Local/xl_ci/toolchain/riscv-gnu-toolchain/riscv-gcc/libgcc/soft-fp/adddf3.c:46 (discriminator 107)
8000357a:	02000513          	li	a0,32
8000357e:	41150533          	sub	a0,a0,a7
80003582:	00a71633          	sll	a2,a4,a0
80003586:	0117d333          	srl	t1,a5,a7
8000358a:	00a797b3          	sll	a5,a5,a0
8000358e:	00666633          	or	a2,a2,t1
80003592:	00f037b3          	snez	a5,a5
80003596:	8fd1                	or	a5,a5,a2
80003598:	01175733          	srl	a4,a4,a7
/Local/xl_ci/toolchain/riscv-gnu-toolchain/riscv-gcc/libgcc/soft-fp/adddf3.c:46 (discriminator 121)
8000359c:	97c2                	add	a5,a5,a6
8000359e:	9736                	add	a4,a4,a3
800035a0:	0107b6b3          	sltu	a3,a5,a6
800035a4:	96ba                	add	a3,a3,a4
800035a6:	883e                	mv	a6,a5
/Local/xl_ci/toolchain/riscv-gnu-toolchain/riscv-gcc/libgcc/soft-fp/adddf3.c:45 (discriminator 121)
800035a8:	862e                	mv	a2,a1
800035aa:	bde9                	j	80003484 <__adddf3+0x10c>
/Local/xl_ci/toolchain/riscv-gnu-toolchain/riscv-gcc/libgcc/soft-fp/adddf3.c:46 (discriminator 108)
800035ac:	fe088613          	addi	a2,a7,-32 # fffe0 <__stack_size+0xff7e0>
800035b0:	02000313          	li	t1,32
800035b4:	00c75633          	srl	a2,a4,a2
800035b8:	4501                	li	a0,0
800035ba:	00688863          	beq	a7,t1,800035ca <__adddf3+0x252>
/Local/xl_ci/toolchain/riscv-gnu-toolchain/riscv-gcc/libgcc/soft-fp/adddf3.c:46 (discriminator 115)
800035be:	04000513          	li	a0,64
800035c2:	41150533          	sub	a0,a0,a7
800035c6:	00a71533          	sll	a0,a4,a0
/Local/xl_ci/toolchain/riscv-gnu-toolchain/riscv-gcc/libgcc/soft-fp/adddf3.c:46 (discriminator 118)
800035ca:	8fc9                	or	a5,a5,a0
800035cc:	00f037b3          	snez	a5,a5
800035d0:	8fd1                	or	a5,a5,a2
/Local/xl_ci/toolchain/riscv-gnu-toolchain/riscv-gcc/libgcc/soft-fp/adddf3.c:46 (discriminator 106)
800035d2:	4701                	li	a4,0
800035d4:	b7e1                	j	8000359c <__adddf3+0x224>
800035d6:	8fd9                	or	a5,a5,a4
800035d8:	00f037b3          	snez	a5,a5
800035dc:	bfdd                	j	800035d2 <__adddf3+0x25a>
/Local/xl_ci/toolchain/riscv-gnu-toolchain/riscv-gcc/libgcc/soft-fp/adddf3.c:46 (discriminator 67)
800035de:	00140613          	addi	a2,s0,1
800035e2:	7fe67513          	andi	a0,a2,2046
800035e6:	ed41                	bnez	a0,8000367e <__adddf3+0x306>
/Local/xl_ci/toolchain/riscv-gnu-toolchain/riscv-gcc/libgcc/soft-fp/adddf3.c:46 (discriminator 123)
800035e8:	00f76533          	or	a0,a4,a5
800035ec:	e421                	bnez	s0,80003634 <__adddf3+0x2bc>
/Local/xl_ci/toolchain/riscv-gnu-toolchain/riscv-gcc/libgcc/soft-fp/adddf3.c:46 (discriminator 125)
800035ee:	4c050163          	beqz	a0,80003ab0 <__adddf3+0x738>
/Local/xl_ci/toolchain/riscv-gnu-toolchain/riscv-gcc/libgcc/soft-fp/adddf3.c:46 (discriminator 128)
800035f2:	0106e633          	or	a2,a3,a6
800035f6:	30060763          	beqz	a2,80003904 <__adddf3+0x58c>
/Local/xl_ci/toolchain/riscv-gnu-toolchain/riscv-gcc/libgcc/soft-fp/adddf3.c:46 (discriminator 134)
800035fa:	983e                	add	a6,a6,a5
800035fc:	00f837b3          	sltu	a5,a6,a5
80003600:	9736                	add	a4,a4,a3
80003602:	973e                	add	a4,a4,a5
80003604:	008007b7          	lui	a5,0x800
80003608:	8ff9                	and	a5,a5,a4
8000360a:	4a078463          	beqz	a5,80003ab2 <__adddf3+0x73a>
/Local/xl_ci/toolchain/riscv-gnu-toolchain/riscv-gcc/libgcc/soft-fp/adddf3.c:46 (discriminator 136)
8000360e:	ff8007b7          	lui	a5,0xff800
80003612:	17fd                	addi	a5,a5,-1
80003614:	8f7d                	and	a4,a4,a5
80003616:	4581                	li	a1,0
80003618:	87c2                	mv	a5,a6
8000361a:	4605                	li	a2,1
/Local/xl_ci/toolchain/riscv-gnu-toolchain/riscv-gcc/libgcc/soft-fp/adddf3.c:47 (discriminator 36)
8000361c:	0077f693          	andi	a3,a5,7
80003620:	e6c5                	bnez	a3,800036c8 <__adddf3+0x350>
/Local/xl_ci/toolchain/riscv-gnu-toolchain/riscv-gcc/libgcc/soft-fp/adddf3.c:47 (discriminator 47)
80003622:	56040d63          	beqz	s0,80003b9c <__adddf3+0x824>
/Local/xl_ci/toolchain/riscv-gnu-toolchain/riscv-gcc/libgcc/soft-fp/adddf3.c:47 (discriminator 58)
80003626:	0015f693          	andi	a3,a1,1
8000362a:	56068963          	beqz	a3,80003b9c <__adddf3+0x824>
/Local/xl_ci/toolchain/riscv-gnu-toolchain/riscv-gcc/libgcc/soft-fp/adddf3.c:47 (discriminator 60)
8000362e:	0025e593          	ori	a1,a1,2
80003632:	a3ad                	j	80003b9c <__adddf3+0x824>
/Local/xl_ci/toolchain/riscv-gnu-toolchain/riscv-gcc/libgcc/soft-fp/adddf3.c:46 (discriminator 126)
80003634:	7ff00613          	li	a2,2047
80003638:	02c41d63          	bne	s0,a2,80003672 <__adddf3+0x2fa>
/Local/xl_ci/toolchain/riscv-gnu-toolchain/riscv-gcc/libgcc/soft-fp/adddf3.c:46 (discriminator 140)
8000363c:	5c050f63          	beqz	a0,80003c1a <__adddf3+0x8a2>
/Local/xl_ci/toolchain/riscv-gnu-toolchain/riscv-gcc/libgcc/soft-fp/adddf3.c:46 (discriminator 142)
80003640:	00400637          	lui	a2,0x400
80003644:	8e79                	and	a2,a2,a4
/Local/xl_ci/toolchain/riscv-gnu-toolchain/riscv-gcc/libgcc/soft-fp/adddf3.c:37 (discriminator 142)
80003646:	00163613          	seqz	a2,a2
8000364a:	0612                	slli	a2,a2,0x4
/Local/xl_ci/toolchain/riscv-gnu-toolchain/riscv-gcc/libgcc/soft-fp/adddf3.c:46 (discriminator 142)
8000364c:	52859d63          	bne	a1,s0,80003b86 <__adddf3+0x80e>
/Local/xl_ci/toolchain/riscv-gnu-toolchain/riscv-gcc/libgcc/soft-fp/adddf3.c:46
80003650:	85b2                	mv	a1,a2
/Local/xl_ci/toolchain/riscv-gnu-toolchain/riscv-gcc/libgcc/soft-fp/adddf3.c:46 (discriminator 147)
80003652:	0106e633          	or	a2,a3,a6
80003656:	c611                	beqz	a2,80003662 <__adddf3+0x2ea>
/Local/xl_ci/toolchain/riscv-gnu-toolchain/riscv-gcc/libgcc/soft-fp/adddf3.c:46 (discriminator 149)
80003658:	00400637          	lui	a2,0x400
8000365c:	8e75                	and	a2,a2,a3
8000365e:	e211                	bnez	a2,80003662 <__adddf3+0x2ea>
/Local/xl_ci/toolchain/riscv-gnu-toolchain/riscv-gcc/libgcc/soft-fp/adddf3.c:46
80003660:	45c1                	li	a1,16
/Local/xl_ci/toolchain/riscv-gnu-toolchain/riscv-gcc/libgcc/soft-fp/adddf3.c:46 (discriminator 153)
80003662:	52051363          	bnez	a0,80003b88 <__adddf3+0x810>
/Local/xl_ci/toolchain/riscv-gnu-toolchain/riscv-gcc/libgcc/soft-fp/adddf3.c:45
80003666:	8736                	mv	a4,a3
80003668:	87c2                	mv	a5,a6
/Local/xl_ci/toolchain/riscv-gnu-toolchain/riscv-gcc/libgcc/soft-fp/adddf3.c:47
8000366a:	4401                	li	s0,0
/Local/xl_ci/toolchain/riscv-gnu-toolchain/riscv-gcc/libgcc/soft-fp/adddf3.c:46
8000366c:	7ff00613          	li	a2,2047
80003670:	b775                	j	8000361c <__adddf3+0x2a4>
/Local/xl_ci/toolchain/riscv-gnu-toolchain/riscv-gcc/libgcc/soft-fp/adddf3.c:46 (discriminator 146)
80003672:	00c59463          	bne	a1,a2,8000367a <__adddf3+0x302>
/Local/xl_ci/toolchain/riscv-gnu-toolchain/riscv-gcc/libgcc/soft-fp/adddf3.c:46
80003676:	4581                	li	a1,0
80003678:	bfe9                	j	80003652 <__adddf3+0x2da>
8000367a:	4581                	li	a1,0
8000367c:	b7dd                	j	80003662 <__adddf3+0x2ea>
/Local/xl_ci/toolchain/riscv-gnu-toolchain/riscv-gcc/libgcc/soft-fp/adddf3.c:46 (discriminator 124)
8000367e:	7ff00593          	li	a1,2047
80003682:	02b60063          	beq	a2,a1,800036a2 <__adddf3+0x32a>
/Local/xl_ci/toolchain/riscv-gnu-toolchain/riscv-gcc/libgcc/soft-fp/adddf3.c:46
80003686:	983e                	add	a6,a6,a5
80003688:	00f837b3          	sltu	a5,a6,a5
8000368c:	9736                	add	a4,a4,a3
8000368e:	973e                	add	a4,a4,a5
80003690:	01f71793          	slli	a5,a4,0x1f
80003694:	00185813          	srli	a6,a6,0x1
80003698:	0107e7b3          	or	a5,a5,a6
8000369c:	8305                	srli	a4,a4,0x1
/Local/xl_ci/toolchain/riscv-gnu-toolchain/riscv-gcc/libgcc/soft-fp/adddf3.c:47
8000369e:	4401                	li	s0,0
800036a0:	a99d                	j	80003b16 <__adddf3+0x79e>
/Local/xl_ci/toolchain/riscv-gnu-toolchain/riscv-gcc/libgcc/soft-fp/adddf3.c:46 (discriminator 166)
800036a2:	00098663          	beqz	s3,800036ae <__adddf3+0x336>
/Local/xl_ci/toolchain/riscv-gnu-toolchain/riscv-gcc/libgcc/soft-fp/adddf3.c:46 (discriminator 169)
800036a6:	478d                	li	a5,3
800036a8:	00f99663          	bne	s3,a5,800036b4 <__adddf3+0x33c>
/Local/xl_ci/toolchain/riscv-gnu-toolchain/riscv-gcc/libgcc/soft-fp/adddf3.c:46 (discriminator 170)
800036ac:	e881                	bnez	s1,800036bc <__adddf3+0x344>
/Local/xl_ci/toolchain/riscv-gnu-toolchain/riscv-gcc/libgcc/soft-fp/adddf3.c:46
800036ae:	7ff00613          	li	a2,2047
800036b2:	a881                	j	80003702 <__adddf3+0x38a>
/Local/xl_ci/toolchain/riscv-gnu-toolchain/riscv-gcc/libgcc/soft-fp/adddf3.c:46 (discriminator 173)
800036b4:	4789                	li	a5,2
800036b6:	00f99363          	bne	s3,a5,800036bc <__adddf3+0x344>
/Local/xl_ci/toolchain/riscv-gnu-toolchain/riscv-gcc/libgcc/soft-fp/adddf3.c:46 (discriminator 174)
800036ba:	f8f5                	bnez	s1,800036ae <__adddf3+0x336>
/Local/xl_ci/toolchain/riscv-gnu-toolchain/riscv-gcc/libgcc/soft-fp/adddf3.c:47
800036bc:	4401                	li	s0,0
/Local/xl_ci/toolchain/riscv-gnu-toolchain/riscv-gcc/libgcc/soft-fp/adddf3.c:46
800036be:	577d                	li	a4,-1
800036c0:	57fd                	li	a5,-1
800036c2:	7fe00613          	li	a2,2046
800036c6:	4595                	li	a1,5
/Local/xl_ci/toolchain/riscv-gnu-toolchain/riscv-gcc/libgcc/soft-fp/adddf3.c:47 (discriminator 37)
800036c8:	4689                	li	a3,2
800036ca:	0015e593          	ori	a1,a1,1
800036ce:	48d98563          	beq	s3,a3,80003b58 <__adddf3+0x7e0>
/Local/xl_ci/toolchain/riscv-gnu-toolchain/riscv-gcc/libgcc/soft-fp/adddf3.c:47
800036d2:	468d                	li	a3,3
800036d4:	46d98e63          	beq	s3,a3,80003b50 <__adddf3+0x7d8>
800036d8:	48099163          	bnez	s3,80003b5a <__adddf3+0x7e2>
/Local/xl_ci/toolchain/riscv-gnu-toolchain/riscv-gcc/libgcc/soft-fp/adddf3.c:47 (discriminator 40)
800036dc:	00f7f693          	andi	a3,a5,15
800036e0:	4511                	li	a0,4
800036e2:	46a68c63          	beq	a3,a0,80003b5a <__adddf3+0x7e2>
/Local/xl_ci/toolchain/riscv-gnu-toolchain/riscv-gcc/libgcc/soft-fp/adddf3.c:47 (discriminator 44)
800036e6:	00478693          	addi	a3,a5,4 # ff800004 <_sp+0x6f7f0004>
/Local/xl_ci/toolchain/riscv-gnu-toolchain/riscv-gcc/libgcc/soft-fp/adddf3.c:47 (discriminator 55)
800036ea:	00f6b7b3          	sltu	a5,a3,a5
800036ee:	973e                	add	a4,a4,a5
800036f0:	87b6                	mv	a5,a3
800036f2:	a1a5                	j	80003b5a <__adddf3+0x7e2>
/Local/xl_ci/toolchain/riscv-gnu-toolchain/riscv-gcc/libgcc/soft-fp/adddf3.c:46 (discriminator 184)
800036f4:	00098763          	beqz	s3,80003702 <__adddf3+0x38a>
/Local/xl_ci/toolchain/riscv-gnu-toolchain/riscv-gcc/libgcc/soft-fp/adddf3.c:46 (discriminator 187)
800036f8:	478d                	li	a5,3
800036fa:	00f99863          	bne	s3,a5,8000370a <__adddf3+0x392>
/Local/xl_ci/toolchain/riscv-gnu-toolchain/riscv-gcc/libgcc/soft-fp/adddf3.c:46 (discriminator 188)
800036fe:	3e049d63          	bnez	s1,80003af8 <__adddf3+0x780>
/Local/xl_ci/toolchain/riscv-gnu-toolchain/riscv-gcc/libgcc/soft-fp/adddf3.c:46
80003702:	4701                	li	a4,0
80003704:	4781                	li	a5,0
80003706:	4595                	li	a1,5
80003708:	a951                	j	80003b9c <__adddf3+0x824>
/Local/xl_ci/toolchain/riscv-gnu-toolchain/riscv-gcc/libgcc/soft-fp/adddf3.c:46 (discriminator 191)
8000370a:	4789                	li	a5,2
8000370c:	3ef99663          	bne	s3,a5,80003af8 <__adddf3+0x780>
/Local/xl_ci/toolchain/riscv-gnu-toolchain/riscv-gcc/libgcc/soft-fp/adddf3.c:46 (discriminator 192)
80003710:	f8ed                	bnez	s1,80003702 <__adddf3+0x38a>
80003712:	b76d                	j	800036bc <__adddf3+0x344>
/Local/xl_ci/toolchain/riscv-gnu-toolchain/riscv-gcc/libgcc/soft-fp/adddf3.c:46 (discriminator 8)
80003714:	0ca05663          	blez	a0,800037e0 <__adddf3+0x468>
/Local/xl_ci/toolchain/riscv-gnu-toolchain/riscv-gcc/libgcc/soft-fp/adddf3.c:46 (discriminator 200)
80003718:	e1c9                	bnez	a1,8000379a <__adddf3+0x422>
/Local/xl_ci/toolchain/riscv-gnu-toolchain/riscv-gcc/libgcc/soft-fp/adddf3.c:46 (discriminator 202)
8000371a:	0106e533          	or	a0,a3,a6
8000371e:	cc0502e3          	beqz	a0,800033e2 <__adddf3+0x6a>
/Local/xl_ci/toolchain/riscv-gnu-toolchain/riscv-gcc/libgcc/soft-fp/adddf3.c:46 (discriminator 205)
80003722:	fff60513          	addi	a0,a2,-1 # 3fffff <__stack_size+0x3ff7ff>
80003726:	e911                	bnez	a0,8000373a <__adddf3+0x3c2>
/Local/xl_ci/toolchain/riscv-gnu-toolchain/riscv-gcc/libgcc/soft-fp/adddf3.c:46 (discriminator 214)
80003728:	41078833          	sub	a6,a5,a6
8000372c:	40d706b3          	sub	a3,a4,a3
80003730:	0107b7b3          	sltu	a5,a5,a6
80003734:	8e9d                	sub	a3,a3,a5
/Local/xl_ci/toolchain/riscv-gnu-toolchain/riscv-gcc/libgcc/soft-fp/adddf3.c:45 (discriminator 271)
80003736:	4605                	li	a2,1
/Local/xl_ci/toolchain/riscv-gnu-toolchain/riscv-gcc/libgcc/soft-fp/adddf3.c:46 (discriminator 271)
80003738:	a0a9                	j	80003782 <__adddf3+0x40a>
/Local/xl_ci/toolchain/riscv-gnu-toolchain/riscv-gcc/libgcc/soft-fp/adddf3.c:46 (discriminator 215)
8000373a:	7ff00893          	li	a7,2047
8000373e:	cd1605e3          	beq	a2,a7,80003408 <__adddf3+0x90>
/Local/xl_ci/toolchain/riscv-gnu-toolchain/riscv-gcc/libgcc/soft-fp/adddf3.c:46 (discriminator 238)
80003742:	03800613          	li	a2,56
80003746:	08a64863          	blt	a2,a0,800037d6 <__adddf3+0x45e>
/Local/xl_ci/toolchain/riscv-gnu-toolchain/riscv-gcc/libgcc/soft-fp/adddf3.c:46 (discriminator 239)
8000374a:	467d                	li	a2,31
8000374c:	04a64f63          	blt	a2,a0,800037aa <__adddf3+0x432>
/Local/xl_ci/toolchain/riscv-gnu-toolchain/riscv-gcc/libgcc/soft-fp/adddf3.c:46 (discriminator 241)
80003750:	02000613          	li	a2,32
80003754:	8e09                	sub	a2,a2,a0
80003756:	00c695b3          	sll	a1,a3,a2
8000375a:	00a858b3          	srl	a7,a6,a0
8000375e:	00c81833          	sll	a6,a6,a2
80003762:	0115e5b3          	or	a1,a1,a7
80003766:	01003833          	snez	a6,a6
8000376a:	0105e833          	or	a6,a1,a6
8000376e:	00a6d6b3          	srl	a3,a3,a0
/Local/xl_ci/toolchain/riscv-gnu-toolchain/riscv-gcc/libgcc/soft-fp/adddf3.c:46 (discriminator 255)
80003772:	41078833          	sub	a6,a5,a6
80003776:	40d706b3          	sub	a3,a4,a3
8000377a:	0107b7b3          	sltu	a5,a5,a6
8000377e:	8e9d                	sub	a3,a3,a5
/Local/xl_ci/toolchain/riscv-gnu-toolchain/riscv-gcc/libgcc/soft-fp/adddf3.c:44 (discriminator 255)
80003780:	8622                	mv	a2,s0
/Local/xl_ci/toolchain/riscv-gnu-toolchain/riscv-gcc/libgcc/soft-fp/adddf3.c:46 (discriminator 313)
80003782:	00800937          	lui	s2,0x800
80003786:	0126f7b3          	and	a5,a3,s2
8000378a:	d6078ae3          	beqz	a5,800034fe <__adddf3+0x186>
/Local/xl_ci/toolchain/riscv-gnu-toolchain/riscv-gcc/libgcc/soft-fp/adddf3.c:46 (discriminator 373)
8000378e:	197d                	addi	s2,s2,-1
80003790:	0126f933          	and	s2,a3,s2
80003794:	8a42                	mv	s4,a6
80003796:	8432                	mv	s0,a2
80003798:	a4b5                	j	80003a04 <__adddf3+0x68c>
/Local/xl_ci/toolchain/riscv-gnu-toolchain/riscv-gcc/libgcc/soft-fp/adddf3.c:46 (discriminator 203)
8000379a:	7ff00613          	li	a2,2047
8000379e:	c8c405e3          	beq	s0,a2,80003428 <__adddf3+0xb0>
/Local/xl_ci/toolchain/riscv-gnu-toolchain/riscv-gcc/libgcc/soft-fp/adddf3.c:46 (discriminator 229)
800037a2:	00800637          	lui	a2,0x800
800037a6:	8ed1                	or	a3,a3,a2
800037a8:	bf69                	j	80003742 <__adddf3+0x3ca>
/Local/xl_ci/toolchain/riscv-gnu-toolchain/riscv-gcc/libgcc/soft-fp/adddf3.c:46 (discriminator 242)
800037aa:	fe050593          	addi	a1,a0,-32 # 7fffe0 <__stack_size+0x7ff7e0>
800037ae:	02000893          	li	a7,32
800037b2:	00b6d5b3          	srl	a1,a3,a1
800037b6:	4601                	li	a2,0
800037b8:	01150763          	beq	a0,a7,800037c6 <__adddf3+0x44e>
/Local/xl_ci/toolchain/riscv-gnu-toolchain/riscv-gcc/libgcc/soft-fp/adddf3.c:46 (discriminator 249)
800037bc:	04000613          	li	a2,64
800037c0:	8e09                	sub	a2,a2,a0
800037c2:	00c69633          	sll	a2,a3,a2
/Local/xl_ci/toolchain/riscv-gnu-toolchain/riscv-gcc/libgcc/soft-fp/adddf3.c:46 (discriminator 252)
800037c6:	01066833          	or	a6,a2,a6
800037ca:	01003833          	snez	a6,a6
800037ce:	0105e833          	or	a6,a1,a6
/Local/xl_ci/toolchain/riscv-gnu-toolchain/riscv-gcc/libgcc/soft-fp/adddf3.c:46 (discriminator 240)
800037d2:	4681                	li	a3,0
800037d4:	bf79                	j	80003772 <__adddf3+0x3fa>
800037d6:	0106e833          	or	a6,a3,a6
800037da:	01003833          	snez	a6,a6
800037de:	bfd5                	j	800037d2 <__adddf3+0x45a>
/Local/xl_ci/toolchain/riscv-gnu-toolchain/riscv-gcc/libgcc/soft-fp/adddf3.c:46 (discriminator 201)
800037e0:	cd75                	beqz	a0,800038dc <__adddf3+0x564>
/Local/xl_ci/toolchain/riscv-gnu-toolchain/riscv-gcc/libgcc/soft-fp/adddf3.c:46 (discriminator 257)
800037e2:	40858633          	sub	a2,a1,s0
800037e6:	e439                	bnez	s0,80003834 <__adddf3+0x4bc>
/Local/xl_ci/toolchain/riscv-gnu-toolchain/riscv-gcc/libgcc/soft-fp/adddf3.c:46 (discriminator 259)
800037e8:	00f76533          	or	a0,a4,a5
800037ec:	e509                	bnez	a0,800037f6 <__adddf3+0x47e>
/Local/xl_ci/toolchain/riscv-gnu-toolchain/riscv-gcc/libgcc/soft-fp/adddf3.c:46 (discriminator 261)
800037ee:	7ff00793          	li	a5,2047
800037f2:	849a                	mv	s1,t1
800037f4:	b319                	j	800034fa <__adddf3+0x182>
/Local/xl_ci/toolchain/riscv-gnu-toolchain/riscv-gcc/libgcc/soft-fp/adddf3.c:46 (discriminator 262)
800037f6:	fff60893          	addi	a7,a2,-1 # 7fffff <__stack_size+0x7ff7ff>
800037fa:	00089c63          	bnez	a7,80003812 <__adddf3+0x49a>
/Local/xl_ci/toolchain/riscv-gnu-toolchain/riscv-gcc/libgcc/soft-fp/adddf3.c:46 (discriminator 271)
800037fe:	40f807b3          	sub	a5,a6,a5
80003802:	00f83833          	sltu	a6,a6,a5
80003806:	8e99                	sub	a3,a3,a4
80003808:	410686b3          	sub	a3,a3,a6
8000380c:	849a                	mv	s1,t1
8000380e:	883e                	mv	a6,a5
80003810:	b71d                	j	80003736 <__adddf3+0x3be>
/Local/xl_ci/toolchain/riscv-gnu-toolchain/riscv-gcc/libgcc/soft-fp/adddf3.c:46 (discriminator 272)
80003812:	7ff00513          	li	a0,2047
80003816:	04a61663          	bne	a2,a0,80003862 <__adddf3+0x4ea>
/Local/xl_ci/toolchain/riscv-gnu-toolchain/riscv-gcc/libgcc/soft-fp/adddf3.c:46 (discriminator 276)
8000381a:	0106e7b3          	or	a5,a3,a6
8000381e:	2e078e63          	beqz	a5,80003b1a <__adddf3+0x7a2>
/Local/xl_ci/toolchain/riscv-gnu-toolchain/riscv-gcc/libgcc/soft-fp/adddf3.c:46 (discriminator 278)
80003822:	004007b7          	lui	a5,0x400
80003826:	8ff5                	and	a5,a5,a3
80003828:	8736                	mv	a4,a3
8000382a:	2e079b63          	bnez	a5,80003b20 <__adddf3+0x7a8>
/Local/xl_ci/toolchain/riscv-gnu-toolchain/riscv-gcc/libgcc/soft-fp/adddf3.c:45
8000382e:	87c2                	mv	a5,a6
/Local/xl_ci/toolchain/riscv-gnu-toolchain/riscv-gcc/libgcc/soft-fp/adddf3.c:46
80003830:	849a                	mv	s1,t1
80003832:	b6ed                	j	8000341c <__adddf3+0xa4>
/Local/xl_ci/toolchain/riscv-gnu-toolchain/riscv-gcc/libgcc/soft-fp/adddf3.c:46 (discriminator 260)
80003834:	7ff00513          	li	a0,2047
80003838:	02a59163          	bne	a1,a0,8000385a <__adddf3+0x4e2>
/Local/xl_ci/toolchain/riscv-gnu-toolchain/riscv-gcc/libgcc/soft-fp/adddf3.c:46 (discriminator 287)
8000383c:	0106e7b3          	or	a5,a3,a6
80003840:	2e078363          	beqz	a5,80003b26 <__adddf3+0x7ae>
/Local/xl_ci/toolchain/riscv-gnu-toolchain/riscv-gcc/libgcc/soft-fp/adddf3.c:46 (discriminator 289)
80003844:	004007b7          	lui	a5,0x400
80003848:	8ff5                	and	a5,a5,a3
8000384a:	8736                	mv	a4,a3
8000384c:	2e079163          	bnez	a5,80003b2e <__adddf3+0x7b6>
/Local/xl_ci/toolchain/riscv-gnu-toolchain/riscv-gcc/libgcc/soft-fp/adddf3.c:45
80003850:	87c2                	mv	a5,a6
/Local/xl_ci/toolchain/riscv-gnu-toolchain/riscv-gcc/libgcc/soft-fp/adddf3.c:46
80003852:	7ff00613          	li	a2,2047
80003856:	849a                	mv	s1,t1
80003858:	b321                	j	80003560 <__adddf3+0x1e8>
/Local/xl_ci/toolchain/riscv-gnu-toolchain/riscv-gcc/libgcc/soft-fp/adddf3.c:46 (discriminator 286)
8000385a:	00800537          	lui	a0,0x800
8000385e:	8f49                	or	a4,a4,a0
80003860:	88b2                	mv	a7,a2
/Local/xl_ci/toolchain/riscv-gnu-toolchain/riscv-gcc/libgcc/soft-fp/adddf3.c:46 (discriminator 295)
80003862:	03800613          	li	a2,56
80003866:	07164763          	blt	a2,a7,800038d4 <__adddf3+0x55c>
/Local/xl_ci/toolchain/riscv-gnu-toolchain/riscv-gcc/libgcc/soft-fp/adddf3.c:46 (discriminator 296)
8000386a:	467d                	li	a2,31
8000386c:	03164f63          	blt	a2,a7,800038aa <__adddf3+0x532>
/Local/xl_ci/toolchain/riscv-gnu-toolchain/riscv-gcc/libgcc/soft-fp/adddf3.c:46 (discriminator 298)
80003870:	02000513          	li	a0,32
80003874:	41150533          	sub	a0,a0,a7
80003878:	00a71633          	sll	a2,a4,a0
8000387c:	0117de33          	srl	t3,a5,a7
80003880:	00a797b3          	sll	a5,a5,a0
80003884:	01c66633          	or	a2,a2,t3
80003888:	00f037b3          	snez	a5,a5
8000388c:	8fd1                	or	a5,a5,a2
8000388e:	01175733          	srl	a4,a4,a7
/Local/xl_ci/toolchain/riscv-gnu-toolchain/riscv-gcc/libgcc/soft-fp/adddf3.c:46 (discriminator 312)
80003892:	40f807b3          	sub	a5,a6,a5
80003896:	40e68733          	sub	a4,a3,a4
8000389a:	00f836b3          	sltu	a3,a6,a5
8000389e:	40d706b3          	sub	a3,a4,a3
800038a2:	883e                	mv	a6,a5
/Local/xl_ci/toolchain/riscv-gnu-toolchain/riscv-gcc/libgcc/soft-fp/adddf3.c:45 (discriminator 312)
800038a4:	862e                	mv	a2,a1
800038a6:	849a                	mv	s1,t1
800038a8:	bde9                	j	80003782 <__adddf3+0x40a>
/Local/xl_ci/toolchain/riscv-gnu-toolchain/riscv-gcc/libgcc/soft-fp/adddf3.c:46 (discriminator 299)
800038aa:	fe088613          	addi	a2,a7,-32
800038ae:	02000e13          	li	t3,32
800038b2:	00c75633          	srl	a2,a4,a2
800038b6:	4501                	li	a0,0
800038b8:	01c88863          	beq	a7,t3,800038c8 <__adddf3+0x550>
/Local/xl_ci/toolchain/riscv-gnu-toolchain/riscv-gcc/libgcc/soft-fp/adddf3.c:46 (discriminator 306)
800038bc:	04000513          	li	a0,64
800038c0:	41150533          	sub	a0,a0,a7
800038c4:	00a71533          	sll	a0,a4,a0
/Local/xl_ci/toolchain/riscv-gnu-toolchain/riscv-gcc/libgcc/soft-fp/adddf3.c:46 (discriminator 309)
800038c8:	8fc9                	or	a5,a5,a0
800038ca:	00f037b3          	snez	a5,a5
800038ce:	8fd1                	or	a5,a5,a2
/Local/xl_ci/toolchain/riscv-gnu-toolchain/riscv-gcc/libgcc/soft-fp/adddf3.c:46 (discriminator 297)
800038d0:	4701                	li	a4,0
800038d2:	b7c1                	j	80003892 <__adddf3+0x51a>
800038d4:	8fd9                	or	a5,a5,a4
800038d6:	00f037b3          	snez	a5,a5
800038da:	bfdd                	j	800038d0 <__adddf3+0x558>
/Local/xl_ci/toolchain/riscv-gnu-toolchain/riscv-gcc/libgcc/soft-fp/adddf3.c:46 (discriminator 258)
800038dc:	00140613          	addi	a2,s0,1
800038e0:	7fe67613          	andi	a2,a2,2046
800038e4:	ea7d                	bnez	a2,800039da <__adddf3+0x662>
/Local/xl_ci/toolchain/riscv-gnu-toolchain/riscv-gcc/libgcc/soft-fp/adddf3.c:46 (discriminator 314)
800038e6:	00f768b3          	or	a7,a4,a5
800038ea:	0106e533          	or	a0,a3,a6
800038ee:	e05d                	bnez	s0,80003994 <__adddf3+0x61c>
/Local/xl_ci/toolchain/riscv-gnu-toolchain/riscv-gcc/libgcc/soft-fp/adddf3.c:46 (discriminator 316)
800038f0:	06089263          	bnez	a7,80003954 <__adddf3+0x5dc>
/Local/xl_ci/toolchain/riscv-gnu-toolchain/riscv-gcc/libgcc/soft-fp/adddf3.c:46 (discriminator 318)
800038f4:	1c051163          	bnez	a0,80003ab6 <__adddf3+0x73e>
/Local/xl_ci/toolchain/riscv-gnu-toolchain/riscv-gcc/libgcc/soft-fp/adddf3.c:46 (discriminator 320)
800038f8:	ffe98493          	addi	s1,s3,-2
800038fc:	0014b493          	seqz	s1,s1
80003900:	4701                	li	a4,0
80003902:	4781                	li	a5,0
/Local/xl_ci/toolchain/riscv-gnu-toolchain/riscv-gcc/libgcc/soft-fp/adddf3.c:47 (discriminator 1)
80003904:	00e7e6b3          	or	a3,a5,a4
80003908:	24068063          	beqz	a3,80003b48 <__adddf3+0x7d0>
/Local/xl_ci/toolchain/riscv-gnu-toolchain/riscv-gcc/libgcc/soft-fp/adddf3.c:47
8000390c:	01f7d693          	srli	a3,a5,0x1f
80003910:	00171413          	slli	s0,a4,0x1
80003914:	9436                	add	s0,s0,a3
80003916:	00179693          	slli	a3,a5,0x1
8000391a:	0076f613          	andi	a2,a3,7
8000391e:	4581                	li	a1,0
80003920:	c605                	beqz	a2,80003948 <__adddf3+0x5d0>
80003922:	4609                	li	a2,2
80003924:	1ac98963          	beq	s3,a2,80003ad6 <__adddf3+0x75e>
80003928:	460d                	li	a2,3
8000392a:	18c98c63          	beq	s3,a2,80003ac2 <__adddf3+0x74a>
8000392e:	4585                	li	a1,1
80003930:	00099c63          	bnez	s3,80003948 <__adddf3+0x5d0>
/Local/xl_ci/toolchain/riscv-gnu-toolchain/riscv-gcc/libgcc/soft-fp/adddf3.c:47 (discriminator 16)
80003934:	00f6f613          	andi	a2,a3,15
80003938:	4511                	li	a0,4
8000393a:	00a60763          	beq	a2,a0,80003948 <__adddf3+0x5d0>
/Local/xl_ci/toolchain/riscv-gnu-toolchain/riscv-gcc/libgcc/soft-fp/adddf3.c:47 (discriminator 20)
8000393e:	ffc6b693          	sltiu	a3,a3,-4
80003942:	0016c693          	xori	a3,a3,1
80003946:	9436                	add	s0,s0,a3
/Local/xl_ci/toolchain/riscv-gnu-toolchain/riscv-gcc/libgcc/soft-fp/adddf3.c:47 (discriminator 23)
80003948:	8061                	srli	s0,s0,0x18
8000394a:	00144413          	xori	s0,s0,1
8000394e:	8805                	andi	s0,s0,1
80003950:	4601                	li	a2,0
80003952:	b1e9                	j	8000361c <__adddf3+0x2a4>
/Local/xl_ci/toolchain/riscv-gnu-toolchain/riscv-gcc/libgcc/soft-fp/adddf3.c:46 (discriminator 319)
80003954:	d945                	beqz	a0,80003904 <__adddf3+0x58c>
/Local/xl_ci/toolchain/riscv-gnu-toolchain/riscv-gcc/libgcc/soft-fp/adddf3.c:46 (discriminator 326)
80003956:	410785b3          	sub	a1,a5,a6
8000395a:	00b7b533          	sltu	a0,a5,a1
8000395e:	40d70633          	sub	a2,a4,a3
80003962:	8e09                	sub	a2,a2,a0
80003964:	00800537          	lui	a0,0x800
80003968:	8d71                	and	a0,a0,a2
8000396a:	c919                	beqz	a0,80003980 <__adddf3+0x608>
/Local/xl_ci/toolchain/riscv-gnu-toolchain/riscv-gcc/libgcc/soft-fp/adddf3.c:46 (discriminator 328)
8000396c:	40f807b3          	sub	a5,a6,a5
80003970:	40e68733          	sub	a4,a3,a4
80003974:	00f83833          	sltu	a6,a6,a5
80003978:	41070733          	sub	a4,a4,a6
8000397c:	849a                	mv	s1,t1
8000397e:	b759                	j	80003904 <__adddf3+0x58c>
/Local/xl_ci/toolchain/riscv-gnu-toolchain/riscv-gcc/libgcc/soft-fp/adddf3.c:46 (discriminator 329)
80003980:	00c5e7b3          	or	a5,a1,a2
80003984:	12079c63          	bnez	a5,80003abc <__adddf3+0x744>
/Local/xl_ci/toolchain/riscv-gnu-toolchain/riscv-gcc/libgcc/soft-fp/adddf3.c:46 (discriminator 369)
80003988:	ffe98493          	addi	s1,s3,-2
8000398c:	0014b493          	seqz	s1,s1
/Local/xl_ci/toolchain/riscv-gnu-toolchain/riscv-gcc/libgcc/soft-fp/adddf3.c:46 (discriminator 417)
80003990:	4701                	li	a4,0
80003992:	bf8d                	j	80003904 <__adddf3+0x58c>
/Local/xl_ci/toolchain/riscv-gnu-toolchain/riscv-gcc/libgcc/soft-fp/adddf3.c:46 (discriminator 317)
80003994:	7ff00613          	li	a2,2047
80003998:	00c41e63          	bne	s0,a2,800039b4 <__adddf3+0x63c>
/Local/xl_ci/toolchain/riscv-gnu-toolchain/riscv-gcc/libgcc/soft-fp/adddf3.c:46 (discriminator 335)
8000399c:	26088763          	beqz	a7,80003c0a <__adddf3+0x892>
/Local/xl_ci/toolchain/riscv-gnu-toolchain/riscv-gcc/libgcc/soft-fp/adddf3.c:46 (discriminator 337)
800039a0:	00400637          	lui	a2,0x400
800039a4:	8e79                	and	a2,a2,a4
/Local/xl_ci/toolchain/riscv-gnu-toolchain/riscv-gcc/libgcc/soft-fp/adddf3.c:37 (discriminator 337)
800039a6:	00163613          	seqz	a2,a2
800039aa:	0612                	slli	a2,a2,0x4
/Local/xl_ci/toolchain/riscv-gnu-toolchain/riscv-gcc/libgcc/soft-fp/adddf3.c:46 (discriminator 337)
800039ac:	26859363          	bne	a1,s0,80003c12 <__adddf3+0x89a>
/Local/xl_ci/toolchain/riscv-gnu-toolchain/riscv-gcc/libgcc/soft-fp/adddf3.c:46
800039b0:	85b2                	mv	a1,a2
800039b2:	a021                	j	800039ba <__adddf3+0x642>
/Local/xl_ci/toolchain/riscv-gnu-toolchain/riscv-gcc/libgcc/soft-fp/adddf3.c:46 (discriminator 341)
800039b4:	02c59163          	bne	a1,a2,800039d6 <__adddf3+0x65e>
/Local/xl_ci/toolchain/riscv-gnu-toolchain/riscv-gcc/libgcc/soft-fp/adddf3.c:37
800039b8:	4581                	li	a1,0
/Local/xl_ci/toolchain/riscv-gnu-toolchain/riscv-gcc/libgcc/soft-fp/adddf3.c:46 (discriminator 342)
800039ba:	c511                	beqz	a0,800039c6 <__adddf3+0x64e>
/Local/xl_ci/toolchain/riscv-gnu-toolchain/riscv-gcc/libgcc/soft-fp/adddf3.c:46 (discriminator 344)
800039bc:	00400637          	lui	a2,0x400
800039c0:	8e75                	and	a2,a2,a3
800039c2:	e211                	bnez	a2,800039c6 <__adddf3+0x64e>
/Local/xl_ci/toolchain/riscv-gnu-toolchain/riscv-gcc/libgcc/soft-fp/adddf3.c:46
800039c4:	45c1                	li	a1,16
/Local/xl_ci/toolchain/riscv-gnu-toolchain/riscv-gcc/libgcc/soft-fp/adddf3.c:46 (discriminator 348)
800039c6:	24089763          	bnez	a7,80003c14 <__adddf3+0x89c>
/Local/xl_ci/toolchain/riscv-gnu-toolchain/riscv-gcc/libgcc/soft-fp/adddf3.c:46 (discriminator 349)
800039ca:	16050763          	beqz	a0,80003b38 <__adddf3+0x7c0>
/Local/xl_ci/toolchain/riscv-gnu-toolchain/riscv-gcc/libgcc/soft-fp/adddf3.c:45
800039ce:	8736                	mv	a4,a3
800039d0:	87c2                	mv	a5,a6
/Local/xl_ci/toolchain/riscv-gnu-toolchain/riscv-gcc/libgcc/soft-fp/adddf3.c:46
800039d2:	849a                	mv	s1,t1
800039d4:	b959                	j	8000366a <__adddf3+0x2f2>
/Local/xl_ci/toolchain/riscv-gnu-toolchain/riscv-gcc/libgcc/soft-fp/adddf3.c:37
800039d6:	4581                	li	a1,0
800039d8:	b7fd                	j	800039c6 <__adddf3+0x64e>
/Local/xl_ci/toolchain/riscv-gnu-toolchain/riscv-gcc/libgcc/soft-fp/adddf3.c:46 (discriminator 315)
800039da:	41078a33          	sub	s4,a5,a6
800039de:	0147b633          	sltu	a2,a5,s4
800039e2:	40d70933          	sub	s2,a4,a3
800039e6:	40c90933          	sub	s2,s2,a2
800039ea:	00800637          	lui	a2,0x800
800039ee:	00c97633          	and	a2,s2,a2
800039f2:	c62d                	beqz	a2,80003a5c <__adddf3+0x6e4>
/Local/xl_ci/toolchain/riscv-gnu-toolchain/riscv-gcc/libgcc/soft-fp/adddf3.c:46 (discriminator 366)
800039f4:	40f80a33          	sub	s4,a6,a5
800039f8:	8e99                	sub	a3,a3,a4
800039fa:	01483833          	sltu	a6,a6,s4
800039fe:	41068933          	sub	s2,a3,a6
80003a02:	849a                	mv	s1,t1
/Local/xl_ci/toolchain/riscv-gnu-toolchain/riscv-gcc/libgcc/soft-fp/adddf3.c:46 (discriminator 375)
80003a04:	06090063          	beqz	s2,80003a64 <__adddf3+0x6ec>
/Local/xl_ci/toolchain/riscv-gnu-toolchain/riscv-gcc/libgcc/soft-fp/adddf3.c:46 (discriminator 378)
80003a08:	854a                	mv	a0,s2
80003a0a:	2dd000ef          	jal	ra,800044e6 <__clzsi2>
/Local/xl_ci/toolchain/riscv-gnu-toolchain/riscv-gcc/libgcc/soft-fp/adddf3.c:46 (discriminator 392)
80003a0e:	ff850613          	addi	a2,a0,-8 # 7ffff8 <__stack_size+0x7ff7f8>
80003a12:	47fd                	li	a5,31
80003a14:	04c7ce63          	blt	a5,a2,80003a70 <__adddf3+0x6f8>
/Local/xl_ci/toolchain/riscv-gnu-toolchain/riscv-gcc/libgcc/soft-fp/adddf3.c:46 (discriminator 398)
80003a18:	02000693          	li	a3,32
80003a1c:	8e91                	sub	a3,a3,a2
80003a1e:	00c91733          	sll	a4,s2,a2
80003a22:	00da56b3          	srl	a3,s4,a3
80003a26:	8ed9                	or	a3,a3,a4
80003a28:	00ca1833          	sll	a6,s4,a2
/Local/xl_ci/toolchain/riscv-gnu-toolchain/riscv-gcc/libgcc/soft-fp/adddf3.c:46 (discriminator 402)
80003a2c:	06864b63          	blt	a2,s0,80003aa2 <__adddf3+0x72a>
/Local/xl_ci/toolchain/riscv-gnu-toolchain/riscv-gcc/libgcc/soft-fp/adddf3.c:46 (discriminator 403)
80003a30:	8e01                	sub	a2,a2,s0
80003a32:	00160713          	addi	a4,a2,1 # 800001 <__stack_size+0x7ff801>
80003a36:	47fd                	li	a5,31
80003a38:	04e7c263          	blt	a5,a4,80003a7c <__adddf3+0x704>
/Local/xl_ci/toolchain/riscv-gnu-toolchain/riscv-gcc/libgcc/soft-fp/adddf3.c:46 (discriminator 405)
80003a3c:	02000613          	li	a2,32
80003a40:	8e19                	sub	a2,a2,a4
80003a42:	00c697b3          	sll	a5,a3,a2
80003a46:	00e85533          	srl	a0,a6,a4
80003a4a:	00c81633          	sll	a2,a6,a2
80003a4e:	8fc9                	or	a5,a5,a0
80003a50:	00c03633          	snez	a2,a2
80003a54:	8fd1                	or	a5,a5,a2
80003a56:	00e6d733          	srl	a4,a3,a4
80003a5a:	b56d                	j	80003904 <__adddf3+0x58c>
/Local/xl_ci/toolchain/riscv-gnu-toolchain/riscv-gcc/libgcc/soft-fp/adddf3.c:46 (discriminator 367)
80003a5c:	012a67b3          	or	a5,s4,s2
80003a60:	f3d5                	bnez	a5,80003a04 <__adddf3+0x68c>
80003a62:	b71d                	j	80003988 <__adddf3+0x610>
/Local/xl_ci/toolchain/riscv-gnu-toolchain/riscv-gcc/libgcc/soft-fp/adddf3.c:46 (discriminator 385)
80003a64:	8552                	mv	a0,s4
80003a66:	281000ef          	jal	ra,800044e6 <__clzsi2>
80003a6a:	02050513          	addi	a0,a0,32
80003a6e:	b745                	j	80003a0e <__adddf3+0x696>
/Local/xl_ci/toolchain/riscv-gnu-toolchain/riscv-gcc/libgcc/soft-fp/adddf3.c:46 (discriminator 394)
80003a70:	fd850693          	addi	a3,a0,-40
80003a74:	00da16b3          	sll	a3,s4,a3
80003a78:	4801                	li	a6,0
80003a7a:	bf4d                	j	80003a2c <__adddf3+0x6b4>
/Local/xl_ci/toolchain/riscv-gnu-toolchain/riscv-gcc/libgcc/soft-fp/adddf3.c:46 (discriminator 406)
80003a7c:	1605                	addi	a2,a2,-31
80003a7e:	02000593          	li	a1,32
80003a82:	00c6d633          	srl	a2,a3,a2
80003a86:	4781                	li	a5,0
80003a88:	00b70763          	beq	a4,a1,80003a96 <__adddf3+0x71e>
/Local/xl_ci/toolchain/riscv-gnu-toolchain/riscv-gcc/libgcc/soft-fp/adddf3.c:46 (discriminator 414)
80003a8c:	04000793          	li	a5,64
80003a90:	8f99                	sub	a5,a5,a4
80003a92:	00f697b3          	sll	a5,a3,a5
/Local/xl_ci/toolchain/riscv-gnu-toolchain/riscv-gcc/libgcc/soft-fp/adddf3.c:46 (discriminator 417)
80003a96:	00f867b3          	or	a5,a6,a5
80003a9a:	00f037b3          	snez	a5,a5
80003a9e:	8fd1                	or	a5,a5,a2
80003aa0:	bdc5                	j	80003990 <__adddf3+0x618>
/Local/xl_ci/toolchain/riscv-gnu-toolchain/riscv-gcc/libgcc/soft-fp/adddf3.c:46 (discriminator 404)
80003aa2:	ff8007b7          	lui	a5,0xff800
80003aa6:	17fd                	addi	a5,a5,-1
80003aa8:	40c40633          	sub	a2,s0,a2
80003aac:	8efd                	and	a3,a3,a5
80003aae:	bc81                	j	800034fe <__adddf3+0x186>
/Local/xl_ci/toolchain/riscv-gnu-toolchain/riscv-gcc/libgcc/soft-fp/adddf3.c:45
80003ab0:	8736                	mv	a4,a3
/Local/xl_ci/toolchain/riscv-gnu-toolchain/riscv-gcc/libgcc/soft-fp/adddf3.c:46
80003ab2:	87c2                	mv	a5,a6
80003ab4:	bd81                	j	80003904 <__adddf3+0x58c>
/Local/xl_ci/toolchain/riscv-gnu-toolchain/riscv-gcc/libgcc/soft-fp/adddf3.c:45
80003ab6:	8736                	mv	a4,a3
80003ab8:	87c2                	mv	a5,a6
80003aba:	b5c9                	j	8000397c <__adddf3+0x604>
80003abc:	8732                	mv	a4,a2
/Local/xl_ci/toolchain/riscv-gnu-toolchain/riscv-gcc/libgcc/soft-fp/adddf3.c:46
80003abe:	87ae                	mv	a5,a1
80003ac0:	b591                	j	80003904 <__adddf3+0x58c>
/Local/xl_ci/toolchain/riscv-gnu-toolchain/riscv-gcc/libgcc/soft-fp/adddf3.c:47 (discriminator 19)
80003ac2:	85a6                	mv	a1,s1
80003ac4:	e80492e3          	bnez	s1,80003948 <__adddf3+0x5d0>
/Local/xl_ci/toolchain/riscv-gnu-toolchain/riscv-gcc/libgcc/soft-fp/adddf3.c:47 (discriminator 26)
80003ac8:	ff86b693          	sltiu	a3,a3,-8
80003acc:	0016c693          	xori	a3,a3,1
80003ad0:	9436                	add	s0,s0,a3
80003ad2:	4585                	li	a1,1
80003ad4:	bd95                	j	80003948 <__adddf3+0x5d0>
/Local/xl_ci/toolchain/riscv-gnu-toolchain/riscv-gcc/libgcc/soft-fp/adddf3.c:47 (discriminator 18)
80003ad6:	4585                	li	a1,1
80003ad8:	e60488e3          	beqz	s1,80003948 <__adddf3+0x5d0>
/Local/xl_ci/toolchain/riscv-gnu-toolchain/riscv-gcc/libgcc/soft-fp/adddf3.c:47 (discriminator 31)
80003adc:	ff86b693          	sltiu	a3,a3,-8
80003ae0:	0016c693          	xori	a3,a3,1
80003ae4:	9436                	add	s0,s0,a3
80003ae6:	85a6                	mv	a1,s1
80003ae8:	b585                	j	80003948 <__adddf3+0x5d0>
80003aea:	4701                	li	a4,0
/Local/xl_ci/toolchain/riscv-gnu-toolchain/riscv-gcc/libgcc/soft-fp/adddf3.c:46
80003aec:	7ff00613          	li	a2,2047
80003af0:	4581                	li	a1,0
80003af2:	a06d                	j	80003b9c <__adddf3+0x824>
/Local/xl_ci/toolchain/riscv-gnu-toolchain/riscv-gcc/libgcc/soft-fp/adddf3.c:45
80003af4:	87c2                	mv	a5,a6
80003af6:	b291                	j	8000343a <__adddf3+0xc2>
/Local/xl_ci/toolchain/riscv-gnu-toolchain/riscv-gcc/libgcc/soft-fp/adddf3.c:46
80003af8:	577d                	li	a4,-1
80003afa:	57fd                	li	a5,-1
80003afc:	7fe00613          	li	a2,2046
/Local/xl_ci/toolchain/riscv-gnu-toolchain/riscv-gcc/libgcc/soft-fp/adddf3.c:47
80003b00:	4401                	li	s0,0
80003b02:	b6d1                	j	800036c6 <__adddf3+0x34e>
80003b04:	4701                	li	a4,0
80003b06:	4781                	li	a5,0
80003b08:	a851                	j	80003b9c <__adddf3+0x824>
80003b0a:	4701                	li	a4,0
80003b0c:	4781                	li	a5,0
80003b0e:	bff9                	j	80003aec <__adddf3+0x774>
80003b10:	4701                	li	a4,0
80003b12:	bff9                	j	80003af0 <__adddf3+0x778>
/Local/xl_ci/toolchain/riscv-gnu-toolchain/riscv-gcc/libgcc/soft-fp/adddf3.c:45
80003b14:	87c2                	mv	a5,a6
/Local/xl_ci/toolchain/riscv-gnu-toolchain/riscv-gcc/libgcc/soft-fp/adddf3.c:47
80003b16:	4581                	li	a1,0
80003b18:	b611                	j	8000361c <__adddf3+0x2a4>
80003b1a:	4701                	li	a4,0
80003b1c:	849a                	mv	s1,t1
80003b1e:	bfc9                	j	80003af0 <__adddf3+0x778>
/Local/xl_ci/toolchain/riscv-gnu-toolchain/riscv-gcc/libgcc/soft-fp/adddf3.c:45
80003b20:	87c2                	mv	a5,a6
80003b22:	849a                	mv	s1,t1
80003b24:	bfcd                	j	80003b16 <__adddf3+0x79e>
80003b26:	4701                	li	a4,0
/Local/xl_ci/toolchain/riscv-gnu-toolchain/riscv-gcc/libgcc/soft-fp/adddf3.c:46
80003b28:	7ff00613          	li	a2,2047
80003b2c:	bfc5                	j	80003b1c <__adddf3+0x7a4>
/Local/xl_ci/toolchain/riscv-gnu-toolchain/riscv-gcc/libgcc/soft-fp/adddf3.c:45
80003b2e:	87c2                	mv	a5,a6
/Local/xl_ci/toolchain/riscv-gnu-toolchain/riscv-gcc/libgcc/soft-fp/adddf3.c:46
80003b30:	7ff00613          	li	a2,2047
80003b34:	849a                	mv	s1,t1
80003b36:	b6a5                	j	8000369e <__adddf3+0x326>
80003b38:	4781                	li	a5,0
80003b3a:	4481                	li	s1,0
80003b3c:	00400737          	lui	a4,0x400
80003b40:	7ff00613          	li	a2,2047
80003b44:	45c1                	li	a1,16
80003b46:	a899                	j	80003b9c <__adddf3+0x824>
80003b48:	4701                	li	a4,0
80003b4a:	4781                	li	a5,0
80003b4c:	4601                	li	a2,0
80003b4e:	b74d                	j	80003af0 <__adddf3+0x778>
/Local/xl_ci/toolchain/riscv-gnu-toolchain/riscv-gcc/libgcc/soft-fp/adddf3.c:47 (discriminator 43)
80003b50:	e489                	bnez	s1,80003b5a <__adddf3+0x7e2>
/Local/xl_ci/toolchain/riscv-gnu-toolchain/riscv-gcc/libgcc/soft-fp/adddf3.c:47 (discriminator 55)
80003b52:	00878693          	addi	a3,a5,8 # ff800008 <_sp+0x6f7f0008>
80003b56:	be51                	j	800036ea <__adddf3+0x372>
/Local/xl_ci/toolchain/riscv-gnu-toolchain/riscv-gcc/libgcc/soft-fp/adddf3.c:47 (discriminator 42)
80003b58:	fced                	bnez	s1,80003b52 <__adddf3+0x7da>
/Local/xl_ci/toolchain/riscv-gnu-toolchain/riscv-gcc/libgcc/soft-fp/adddf3.c:47
80003b5a:	ac041ae3          	bnez	s0,8000362e <__adddf3+0x2b6>
80003b5e:	a83d                	j	80003b9c <__adddf3+0x824>
/Local/xl_ci/toolchain/riscv-gnu-toolchain/riscv-gcc/libgcc/soft-fp/adddf3.c:47 (discriminator 65)
80003b60:	4781                	li	a5,0
80003b62:	00098e63          	beqz	s3,80003b7e <__adddf3+0x806>
/Local/xl_ci/toolchain/riscv-gnu-toolchain/riscv-gcc/libgcc/soft-fp/adddf3.c:47 (discriminator 68)
80003b66:	470d                	li	a4,3
80003b68:	00e99763          	bne	s3,a4,80003b76 <__adddf3+0x7fe>
/Local/xl_ci/toolchain/riscv-gnu-toolchain/riscv-gcc/libgcc/soft-fp/adddf3.c:47 (discriminator 69)
80003b6c:	c889                	beqz	s1,80003b7e <__adddf3+0x806>
/Local/xl_ci/toolchain/riscv-gnu-toolchain/riscv-gcc/libgcc/soft-fp/adddf3.c:47
80003b6e:	57fd                	li	a5,-1
80003b70:	7fe00613          	li	a2,2046
80003b74:	a029                	j	80003b7e <__adddf3+0x806>
/Local/xl_ci/toolchain/riscv-gnu-toolchain/riscv-gcc/libgcc/soft-fp/adddf3.c:47 (discriminator 72)
80003b76:	4709                	li	a4,2
80003b78:	fee99be3          	bne	s3,a4,80003b6e <__adddf3+0x7f6>
/Local/xl_ci/toolchain/riscv-gnu-toolchain/riscv-gcc/libgcc/soft-fp/adddf3.c:47 (discriminator 73)
80003b7c:	d8ed                	beqz	s1,80003b6e <__adddf3+0x7f6>
/Local/xl_ci/toolchain/riscv-gnu-toolchain/riscv-gcc/libgcc/soft-fp/adddf3.c:47 (discriminator 78)
80003b7e:	0055e593          	ori	a1,a1,5
80003b82:	873e                	mv	a4,a5
80003b84:	a80d                	j	80003bb6 <__adddf3+0x83e>
/Local/xl_ci/toolchain/riscv-gnu-toolchain/riscv-gcc/libgcc/soft-fp/adddf3.c:46
80003b86:	85b2                	mv	a1,a2
/Local/xl_ci/toolchain/riscv-gnu-toolchain/riscv-gcc/libgcc/soft-fp/adddf3.c:46 (discriminator 155)
80003b88:	0106e6b3          	or	a3,a3,a6
80003b8c:	ac068fe3          	beqz	a3,8000366a <__adddf3+0x2f2>
/Local/xl_ci/toolchain/riscv-gnu-toolchain/riscv-gcc/libgcc/soft-fp/adddf3.c:46
80003b90:	4481                	li	s1,0
80003b92:	00400737          	lui	a4,0x400
80003b96:	4781                	li	a5,0
80003b98:	7ff00613          	li	a2,2047
/Local/xl_ci/toolchain/riscv-gnu-toolchain/riscv-gcc/libgcc/soft-fp/adddf3.c:47 (discriminator 62)
80003b9c:	008006b7          	lui	a3,0x800
80003ba0:	8ef9                	and	a3,a3,a4
80003ba2:	ca91                	beqz	a3,80003bb6 <__adddf3+0x83e>
/Local/xl_ci/toolchain/riscv-gnu-toolchain/riscv-gcc/libgcc/soft-fp/adddf3.c:47 (discriminator 63)
80003ba4:	0605                	addi	a2,a2,1
80003ba6:	7ff00693          	li	a3,2047
80003baa:	fad60be3          	beq	a2,a3,80003b60 <__adddf3+0x7e8>
/Local/xl_ci/toolchain/riscv-gnu-toolchain/riscv-gcc/libgcc/soft-fp/adddf3.c:47
80003bae:	ff8006b7          	lui	a3,0xff800
80003bb2:	16fd                	addi	a3,a3,-1
80003bb4:	8f75                	and	a4,a4,a3
/Local/xl_ci/toolchain/riscv-gnu-toolchain/riscv-gcc/libgcc/soft-fp/adddf3.c:47 (discriminator 79)
80003bb6:	0037d513          	srli	a0,a5,0x3
80003bba:	7ff00693          	li	a3,2047
80003bbe:	01d71793          	slli	a5,a4,0x1d
80003bc2:	8fc9                	or	a5,a5,a0
80003bc4:	830d                	srli	a4,a4,0x3
80003bc6:	00d61963          	bne	a2,a3,80003bd8 <__adddf3+0x860>
/Local/xl_ci/toolchain/riscv-gnu-toolchain/riscv-gcc/libgcc/soft-fp/adddf3.c:47 (discriminator 80)
80003bca:	8fd9                	or	a5,a5,a4
80003bcc:	4701                	li	a4,0
80003bce:	c789                	beqz	a5,80003bd8 <__adddf3+0x860>
/Local/xl_ci/toolchain/riscv-gnu-toolchain/riscv-gcc/libgcc/soft-fp/adddf3.c:47
80003bd0:	00080737          	lui	a4,0x80
80003bd4:	4781                	li	a5,0
80003bd6:	4481                	li	s1,0
/Local/xl_ci/toolchain/riscv-gnu-toolchain/riscv-gcc/libgcc/soft-fp/adddf3.c:47 (discriminator 90)
80003bd8:	7ff006b7          	lui	a3,0x7ff00
80003bdc:	0652                	slli	a2,a2,0x14
80003bde:	0732                	slli	a4,a4,0xc
80003be0:	8e75                	and	a2,a2,a3
80003be2:	8331                	srli	a4,a4,0xc
80003be4:	8f51                	or	a4,a4,a2
80003be6:	04fe                	slli	s1,s1,0x1f
80003be8:	009766b3          	or	a3,a4,s1
80003bec:	873e                	mv	a4,a5
80003bee:	87b6                	mv	a5,a3
/Local/xl_ci/toolchain/riscv-gnu-toolchain/riscv-gcc/libgcc/soft-fp/adddf3.c:48 (discriminator 90)
80003bf0:	c199                	beqz	a1,80003bf6 <__adddf3+0x87e>
/Local/xl_ci/toolchain/riscv-gnu-toolchain/riscv-gcc/libgcc/soft-fp/adddf3.c:48 (discriminator 1)
80003bf2:	0015a073          	csrs	fflags,a1
/Local/xl_ci/toolchain/riscv-gnu-toolchain/riscv-gcc/libgcc/soft-fp/adddf3.c:51
80003bf6:	40f2                	lw	ra,28(sp)
80003bf8:	4462                	lw	s0,24(sp)
80003bfa:	44d2                	lw	s1,20(sp)
80003bfc:	4942                	lw	s2,16(sp)
80003bfe:	49b2                	lw	s3,12(sp)
80003c00:	4a22                	lw	s4,8(sp)
80003c02:	853a                	mv	a0,a4
80003c04:	85be                	mv	a1,a5
80003c06:	6105                	addi	sp,sp,32
80003c08:	8082                	ret
/Local/xl_ci/toolchain/riscv-gnu-toolchain/riscv-gcc/libgcc/soft-fp/adddf3.c:46
80003c0a:	da8587e3          	beq	a1,s0,800039b8 <__adddf3+0x640>
/Local/xl_ci/toolchain/riscv-gnu-toolchain/riscv-gcc/libgcc/soft-fp/adddf3.c:37
80003c0e:	4581                	li	a1,0
80003c10:	bb6d                	j	800039ca <__adddf3+0x652>
/Local/xl_ci/toolchain/riscv-gnu-toolchain/riscv-gcc/libgcc/soft-fp/adddf3.c:46
80003c12:	85b2                	mv	a1,a2
/Local/xl_ci/toolchain/riscv-gnu-toolchain/riscv-gcc/libgcc/soft-fp/adddf3.c:46 (discriminator 350)
80003c14:	a4050be3          	beqz	a0,8000366a <__adddf3+0x2f2>
80003c18:	bfa5                	j	80003b90 <__adddf3+0x818>
/Local/xl_ci/toolchain/riscv-gnu-toolchain/riscv-gcc/libgcc/soft-fp/adddf3.c:46
80003c1a:	a4858ee3          	beq	a1,s0,80003676 <__adddf3+0x2fe>
80003c1e:	4581                	li	a1,0
80003c20:	b499                	j	80003666 <__adddf3+0x2ee>

80003c22 <__muldf3>:
__muldf3():
/Local/xl_ci/toolchain/riscv-gnu-toolchain/riscv-gcc/libgcc/soft-fp/muldf3.c:36
80003c22:	7179                	addi	sp,sp,-48
80003c24:	d422                	sw	s0,40(sp)
80003c26:	ca56                	sw	s5,20(sp)
80003c28:	c266                	sw	s9,4(sp)
80003c2a:	d606                	sw	ra,44(sp)
80003c2c:	d226                	sw	s1,36(sp)
80003c2e:	d04a                	sw	s2,32(sp)
80003c30:	ce4e                	sw	s3,28(sp)
80003c32:	cc52                	sw	s4,24(sp)
80003c34:	c85a                	sw	s6,16(sp)
80003c36:	c65e                	sw	s7,12(sp)
80003c38:	c462                	sw	s8,8(sp)
80003c3a:	842a                	mv	s0,a0
80003c3c:	8cb2                	mv	s9,a2
80003c3e:	8ab6                	mv	s5,a3
/Local/xl_ci/toolchain/riscv-gnu-toolchain/riscv-gcc/libgcc/soft-fp/muldf3.c:43
80003c40:	00202973          	frrm	s2
/Local/xl_ci/toolchain/riscv-gnu-toolchain/riscv-gcc/libgcc/soft-fp/muldf3.c:44
80003c44:	0145db93          	srli	s7,a1,0x14
80003c48:	00c59993          	slli	s3,a1,0xc
80003c4c:	7ffbfb93          	andi	s7,s7,2047
80003c50:	00c9d993          	srli	s3,s3,0xc
80003c54:	01f5db13          	srli	s6,a1,0x1f
80003c58:	020b8663          	beqz	s7,80003c84 <__muldf3+0x62>
80003c5c:	7ff00793          	li	a5,2047
80003c60:	06fb8b63          	beq	s7,a5,80003cd6 <__muldf3+0xb4>
/Local/xl_ci/toolchain/riscv-gnu-toolchain/riscv-gcc/libgcc/soft-fp/muldf3.c:44 (discriminator 1)
80003c64:	01d55793          	srli	a5,a0,0x1d
80003c68:	098e                	slli	s3,s3,0x3
80003c6a:	0137e9b3          	or	s3,a5,s3
80003c6e:	008007b7          	lui	a5,0x800
80003c72:	00f9e9b3          	or	s3,s3,a5
80003c76:	00351a13          	slli	s4,a0,0x3
80003c7a:	c01b8b93          	addi	s7,s7,-1023
/Local/xl_ci/toolchain/riscv-gnu-toolchain/riscv-gcc/libgcc/soft-fp/muldf3.c:44 (discriminator 41)
80003c7e:	4c01                	li	s8,0
/Local/xl_ci/toolchain/riscv-gnu-toolchain/riscv-gcc/libgcc/soft-fp/muldf3.c:37
80003c80:	4481                	li	s1,0
80003c82:	a0bd                	j	80003cf0 <__muldf3+0xce>
/Local/xl_ci/toolchain/riscv-gnu-toolchain/riscv-gcc/libgcc/soft-fp/muldf3.c:44 (discriminator 2)
80003c84:	00a9e7b3          	or	a5,s3,a0
80003c88:	c7e1                	beqz	a5,80003d50 <__muldf3+0x12e>
/Local/xl_ci/toolchain/riscv-gnu-toolchain/riscv-gcc/libgcc/soft-fp/muldf3.c:44 (discriminator 13)
80003c8a:	02098b63          	beqz	s3,80003cc0 <__muldf3+0x9e>
/Local/xl_ci/toolchain/riscv-gnu-toolchain/riscv-gcc/libgcc/soft-fp/muldf3.c:44 (discriminator 17)
80003c8e:	854e                	mv	a0,s3
80003c90:	057000ef          	jal	ra,800044e6 <__clzsi2>
/Local/xl_ci/toolchain/riscv-gnu-toolchain/riscv-gcc/libgcc/soft-fp/muldf3.c:44 (discriminator 31)
80003c94:	ff550713          	addi	a4,a0,-11
80003c98:	47f1                	li	a5,28
80003c9a:	02e7c863          	blt	a5,a4,80003cca <__muldf3+0xa8>
/Local/xl_ci/toolchain/riscv-gnu-toolchain/riscv-gcc/libgcc/soft-fp/muldf3.c:44 (discriminator 32)
80003c9e:	47f5                	li	a5,29
80003ca0:	ff850a13          	addi	s4,a0,-8
80003ca4:	8f99                	sub	a5,a5,a4
80003ca6:	014999b3          	sll	s3,s3,s4
80003caa:	00f457b3          	srl	a5,s0,a5
80003cae:	0137e9b3          	or	s3,a5,s3
80003cb2:	01441a33          	sll	s4,s0,s4
/Local/xl_ci/toolchain/riscv-gnu-toolchain/riscv-gcc/libgcc/soft-fp/muldf3.c:44 (discriminator 41)
80003cb6:	c0d00b93          	li	s7,-1011
80003cba:	40ab8bb3          	sub	s7,s7,a0
80003cbe:	b7c1                	j	80003c7e <__muldf3+0x5c>
/Local/xl_ci/toolchain/riscv-gnu-toolchain/riscv-gcc/libgcc/soft-fp/muldf3.c:44 (discriminator 24)
80003cc0:	027000ef          	jal	ra,800044e6 <__clzsi2>
80003cc4:	02050513          	addi	a0,a0,32
80003cc8:	b7f1                	j	80003c94 <__muldf3+0x72>
/Local/xl_ci/toolchain/riscv-gnu-toolchain/riscv-gcc/libgcc/soft-fp/muldf3.c:44 (discriminator 33)
80003cca:	fd850993          	addi	s3,a0,-40
80003cce:	013419b3          	sll	s3,s0,s3
80003cd2:	4a01                	li	s4,0
80003cd4:	b7cd                	j	80003cb6 <__muldf3+0x94>
/Local/xl_ci/toolchain/riscv-gnu-toolchain/riscv-gcc/libgcc/soft-fp/muldf3.c:44 (discriminator 3)
80003cd6:	00a9e433          	or	s0,s3,a0
80003cda:	c041                	beqz	s0,80003d5a <__muldf3+0x138>
/Local/xl_ci/toolchain/riscv-gnu-toolchain/riscv-gcc/libgcc/soft-fp/muldf3.c:44 (discriminator 44)
80003cdc:	000807b7          	lui	a5,0x80
80003ce0:	00f9f7b3          	and	a5,s3,a5
80003ce4:	8a2a                	mv	s4,a0
80003ce6:	7ff00b93          	li	s7,2047
80003cea:	4c0d                	li	s8,3
80003cec:	44c1                	li	s1,16
80003cee:	fbc9                	bnez	a5,80003c80 <__muldf3+0x5e>
/Local/xl_ci/toolchain/riscv-gnu-toolchain/riscv-gcc/libgcc/soft-fp/muldf3.c:45 (discriminator 8)
80003cf0:	014ad513          	srli	a0,s5,0x14
80003cf4:	00ca9413          	slli	s0,s5,0xc
80003cf8:	7ff57513          	andi	a0,a0,2047
80003cfc:	87e6                	mv	a5,s9
80003cfe:	8031                	srli	s0,s0,0xc
80003d00:	01fada93          	srli	s5,s5,0x1f
80003d04:	c12d                	beqz	a0,80003d66 <__muldf3+0x144>
/Local/xl_ci/toolchain/riscv-gnu-toolchain/riscv-gcc/libgcc/soft-fp/muldf3.c:45
80003d06:	7ff00713          	li	a4,2047
80003d0a:	0ae50463          	beq	a0,a4,80003db2 <__muldf3+0x190>
/Local/xl_ci/toolchain/riscv-gnu-toolchain/riscv-gcc/libgcc/soft-fp/muldf3.c:45 (discriminator 1)
80003d0e:	01dcd793          	srli	a5,s9,0x1d
80003d12:	040e                	slli	s0,s0,0x3
80003d14:	8c5d                	or	s0,s0,a5
80003d16:	008007b7          	lui	a5,0x800
80003d1a:	8c5d                	or	s0,s0,a5
80003d1c:	c0150513          	addi	a0,a0,-1023
80003d20:	003c9793          	slli	a5,s9,0x3
/Local/xl_ci/toolchain/riscv-gnu-toolchain/riscv-gcc/libgcc/soft-fp/muldf3.c:45 (discriminator 41)
80003d24:	4701                	li	a4,0
/Local/xl_ci/toolchain/riscv-gnu-toolchain/riscv-gcc/libgcc/soft-fp/muldf3.c:46 (discriminator 8)
80003d26:	002c1693          	slli	a3,s8,0x2
80003d2a:	8ed9                	or	a3,a3,a4
80003d2c:	9baa                	add	s7,s7,a0
80003d2e:	16fd                	addi	a3,a3,-1
80003d30:	4639                	li	a2,14
80003d32:	015b45b3          	xor	a1,s6,s5
80003d36:	001b8513          	addi	a0,s7,1
80003d3a:	0ed66863          	bltu	a2,a3,80003e2a <__muldf3+0x208>
80003d3e:	00006617          	auipc	a2,0x6
80003d42:	8c660613          	addi	a2,a2,-1850 # 80009604 <init_jk+0xc>
80003d46:	068a                	slli	a3,a3,0x2
80003d48:	96b2                	add	a3,a3,a2
80003d4a:	4294                	lw	a3,0(a3)
80003d4c:	96b2                	add	a3,a3,a2
80003d4e:	8682                	jr	a3
80003d50:	4981                	li	s3,0
80003d52:	4a01                	li	s4,0
80003d54:	4b81                	li	s7,0
/Local/xl_ci/toolchain/riscv-gnu-toolchain/riscv-gcc/libgcc/soft-fp/muldf3.c:44
80003d56:	4c05                	li	s8,1
80003d58:	b725                	j	80003c80 <__muldf3+0x5e>
80003d5a:	4981                	li	s3,0
80003d5c:	4a01                	li	s4,0
80003d5e:	7ff00b93          	li	s7,2047
80003d62:	4c09                	li	s8,2
80003d64:	bf31                	j	80003c80 <__muldf3+0x5e>
/Local/xl_ci/toolchain/riscv-gnu-toolchain/riscv-gcc/libgcc/soft-fp/muldf3.c:45 (discriminator 2)
80003d66:	019467b3          	or	a5,s0,s9
80003d6a:	c3a5                	beqz	a5,80003dca <__muldf3+0x1a8>
/Local/xl_ci/toolchain/riscv-gnu-toolchain/riscv-gcc/libgcc/soft-fp/muldf3.c:45 (discriminator 13)
80003d6c:	c805                	beqz	s0,80003d9c <__muldf3+0x17a>
/Local/xl_ci/toolchain/riscv-gnu-toolchain/riscv-gcc/libgcc/soft-fp/muldf3.c:45 (discriminator 17)
80003d6e:	8522                	mv	a0,s0
80003d70:	2f9d                	jal	800044e6 <__clzsi2>
/Local/xl_ci/toolchain/riscv-gnu-toolchain/riscv-gcc/libgcc/soft-fp/muldf3.c:45 (discriminator 31)
80003d72:	ff550693          	addi	a3,a0,-11
80003d76:	47f1                	li	a5,28
80003d78:	02d7c763          	blt	a5,a3,80003da6 <__muldf3+0x184>
/Local/xl_ci/toolchain/riscv-gnu-toolchain/riscv-gcc/libgcc/soft-fp/muldf3.c:45 (discriminator 32)
80003d7c:	4775                	li	a4,29
80003d7e:	ff850793          	addi	a5,a0,-8
80003d82:	8f15                	sub	a4,a4,a3
80003d84:	00f41433          	sll	s0,s0,a5
80003d88:	00ecd733          	srl	a4,s9,a4
80003d8c:	8c59                	or	s0,s0,a4
80003d8e:	00fc97b3          	sll	a5,s9,a5
/Local/xl_ci/toolchain/riscv-gnu-toolchain/riscv-gcc/libgcc/soft-fp/muldf3.c:45 (discriminator 41)
80003d92:	c0d00713          	li	a4,-1011
80003d96:	40a70533          	sub	a0,a4,a0
80003d9a:	b769                	j	80003d24 <__muldf3+0x102>
/Local/xl_ci/toolchain/riscv-gnu-toolchain/riscv-gcc/libgcc/soft-fp/muldf3.c:45 (discriminator 24)
80003d9c:	8566                	mv	a0,s9
80003d9e:	27a1                	jal	800044e6 <__clzsi2>
80003da0:	02050513          	addi	a0,a0,32
80003da4:	b7f9                	j	80003d72 <__muldf3+0x150>
/Local/xl_ci/toolchain/riscv-gnu-toolchain/riscv-gcc/libgcc/soft-fp/muldf3.c:45 (discriminator 33)
80003da6:	fd850413          	addi	s0,a0,-40
80003daa:	008c9433          	sll	s0,s9,s0
80003dae:	4781                	li	a5,0
80003db0:	b7cd                	j	80003d92 <__muldf3+0x170>
/Local/xl_ci/toolchain/riscv-gnu-toolchain/riscv-gcc/libgcc/soft-fp/muldf3.c:45 (discriminator 3)
80003db2:	01946633          	or	a2,s0,s9
80003db6:	ce19                	beqz	a2,80003dd4 <__muldf3+0x1b2>
/Local/xl_ci/toolchain/riscv-gnu-toolchain/riscv-gcc/libgcc/soft-fp/muldf3.c:45 (discriminator 44)
80003db8:	00080737          	lui	a4,0x80
80003dbc:	8f61                	and	a4,a4,s0
80003dbe:	7ff00513          	li	a0,2047
80003dc2:	ef19                	bnez	a4,80003de0 <__muldf3+0x1be>
/Local/xl_ci/toolchain/riscv-gnu-toolchain/riscv-gcc/libgcc/soft-fp/muldf3.c:45
80003dc4:	470d                	li	a4,3
80003dc6:	44c1                	li	s1,16
80003dc8:	bfb9                	j	80003d26 <__muldf3+0x104>
80003dca:	4401                	li	s0,0
80003dcc:	4781                	li	a5,0
80003dce:	4501                	li	a0,0
80003dd0:	4705                	li	a4,1
80003dd2:	bf91                	j	80003d26 <__muldf3+0x104>
80003dd4:	4401                	li	s0,0
80003dd6:	4781                	li	a5,0
80003dd8:	7ff00513          	li	a0,2047
80003ddc:	4709                	li	a4,2
80003dde:	b7a1                	j	80003d26 <__muldf3+0x104>
80003de0:	470d                	li	a4,3
80003de2:	b791                	j	80003d26 <__muldf3+0x104>
/Local/xl_ci/toolchain/riscv-gnu-toolchain/riscv-gcc/libgcc/soft-fp/muldf3.c:46
80003de4:	00080437          	lui	s0,0x80
80003de8:	4781                	li	a5,0
80003dea:	7ff00713          	li	a4,2047
80003dee:	4581                	li	a1,0
80003df0:	44c1                	li	s1,16
/Local/xl_ci/toolchain/riscv-gnu-toolchain/riscv-gcc/libgcc/soft-fp/muldf3.c:47 (discriminator 119)
80003df2:	0752                	slli	a4,a4,0x14
80003df4:	7ff006b7          	lui	a3,0x7ff00
80003df8:	0432                	slli	s0,s0,0xc
80003dfa:	8f75                	and	a4,a4,a3
80003dfc:	8031                	srli	s0,s0,0xc
80003dfe:	05fe                	slli	a1,a1,0x1f
80003e00:	8c59                	or	s0,s0,a4
80003e02:	00b46733          	or	a4,s0,a1
80003e06:	853e                	mv	a0,a5
80003e08:	85ba                	mv	a1,a4
/Local/xl_ci/toolchain/riscv-gnu-toolchain/riscv-gcc/libgcc/soft-fp/muldf3.c:48 (discriminator 119)
80003e0a:	c099                	beqz	s1,80003e10 <__muldf3+0x1ee>
/Local/xl_ci/toolchain/riscv-gnu-toolchain/riscv-gcc/libgcc/soft-fp/muldf3.c:48 (discriminator 1)
80003e0c:	0014a073          	csrs	fflags,s1
/Local/xl_ci/toolchain/riscv-gnu-toolchain/riscv-gcc/libgcc/soft-fp/muldf3.c:51
80003e10:	50b2                	lw	ra,44(sp)
80003e12:	5422                	lw	s0,40(sp)
80003e14:	5492                	lw	s1,36(sp)
80003e16:	5902                	lw	s2,32(sp)
80003e18:	49f2                	lw	s3,28(sp)
80003e1a:	4a62                	lw	s4,24(sp)
80003e1c:	4ad2                	lw	s5,20(sp)
80003e1e:	4b42                	lw	s6,16(sp)
80003e20:	4bb2                	lw	s7,12(sp)
80003e22:	4c22                	lw	s8,8(sp)
80003e24:	4c92                	lw	s9,4(sp)
80003e26:	6145                	addi	sp,sp,48
80003e28:	8082                	ret
/Local/xl_ci/toolchain/riscv-gnu-toolchain/riscv-gcc/libgcc/soft-fp/muldf3.c:46 (discriminator 2)
80003e2a:	6ec1                	lui	t4,0x10
80003e2c:	fffe8e13          	addi	t3,t4,-1 # ffff <__stack_size+0xf7ff>
80003e30:	010a5713          	srli	a4,s4,0x10
80003e34:	0107d893          	srli	a7,a5,0x10
80003e38:	01ca7a33          	and	s4,s4,t3
80003e3c:	01c7f7b3          	and	a5,a5,t3
80003e40:	03488833          	mul	a6,a7,s4
80003e44:	034786b3          	mul	a3,a5,s4
80003e48:	02f70f33          	mul	t5,a4,a5
80003e4c:	01e80333          	add	t1,a6,t5
80003e50:	0106d813          	srli	a6,a3,0x10
80003e54:	981a                	add	a6,a6,t1
80003e56:	03170633          	mul	a2,a4,a7
80003e5a:	01e87363          	bgeu	a6,t5,80003e60 <__muldf3+0x23e>
/Local/xl_ci/toolchain/riscv-gnu-toolchain/riscv-gcc/libgcc/soft-fp/muldf3.c:46 (discriminator 9)
80003e5e:	9676                	add	a2,a2,t4
/Local/xl_ci/toolchain/riscv-gnu-toolchain/riscv-gcc/libgcc/soft-fp/muldf3.c:46 (discriminator 11)
80003e60:	01085f93          	srli	t6,a6,0x10
80003e64:	01c87833          	and	a6,a6,t3
80003e68:	01c6f6b3          	and	a3,a3,t3
80003e6c:	01045e93          	srli	t4,s0,0x10
80003e70:	01c47e33          	and	t3,s0,t3
80003e74:	0842                	slli	a6,a6,0x10
80003e76:	9836                	add	a6,a6,a3
80003e78:	03c70f33          	mul	t5,a4,t3
80003e7c:	03ca06b3          	mul	a3,s4,t3
80003e80:	034e8a33          	mul	s4,t4,s4
80003e84:	01ea0333          	add	t1,s4,t5
80003e88:	0106da13          	srli	s4,a3,0x10
80003e8c:	9a1a                	add	s4,s4,t1
80003e8e:	03d70733          	mul	a4,a4,t4
80003e92:	01ea7463          	bgeu	s4,t5,80003e9a <__muldf3+0x278>
/Local/xl_ci/toolchain/riscv-gnu-toolchain/riscv-gcc/libgcc/soft-fp/muldf3.c:46 (discriminator 12)
80003e96:	6341                	lui	t1,0x10
80003e98:	971a                	add	a4,a4,t1
/Local/xl_ci/toolchain/riscv-gnu-toolchain/riscv-gcc/libgcc/soft-fp/muldf3.c:46 (discriminator 14)
80003e9a:	010a5313          	srli	t1,s4,0x10
80003e9e:	933a                	add	t1,t1,a4
80003ea0:	6741                	lui	a4,0x10
80003ea2:	fff70f13          	addi	t5,a4,-1 # ffff <__stack_size+0xf7ff>
80003ea6:	01ea7a33          	and	s4,s4,t5
80003eaa:	01e6f6b3          	and	a3,a3,t5
80003eae:	0109d413          	srli	s0,s3,0x10
80003eb2:	0a42                	slli	s4,s4,0x10
80003eb4:	01e9f9b3          	and	s3,s3,t5
80003eb8:	03378f33          	mul	t5,a5,s3
80003ebc:	9a36                	add	s4,s4,a3
80003ebe:	9fd2                	add	t6,t6,s4
80003ec0:	033886b3          	mul	a3,a7,s3
80003ec4:	02f407b3          	mul	a5,s0,a5
80003ec8:	028882b3          	mul	t0,a7,s0
80003ecc:	00f688b3          	add	a7,a3,a5
80003ed0:	010f5693          	srli	a3,t5,0x10
80003ed4:	96c6                	add	a3,a3,a7
80003ed6:	00f6f363          	bgeu	a3,a5,80003edc <__muldf3+0x2ba>
/Local/xl_ci/toolchain/riscv-gnu-toolchain/riscv-gcc/libgcc/soft-fp/muldf3.c:46 (discriminator 15)
80003eda:	92ba                	add	t0,t0,a4
/Local/xl_ci/toolchain/riscv-gnu-toolchain/riscv-gcc/libgcc/soft-fp/muldf3.c:46 (discriminator 17)
80003edc:	6741                	lui	a4,0x10
80003ede:	fff70793          	addi	a5,a4,-1 # ffff <__stack_size+0xf7ff>
80003ee2:	00ff7f33          	and	t5,t5,a5
80003ee6:	0106d893          	srli	a7,a3,0x10
80003eea:	8efd                	and	a3,a3,a5
80003eec:	03c987b3          	mul	a5,s3,t3
80003ef0:	06c2                	slli	a3,a3,0x10
80003ef2:	96fa                	add	a3,a3,t5
80003ef4:	9896                	add	a7,a7,t0
80003ef6:	03c40e33          	mul	t3,s0,t3
80003efa:	033e89b3          	mul	s3,t4,s3
80003efe:	028e8f33          	mul	t5,t4,s0
80003f02:	99f2                	add	s3,s3,t3
80003f04:	0107d413          	srli	s0,a5,0x10
80003f08:	99a2                	add	s3,s3,s0
80003f0a:	01c9f363          	bgeu	s3,t3,80003f10 <__muldf3+0x2ee>
/Local/xl_ci/toolchain/riscv-gnu-toolchain/riscv-gcc/libgcc/soft-fp/muldf3.c:46 (discriminator 18)
80003f0e:	9f3a                	add	t5,t5,a4
/Local/xl_ci/toolchain/riscv-gnu-toolchain/riscv-gcc/libgcc/soft-fp/muldf3.c:46 (discriminator 20)
80003f10:	6e41                	lui	t3,0x10
80003f12:	1e7d                	addi	t3,t3,-1
80003f14:	01c9f733          	and	a4,s3,t3
80003f18:	01c7f7b3          	and	a5,a5,t3
80003f1c:	0742                	slli	a4,a4,0x10
80003f1e:	967e                	add	a2,a2,t6
80003f20:	973e                	add	a4,a4,a5
80003f22:	01463a33          	sltu	s4,a2,s4
80003f26:	971a                	add	a4,a4,t1
80003f28:	01470433          	add	s0,a4,s4
80003f2c:	9636                	add	a2,a2,a3
80003f2e:	00d636b3          	sltu	a3,a2,a3
80003f32:	01140e33          	add	t3,s0,a7
80003f36:	00de0eb3          	add	t4,t3,a3
80003f3a:	00673733          	sltu	a4,a4,t1
80003f3e:	01443433          	sltu	s0,s0,s4
80003f42:	8c59                	or	s0,s0,a4
80003f44:	00deb6b3          	sltu	a3,t4,a3
80003f48:	0109d993          	srli	s3,s3,0x10
80003f4c:	011e38b3          	sltu	a7,t3,a7
80003f50:	944e                	add	s0,s0,s3
80003f52:	00d8e6b3          	or	a3,a7,a3
80003f56:	9436                	add	s0,s0,a3
80003f58:	947a                	add	s0,s0,t5
80003f5a:	017ed793          	srli	a5,t4,0x17
80003f5e:	0426                	slli	s0,s0,0x9
80003f60:	8c5d                	or	s0,s0,a5
80003f62:	00961793          	slli	a5,a2,0x9
80003f66:	0107e7b3          	or	a5,a5,a6
80003f6a:	00f037b3          	snez	a5,a5
80003f6e:	825d                	srli	a2,a2,0x17
80003f70:	01000737          	lui	a4,0x1000
80003f74:	8fd1                	or	a5,a5,a2
80003f76:	0ea6                	slli	t4,t4,0x9
80003f78:	8f61                	and	a4,a4,s0
80003f7a:	01d7e7b3          	or	a5,a5,t4
80003f7e:	cb25                	beqz	a4,80003fee <__muldf3+0x3cc>
/Local/xl_ci/toolchain/riscv-gnu-toolchain/riscv-gcc/libgcc/soft-fp/muldf3.c:46 (discriminator 38)
80003f80:	0017d713          	srli	a4,a5,0x1
80003f84:	8b85                	andi	a5,a5,1
80003f86:	8fd9                	or	a5,a5,a4
80003f88:	01f41713          	slli	a4,s0,0x1f
80003f8c:	8fd9                	or	a5,a5,a4
80003f8e:	8005                	srli	s0,s0,0x1
/Local/xl_ci/toolchain/riscv-gnu-toolchain/riscv-gcc/libgcc/soft-fp/muldf3.c:47 (discriminator 2)
80003f90:	3ff50813          	addi	a6,a0,1023
80003f94:	0d005063          	blez	a6,80004054 <__muldf3+0x432>
/Local/xl_ci/toolchain/riscv-gnu-toolchain/riscv-gcc/libgcc/soft-fp/muldf3.c:47 (discriminator 6)
80003f98:	0077f713          	andi	a4,a5,7
80003f9c:	c325                	beqz	a4,80003ffc <__muldf3+0x3da>
/Local/xl_ci/toolchain/riscv-gnu-toolchain/riscv-gcc/libgcc/soft-fp/muldf3.c:47 (discriminator 8)
80003f9e:	4709                	li	a4,2
80003fa0:	0014e493          	ori	s1,s1,1
80003fa4:	04e90b63          	beq	s2,a4,80003ffa <__muldf3+0x3d8>
80003fa8:	470d                	li	a4,3
80003faa:	04e90463          	beq	s2,a4,80003ff2 <__muldf3+0x3d0>
80003fae:	04091763          	bnez	s2,80003ffc <__muldf3+0x3da>
/Local/xl_ci/toolchain/riscv-gnu-toolchain/riscv-gcc/libgcc/soft-fp/muldf3.c:47
80003fb2:	00f7f713          	andi	a4,a5,15
80003fb6:	4691                	li	a3,4
80003fb8:	04d70263          	beq	a4,a3,80003ffc <__muldf3+0x3da>
/Local/xl_ci/toolchain/riscv-gnu-toolchain/riscv-gcc/libgcc/soft-fp/muldf3.c:47 (discriminator 10)
80003fbc:	00478713          	addi	a4,a5,4 # 800004 <__stack_size+0x7ff804>
/Local/xl_ci/toolchain/riscv-gnu-toolchain/riscv-gcc/libgcc/soft-fp/muldf3.c:47 (discriminator 21)
80003fc0:	00f737b3          	sltu	a5,a4,a5
80003fc4:	943e                	add	s0,s0,a5
80003fc6:	87ba                	mv	a5,a4
80003fc8:	a815                	j	80003ffc <__muldf3+0x3da>
/Local/xl_ci/toolchain/riscv-gnu-toolchain/riscv-gcc/libgcc/soft-fp/muldf3.c:44 (discriminator 7)
80003fca:	85da                	mv	a1,s6
/Local/xl_ci/toolchain/riscv-gnu-toolchain/riscv-gcc/libgcc/soft-fp/muldf3.c:46 (discriminator 7)
80003fcc:	844e                	mv	s0,s3
80003fce:	87d2                	mv	a5,s4
80003fd0:	8762                	mv	a4,s8
/Local/xl_ci/toolchain/riscv-gnu-toolchain/riscv-gcc/libgcc/soft-fp/muldf3.c:47 (discriminator 47)
80003fd2:	4689                	li	a3,2
80003fd4:	1cd70763          	beq	a4,a3,800041a2 <__muldf3+0x580>
/Local/xl_ci/toolchain/riscv-gnu-toolchain/riscv-gcc/libgcc/soft-fp/muldf3.c:47
80003fd8:	468d                	li	a3,3
80003fda:	1cd70963          	beq	a4,a3,800041ac <__muldf3+0x58a>
80003fde:	4685                	li	a3,1
80003fe0:	fad718e3          	bne	a4,a3,80003f90 <__muldf3+0x36e>
80003fe4:	4401                	li	s0,0
80003fe6:	4781                	li	a5,0
80003fe8:	a265                	j	80004190 <__muldf3+0x56e>
/Local/xl_ci/toolchain/riscv-gnu-toolchain/riscv-gcc/libgcc/soft-fp/muldf3.c:45 (discriminator 4)
80003fea:	85d6                	mv	a1,s5
/Local/xl_ci/toolchain/riscv-gnu-toolchain/riscv-gcc/libgcc/soft-fp/muldf3.c:46 (discriminator 4)
80003fec:	b7dd                	j	80003fd2 <__muldf3+0x3b0>
/Local/xl_ci/toolchain/riscv-gnu-toolchain/riscv-gcc/libgcc/soft-fp/muldf3.c:46
80003fee:	855e                	mv	a0,s7
80003ff0:	b745                	j	80003f90 <__muldf3+0x36e>
/Local/xl_ci/toolchain/riscv-gnu-toolchain/riscv-gcc/libgcc/soft-fp/muldf3.c:47
80003ff2:	e589                	bnez	a1,80003ffc <__muldf3+0x3da>
/Local/xl_ci/toolchain/riscv-gnu-toolchain/riscv-gcc/libgcc/soft-fp/muldf3.c:47 (discriminator 21)
80003ff4:	00878713          	addi	a4,a5,8
80003ff8:	b7e1                	j	80003fc0 <__muldf3+0x39e>
/Local/xl_ci/toolchain/riscv-gnu-toolchain/riscv-gcc/libgcc/soft-fp/muldf3.c:47
80003ffa:	fded                	bnez	a1,80003ff4 <__muldf3+0x3d2>
/Local/xl_ci/toolchain/riscv-gnu-toolchain/riscv-gcc/libgcc/soft-fp/muldf3.c:47 (discriminator 9)
80003ffc:	01000737          	lui	a4,0x1000
80004000:	8f61                	and	a4,a4,s0
80004002:	c719                	beqz	a4,80004010 <__muldf3+0x3ee>
/Local/xl_ci/toolchain/riscv-gnu-toolchain/riscv-gcc/libgcc/soft-fp/muldf3.c:47 (discriminator 24)
80004004:	ff000737          	lui	a4,0xff000
80004008:	177d                	addi	a4,a4,-1
8000400a:	8c79                	and	s0,s0,a4
8000400c:	40050813          	addi	a6,a0,1024
/Local/xl_ci/toolchain/riscv-gnu-toolchain/riscv-gcc/libgcc/soft-fp/muldf3.c:47 (discriminator 26)
80004010:	7fe00713          	li	a4,2046
80004014:	01074a63          	blt	a4,a6,80004028 <__muldf3+0x406>
/Local/xl_ci/toolchain/riscv-gnu-toolchain/riscv-gcc/libgcc/soft-fp/muldf3.c:47
80004018:	0037d713          	srli	a4,a5,0x3
8000401c:	01d41793          	slli	a5,s0,0x1d
80004020:	8fd9                	or	a5,a5,a4
80004022:	800d                	srli	s0,s0,0x3
80004024:	8742                	mv	a4,a6
80004026:	b3f1                	j	80003df2 <__muldf3+0x1d0>
80004028:	4789                	li	a5,2
8000402a:	02f90363          	beq	s2,a5,80004050 <__muldf3+0x42e>
8000402e:	478d                	li	a5,3
80004030:	00f90863          	beq	s2,a5,80004040 <__muldf3+0x41e>
80004034:	00091763          	bnez	s2,80004042 <__muldf3+0x420>
80004038:	4781                	li	a5,0
8000403a:	7ff00713          	li	a4,2047
8000403e:	a029                	j	80004048 <__muldf3+0x426>
80004040:	dde5                	beqz	a1,80004038 <__muldf3+0x416>
80004042:	57fd                	li	a5,-1
80004044:	7fe00713          	li	a4,2046
/Local/xl_ci/toolchain/riscv-gnu-toolchain/riscv-gcc/libgcc/soft-fp/muldf3.c:47 (discriminator 38)
80004048:	0054e493          	ori	s1,s1,5
8000404c:	843e                	mv	s0,a5
8000404e:	b355                	j	80003df2 <__muldf3+0x1d0>
/Local/xl_ci/toolchain/riscv-gnu-toolchain/riscv-gcc/libgcc/soft-fp/muldf3.c:47
80004050:	f5e5                	bnez	a1,80004038 <__muldf3+0x416>
80004052:	bfc5                	j	80004042 <__muldf3+0x420>
/Local/xl_ci/toolchain/riscv-gnu-toolchain/riscv-gcc/libgcc/soft-fp/muldf3.c:47 (discriminator 7)
80004054:	4705                	li	a4,1
80004056:	04081463          	bnez	a6,8000409e <__muldf3+0x47c>
/Local/xl_ci/toolchain/riscv-gnu-toolchain/riscv-gcc/libgcc/soft-fp/muldf3.c:47 (discriminator 39)
8000405a:	0077f693          	andi	a3,a5,7
8000405e:	8722                	mv	a4,s0
80004060:	ca9d                	beqz	a3,80004096 <__muldf3+0x474>
/Local/xl_ci/toolchain/riscv-gnu-toolchain/riscv-gcc/libgcc/soft-fp/muldf3.c:47 (discriminator 41)
80004062:	4689                	li	a3,2
80004064:	0014e493          	ori	s1,s1,1
80004068:	02d90663          	beq	s2,a3,80004094 <__muldf3+0x472>
8000406c:	468d                	li	a3,3
8000406e:	00d90f63          	beq	s2,a3,8000408c <__muldf3+0x46a>
80004072:	02091263          	bnez	s2,80004096 <__muldf3+0x474>
/Local/xl_ci/toolchain/riscv-gnu-toolchain/riscv-gcc/libgcc/soft-fp/muldf3.c:47
80004076:	00f7f693          	andi	a3,a5,15
8000407a:	4611                	li	a2,4
8000407c:	00c68d63          	beq	a3,a2,80004096 <__muldf3+0x474>
/Local/xl_ci/toolchain/riscv-gnu-toolchain/riscv-gcc/libgcc/soft-fp/muldf3.c:47 (discriminator 43)
80004080:	ffc7b713          	sltiu	a4,a5,-4
/Local/xl_ci/toolchain/riscv-gnu-toolchain/riscv-gcc/libgcc/soft-fp/muldf3.c:47 (discriminator 54)
80004084:	00174713          	xori	a4,a4,1
80004088:	9722                	add	a4,a4,s0
8000408a:	a031                	j	80004096 <__muldf3+0x474>
/Local/xl_ci/toolchain/riscv-gnu-toolchain/riscv-gcc/libgcc/soft-fp/muldf3.c:47
8000408c:	e589                	bnez	a1,80004096 <__muldf3+0x474>
/Local/xl_ci/toolchain/riscv-gnu-toolchain/riscv-gcc/libgcc/soft-fp/muldf3.c:47 (discriminator 54)
8000408e:	ff87b713          	sltiu	a4,a5,-8
80004092:	bfcd                	j	80004084 <__muldf3+0x462>
/Local/xl_ci/toolchain/riscv-gnu-toolchain/riscv-gcc/libgcc/soft-fp/muldf3.c:47
80004094:	fded                	bnez	a1,8000408e <__muldf3+0x46c>
/Local/xl_ci/toolchain/riscv-gnu-toolchain/riscv-gcc/libgcc/soft-fp/muldf3.c:47 (discriminator 42)
80004096:	8361                	srli	a4,a4,0x18
80004098:	00174713          	xori	a4,a4,1
8000409c:	8b05                	andi	a4,a4,1
/Local/xl_ci/toolchain/riscv-gnu-toolchain/riscv-gcc/libgcc/soft-fp/muldf3.c:47 (discriminator 59)
8000409e:	4685                	li	a3,1
800040a0:	410686b3          	sub	a3,a3,a6
800040a4:	03800613          	li	a2,56
800040a8:	0cd64263          	blt	a2,a3,8000416c <__muldf3+0x54a>
/Local/xl_ci/toolchain/riscv-gnu-toolchain/riscv-gcc/libgcc/soft-fp/muldf3.c:47 (discriminator 60)
800040ac:	467d                	li	a2,31
800040ae:	04d64a63          	blt	a2,a3,80004102 <__muldf3+0x4e0>
/Local/xl_ci/toolchain/riscv-gnu-toolchain/riscv-gcc/libgcc/soft-fp/muldf3.c:47 (discriminator 62)
800040b2:	41e50513          	addi	a0,a0,1054
800040b6:	00a41633          	sll	a2,s0,a0
800040ba:	00d7d833          	srl	a6,a5,a3
800040be:	00a797b3          	sll	a5,a5,a0
800040c2:	01066633          	or	a2,a2,a6
800040c6:	00f037b3          	snez	a5,a5
800040ca:	8fd1                	or	a5,a5,a2
800040cc:	00d45433          	srl	s0,s0,a3
/Local/xl_ci/toolchain/riscv-gnu-toolchain/riscv-gcc/libgcc/soft-fp/muldf3.c:47 (discriminator 75)
800040d0:	0077f693          	andi	a3,a5,7
800040d4:	c2ad                	beqz	a3,80004136 <__muldf3+0x514>
/Local/xl_ci/toolchain/riscv-gnu-toolchain/riscv-gcc/libgcc/soft-fp/muldf3.c:47 (discriminator 76)
800040d6:	4689                	li	a3,2
800040d8:	0014e493          	ori	s1,s1,1
800040dc:	04d90c63          	beq	s2,a3,80004134 <__muldf3+0x512>
800040e0:	468d                	li	a3,3
800040e2:	04d90563          	beq	s2,a3,8000412c <__muldf3+0x50a>
800040e6:	04091863          	bnez	s2,80004136 <__muldf3+0x514>
/Local/xl_ci/toolchain/riscv-gnu-toolchain/riscv-gcc/libgcc/soft-fp/muldf3.c:47
800040ea:	00f7f693          	andi	a3,a5,15
800040ee:	4611                	li	a2,4
800040f0:	04c68363          	beq	a3,a2,80004136 <__muldf3+0x514>
/Local/xl_ci/toolchain/riscv-gnu-toolchain/riscv-gcc/libgcc/soft-fp/muldf3.c:47 (discriminator 78)
800040f4:	00478693          	addi	a3,a5,4
/Local/xl_ci/toolchain/riscv-gnu-toolchain/riscv-gcc/libgcc/soft-fp/muldf3.c:47 (discriminator 89)
800040f8:	00f6b7b3          	sltu	a5,a3,a5
800040fc:	943e                	add	s0,s0,a5
800040fe:	87b6                	mv	a5,a3
80004100:	a81d                	j	80004136 <__muldf3+0x514>
/Local/xl_ci/toolchain/riscv-gnu-toolchain/riscv-gcc/libgcc/soft-fp/muldf3.c:47 (discriminator 63)
80004102:	5605                	li	a2,-31
80004104:	41060633          	sub	a2,a2,a6
80004108:	02000893          	li	a7,32
8000410c:	00c45633          	srl	a2,s0,a2
80004110:	4801                	li	a6,0
80004112:	01168663          	beq	a3,a7,8000411e <__muldf3+0x4fc>
/Local/xl_ci/toolchain/riscv-gnu-toolchain/riscv-gcc/libgcc/soft-fp/muldf3.c:47 (discriminator 71)
80004116:	43e50513          	addi	a0,a0,1086
8000411a:	00a41833          	sll	a6,s0,a0
/Local/xl_ci/toolchain/riscv-gnu-toolchain/riscv-gcc/libgcc/soft-fp/muldf3.c:47 (discriminator 74)
8000411e:	00f867b3          	or	a5,a6,a5
80004122:	00f037b3          	snez	a5,a5
80004126:	8fd1                	or	a5,a5,a2
80004128:	4401                	li	s0,0
8000412a:	b75d                	j	800040d0 <__muldf3+0x4ae>
/Local/xl_ci/toolchain/riscv-gnu-toolchain/riscv-gcc/libgcc/soft-fp/muldf3.c:47
8000412c:	e589                	bnez	a1,80004136 <__muldf3+0x514>
/Local/xl_ci/toolchain/riscv-gnu-toolchain/riscv-gcc/libgcc/soft-fp/muldf3.c:47 (discriminator 89)
8000412e:	00878693          	addi	a3,a5,8
80004132:	b7d9                	j	800040f8 <__muldf3+0x4d6>
/Local/xl_ci/toolchain/riscv-gnu-toolchain/riscv-gcc/libgcc/soft-fp/muldf3.c:47
80004134:	fded                	bnez	a1,8000412e <__muldf3+0x50c>
/Local/xl_ci/toolchain/riscv-gnu-toolchain/riscv-gcc/libgcc/soft-fp/muldf3.c:47 (discriminator 77)
80004136:	008006b7          	lui	a3,0x800
8000413a:	8ee1                	and	a3,a3,s0
8000413c:	ca81                	beqz	a3,8000414c <__muldf3+0x52a>
/Local/xl_ci/toolchain/riscv-gnu-toolchain/riscv-gcc/libgcc/soft-fp/muldf3.c:47 (discriminator 92)
8000413e:	0014e493          	ori	s1,s1,1
80004142:	4401                	li	s0,0
80004144:	4781                	li	a5,0
80004146:	e305                	bnez	a4,80004166 <__muldf3+0x544>
/Local/xl_ci/toolchain/riscv-gnu-toolchain/riscv-gcc/libgcc/soft-fp/muldf3.c:47
80004148:	4705                	li	a4,1
8000414a:	b165                	j	80003df2 <__muldf3+0x1d0>
/Local/xl_ci/toolchain/riscv-gnu-toolchain/riscv-gcc/libgcc/soft-fp/muldf3.c:47 (discriminator 93)
8000414c:	0037d693          	srli	a3,a5,0x3
80004150:	01d41793          	slli	a5,s0,0x1d
80004154:	8fd5                	or	a5,a5,a3
80004156:	800d                	srli	s0,s0,0x3
80004158:	c8070de3          	beqz	a4,80003df2 <__muldf3+0x1d0>
/Local/xl_ci/toolchain/riscv-gnu-toolchain/riscv-gcc/libgcc/soft-fp/muldf3.c:47 (discriminator 96)
8000415c:	0014f713          	andi	a4,s1,1
80004160:	c80709e3          	beqz	a4,80003df2 <__muldf3+0x1d0>
/Local/xl_ci/toolchain/riscv-gnu-toolchain/riscv-gcc/libgcc/soft-fp/muldf3.c:47
80004164:	4701                	li	a4,0
/Local/xl_ci/toolchain/riscv-gnu-toolchain/riscv-gcc/libgcc/soft-fp/muldf3.c:47 (discriminator 97)
80004166:	0024e493          	ori	s1,s1,2
8000416a:	b161                	j	80003df2 <__muldf3+0x1d0>
/Local/xl_ci/toolchain/riscv-gnu-toolchain/riscv-gcc/libgcc/soft-fp/muldf3.c:47 (discriminator 61)
8000416c:	8fc1                	or	a5,a5,s0
8000416e:	cf91                	beqz	a5,8000418a <__muldf3+0x568>
/Local/xl_ci/toolchain/riscv-gnu-toolchain/riscv-gcc/libgcc/soft-fp/muldf3.c:47 (discriminator 100)
80004170:	4789                	li	a5,2
80004172:	0014e493          	ori	s1,s1,1
80004176:	02f90363          	beq	s2,a5,8000419c <__muldf3+0x57a>
8000417a:	478d                	li	a5,3
8000417c:	00f90c63          	beq	s2,a5,80004194 <__muldf3+0x572>
/Local/xl_ci/toolchain/riscv-gnu-toolchain/riscv-gcc/libgcc/soft-fp/muldf3.c:47
80004180:	4785                	li	a5,1
80004182:	00091363          	bnez	s2,80004188 <__muldf3+0x566>
80004186:	4795                	li	a5,5
/Local/xl_ci/toolchain/riscv-gnu-toolchain/riscv-gcc/libgcc/soft-fp/muldf3.c:47 (discriminator 101)
80004188:	838d                	srli	a5,a5,0x3
/Local/xl_ci/toolchain/riscv-gnu-toolchain/riscv-gcc/libgcc/soft-fp/muldf3.c:47 (discriminator 116)
8000418a:	0024e493          	ori	s1,s1,2
8000418e:	4401                	li	s0,0
/Local/xl_ci/toolchain/riscv-gnu-toolchain/riscv-gcc/libgcc/soft-fp/muldf3.c:47
80004190:	4701                	li	a4,0
80004192:	b185                	j	80003df2 <__muldf3+0x1d0>
80004194:	47a5                	li	a5,9
80004196:	d9ed                	beqz	a1,80004188 <__muldf3+0x566>
80004198:	4785                	li	a5,1
8000419a:	b7fd                	j	80004188 <__muldf3+0x566>
8000419c:	47a5                	li	a5,9
8000419e:	f5ed                	bnez	a1,80004188 <__muldf3+0x566>
800041a0:	bfe5                	j	80004198 <__muldf3+0x576>
800041a2:	4401                	li	s0,0
800041a4:	4781                	li	a5,0
800041a6:	7ff00713          	li	a4,2047
800041aa:	b1a1                	j	80003df2 <__muldf3+0x1d0>
800041ac:	00080437          	lui	s0,0x80
800041b0:	4781                	li	a5,0
800041b2:	7ff00713          	li	a4,2047
800041b6:	4581                	li	a1,0
800041b8:	b92d                	j	80003df2 <__muldf3+0x1d0>

800041ba <__floatunsidf>:
__floatunsidf():
/Local/xl_ci/toolchain/riscv-gnu-toolchain/riscv-gcc/libgcc/soft-fp/floatunsidf.c:37
800041ba:	1141                	addi	sp,sp,-16
800041bc:	c422                	sw	s0,8(sp)
800041be:	c606                	sw	ra,12(sp)
800041c0:	842a                	mv	s0,a0
/Local/xl_ci/toolchain/riscv-gnu-toolchain/riscv-gcc/libgcc/soft-fp/floatunsidf.c:41
800041c2:	c121                	beqz	a0,80004202 <__floatunsidf+0x48>
/Local/xl_ci/toolchain/riscv-gnu-toolchain/riscv-gcc/libgcc/soft-fp/floatunsidf.c:41 (discriminator 6)
800041c4:	260d                	jal	800044e6 <__clzsi2>
800041c6:	41e00713          	li	a4,1054
800041ca:	47a9                	li	a5,10
800041cc:	8f09                	sub	a4,a4,a0
800041ce:	02a7c463          	blt	a5,a0,800041f6 <__floatunsidf+0x3c>
/Local/xl_ci/toolchain/riscv-gnu-toolchain/riscv-gcc/libgcc/soft-fp/floatunsidf.c:41 (discriminator 23)
800041d2:	47ad                	li	a5,11
800041d4:	8f89                	sub	a5,a5,a0
800041d6:	0555                	addi	a0,a0,21
800041d8:	00f457b3          	srl	a5,s0,a5
800041dc:	00a41433          	sll	s0,s0,a0
/Local/xl_ci/toolchain/riscv-gnu-toolchain/riscv-gcc/libgcc/soft-fp/floatunsidf.c:45 (discriminator 126)
800041e0:	40b2                	lw	ra,12(sp)
800041e2:	8522                	mv	a0,s0
/Local/xl_ci/toolchain/riscv-gnu-toolchain/riscv-gcc/libgcc/soft-fp/floatunsidf.c:42 (discriminator 126)
800041e4:	07b2                	slli	a5,a5,0xc
/Local/xl_ci/toolchain/riscv-gnu-toolchain/riscv-gcc/libgcc/soft-fp/floatunsidf.c:45 (discriminator 126)
800041e6:	4422                	lw	s0,8(sp)
/Local/xl_ci/toolchain/riscv-gnu-toolchain/riscv-gcc/libgcc/soft-fp/floatunsidf.c:42 (discriminator 126)
800041e8:	0752                	slli	a4,a4,0x14
800041ea:	83b1                	srli	a5,a5,0xc
800041ec:	00f766b3          	or	a3,a4,a5
/Local/xl_ci/toolchain/riscv-gnu-toolchain/riscv-gcc/libgcc/soft-fp/floatunsidf.c:45 (discriminator 126)
800041f0:	85b6                	mv	a1,a3
800041f2:	0141                	addi	sp,sp,16
800041f4:	8082                	ret
/Local/xl_ci/toolchain/riscv-gnu-toolchain/riscv-gcc/libgcc/soft-fp/floatunsidf.c:41 (discriminator 24)
800041f6:	ff550793          	addi	a5,a0,-11
800041fa:	00f417b3          	sll	a5,s0,a5
800041fe:	4401                	li	s0,0
80004200:	b7c5                	j	800041e0 <__floatunsidf+0x26>
/Local/xl_ci/toolchain/riscv-gnu-toolchain/riscv-gcc/libgcc/soft-fp/floatunsidf.c:41
80004202:	4781                	li	a5,0
80004204:	4701                	li	a4,0
80004206:	bfe9                	j	800041e0 <__floatunsidf+0x26>

80004208 <__extendsfdf2>:
__extendsfdf2():
/Local/xl_ci/toolchain/riscv-gnu-toolchain/riscv-gcc/libgcc/soft-fp/extendsfdf2.c:38
80004208:	1141                	addi	sp,sp,-16
8000420a:	e00507d3          	fmv.x.w	a5,fa0
8000420e:	c606                	sw	ra,12(sp)
80004210:	c422                	sw	s0,8(sp)
80004212:	c226                	sw	s1,4(sp)
80004214:	c04a                	sw	s2,0(sp)
/Local/xl_ci/toolchain/riscv-gnu-toolchain/riscv-gcc/libgcc/soft-fp/extendsfdf2.c:44
80004216:	00202773          	frrm	a4
/Local/xl_ci/toolchain/riscv-gnu-toolchain/riscv-gcc/libgcc/soft-fp/extendsfdf2.c:45
8000421a:	0177d493          	srli	s1,a5,0x17
8000421e:	0ff4f493          	zext.b	s1,s1
/Local/xl_ci/toolchain/riscv-gnu-toolchain/riscv-gcc/libgcc/soft-fp/extendsfdf2.c:47
80004222:	00148713          	addi	a4,s1,1
/Local/xl_ci/toolchain/riscv-gnu-toolchain/riscv-gcc/libgcc/soft-fp/extendsfdf2.c:45
80004226:	00979413          	slli	s0,a5,0x9
/Local/xl_ci/toolchain/riscv-gnu-toolchain/riscv-gcc/libgcc/soft-fp/extendsfdf2.c:47
8000422a:	0fe77713          	andi	a4,a4,254
/Local/xl_ci/toolchain/riscv-gnu-toolchain/riscv-gcc/libgcc/soft-fp/extendsfdf2.c:45
8000422e:	8025                	srli	s0,s0,0x9
80004230:	01f7d913          	srli	s2,a5,0x1f
/Local/xl_ci/toolchain/riscv-gnu-toolchain/riscv-gcc/libgcc/soft-fp/extendsfdf2.c:47
80004234:	cb0d                	beqz	a4,80004266 <__extendsfdf2+0x5e>
/Local/xl_ci/toolchain/riscv-gnu-toolchain/riscv-gcc/libgcc/soft-fp/extendsfdf2.c:47 (discriminator 1)
80004236:	38048513          	addi	a0,s1,896
8000423a:	00345793          	srli	a5,s0,0x3
/Local/xl_ci/toolchain/riscv-gnu-toolchain/riscv-gcc/libgcc/soft-fp/extendsfdf2.c:39 (discriminator 1)
8000423e:	4481                	li	s1,0
/Local/xl_ci/toolchain/riscv-gnu-toolchain/riscv-gcc/libgcc/soft-fp/extendsfdf2.c:47 (discriminator 1)
80004240:	0476                	slli	s0,s0,0x1d
/Local/xl_ci/toolchain/riscv-gnu-toolchain/riscv-gcc/libgcc/soft-fp/extendsfdf2.c:51 (discriminator 53)
80004242:	07b2                	slli	a5,a5,0xc
80004244:	0552                	slli	a0,a0,0x14
80004246:	83b1                	srli	a5,a5,0xc
80004248:	8fc9                	or	a5,a5,a0
8000424a:	097e                	slli	s2,s2,0x1f
8000424c:	0127e733          	or	a4,a5,s2
80004250:	8522                	mv	a0,s0
80004252:	85ba                	mv	a1,a4
/Local/xl_ci/toolchain/riscv-gnu-toolchain/riscv-gcc/libgcc/soft-fp/extendsfdf2.c:52 (discriminator 53)
80004254:	c099                	beqz	s1,8000425a <__extendsfdf2+0x52>
/Local/xl_ci/toolchain/riscv-gnu-toolchain/riscv-gcc/libgcc/soft-fp/extendsfdf2.c:52 (discriminator 1)
80004256:	0014a073          	csrs	fflags,s1
/Local/xl_ci/toolchain/riscv-gnu-toolchain/riscv-gcc/libgcc/soft-fp/extendsfdf2.c:55
8000425a:	40b2                	lw	ra,12(sp)
8000425c:	4422                	lw	s0,8(sp)
8000425e:	4492                	lw	s1,4(sp)
80004260:	4902                	lw	s2,0(sp)
80004262:	0141                	addi	sp,sp,16
80004264:	8082                	ret
/Local/xl_ci/toolchain/riscv-gnu-toolchain/riscv-gcc/libgcc/soft-fp/extendsfdf2.c:47 (discriminator 2)
80004266:	e895                	bnez	s1,8000429a <__extendsfdf2+0x92>
/Local/xl_ci/toolchain/riscv-gnu-toolchain/riscv-gcc/libgcc/soft-fp/extendsfdf2.c:47 (discriminator 12)
80004268:	c829                	beqz	s0,800042ba <__extendsfdf2+0xb2>
/Local/xl_ci/toolchain/riscv-gnu-toolchain/riscv-gcc/libgcc/soft-fp/extendsfdf2.c:47 (discriminator 16)
8000426a:	8522                	mv	a0,s0
8000426c:	2cad                	jal	800044e6 <__clzsi2>
8000426e:	47a9                	li	a5,10
80004270:	00a7cf63          	blt	a5,a0,8000428e <__extendsfdf2+0x86>
/Local/xl_ci/toolchain/riscv-gnu-toolchain/riscv-gcc/libgcc/soft-fp/extendsfdf2.c:47 (discriminator 29)
80004274:	47ad                	li	a5,11
80004276:	8f89                	sub	a5,a5,a0
80004278:	01550713          	addi	a4,a0,21
8000427c:	00f457b3          	srl	a5,s0,a5
80004280:	00e41433          	sll	s0,s0,a4
/Local/xl_ci/toolchain/riscv-gnu-toolchain/riscv-gcc/libgcc/soft-fp/extendsfdf2.c:47 (discriminator 38)
80004284:	38900713          	li	a4,905
80004288:	40a70533          	sub	a0,a4,a0
8000428c:	bf5d                	j	80004242 <__extendsfdf2+0x3a>
/Local/xl_ci/toolchain/riscv-gnu-toolchain/riscv-gcc/libgcc/soft-fp/extendsfdf2.c:47 (discriminator 30)
8000428e:	ff550793          	addi	a5,a0,-11
80004292:	00f417b3          	sll	a5,s0,a5
80004296:	4401                	li	s0,0
80004298:	b7f5                	j	80004284 <__extendsfdf2+0x7c>
/Local/xl_ci/toolchain/riscv-gnu-toolchain/riscv-gcc/libgcc/soft-fp/extendsfdf2.c:47 (discriminator 9)
8000429a:	c01d                	beqz	s0,800042c0 <__extendsfdf2+0xb8>
/Local/xl_ci/toolchain/riscv-gnu-toolchain/riscv-gcc/libgcc/soft-fp/extendsfdf2.c:47 (discriminator 39)
8000429c:	004007b7          	lui	a5,0x400
800042a0:	8fe1                	and	a5,a5,s0
800042a2:	e391                	bnez	a5,800042a6 <__extendsfdf2+0x9e>
/Local/xl_ci/toolchain/riscv-gnu-toolchain/riscv-gcc/libgcc/soft-fp/extendsfdf2.c:47
800042a4:	4741                	li	a4,16
/Local/xl_ci/toolchain/riscv-gnu-toolchain/riscv-gcc/libgcc/soft-fp/extendsfdf2.c:47 (discriminator 45)
800042a6:	00345793          	srli	a5,s0,0x3
800042aa:	000806b7          	lui	a3,0x80
800042ae:	0476                	slli	s0,s0,0x1d
800042b0:	8fd5                	or	a5,a5,a3
800042b2:	84ba                	mv	s1,a4
/Local/xl_ci/toolchain/riscv-gnu-toolchain/riscv-gcc/libgcc/soft-fp/extendsfdf2.c:47
800042b4:	7ff00513          	li	a0,2047
800042b8:	b769                	j	80004242 <__extendsfdf2+0x3a>
800042ba:	4781                	li	a5,0
800042bc:	4501                	li	a0,0
800042be:	b751                	j	80004242 <__extendsfdf2+0x3a>
800042c0:	4781                	li	a5,0
/Local/xl_ci/toolchain/riscv-gnu-toolchain/riscv-gcc/libgcc/soft-fp/extendsfdf2.c:39
800042c2:	4481                	li	s1,0
800042c4:	bfc5                	j	800042b4 <__extendsfdf2+0xac>

800042c6 <__truncdfsf2>:
__truncdfsf2():
/Local/xl_ci/toolchain/riscv-gnu-toolchain/riscv-gcc/libgcc/soft-fp/truncdfsf2.c:43
800042c6:	00202873          	frrm	a6
/Local/xl_ci/toolchain/riscv-gnu-toolchain/riscv-gcc/libgcc/soft-fp/truncdfsf2.c:44
800042ca:	0145d713          	srli	a4,a1,0x14
800042ce:	7ff77893          	andi	a7,a4,2047
800042d2:	00c59793          	slli	a5,a1,0xc
/Local/xl_ci/toolchain/riscv-gnu-toolchain/riscv-gcc/libgcc/soft-fp/truncdfsf2.c:46
800042d6:	00188713          	addi	a4,a7,1
/Local/xl_ci/toolchain/riscv-gnu-toolchain/riscv-gcc/libgcc/soft-fp/truncdfsf2.c:44
800042da:	83a5                	srli	a5,a5,0x9
800042dc:	01d55693          	srli	a3,a0,0x1d
/Local/xl_ci/toolchain/riscv-gnu-toolchain/riscv-gcc/libgcc/soft-fp/truncdfsf2.c:46
800042e0:	7fe77713          	andi	a4,a4,2046
/Local/xl_ci/toolchain/riscv-gnu-toolchain/riscv-gcc/libgcc/soft-fp/truncdfsf2.c:44
800042e4:	8edd                	or	a3,a3,a5
800042e6:	81fd                	srli	a1,a1,0x1f
800042e8:	00351793          	slli	a5,a0,0x3
/Local/xl_ci/toolchain/riscv-gnu-toolchain/riscv-gcc/libgcc/soft-fp/truncdfsf2.c:46
800042ec:	10070d63          	beqz	a4,80004406 <__truncdfsf2+0x140>
/Local/xl_ci/toolchain/riscv-gnu-toolchain/riscv-gcc/libgcc/soft-fp/truncdfsf2.c:46 (discriminator 1)
800042f0:	c8088613          	addi	a2,a7,-896
800042f4:	0fe00713          	li	a4,254
800042f8:	04c75d63          	bge	a4,a2,80004352 <__truncdfsf2+0x8c>
/Local/xl_ci/toolchain/riscv-gnu-toolchain/riscv-gcc/libgcc/soft-fp/truncdfsf2.c:46 (discriminator 3)
800042fc:	14080b63          	beqz	a6,80004452 <__truncdfsf2+0x18c>
/Local/xl_ci/toolchain/riscv-gnu-toolchain/riscv-gcc/libgcc/soft-fp/truncdfsf2.c:46 (discriminator 6)
80004300:	478d                	li	a5,3
80004302:	00f81963          	bne	a6,a5,80004314 <__truncdfsf2+0x4e>
/Local/xl_ci/toolchain/riscv-gnu-toolchain/riscv-gcc/libgcc/soft-fp/truncdfsf2.c:46 (discriminator 7)
80004306:	14058663          	beqz	a1,80004452 <__truncdfsf2+0x18c>
/Local/xl_ci/toolchain/riscv-gnu-toolchain/riscv-gcc/libgcc/soft-fp/truncdfsf2.c:46
8000430a:	57fd                	li	a5,-1
8000430c:	0fe00613          	li	a2,254
/Local/xl_ci/toolchain/riscv-gnu-toolchain/riscv-gcc/libgcc/soft-fp/truncdfsf2.c:50
80004310:	4701                	li	a4,0
80004312:	a811                	j	80004326 <__truncdfsf2+0x60>
/Local/xl_ci/toolchain/riscv-gnu-toolchain/riscv-gcc/libgcc/soft-fp/truncdfsf2.c:46 (discriminator 10)
80004314:	4789                	li	a5,2
80004316:	fef81ae3          	bne	a6,a5,8000430a <__truncdfsf2+0x44>
/Local/xl_ci/toolchain/riscv-gnu-toolchain/riscv-gcc/libgcc/soft-fp/truncdfsf2.c:46 (discriminator 11)
8000431a:	12059c63          	bnez	a1,80004452 <__truncdfsf2+0x18c>
/Local/xl_ci/toolchain/riscv-gnu-toolchain/riscv-gcc/libgcc/soft-fp/truncdfsf2.c:50
8000431e:	4701                	li	a4,0
/Local/xl_ci/toolchain/riscv-gnu-toolchain/riscv-gcc/libgcc/soft-fp/truncdfsf2.c:46
80004320:	57fd                	li	a5,-1
80004322:	0fe00613          	li	a2,254
80004326:	4895                	li	a7,5
/Local/xl_ci/toolchain/riscv-gnu-toolchain/riscv-gcc/libgcc/soft-fp/truncdfsf2.c:50 (discriminator 37)
80004328:	4689                	li	a3,2
8000432a:	0018e893          	ori	a7,a7,1
8000432e:	18d80763          	beq	a6,a3,800044bc <__truncdfsf2+0x1f6>
/Local/xl_ci/toolchain/riscv-gnu-toolchain/riscv-gcc/libgcc/soft-fp/truncdfsf2.c:50
80004332:	468d                	li	a3,3
80004334:	18d80063          	beq	a6,a3,800044b4 <__truncdfsf2+0x1ee>
80004338:	00081863          	bnez	a6,80004348 <__truncdfsf2+0x82>
/Local/xl_ci/toolchain/riscv-gnu-toolchain/riscv-gcc/libgcc/soft-fp/truncdfsf2.c:50 (discriminator 40)
8000433c:	00f7f693          	andi	a3,a5,15
80004340:	4511                	li	a0,4
80004342:	00a68363          	beq	a3,a0,80004348 <__truncdfsf2+0x82>
/Local/xl_ci/toolchain/riscv-gnu-toolchain/riscv-gcc/libgcc/soft-fp/truncdfsf2.c:50 (discriminator 44)
80004346:	0791                	addi	a5,a5,4
/Local/xl_ci/toolchain/riscv-gnu-toolchain/riscv-gcc/libgcc/soft-fp/truncdfsf2.c:50 (discriminator 58)
80004348:	10070963          	beqz	a4,8000445a <__truncdfsf2+0x194>
/Local/xl_ci/toolchain/riscv-gnu-toolchain/riscv-gcc/libgcc/soft-fp/truncdfsf2.c:50 (discriminator 60)
8000434c:	0028e893          	ori	a7,a7,2
80004350:	a229                	j	8000445a <__truncdfsf2+0x194>
/Local/xl_ci/toolchain/riscv-gnu-toolchain/riscv-gcc/libgcc/soft-fp/truncdfsf2.c:46 (discriminator 4)
80004352:	08c04a63          	bgtz	a2,800043e6 <__truncdfsf2+0x120>
/Local/xl_ci/toolchain/riscv-gnu-toolchain/riscv-gcc/libgcc/soft-fp/truncdfsf2.c:46 (discriminator 17)
80004356:	5725                	li	a4,-23
80004358:	0ae64c63          	blt	a2,a4,80004410 <__truncdfsf2+0x14a>
/Local/xl_ci/toolchain/riscv-gnu-toolchain/riscv-gcc/libgcc/soft-fp/truncdfsf2.c:46 (discriminator 20)
8000435c:	00800737          	lui	a4,0x800
80004360:	4579                	li	a0,30
80004362:	8ed9                	or	a3,a3,a4
80004364:	8d11                	sub	a0,a0,a2
80004366:	477d                	li	a4,31
80004368:	04a74c63          	blt	a4,a0,800043c0 <__truncdfsf2+0xfa>
/Local/xl_ci/toolchain/riscv-gnu-toolchain/riscv-gcc/libgcc/soft-fp/truncdfsf2.c:46 (discriminator 22)
8000436c:	c8288713          	addi	a4,a7,-894
80004370:	00a7d533          	srl	a0,a5,a0
80004374:	00e797b3          	sll	a5,a5,a4
80004378:	00f037b3          	snez	a5,a5
8000437c:	00e696b3          	sll	a3,a3,a4
80004380:	8edd                	or	a3,a3,a5
80004382:	00d567b3          	or	a5,a0,a3
/Local/xl_ci/toolchain/riscv-gnu-toolchain/riscv-gcc/libgcc/soft-fp/truncdfsf2.c:50 (discriminator 1)
80004386:	12078463          	beqz	a5,800044ae <__truncdfsf2+0x1e8>
/Local/xl_ci/toolchain/riscv-gnu-toolchain/riscv-gcc/libgcc/soft-fp/truncdfsf2.c:50
8000438a:	00179713          	slli	a4,a5,0x1
8000438e:	00777693          	andi	a3,a4,7
80004392:	4881                	li	a7,0
80004394:	c285                	beqz	a3,800043b4 <__truncdfsf2+0xee>
80004396:	4689                	li	a3,2
80004398:	0ad80863          	beq	a6,a3,80004448 <__truncdfsf2+0x182>
8000439c:	468d                	li	a3,3
8000439e:	0ad80063          	beq	a6,a3,8000443e <__truncdfsf2+0x178>
800043a2:	4885                	li	a7,1
800043a4:	00081863          	bnez	a6,800043b4 <__truncdfsf2+0xee>
/Local/xl_ci/toolchain/riscv-gnu-toolchain/riscv-gcc/libgcc/soft-fp/truncdfsf2.c:50 (discriminator 16)
800043a8:	00f77693          	andi	a3,a4,15
800043ac:	4611                	li	a2,4
800043ae:	00c68363          	beq	a3,a2,800043b4 <__truncdfsf2+0xee>
/Local/xl_ci/toolchain/riscv-gnu-toolchain/riscv-gcc/libgcc/soft-fp/truncdfsf2.c:50 (discriminator 20)
800043b2:	0711                	addi	a4,a4,4
/Local/xl_ci/toolchain/riscv-gnu-toolchain/riscv-gcc/libgcc/soft-fp/truncdfsf2.c:50 (discriminator 23)
800043b4:	836d                	srli	a4,a4,0x1b
800043b6:	00174713          	xori	a4,a4,1
800043ba:	8b05                	andi	a4,a4,1
800043bc:	4601                	li	a2,0
800043be:	a82d                	j	800043f8 <__truncdfsf2+0x132>
/Local/xl_ci/toolchain/riscv-gnu-toolchain/riscv-gcc/libgcc/soft-fp/truncdfsf2.c:46 (discriminator 23)
800043c0:	5779                	li	a4,-2
800043c2:	40c70633          	sub	a2,a4,a2
800043c6:	02000313          	li	t1,32
800043ca:	00c6d633          	srl	a2,a3,a2
800043ce:	4701                	li	a4,0
800043d0:	00650663          	beq	a0,t1,800043dc <__truncdfsf2+0x116>
/Local/xl_ci/toolchain/riscv-gnu-toolchain/riscv-gcc/libgcc/soft-fp/truncdfsf2.c:46 (discriminator 31)
800043d4:	ca288713          	addi	a4,a7,-862
800043d8:	00e69733          	sll	a4,a3,a4
/Local/xl_ci/toolchain/riscv-gnu-toolchain/riscv-gcc/libgcc/soft-fp/truncdfsf2.c:46 (discriminator 34)
800043dc:	8fd9                	or	a5,a5,a4
800043de:	00f037b3          	snez	a5,a5
800043e2:	8fd1                	or	a5,a5,a2
800043e4:	b74d                	j	80004386 <__truncdfsf2+0xc0>
/Local/xl_ci/toolchain/riscv-gnu-toolchain/riscv-gcc/libgcc/soft-fp/truncdfsf2.c:46 (discriminator 18)
800043e6:	051a                	slli	a0,a0,0x6
800043e8:	00a03533          	snez	a0,a0
800043ec:	068e                	slli	a3,a3,0x3
800043ee:	83f5                	srli	a5,a5,0x1d
800043f0:	8ec9                	or	a3,a3,a0
800043f2:	8fd5                	or	a5,a5,a3
/Local/xl_ci/toolchain/riscv-gnu-toolchain/riscv-gcc/libgcc/soft-fp/truncdfsf2.c:50 (discriminator 18)
800043f4:	4701                	li	a4,0
/Local/xl_ci/toolchain/riscv-gnu-toolchain/riscv-gcc/libgcc/soft-fp/truncdfsf2.c:38 (discriminator 18)
800043f6:	4881                	li	a7,0
/Local/xl_ci/toolchain/riscv-gnu-toolchain/riscv-gcc/libgcc/soft-fp/truncdfsf2.c:50 (discriminator 36)
800043f8:	0077f693          	andi	a3,a5,7
800043fc:	f695                	bnez	a3,80004328 <__truncdfsf2+0x62>
/Local/xl_ci/toolchain/riscv-gnu-toolchain/riscv-gcc/libgcc/soft-fp/truncdfsf2.c:50 (discriminator 47)
800043fe:	cf31                	beqz	a4,8000445a <__truncdfsf2+0x194>
/Local/xl_ci/toolchain/riscv-gnu-toolchain/riscv-gcc/libgcc/soft-fp/truncdfsf2.c:50 (discriminator 58)
80004400:	0018f713          	andi	a4,a7,1
80004404:	b791                	j	80004348 <__truncdfsf2+0x82>
/Local/xl_ci/toolchain/riscv-gnu-toolchain/riscv-gcc/libgcc/soft-fp/truncdfsf2.c:46 (discriminator 2)
80004406:	8fd5                	or	a5,a5,a3
80004408:	00089663          	bnez	a7,80004414 <__truncdfsf2+0x14e>
/Local/xl_ci/toolchain/riscv-gnu-toolchain/riscv-gcc/libgcc/soft-fp/truncdfsf2.c:50 (discriminator 42)
8000440c:	4601                	li	a2,0
8000440e:	c7b1                	beqz	a5,8000445a <__truncdfsf2+0x194>
/Local/xl_ci/toolchain/riscv-gnu-toolchain/riscv-gcc/libgcc/soft-fp/truncdfsf2.c:46
80004410:	4785                	li	a5,1
80004412:	bfa5                	j	8000438a <__truncdfsf2+0xc4>
/Local/xl_ci/toolchain/riscv-gnu-toolchain/riscv-gcc/libgcc/soft-fp/truncdfsf2.c:46 (discriminator 39)
80004414:	cbc9                	beqz	a5,800044a6 <__truncdfsf2+0x1e0>
/Local/xl_ci/toolchain/riscv-gnu-toolchain/riscv-gcc/libgcc/soft-fp/truncdfsf2.c:46 (discriminator 48)
80004416:	7ff00793          	li	a5,2047
8000441a:	02f89063          	bne	a7,a5,8000443a <__truncdfsf2+0x174>
/Local/xl_ci/toolchain/riscv-gnu-toolchain/riscv-gcc/libgcc/soft-fp/truncdfsf2.c:46 (discriminator 52)
8000441e:	004008b7          	lui	a7,0x400
80004422:	0116f8b3          	and	a7,a3,a7
/Local/xl_ci/toolchain/riscv-gnu-toolchain/riscv-gcc/libgcc/soft-fp/truncdfsf2.c:38 (discriminator 52)
80004426:	0018b893          	seqz	a7,a7
8000442a:	0892                	slli	a7,a7,0x4
/Local/xl_ci/toolchain/riscv-gnu-toolchain/riscv-gcc/libgcc/soft-fp/truncdfsf2.c:46 (discriminator 56)
8000442c:	068e                	slli	a3,a3,0x3
8000442e:	020007b7          	lui	a5,0x2000
80004432:	8fd5                	or	a5,a5,a3
80004434:	0ff00613          	li	a2,255
80004438:	b7c1                	j	800043f8 <__truncdfsf2+0x132>
/Local/xl_ci/toolchain/riscv-gnu-toolchain/riscv-gcc/libgcc/soft-fp/truncdfsf2.c:38
8000443a:	4881                	li	a7,0
8000443c:	bfc5                	j	8000442c <__truncdfsf2+0x166>
/Local/xl_ci/toolchain/riscv-gnu-toolchain/riscv-gcc/libgcc/soft-fp/truncdfsf2.c:50 (discriminator 19)
8000443e:	88ae                	mv	a7,a1
80004440:	f9b5                	bnez	a1,800043b4 <__truncdfsf2+0xee>
/Local/xl_ci/toolchain/riscv-gnu-toolchain/riscv-gcc/libgcc/soft-fp/truncdfsf2.c:50 (discriminator 26)
80004442:	0721                	addi	a4,a4,8
80004444:	4885                	li	a7,1
80004446:	b7bd                	j	800043b4 <__truncdfsf2+0xee>
/Local/xl_ci/toolchain/riscv-gnu-toolchain/riscv-gcc/libgcc/soft-fp/truncdfsf2.c:50 (discriminator 18)
80004448:	4885                	li	a7,1
8000444a:	d5ad                	beqz	a1,800043b4 <__truncdfsf2+0xee>
/Local/xl_ci/toolchain/riscv-gnu-toolchain/riscv-gcc/libgcc/soft-fp/truncdfsf2.c:50 (discriminator 31)
8000444c:	0721                	addi	a4,a4,8
8000444e:	88ae                	mv	a7,a1
80004450:	b795                	j	800043b4 <__truncdfsf2+0xee>
/Local/xl_ci/toolchain/riscv-gnu-toolchain/riscv-gcc/libgcc/soft-fp/truncdfsf2.c:46
80004452:	4781                	li	a5,0
80004454:	0ff00613          	li	a2,255
80004458:	4895                	li	a7,5
/Local/xl_ci/toolchain/riscv-gnu-toolchain/riscv-gcc/libgcc/soft-fp/truncdfsf2.c:50 (discriminator 62)
8000445a:	04000737          	lui	a4,0x4000
8000445e:	8f7d                	and	a4,a4,a5
80004460:	cb11                	beqz	a4,80004474 <__truncdfsf2+0x1ae>
/Local/xl_ci/toolchain/riscv-gnu-toolchain/riscv-gcc/libgcc/soft-fp/truncdfsf2.c:50 (discriminator 63)
80004462:	0605                	addi	a2,a2,1
80004464:	0ff00713          	li	a4,255
80004468:	04e60d63          	beq	a2,a4,800044c2 <__truncdfsf2+0x1fc>
/Local/xl_ci/toolchain/riscv-gnu-toolchain/riscv-gcc/libgcc/soft-fp/truncdfsf2.c:50
8000446c:	fc000737          	lui	a4,0xfc000
80004470:	177d                	addi	a4,a4,-1
80004472:	8ff9                	and	a5,a5,a4
/Local/xl_ci/toolchain/riscv-gnu-toolchain/riscv-gcc/libgcc/soft-fp/truncdfsf2.c:50 (discriminator 79)
80004474:	0ff00713          	li	a4,255
80004478:	838d                	srli	a5,a5,0x3
8000447a:	00e61663          	bne	a2,a4,80004486 <__truncdfsf2+0x1c0>
/Local/xl_ci/toolchain/riscv-gnu-toolchain/riscv-gcc/libgcc/soft-fp/truncdfsf2.c:50 (discriminator 80)
8000447e:	c781                	beqz	a5,80004486 <__truncdfsf2+0x1c0>
/Local/xl_ci/toolchain/riscv-gnu-toolchain/riscv-gcc/libgcc/soft-fp/truncdfsf2.c:50
80004480:	004007b7          	lui	a5,0x400
80004484:	4581                	li	a1,0
/Local/xl_ci/toolchain/riscv-gnu-toolchain/riscv-gcc/libgcc/soft-fp/truncdfsf2.c:50 (discriminator 90)
80004486:	065e                	slli	a2,a2,0x17
80004488:	7f800737          	lui	a4,0x7f800
8000448c:	07a6                	slli	a5,a5,0x9
8000448e:	8e79                	and	a2,a2,a4
80004490:	83a5                	srli	a5,a5,0x9
80004492:	8fd1                	or	a5,a5,a2
80004494:	05fe                	slli	a1,a1,0x1f
80004496:	8fcd                	or	a5,a5,a1
/Local/xl_ci/toolchain/riscv-gnu-toolchain/riscv-gcc/libgcc/soft-fp/truncdfsf2.c:51 (discriminator 90)
80004498:	00088463          	beqz	a7,800044a0 <__truncdfsf2+0x1da>
/Local/xl_ci/toolchain/riscv-gnu-toolchain/riscv-gcc/libgcc/soft-fp/truncdfsf2.c:51 (discriminator 1)
8000449c:	0018a073          	csrs	fflags,a7
/Local/xl_ci/toolchain/riscv-gnu-toolchain/riscv-gcc/libgcc/soft-fp/truncdfsf2.c:54
800044a0:	f0078553          	fmv.w.x	fa0,a5
800044a4:	8082                	ret
/Local/xl_ci/toolchain/riscv-gnu-toolchain/riscv-gcc/libgcc/soft-fp/truncdfsf2.c:38
800044a6:	4881                	li	a7,0
/Local/xl_ci/toolchain/riscv-gnu-toolchain/riscv-gcc/libgcc/soft-fp/truncdfsf2.c:46
800044a8:	0ff00613          	li	a2,255
800044ac:	b77d                	j	8000445a <__truncdfsf2+0x194>
800044ae:	4601                	li	a2,0
800044b0:	4881                	li	a7,0
800044b2:	b765                	j	8000445a <__truncdfsf2+0x194>
/Local/xl_ci/toolchain/riscv-gnu-toolchain/riscv-gcc/libgcc/soft-fp/truncdfsf2.c:50 (discriminator 43)
800044b4:	e8059ae3          	bnez	a1,80004348 <__truncdfsf2+0x82>
/Local/xl_ci/toolchain/riscv-gnu-toolchain/riscv-gcc/libgcc/soft-fp/truncdfsf2.c:50 (discriminator 55)
800044b8:	07a1                	addi	a5,a5,8
800044ba:	b579                	j	80004348 <__truncdfsf2+0x82>
/Local/xl_ci/toolchain/riscv-gnu-toolchain/riscv-gcc/libgcc/soft-fp/truncdfsf2.c:50 (discriminator 42)
800044bc:	e80586e3          	beqz	a1,80004348 <__truncdfsf2+0x82>
800044c0:	bfe5                	j	800044b8 <__truncdfsf2+0x1f2>
/Local/xl_ci/toolchain/riscv-gnu-toolchain/riscv-gcc/libgcc/soft-fp/truncdfsf2.c:50 (discriminator 65)
800044c2:	4781                	li	a5,0
800044c4:	00080e63          	beqz	a6,800044e0 <__truncdfsf2+0x21a>
/Local/xl_ci/toolchain/riscv-gnu-toolchain/riscv-gcc/libgcc/soft-fp/truncdfsf2.c:50 (discriminator 68)
800044c8:	470d                	li	a4,3
800044ca:	00e81763          	bne	a6,a4,800044d8 <__truncdfsf2+0x212>
/Local/xl_ci/toolchain/riscv-gnu-toolchain/riscv-gcc/libgcc/soft-fp/truncdfsf2.c:50 (discriminator 69)
800044ce:	c989                	beqz	a1,800044e0 <__truncdfsf2+0x21a>
/Local/xl_ci/toolchain/riscv-gnu-toolchain/riscv-gcc/libgcc/soft-fp/truncdfsf2.c:50
800044d0:	57fd                	li	a5,-1
800044d2:	0fe00613          	li	a2,254
800044d6:	a029                	j	800044e0 <__truncdfsf2+0x21a>
/Local/xl_ci/toolchain/riscv-gnu-toolchain/riscv-gcc/libgcc/soft-fp/truncdfsf2.c:50 (discriminator 72)
800044d8:	4709                	li	a4,2
800044da:	fee81be3          	bne	a6,a4,800044d0 <__truncdfsf2+0x20a>
/Local/xl_ci/toolchain/riscv-gnu-toolchain/riscv-gcc/libgcc/soft-fp/truncdfsf2.c:50 (discriminator 73)
800044de:	d9ed                	beqz	a1,800044d0 <__truncdfsf2+0x20a>
/Local/xl_ci/toolchain/riscv-gnu-toolchain/riscv-gcc/libgcc/soft-fp/truncdfsf2.c:50 (discriminator 78)
800044e0:	0058e893          	ori	a7,a7,5
800044e4:	bf41                	j	80004474 <__truncdfsf2+0x1ae>

800044e6 <__clzsi2>:
__clzsi2():
/Local/xl_ci/toolchain/riscv-gnu-toolchain/riscv-gcc/libgcc/libgcc2.c:710
800044e6:	67c1                	lui	a5,0x10
800044e8:	02f57663          	bgeu	a0,a5,80004514 <__clzsi2+0x2e>
/Local/xl_ci/toolchain/riscv-gnu-toolchain/riscv-gcc/libgcc/libgcc2.c:710 (discriminator 3)
800044ec:	0ff00793          	li	a5,255
800044f0:	00a7b7b3          	sltu	a5,a5,a0
800044f4:	078e                	slli	a5,a5,0x3
/Local/xl_ci/toolchain/riscv-gnu-toolchain/riscv-gcc/libgcc/libgcc2.c:710 (discriminator 14)
800044f6:	02000713          	li	a4,32
800044fa:	8f1d                	sub	a4,a4,a5
800044fc:	00f55533          	srl	a0,a0,a5
80004500:	00005797          	auipc	a5,0x5
80004504:	14078793          	addi	a5,a5,320 # 80009640 <__clz_tab>
80004508:	953e                	add	a0,a0,a5
8000450a:	00054503          	lbu	a0,0(a0)
/Local/xl_ci/toolchain/riscv-gnu-toolchain/riscv-gcc/libgcc/libgcc2.c:713 (discriminator 14)
8000450e:	40a70533          	sub	a0,a4,a0
80004512:	8082                	ret
/Local/xl_ci/toolchain/riscv-gnu-toolchain/riscv-gcc/libgcc/libgcc2.c:710 (discriminator 4)
80004514:	01000737          	lui	a4,0x1000
80004518:	47c1                	li	a5,16
8000451a:	fce56ee3          	bltu	a0,a4,800044f6 <__clzsi2+0x10>
/Local/xl_ci/toolchain/riscv-gnu-toolchain/riscv-gcc/libgcc/libgcc2.c:710
8000451e:	47e1                	li	a5,24
80004520:	bfd9                	j	800044f6 <__clzsi2+0x10>

80004522 <atexit>:
atexit():
80004522:	85aa                	mv	a1,a0
80004524:	4681                	li	a3,0
80004526:	4601                	li	a2,0
80004528:	4501                	li	a0,0
8000452a:	5c10006f          	j	800052ea <__register_exitproc>

8000452e <__errno>:
__errno():
8000452e:	0fffc517          	auipc	a0,0xfffc
80004532:	caa52503          	lw	a0,-854(a0) # 900001d8 <_impure_ptr>
80004536:	8082                	ret

80004538 <__libc_fini_array>:
__libc_fini_array():
80004538:	1141                	addi	sp,sp,-16
8000453a:	c422                	sw	s0,8(sp)
8000453c:	c226                	sw	s1,4(sp)
8000453e:	00005417          	auipc	s0,0x5
80004542:	67a40413          	addi	s0,s0,1658 # 80009bb8 <__fsymtab_end>
80004546:	00005497          	auipc	s1,0x5
8000454a:	67248493          	addi	s1,s1,1650 # 80009bb8 <__fsymtab_end>
8000454e:	8c05                	sub	s0,s0,s1
80004550:	c606                	sw	ra,12(sp)
80004552:	8409                	srai	s0,s0,0x2
80004554:	e411                	bnez	s0,80004560 <__libc_fini_array+0x28>
80004556:	40b2                	lw	ra,12(sp)
80004558:	4422                	lw	s0,8(sp)
8000455a:	4492                	lw	s1,4(sp)
8000455c:	0141                	addi	sp,sp,16
8000455e:	8082                	ret
80004560:	147d                	addi	s0,s0,-1
80004562:	00241793          	slli	a5,s0,0x2
80004566:	97a6                	add	a5,a5,s1
80004568:	439c                	lw	a5,0(a5)
8000456a:	9782                	jalr	a5
8000456c:	b7e5                	j	80004554 <__libc_fini_array+0x1c>

8000456e <__libc_init_array>:
__libc_init_array():
8000456e:	1141                	addi	sp,sp,-16
80004570:	c422                	sw	s0,8(sp)
80004572:	c226                	sw	s1,4(sp)
80004574:	00005417          	auipc	s0,0x5
80004578:	64440413          	addi	s0,s0,1604 # 80009bb8 <__fsymtab_end>
8000457c:	00005497          	auipc	s1,0x5
80004580:	63c48493          	addi	s1,s1,1596 # 80009bb8 <__fsymtab_end>
80004584:	8c81                	sub	s1,s1,s0
80004586:	c04a                	sw	s2,0(sp)
80004588:	c606                	sw	ra,12(sp)
8000458a:	8489                	srai	s1,s1,0x2
8000458c:	4901                	li	s2,0
8000458e:	02991563          	bne	s2,s1,800045b8 <__libc_init_array+0x4a>
80004592:	00005417          	auipc	s0,0x5
80004596:	62640413          	addi	s0,s0,1574 # 80009bb8 <__fsymtab_end>
8000459a:	00005497          	auipc	s1,0x5
8000459e:	61e48493          	addi	s1,s1,1566 # 80009bb8 <__fsymtab_end>
800045a2:	8c81                	sub	s1,s1,s0
800045a4:	8489                	srai	s1,s1,0x2
800045a6:	4901                	li	s2,0
800045a8:	00991d63          	bne	s2,s1,800045c2 <__libc_init_array+0x54>
800045ac:	40b2                	lw	ra,12(sp)
800045ae:	4422                	lw	s0,8(sp)
800045b0:	4492                	lw	s1,4(sp)
800045b2:	4902                	lw	s2,0(sp)
800045b4:	0141                	addi	sp,sp,16
800045b6:	8082                	ret
800045b8:	401c                	lw	a5,0(s0)
800045ba:	0905                	addi	s2,s2,1
800045bc:	0411                	addi	s0,s0,4
800045be:	9782                	jalr	a5
800045c0:	b7f9                	j	8000458e <__libc_init_array+0x20>
800045c2:	401c                	lw	a5,0(s0)
800045c4:	0905                	addi	s2,s2,1
800045c6:	0411                	addi	s0,s0,4
800045c8:	9782                	jalr	a5
800045ca:	bff9                	j	800045a8 <__libc_init_array+0x3a>

800045cc <__cvt>:
__cvt():
800045cc:	7179                	addi	sp,sp,-48
800045ce:	d422                	sw	s0,40(sp)
800045d0:	d04a                	sw	s2,32(sp)
800045d2:	cc52                	sw	s4,24(sp)
800045d4:	ca56                	sw	s5,20(sp)
800045d6:	c85a                	sw	s6,16(sp)
800045d8:	d606                	sw	ra,44(sp)
800045da:	d226                	sw	s1,36(sp)
800045dc:	ce4e                	sw	s3,28(sp)
800045de:	8b3a                	mv	s6,a4
800045e0:	8a2e                	mv	s4,a1
800045e2:	8432                	mv	s0,a2
800045e4:	8936                	mv	s2,a3
800045e6:	8ac2                	mv	s5,a6
800045e8:	4701                	li	a4,0
800045ea:	00065863          	bgez	a2,800045fa <__cvt+0x2e>
800045ee:	80000737          	lui	a4,0x80000
800045f2:	00c74433          	xor	s0,a4,a2
800045f6:	02d00713          	li	a4,45
800045fa:	00e78023          	sb	a4,0(a5)
800045fe:	fdf8f493          	andi	s1,a7,-33
80004602:	04600793          	li	a5,70
80004606:	468d                	li	a3,3
80004608:	00f48863          	beq	s1,a5,80004618 <__cvt+0x4c>
8000460c:	04500793          	li	a5,69
80004610:	4689                	li	a3,2
80004612:	00f49363          	bne	s1,a5,80004618 <__cvt+0x4c>
80004616:	0905                	addi	s2,s2,1
80004618:	87d6                	mv	a5,s5
8000461a:	00c10893          	addi	a7,sp,12
8000461e:	00810813          	addi	a6,sp,8
80004622:	874a                	mv	a4,s2
80004624:	85d2                	mv	a1,s4
80004626:	8622                	mv	a2,s0
80004628:	663000ef          	jal	ra,8000548a <_dtoa_r>
8000462c:	04700793          	li	a5,71
80004630:	89aa                	mv	s3,a0
80004632:	00f49563          	bne	s1,a5,8000463c <__cvt+0x70>
80004636:	001b7613          	andi	a2,s6,1
8000463a:	ca29                	beqz	a2,8000468c <__cvt+0xc0>
8000463c:	04600793          	li	a5,70
80004640:	01298b33          	add	s6,s3,s2
80004644:	02f49763          	bne	s1,a5,80004672 <__cvt+0xa6>
80004648:	0009c703          	lbu	a4,0(s3)
8000464c:	03000793          	li	a5,48
80004650:	00f71e63          	bne	a4,a5,8000466c <__cvt+0xa0>
80004654:	4601                	li	a2,0
80004656:	4681                	li	a3,0
80004658:	8552                	mv	a0,s4
8000465a:	85a2                	mv	a1,s0
8000465c:	09f030ef          	jal	ra,80007efa <__eqdf2>
80004660:	c511                	beqz	a0,8000466c <__cvt+0xa0>
80004662:	4605                	li	a2,1
80004664:	412606b3          	sub	a3,a2,s2
80004668:	00daa023          	sw	a3,0(s5)
8000466c:	000aa783          	lw	a5,0(s5)
80004670:	9b3e                	add	s6,s6,a5
80004672:	4601                	li	a2,0
80004674:	4681                	li	a3,0
80004676:	8552                	mv	a0,s4
80004678:	85a2                	mv	a1,s0
8000467a:	081030ef          	jal	ra,80007efa <__eqdf2>
8000467e:	e111                	bnez	a0,80004682 <__cvt+0xb6>
80004680:	c65a                	sw	s6,12(sp)
80004682:	03000713          	li	a4,48
80004686:	47b2                	lw	a5,12(sp)
80004688:	0367e263          	bltu	a5,s6,800046ac <__cvt+0xe0>
8000468c:	47b2                	lw	a5,12(sp)
8000468e:	5742                	lw	a4,48(sp)
80004690:	50b2                	lw	ra,44(sp)
80004692:	5422                	lw	s0,40(sp)
80004694:	413787b3          	sub	a5,a5,s3
80004698:	c31c                	sw	a5,0(a4)
8000469a:	5492                	lw	s1,36(sp)
8000469c:	5902                	lw	s2,32(sp)
8000469e:	4a62                	lw	s4,24(sp)
800046a0:	4ad2                	lw	s5,20(sp)
800046a2:	4b42                	lw	s6,16(sp)
800046a4:	854e                	mv	a0,s3
800046a6:	49f2                	lw	s3,28(sp)
800046a8:	6145                	addi	sp,sp,48
800046aa:	8082                	ret
800046ac:	00178693          	addi	a3,a5,1
800046b0:	c636                	sw	a3,12(sp)
800046b2:	00e78023          	sb	a4,0(a5)
800046b6:	bfc1                	j	80004686 <__cvt+0xba>

800046b8 <__exponent>:
__exponent():
800046b8:	00c50023          	sb	a2,0(a0)
800046bc:	00250793          	addi	a5,a0,2
800046c0:	02b00713          	li	a4,43
800046c4:	0005d663          	bgez	a1,800046d0 <__exponent+0x18>
800046c8:	40b005b3          	neg	a1,a1
800046cc:	02d00713          	li	a4,45
800046d0:	00e500a3          	sb	a4,1(a0)
800046d4:	4725                	li	a4,9
800046d6:	06b75263          	bge	a4,a1,8000473a <__exponent+0x82>
800046da:	1141                	addi	sp,sp,-16
800046dc:	00f10713          	addi	a4,sp,15
800046e0:	883a                	mv	a6,a4
800046e2:	48a9                	li	a7,10
800046e4:	06300313          	li	t1,99
800046e8:	0315e633          	rem	a2,a1,a7
800046ec:	86ba                	mv	a3,a4
800046ee:	177d                	addi	a4,a4,-1
800046f0:	03060613          	addi	a2,a2,48
800046f4:	fec68fa3          	sb	a2,-1(a3) # 7ffff <__stack_size+0x7f7ff>
800046f8:	862e                	mv	a2,a1
800046fa:	0315c5b3          	div	a1,a1,a7
800046fe:	fec345e3          	blt	t1,a2,800046e8 <__exponent+0x30>
80004702:	ffe68893          	addi	a7,a3,-2
80004706:	03058593          	addi	a1,a1,48
8000470a:	feb70fa3          	sb	a1,-1(a4) # 7fffffff <_sp+0xeffeffff>
8000470e:	863e                	mv	a2,a5
80004710:	8746                	mv	a4,a7
80004712:	01076d63          	bltu	a4,a6,8000472c <__exponent+0x74>
80004716:	4701                	li	a4,0
80004718:	01186563          	bltu	a6,a7,80004722 <__exponent+0x6a>
8000471c:	01110713          	addi	a4,sp,17
80004720:	8f15                	sub	a4,a4,a3
80004722:	97ba                	add	a5,a5,a4
80004724:	40a78533          	sub	a0,a5,a0
80004728:	0141                	addi	sp,sp,16
8000472a:	8082                	ret
8000472c:	00074583          	lbu	a1,0(a4)
80004730:	0705                	addi	a4,a4,1
80004732:	0605                	addi	a2,a2,1
80004734:	feb60fa3          	sb	a1,-1(a2)
80004738:	bfe9                	j	80004712 <__exponent+0x5a>
8000473a:	03000793          	li	a5,48
8000473e:	00f50123          	sb	a5,2(a0)
80004742:	03058593          	addi	a1,a1,48
80004746:	00450793          	addi	a5,a0,4
8000474a:	00b501a3          	sb	a1,3(a0)
8000474e:	40a78533          	sub	a0,a5,a0
80004752:	8082                	ret

80004754 <_printf_float>:
_printf_float():
80004754:	7119                	addi	sp,sp,-128
80004756:	de86                	sw	ra,124(sp)
80004758:	dca2                	sw	s0,120(sp)
8000475a:	daa6                	sw	s1,116(sp)
8000475c:	842e                	mv	s0,a1
8000475e:	d8ca                	sw	s2,112(sp)
80004760:	d6ce                	sw	s3,108(sp)
80004762:	d4d2                	sw	s4,104(sp)
80004764:	d2d6                	sw	s5,100(sp)
80004766:	8a3a                	mv	s4,a4
80004768:	d0da                	sw	s6,96(sp)
8000476a:	cede                	sw	s7,92(sp)
8000476c:	cce2                	sw	s8,88(sp)
8000476e:	8932                	mv	s2,a2
80004770:	89b6                	mv	s3,a3
80004772:	cae6                	sw	s9,84(sp)
80004774:	c8ea                	sw	s10,80(sp)
80004776:	c6ee                	sw	s11,76(sp)
80004778:	84aa                	mv	s1,a0
8000477a:	529010ef          	jal	ra,800064a2 <_localeconv_r>
8000477e:	00052c03          	lw	s8,0(a0)
80004782:	8562                	mv	a0,s8
80004784:	17b000ef          	jal	ra,800050fe <strlen>
80004788:	00042b03          	lw	s6,0(s0)
8000478c:	dc02                	sw	zero,56(sp)
8000478e:	01844a83          	lbu	s5,24(s0)
80004792:	100b7713          	andi	a4,s6,256
80004796:	000a2783          	lw	a5,0(s4)
8000479a:	8baa                	mv	s7,a0
8000479c:	cb79                	beqz	a4,80004872 <_printf_float+0x11e>
8000479e:	00478713          	addi	a4,a5,4
800047a2:	00ea2023          	sw	a4,0(s4)
800047a6:	439c                	lw	a5,0(a5)
800047a8:	1008                	addi	a0,sp,32
800047aa:	4398                	lw	a4,0(a5)
800047ac:	d03a                	sw	a4,32(sp)
800047ae:	43d8                	lw	a4,4(a5)
800047b0:	d23a                	sw	a4,36(sp)
800047b2:	4798                	lw	a4,8(a5)
800047b4:	d43a                	sw	a4,40(sp)
800047b6:	47dc                	lw	a5,12(a5)
800047b8:	d63e                	sw	a5,44(sp)
800047ba:	39e040ef          	jal	ra,80008b58 <__trunctfdf2>
800047be:	c428                	sw	a0,72(s0)
800047c0:	c46c                	sw	a1,76(s0)
800047c2:	04c42a03          	lw	s4,76(s0)
800047c6:	0fffc717          	auipc	a4,0xfffc
800047ca:	a2270713          	addi	a4,a4,-1502 # 900001e8 <_impure_ptr+0x10>
800047ce:	04842c83          	lw	s9,72(s0)
800047d2:	00072d03          	lw	s10,0(a4)
800047d6:	00472d83          	lw	s11,4(a4)
800047da:	001a1793          	slli	a5,s4,0x1
800047de:	8385                	srli	a5,a5,0x1
800047e0:	866a                	mv	a2,s10
800047e2:	86ee                	mv	a3,s11
800047e4:	8566                	mv	a0,s9
800047e6:	85be                	mv	a1,a5
800047e8:	ce3e                	sw	a5,28(sp)
800047ea:	1c8040ef          	jal	ra,800089b2 <__unorddf2>
800047ee:	ed49                	bnez	a0,80004888 <_printf_float+0x134>
800047f0:	47f2                	lw	a5,28(sp)
800047f2:	866a                	mv	a2,s10
800047f4:	86ee                	mv	a3,s11
800047f6:	8566                	mv	a0,s9
800047f8:	85be                	mv	a1,a5
800047fa:	053030ef          	jal	ra,8000804c <__ledf2>
800047fe:	08a05563          	blez	a0,80004888 <_printf_float+0x134>
80004802:	4601                	li	a2,0
80004804:	4681                	li	a3,0
80004806:	8566                	mv	a0,s9
80004808:	85d2                	mv	a1,s4
8000480a:	043030ef          	jal	ra,8000804c <__ledf2>
8000480e:	00055663          	bgez	a0,8000481a <_printf_float+0xc6>
80004812:	02d00793          	li	a5,45
80004816:	04f401a3          	sb	a5,67(s0)
8000481a:	04700793          	li	a5,71
8000481e:	00005a17          	auipc	s4,0x5
80004822:	f22a0a13          	addi	s4,s4,-222 # 80009740 <__clz_tab+0x100>
80004826:	0157f663          	bgeu	a5,s5,80004832 <_printf_float+0xde>
8000482a:	00005a17          	auipc	s4,0x5
8000482e:	f1aa0a13          	addi	s4,s4,-230 # 80009744 <__clz_tab+0x104>
80004832:	ffbb7b13          	andi	s6,s6,-5
80004836:	478d                	li	a5,3
80004838:	01642023          	sw	s6,0(s0)
8000483c:	c81c                	sw	a5,16(s0)
8000483e:	4b01                	li	s6,0
80004840:	874e                	mv	a4,s3
80004842:	86ca                	mv	a3,s2
80004844:	1870                	addi	a2,sp,60
80004846:	85a2                	mv	a1,s0
80004848:	8526                	mv	a0,s1
8000484a:	2ef9                	jal	80004c28 <_printf_common>
8000484c:	5cfd                	li	s9,-1
8000484e:	17951363          	bne	a0,s9,800049b4 <_printf_float+0x260>
80004852:	557d                	li	a0,-1
80004854:	50f6                	lw	ra,124(sp)
80004856:	5466                	lw	s0,120(sp)
80004858:	54d6                	lw	s1,116(sp)
8000485a:	5946                	lw	s2,112(sp)
8000485c:	59b6                	lw	s3,108(sp)
8000485e:	5a26                	lw	s4,104(sp)
80004860:	5a96                	lw	s5,100(sp)
80004862:	5b06                	lw	s6,96(sp)
80004864:	4bf6                	lw	s7,92(sp)
80004866:	4c66                	lw	s8,88(sp)
80004868:	4cd6                	lw	s9,84(sp)
8000486a:	4d46                	lw	s10,80(sp)
8000486c:	4db6                	lw	s11,76(sp)
8000486e:	6109                	addi	sp,sp,128
80004870:	8082                	ret
80004872:	079d                	addi	a5,a5,7
80004874:	9be1                	andi	a5,a5,-8
80004876:	00878713          	addi	a4,a5,8
8000487a:	00ea2023          	sw	a4,0(s4)
8000487e:	4398                	lw	a4,0(a5)
80004880:	43dc                	lw	a5,4(a5)
80004882:	c438                	sw	a4,72(s0)
80004884:	c47c                	sw	a5,76(s0)
80004886:	bf35                	j	800047c2 <_printf_float+0x6e>
80004888:	8666                	mv	a2,s9
8000488a:	86d2                	mv	a3,s4
8000488c:	8566                	mv	a0,s9
8000488e:	85d2                	mv	a1,s4
80004890:	122040ef          	jal	ra,800089b2 <__unorddf2>
80004894:	c505                	beqz	a0,800048bc <_printf_float+0x168>
80004896:	000a5663          	bgez	s4,800048a2 <_printf_float+0x14e>
8000489a:	02d00793          	li	a5,45
8000489e:	04f401a3          	sb	a5,67(s0)
800048a2:	04700793          	li	a5,71
800048a6:	00005a17          	auipc	s4,0x5
800048aa:	ea2a0a13          	addi	s4,s4,-350 # 80009748 <__clz_tab+0x108>
800048ae:	f957f2e3          	bgeu	a5,s5,80004832 <_printf_float+0xde>
800048b2:	00005a17          	auipc	s4,0x5
800048b6:	e9aa0a13          	addi	s4,s4,-358 # 8000974c <__clz_tab+0x10c>
800048ba:	bfa5                	j	80004832 <_printf_float+0xde>
800048bc:	405c                	lw	a5,4(s0)
800048be:	577d                	li	a4,-1
800048c0:	0dfafd13          	andi	s10,s5,223
800048c4:	08e79363          	bne	a5,a4,8000494a <_printf_float+0x1f6>
800048c8:	4799                	li	a5,6
800048ca:	c05c                	sw	a5,4(s0)
800048cc:	4054                	lw	a3,4(s0)
800048ce:	400b6713          	ori	a4,s6,1024
800048d2:	183c                	addi	a5,sp,56
800048d4:	c03e                	sw	a5,0(sp)
800048d6:	8652                	mv	a2,s4
800048d8:	03310793          	addi	a5,sp,51
800048dc:	85e6                	mv	a1,s9
800048de:	c018                	sw	a4,0(s0)
800048e0:	c202                	sw	zero,4(sp)
800048e2:	88d6                	mv	a7,s5
800048e4:	03410813          	addi	a6,sp,52
800048e8:	8526                	mv	a0,s1
800048ea:	31cd                	jal	800045cc <__cvt>
800048ec:	04700793          	li	a5,71
800048f0:	55d2                	lw	a1,52(sp)
800048f2:	8a2a                	mv	s4,a0
800048f4:	00fd1b63          	bne	s10,a5,8000490a <_printf_float+0x1b6>
800048f8:	57f5                	li	a5,-3
800048fa:	00f5c563          	blt	a1,a5,80004904 <_printf_float+0x1b0>
800048fe:	405c                	lw	a5,4(s0)
80004900:	08b7d763          	bge	a5,a1,8000498e <_printf_float+0x23a>
80004904:	1af9                	addi	s5,s5,-2
80004906:	0ffafa93          	zext.b	s5,s5
8000490a:	06500793          	li	a5,101
8000490e:	0557e563          	bltu	a5,s5,80004958 <_printf_float+0x204>
80004912:	15fd                	addi	a1,a1,-1
80004914:	8656                	mv	a2,s5
80004916:	05040513          	addi	a0,s0,80
8000491a:	da2e                	sw	a1,52(sp)
8000491c:	3b71                	jal	800046b8 <__exponent>
8000491e:	5762                	lw	a4,56(sp)
80004920:	4685                	li	a3,1
80004922:	8b2a                	mv	s6,a0
80004924:	00a707b3          	add	a5,a4,a0
80004928:	c81c                	sw	a5,16(s0)
8000492a:	00e6c563          	blt	a3,a4,80004934 <_printf_float+0x1e0>
8000492e:	4018                	lw	a4,0(s0)
80004930:	8b05                	andi	a4,a4,1
80004932:	c319                	beqz	a4,80004938 <_printf_float+0x1e4>
80004934:	0785                	addi	a5,a5,1
80004936:	c81c                	sw	a5,16(s0)
80004938:	03314783          	lbu	a5,51(sp)
8000493c:	f00782e3          	beqz	a5,80004840 <_printf_float+0xec>
80004940:	02d00793          	li	a5,45
80004944:	04f401a3          	sb	a5,67(s0)
80004948:	bde5                	j	80004840 <_printf_float+0xec>
8000494a:	04700713          	li	a4,71
8000494e:	f6ed1fe3          	bne	s10,a4,800048cc <_printf_float+0x178>
80004952:	ffad                	bnez	a5,800048cc <_printf_float+0x178>
80004954:	4785                	li	a5,1
80004956:	bf95                	j	800048ca <_printf_float+0x176>
80004958:	06600793          	li	a5,102
8000495c:	02fa9b63          	bne	s5,a5,80004992 <_printf_float+0x23e>
80004960:	405c                	lw	a5,4(s0)
80004962:	00b05b63          	blez	a1,80004978 <_printf_float+0x224>
80004966:	c80c                	sw	a1,16(s0)
80004968:	e781                	bnez	a5,80004970 <_printf_float+0x21c>
8000496a:	4018                	lw	a4,0(s0)
8000496c:	8b05                	andi	a4,a4,1
8000496e:	cf09                	beqz	a4,80004988 <_printf_float+0x234>
80004970:	0785                	addi	a5,a5,1
80004972:	97ae                	add	a5,a5,a1
80004974:	c81c                	sw	a5,16(s0)
80004976:	a809                	j	80004988 <_printf_float+0x234>
80004978:	e789                	bnez	a5,80004982 <_printf_float+0x22e>
8000497a:	4018                	lw	a4,0(s0)
8000497c:	4685                	li	a3,1
8000497e:	8b05                	andi	a4,a4,1
80004980:	c319                	beqz	a4,80004986 <_printf_float+0x232>
80004982:	00278693          	addi	a3,a5,2
80004986:	c814                	sw	a3,16(s0)
80004988:	cc2c                	sw	a1,88(s0)
8000498a:	4b01                	li	s6,0
8000498c:	b775                	j	80004938 <_printf_float+0x1e4>
8000498e:	06700a93          	li	s5,103
80004992:	57e2                	lw	a5,56(sp)
80004994:	00f5c963          	blt	a1,a5,800049a6 <_printf_float+0x252>
80004998:	401c                	lw	a5,0(s0)
8000499a:	c80c                	sw	a1,16(s0)
8000499c:	8b85                	andi	a5,a5,1
8000499e:	d7ed                	beqz	a5,80004988 <_printf_float+0x234>
800049a0:	00158793          	addi	a5,a1,1
800049a4:	bfc1                	j	80004974 <_printf_float+0x220>
800049a6:	4705                	li	a4,1
800049a8:	00b04463          	bgtz	a1,800049b0 <_printf_float+0x25c>
800049ac:	4709                	li	a4,2
800049ae:	8f0d                	sub	a4,a4,a1
800049b0:	97ba                	add	a5,a5,a4
800049b2:	b7c9                	j	80004974 <_printf_float+0x220>
800049b4:	401c                	lw	a5,0(s0)
800049b6:	4007f713          	andi	a4,a5,1024
800049ba:	e315                	bnez	a4,800049de <_printf_float+0x28a>
800049bc:	4814                	lw	a3,16(s0)
800049be:	8652                	mv	a2,s4
800049c0:	85ca                	mv	a1,s2
800049c2:	8526                	mv	a0,s1
800049c4:	9982                	jalr	s3
800049c6:	e99506e3          	beq	a0,s9,80004852 <_printf_float+0xfe>
800049ca:	401c                	lw	a5,0(s0)
800049cc:	8b89                	andi	a5,a5,2
800049ce:	24079863          	bnez	a5,80004c1e <_printf_float+0x4ca>
800049d2:	57f2                	lw	a5,60(sp)
800049d4:	4448                	lw	a0,12(s0)
800049d6:	e6f55fe3          	bge	a0,a5,80004854 <_printf_float+0x100>
800049da:	853e                	mv	a0,a5
800049dc:	bda5                	j	80004854 <_printf_float+0x100>
800049de:	06500713          	li	a4,101
800049e2:	19577d63          	bgeu	a4,s5,80004b7c <_printf_float+0x428>
800049e6:	4428                	lw	a0,72(s0)
800049e8:	446c                	lw	a1,76(s0)
800049ea:	4601                	li	a2,0
800049ec:	4681                	li	a3,0
800049ee:	50c030ef          	jal	ra,80007efa <__eqdf2>
800049f2:	e939                	bnez	a0,80004a48 <_printf_float+0x2f4>
800049f4:	4685                	li	a3,1
800049f6:	00005617          	auipc	a2,0x5
800049fa:	d5a60613          	addi	a2,a2,-678 # 80009750 <__clz_tab+0x110>
800049fe:	85ca                	mv	a1,s2
80004a00:	8526                	mv	a0,s1
80004a02:	9982                	jalr	s3
80004a04:	e59507e3          	beq	a0,s9,80004852 <_printf_float+0xfe>
80004a08:	5752                	lw	a4,52(sp)
80004a0a:	57e2                	lw	a5,56(sp)
80004a0c:	00f74563          	blt	a4,a5,80004a16 <_printf_float+0x2c2>
80004a10:	401c                	lw	a5,0(s0)
80004a12:	8b85                	andi	a5,a5,1
80004a14:	dbdd                	beqz	a5,800049ca <_printf_float+0x276>
80004a16:	86de                	mv	a3,s7
80004a18:	8662                	mv	a2,s8
80004a1a:	85ca                	mv	a1,s2
80004a1c:	8526                	mv	a0,s1
80004a1e:	9982                	jalr	s3
80004a20:	57fd                	li	a5,-1
80004a22:	e2f508e3          	beq	a0,a5,80004852 <_printf_float+0xfe>
80004a26:	4a01                	li	s4,0
80004a28:	01a40a93          	addi	s5,s0,26
80004a2c:	5b7d                	li	s6,-1
80004a2e:	57e2                	lw	a5,56(sp)
80004a30:	17fd                	addi	a5,a5,-1
80004a32:	f8fa5ce3          	bge	s4,a5,800049ca <_printf_float+0x276>
80004a36:	4685                	li	a3,1
80004a38:	8656                	mv	a2,s5
80004a3a:	85ca                	mv	a1,s2
80004a3c:	8526                	mv	a0,s1
80004a3e:	9982                	jalr	s3
80004a40:	e16509e3          	beq	a0,s6,80004852 <_printf_float+0xfe>
80004a44:	0a05                	addi	s4,s4,1
80004a46:	b7e5                	j	80004a2e <_printf_float+0x2da>
80004a48:	57d2                	lw	a5,52(sp)
80004a4a:	06f04663          	bgtz	a5,80004ab6 <_printf_float+0x362>
80004a4e:	4685                	li	a3,1
80004a50:	00005617          	auipc	a2,0x5
80004a54:	d0060613          	addi	a2,a2,-768 # 80009750 <__clz_tab+0x110>
80004a58:	85ca                	mv	a1,s2
80004a5a:	8526                	mv	a0,s1
80004a5c:	9982                	jalr	s3
80004a5e:	df950ae3          	beq	a0,s9,80004852 <_printf_float+0xfe>
80004a62:	57d2                	lw	a5,52(sp)
80004a64:	5762                	lw	a4,56(sp)
80004a66:	8fd9                	or	a5,a5,a4
80004a68:	e781                	bnez	a5,80004a70 <_printf_float+0x31c>
80004a6a:	401c                	lw	a5,0(s0)
80004a6c:	8b85                	andi	a5,a5,1
80004a6e:	dfb1                	beqz	a5,800049ca <_printf_float+0x276>
80004a70:	86de                	mv	a3,s7
80004a72:	8662                	mv	a2,s8
80004a74:	85ca                	mv	a1,s2
80004a76:	8526                	mv	a0,s1
80004a78:	9982                	jalr	s3
80004a7a:	57fd                	li	a5,-1
80004a7c:	dcf50be3          	beq	a0,a5,80004852 <_printf_float+0xfe>
80004a80:	4a81                	li	s5,0
80004a82:	01a40b13          	addi	s6,s0,26
80004a86:	5bfd                	li	s7,-1
80004a88:	57d2                	lw	a5,52(sp)
80004a8a:	40f007b3          	neg	a5,a5
80004a8e:	00facb63          	blt	s5,a5,80004aa4 <_printf_float+0x350>
80004a92:	56e2                	lw	a3,56(sp)
80004a94:	8652                	mv	a2,s4
80004a96:	85ca                	mv	a1,s2
80004a98:	8526                	mv	a0,s1
80004a9a:	9982                	jalr	s3
80004a9c:	57fd                	li	a5,-1
80004a9e:	f2f516e3          	bne	a0,a5,800049ca <_printf_float+0x276>
80004aa2:	bb45                	j	80004852 <_printf_float+0xfe>
80004aa4:	4685                	li	a3,1
80004aa6:	865a                	mv	a2,s6
80004aa8:	85ca                	mv	a1,s2
80004aaa:	8526                	mv	a0,s1
80004aac:	9982                	jalr	s3
80004aae:	db7502e3          	beq	a0,s7,80004852 <_printf_float+0xfe>
80004ab2:	0a85                	addi	s5,s5,1
80004ab4:	bfd1                	j	80004a88 <_printf_float+0x334>
80004ab6:	4c3c                	lw	a5,88(s0)
80004ab8:	5ae2                	lw	s5,56(sp)
80004aba:	0157d363          	bge	a5,s5,80004ac0 <_printf_float+0x36c>
80004abe:	8abe                	mv	s5,a5
80004ac0:	07504963          	bgtz	s5,80004b32 <_printf_float+0x3de>
80004ac4:	4b01                	li	s6,0
80004ac6:	01a40d13          	addi	s10,s0,26
80004aca:	5dfd                	li	s11,-1
80004acc:	05842c83          	lw	s9,88(s0)
80004ad0:	87d6                	mv	a5,s5
80004ad2:	000ad363          	bgez	s5,80004ad8 <_printf_float+0x384>
80004ad6:	4781                	li	a5,0
80004ad8:	40fc87b3          	sub	a5,s9,a5
80004adc:	06fb4463          	blt	s6,a5,80004b44 <_printf_float+0x3f0>
80004ae0:	5752                	lw	a4,52(sp)
80004ae2:	57e2                	lw	a5,56(sp)
80004ae4:	06f74963          	blt	a4,a5,80004b56 <_printf_float+0x402>
80004ae8:	401c                	lw	a5,0(s0)
80004aea:	8b85                	andi	a5,a5,1
80004aec:	e7ad                	bnez	a5,80004b56 <_printf_float+0x402>
80004aee:	5ae2                	lw	s5,56(sp)
80004af0:	5752                	lw	a4,52(sp)
80004af2:	419a87b3          	sub	a5,s5,s9
80004af6:	40ea8ab3          	sub	s5,s5,a4
80004afa:	0157d363          	bge	a5,s5,80004b00 <_printf_float+0x3ac>
80004afe:	8abe                	mv	s5,a5
80004b00:	07504463          	bgtz	s5,80004b68 <_printf_float+0x414>
80004b04:	4a01                	li	s4,0
80004b06:	01a40b13          	addi	s6,s0,26
80004b0a:	5bfd                	li	s7,-1
80004b0c:	5752                	lw	a4,52(sp)
80004b0e:	57e2                	lw	a5,56(sp)
80004b10:	8f99                	sub	a5,a5,a4
80004b12:	8756                	mv	a4,s5
80004b14:	000ad363          	bgez	s5,80004b1a <_printf_float+0x3c6>
80004b18:	4701                	li	a4,0
80004b1a:	8f99                	sub	a5,a5,a4
80004b1c:	eafa57e3          	bge	s4,a5,800049ca <_printf_float+0x276>
80004b20:	4685                	li	a3,1
80004b22:	865a                	mv	a2,s6
80004b24:	85ca                	mv	a1,s2
80004b26:	8526                	mv	a0,s1
80004b28:	9982                	jalr	s3
80004b2a:	d37504e3          	beq	a0,s7,80004852 <_printf_float+0xfe>
80004b2e:	0a05                	addi	s4,s4,1
80004b30:	bff1                	j	80004b0c <_printf_float+0x3b8>
80004b32:	86d6                	mv	a3,s5
80004b34:	8652                	mv	a2,s4
80004b36:	85ca                	mv	a1,s2
80004b38:	8526                	mv	a0,s1
80004b3a:	9982                	jalr	s3
80004b3c:	57fd                	li	a5,-1
80004b3e:	f8f513e3          	bne	a0,a5,80004ac4 <_printf_float+0x370>
80004b42:	bb01                	j	80004852 <_printf_float+0xfe>
80004b44:	4685                	li	a3,1
80004b46:	866a                	mv	a2,s10
80004b48:	85ca                	mv	a1,s2
80004b4a:	8526                	mv	a0,s1
80004b4c:	9982                	jalr	s3
80004b4e:	d1b502e3          	beq	a0,s11,80004852 <_printf_float+0xfe>
80004b52:	0b05                	addi	s6,s6,1
80004b54:	bfa5                	j	80004acc <_printf_float+0x378>
80004b56:	86de                	mv	a3,s7
80004b58:	8662                	mv	a2,s8
80004b5a:	85ca                	mv	a1,s2
80004b5c:	8526                	mv	a0,s1
80004b5e:	9982                	jalr	s3
80004b60:	57fd                	li	a5,-1
80004b62:	f8f516e3          	bne	a0,a5,80004aee <_printf_float+0x39a>
80004b66:	b1f5                	j	80004852 <_printf_float+0xfe>
80004b68:	86d6                	mv	a3,s5
80004b6a:	019a0633          	add	a2,s4,s9
80004b6e:	85ca                	mv	a1,s2
80004b70:	8526                	mv	a0,s1
80004b72:	9982                	jalr	s3
80004b74:	57fd                	li	a5,-1
80004b76:	f8f517e3          	bne	a0,a5,80004b04 <_printf_float+0x3b0>
80004b7a:	b9e1                	j	80004852 <_printf_float+0xfe>
80004b7c:	56e2                	lw	a3,56(sp)
80004b7e:	4705                	li	a4,1
80004b80:	00d74463          	blt	a4,a3,80004b88 <_printf_float+0x434>
80004b84:	8b85                	andi	a5,a5,1
80004b86:	c7b5                	beqz	a5,80004bf2 <_printf_float+0x49e>
80004b88:	4685                	li	a3,1
80004b8a:	8652                	mv	a2,s4
80004b8c:	85ca                	mv	a1,s2
80004b8e:	8526                	mv	a0,s1
80004b90:	9982                	jalr	s3
80004b92:	5afd                	li	s5,-1
80004b94:	cb550fe3          	beq	a0,s5,80004852 <_printf_float+0xfe>
80004b98:	86de                	mv	a3,s7
80004b9a:	8662                	mv	a2,s8
80004b9c:	85ca                	mv	a1,s2
80004b9e:	8526                	mv	a0,s1
80004ba0:	9982                	jalr	s3
80004ba2:	cb5508e3          	beq	a0,s5,80004852 <_printf_float+0xfe>
80004ba6:	4428                	lw	a0,72(s0)
80004ba8:	446c                	lw	a1,76(s0)
80004baa:	4601                	li	a2,0
80004bac:	4681                	li	a3,0
80004bae:	34c030ef          	jal	ra,80007efa <__eqdf2>
80004bb2:	c91d                	beqz	a0,80004be8 <_printf_float+0x494>
80004bb4:	56e2                	lw	a3,56(sp)
80004bb6:	001a0613          	addi	a2,s4,1
80004bba:	85ca                	mv	a1,s2
80004bbc:	16fd                	addi	a3,a3,-1
80004bbe:	8526                	mv	a0,s1
80004bc0:	9982                	jalr	s3
80004bc2:	c95508e3          	beq	a0,s5,80004852 <_printf_float+0xfe>
80004bc6:	86da                	mv	a3,s6
80004bc8:	05040613          	addi	a2,s0,80
80004bcc:	b5e9                	j	80004a96 <_printf_float+0x342>
80004bce:	4685                	li	a3,1
80004bd0:	8656                	mv	a2,s5
80004bd2:	85ca                	mv	a1,s2
80004bd4:	8526                	mv	a0,s1
80004bd6:	9982                	jalr	s3
80004bd8:	c7750de3          	beq	a0,s7,80004852 <_printf_float+0xfe>
80004bdc:	0a05                	addi	s4,s4,1
80004bde:	57e2                	lw	a5,56(sp)
80004be0:	17fd                	addi	a5,a5,-1
80004be2:	fefa46e3          	blt	s4,a5,80004bce <_printf_float+0x47a>
80004be6:	b7c5                	j	80004bc6 <_printf_float+0x472>
80004be8:	4a01                	li	s4,0
80004bea:	01a40a93          	addi	s5,s0,26
80004bee:	5bfd                	li	s7,-1
80004bf0:	b7fd                	j	80004bde <_printf_float+0x48a>
80004bf2:	4685                	li	a3,1
80004bf4:	8652                	mv	a2,s4
80004bf6:	85ca                	mv	a1,s2
80004bf8:	8526                	mv	a0,s1
80004bfa:	9982                	jalr	s3
80004bfc:	fd9515e3          	bne	a0,s9,80004bc6 <_printf_float+0x472>
80004c00:	b989                	j	80004852 <_printf_float+0xfe>
80004c02:	4685                	li	a3,1
80004c04:	8656                	mv	a2,s5
80004c06:	85ca                	mv	a1,s2
80004c08:	8526                	mv	a0,s1
80004c0a:	9982                	jalr	s3
80004c0c:	c56503e3          	beq	a0,s6,80004852 <_printf_float+0xfe>
80004c10:	0a05                	addi	s4,s4,1
80004c12:	445c                	lw	a5,12(s0)
80004c14:	5772                	lw	a4,60(sp)
80004c16:	8f99                	sub	a5,a5,a4
80004c18:	fefa45e3          	blt	s4,a5,80004c02 <_printf_float+0x4ae>
80004c1c:	bb5d                	j	800049d2 <_printf_float+0x27e>
80004c1e:	4a01                	li	s4,0
80004c20:	01940a93          	addi	s5,s0,25
80004c24:	5b7d                	li	s6,-1
80004c26:	b7f5                	j	80004c12 <_printf_float+0x4be>

80004c28 <_printf_common>:
_printf_common():
80004c28:	7179                	addi	sp,sp,-48
80004c2a:	cc52                	sw	s4,24(sp)
80004c2c:	499c                	lw	a5,16(a1)
80004c2e:	8a3a                	mv	s4,a4
80004c30:	4598                	lw	a4,8(a1)
80004c32:	d422                	sw	s0,40(sp)
80004c34:	d226                	sw	s1,36(sp)
80004c36:	ce4e                	sw	s3,28(sp)
80004c38:	ca56                	sw	s5,20(sp)
80004c3a:	d606                	sw	ra,44(sp)
80004c3c:	d04a                	sw	s2,32(sp)
80004c3e:	c85a                	sw	s6,16(sp)
80004c40:	c65e                	sw	s7,12(sp)
80004c42:	89aa                	mv	s3,a0
80004c44:	842e                	mv	s0,a1
80004c46:	84b2                	mv	s1,a2
80004c48:	8ab6                	mv	s5,a3
80004c4a:	00e7d363          	bge	a5,a4,80004c50 <_printf_common+0x28>
80004c4e:	87ba                	mv	a5,a4
80004c50:	c09c                	sw	a5,0(s1)
80004c52:	04344703          	lbu	a4,67(s0)
80004c56:	c319                	beqz	a4,80004c5c <_printf_common+0x34>
80004c58:	0785                	addi	a5,a5,1
80004c5a:	c09c                	sw	a5,0(s1)
80004c5c:	401c                	lw	a5,0(s0)
80004c5e:	0207f793          	andi	a5,a5,32
80004c62:	c781                	beqz	a5,80004c6a <_printf_common+0x42>
80004c64:	409c                	lw	a5,0(s1)
80004c66:	0789                	addi	a5,a5,2
80004c68:	c09c                	sw	a5,0(s1)
80004c6a:	00042903          	lw	s2,0(s0)
80004c6e:	00697913          	andi	s2,s2,6
80004c72:	00091a63          	bnez	s2,80004c86 <_printf_common+0x5e>
80004c76:	01940b13          	addi	s6,s0,25
80004c7a:	5bfd                	li	s7,-1
80004c7c:	445c                	lw	a5,12(s0)
80004c7e:	4098                	lw	a4,0(s1)
80004c80:	8f99                	sub	a5,a5,a4
80004c82:	04f94c63          	blt	s2,a5,80004cda <_printf_common+0xb2>
80004c86:	04344783          	lbu	a5,67(s0)
80004c8a:	00f036b3          	snez	a3,a5
80004c8e:	401c                	lw	a5,0(s0)
80004c90:	0207f793          	andi	a5,a5,32
80004c94:	eba5                	bnez	a5,80004d04 <_printf_common+0xdc>
80004c96:	04340613          	addi	a2,s0,67
80004c9a:	85d6                	mv	a1,s5
80004c9c:	854e                	mv	a0,s3
80004c9e:	9a02                	jalr	s4
80004ca0:	57fd                	li	a5,-1
80004ca2:	04f50363          	beq	a0,a5,80004ce8 <_printf_common+0xc0>
80004ca6:	401c                	lw	a5,0(s0)
80004ca8:	4611                	li	a2,4
80004caa:	4098                	lw	a4,0(s1)
80004cac:	8b99                	andi	a5,a5,6
80004cae:	4454                	lw	a3,12(s0)
80004cb0:	4481                	li	s1,0
80004cb2:	00c79763          	bne	a5,a2,80004cc0 <_printf_common+0x98>
80004cb6:	40e684b3          	sub	s1,a3,a4
80004cba:	0004d363          	bgez	s1,80004cc0 <_printf_common+0x98>
80004cbe:	4481                	li	s1,0
80004cc0:	441c                	lw	a5,8(s0)
80004cc2:	4818                	lw	a4,16(s0)
80004cc4:	00f75463          	bge	a4,a5,80004ccc <_printf_common+0xa4>
80004cc8:	8f99                	sub	a5,a5,a4
80004cca:	94be                	add	s1,s1,a5
80004ccc:	4901                	li	s2,0
80004cce:	0469                	addi	s0,s0,26
80004cd0:	5b7d                	li	s6,-1
80004cd2:	05249863          	bne	s1,s2,80004d22 <_printf_common+0xfa>
80004cd6:	4501                	li	a0,0
80004cd8:	a809                	j	80004cea <_printf_common+0xc2>
80004cda:	4685                	li	a3,1
80004cdc:	865a                	mv	a2,s6
80004cde:	85d6                	mv	a1,s5
80004ce0:	854e                	mv	a0,s3
80004ce2:	9a02                	jalr	s4
80004ce4:	01751e63          	bne	a0,s7,80004d00 <_printf_common+0xd8>
80004ce8:	557d                	li	a0,-1
80004cea:	50b2                	lw	ra,44(sp)
80004cec:	5422                	lw	s0,40(sp)
80004cee:	5492                	lw	s1,36(sp)
80004cf0:	5902                	lw	s2,32(sp)
80004cf2:	49f2                	lw	s3,28(sp)
80004cf4:	4a62                	lw	s4,24(sp)
80004cf6:	4ad2                	lw	s5,20(sp)
80004cf8:	4b42                	lw	s6,16(sp)
80004cfa:	4bb2                	lw	s7,12(sp)
80004cfc:	6145                	addi	sp,sp,48
80004cfe:	8082                	ret
80004d00:	0905                	addi	s2,s2,1
80004d02:	bfad                	j	80004c7c <_printf_common+0x54>
80004d04:	00d40733          	add	a4,s0,a3
80004d08:	03000613          	li	a2,48
80004d0c:	04c701a3          	sb	a2,67(a4)
80004d10:	04544703          	lbu	a4,69(s0)
80004d14:	00168793          	addi	a5,a3,1
80004d18:	97a2                	add	a5,a5,s0
80004d1a:	0689                	addi	a3,a3,2
80004d1c:	04e781a3          	sb	a4,67(a5)
80004d20:	bf9d                	j	80004c96 <_printf_common+0x6e>
80004d22:	4685                	li	a3,1
80004d24:	8622                	mv	a2,s0
80004d26:	85d6                	mv	a1,s5
80004d28:	854e                	mv	a0,s3
80004d2a:	9a02                	jalr	s4
80004d2c:	fb650ee3          	beq	a0,s6,80004ce8 <_printf_common+0xc0>
80004d30:	0905                	addi	s2,s2,1
80004d32:	b745                	j	80004cd2 <_printf_common+0xaa>

80004d34 <_printf_i>:
_printf_i():
80004d34:	7179                	addi	sp,sp,-48
80004d36:	d422                	sw	s0,40(sp)
80004d38:	d226                	sw	s1,36(sp)
80004d3a:	d04a                	sw	s2,32(sp)
80004d3c:	ce4e                	sw	s3,28(sp)
80004d3e:	d606                	sw	ra,44(sp)
80004d40:	cc52                	sw	s4,24(sp)
80004d42:	ca56                	sw	s5,20(sp)
80004d44:	c85a                	sw	s6,16(sp)
80004d46:	0185c803          	lbu	a6,24(a1)
80004d4a:	07800793          	li	a5,120
80004d4e:	84aa                	mv	s1,a0
80004d50:	842e                	mv	s0,a1
80004d52:	8932                	mv	s2,a2
80004d54:	89b6                	mv	s3,a3
80004d56:	0107ee63          	bltu	a5,a6,80004d72 <_printf_i+0x3e>
80004d5a:	06200793          	li	a5,98
80004d5e:	04358693          	addi	a3,a1,67
80004d62:	0107ed63          	bltu	a5,a6,80004d7c <_printf_i+0x48>
80004d66:	1c080563          	beqz	a6,80004f30 <_printf_i+0x1fc>
80004d6a:	05800793          	li	a5,88
80004d6e:	12f80a63          	beq	a6,a5,80004ea2 <_printf_i+0x16e>
80004d72:	04240a93          	addi	s5,s0,66
80004d76:	05040123          	sb	a6,66(s0)
80004d7a:	a815                	j	80004dae <_printf_i+0x7a>
80004d7c:	f9d80793          	addi	a5,a6,-99
80004d80:	0ff7f793          	zext.b	a5,a5
80004d84:	4655                	li	a2,21
80004d86:	fef666e3          	bltu	a2,a5,80004d72 <_printf_i+0x3e>
80004d8a:	00005617          	auipc	a2,0x5
80004d8e:	9f260613          	addi	a2,a2,-1550 # 8000977c <__clz_tab+0x13c>
80004d92:	078a                	slli	a5,a5,0x2
80004d94:	97b2                	add	a5,a5,a2
80004d96:	439c                	lw	a5,0(a5)
80004d98:	97b2                	add	a5,a5,a2
80004d9a:	8782                	jr	a5
80004d9c:	431c                	lw	a5,0(a4)
80004d9e:	04258a93          	addi	s5,a1,66
80004da2:	00478693          	addi	a3,a5,4
80004da6:	439c                	lw	a5,0(a5)
80004da8:	c314                	sw	a3,0(a4)
80004daa:	04f58123          	sb	a5,66(a1)
80004dae:	4785                	li	a5,1
80004db0:	a265                	j	80004f58 <_printf_i+0x224>
80004db2:	419c                	lw	a5,0(a1)
80004db4:	4308                	lw	a0,0(a4)
80004db6:	0807f613          	andi	a2,a5,128
80004dba:	00450593          	addi	a1,a0,4
80004dbe:	c20d                	beqz	a2,80004de0 <_printf_i+0xac>
80004dc0:	411c                	lw	a5,0(a0)
80004dc2:	c30c                	sw	a1,0(a4)
80004dc4:	0007d863          	bgez	a5,80004dd4 <_printf_i+0xa0>
80004dc8:	02d00713          	li	a4,45
80004dcc:	40f007b3          	neg	a5,a5
80004dd0:	04e401a3          	sb	a4,67(s0)
80004dd4:	00005617          	auipc	a2,0x5
80004dd8:	98060613          	addi	a2,a2,-1664 # 80009754 <__clz_tab+0x114>
80004ddc:	4829                	li	a6,10
80004dde:	a0a1                	j	80004e26 <_printf_i+0xf2>
80004de0:	0407f613          	andi	a2,a5,64
80004de4:	411c                	lw	a5,0(a0)
80004de6:	c30c                	sw	a1,0(a4)
80004de8:	de71                	beqz	a2,80004dc4 <_printf_i+0x90>
80004dea:	07c2                	slli	a5,a5,0x10
80004dec:	87c1                	srai	a5,a5,0x10
80004dee:	bfd9                	j	80004dc4 <_printf_i+0x90>
80004df0:	4190                	lw	a2,0(a1)
80004df2:	431c                	lw	a5,0(a4)
80004df4:	08067513          	andi	a0,a2,128
80004df8:	00478593          	addi	a1,a5,4
80004dfc:	c501                	beqz	a0,80004e04 <_printf_i+0xd0>
80004dfe:	c30c                	sw	a1,0(a4)
80004e00:	439c                	lw	a5,0(a5)
80004e02:	a039                	j	80004e10 <_printf_i+0xdc>
80004e04:	04067613          	andi	a2,a2,64
80004e08:	c30c                	sw	a1,0(a4)
80004e0a:	da7d                	beqz	a2,80004e00 <_printf_i+0xcc>
80004e0c:	0007d783          	lhu	a5,0(a5)
80004e10:	06f00713          	li	a4,111
80004e14:	00005617          	auipc	a2,0x5
80004e18:	94060613          	addi	a2,a2,-1728 # 80009754 <__clz_tab+0x114>
80004e1c:	0ee80463          	beq	a6,a4,80004f04 <_printf_i+0x1d0>
80004e20:	4829                	li	a6,10
80004e22:	040401a3          	sb	zero,67(s0)
80004e26:	4058                	lw	a4,4(s0)
80004e28:	c418                	sw	a4,8(s0)
80004e2a:	00074563          	bltz	a4,80004e34 <_printf_i+0x100>
80004e2e:	400c                	lw	a1,0(s0)
80004e30:	99ed                	andi	a1,a1,-5
80004e32:	c00c                	sw	a1,0(s0)
80004e34:	e399                	bnez	a5,80004e3a <_printf_i+0x106>
80004e36:	8ab6                	mv	s5,a3
80004e38:	cf19                	beqz	a4,80004e56 <_printf_i+0x122>
80004e3a:	8ab6                	mv	s5,a3
80004e3c:	0307f733          	remu	a4,a5,a6
80004e40:	1afd                	addi	s5,s5,-1
80004e42:	9732                	add	a4,a4,a2
80004e44:	00074703          	lbu	a4,0(a4)
80004e48:	00ea8023          	sb	a4,0(s5)
80004e4c:	873e                	mv	a4,a5
80004e4e:	0307d7b3          	divu	a5,a5,a6
80004e52:	ff0775e3          	bgeu	a4,a6,80004e3c <_printf_i+0x108>
80004e56:	47a1                	li	a5,8
80004e58:	00f81e63          	bne	a6,a5,80004e74 <_printf_i+0x140>
80004e5c:	401c                	lw	a5,0(s0)
80004e5e:	8b85                	andi	a5,a5,1
80004e60:	cb91                	beqz	a5,80004e74 <_printf_i+0x140>
80004e62:	4058                	lw	a4,4(s0)
80004e64:	481c                	lw	a5,16(s0)
80004e66:	00e7c763          	blt	a5,a4,80004e74 <_printf_i+0x140>
80004e6a:	03000793          	li	a5,48
80004e6e:	fefa8fa3          	sb	a5,-1(s5)
80004e72:	1afd                	addi	s5,s5,-1
80004e74:	415686b3          	sub	a3,a3,s5
80004e78:	c814                	sw	a3,16(s0)
80004e7a:	874e                	mv	a4,s3
80004e7c:	86ca                	mv	a3,s2
80004e7e:	0070                	addi	a2,sp,12
80004e80:	85a2                	mv	a1,s0
80004e82:	8526                	mv	a0,s1
80004e84:	3355                	jal	80004c28 <_printf_common>
80004e86:	5a7d                	li	s4,-1
80004e88:	0d451c63          	bne	a0,s4,80004f60 <_printf_i+0x22c>
80004e8c:	557d                	li	a0,-1
80004e8e:	50b2                	lw	ra,44(sp)
80004e90:	5422                	lw	s0,40(sp)
80004e92:	5492                	lw	s1,36(sp)
80004e94:	5902                	lw	s2,32(sp)
80004e96:	49f2                	lw	s3,28(sp)
80004e98:	4a62                	lw	s4,24(sp)
80004e9a:	4ad2                	lw	s5,20(sp)
80004e9c:	4b42                	lw	s6,16(sp)
80004e9e:	6145                	addi	sp,sp,48
80004ea0:	8082                	ret
80004ea2:	050582a3          	sb	a6,69(a1)
80004ea6:	00005617          	auipc	a2,0x5
80004eaa:	8ae60613          	addi	a2,a2,-1874 # 80009754 <__clz_tab+0x114>
80004eae:	400c                	lw	a1,0(s0)
80004eb0:	4308                	lw	a0,0(a4)
80004eb2:	0805f813          	andi	a6,a1,128
80004eb6:	411c                	lw	a5,0(a0)
80004eb8:	0511                	addi	a0,a0,4
80004eba:	02080d63          	beqz	a6,80004ef4 <_printf_i+0x1c0>
80004ebe:	c308                	sw	a0,0(a4)
80004ec0:	0015f713          	andi	a4,a1,1
80004ec4:	c701                	beqz	a4,80004ecc <_printf_i+0x198>
80004ec6:	0205e593          	ori	a1,a1,32
80004eca:	c00c                	sw	a1,0(s0)
80004ecc:	4841                	li	a6,16
80004ece:	fbb1                	bnez	a5,80004e22 <_printf_i+0xee>
80004ed0:	4018                	lw	a4,0(s0)
80004ed2:	fdf77713          	andi	a4,a4,-33
80004ed6:	c018                	sw	a4,0(s0)
80004ed8:	b7a9                	j	80004e22 <_printf_i+0xee>
80004eda:	419c                	lw	a5,0(a1)
80004edc:	0207e793          	ori	a5,a5,32
80004ee0:	c19c                	sw	a5,0(a1)
80004ee2:	07800793          	li	a5,120
80004ee6:	04f402a3          	sb	a5,69(s0)
80004eea:	00005617          	auipc	a2,0x5
80004eee:	87e60613          	addi	a2,a2,-1922 # 80009768 <__clz_tab+0x128>
80004ef2:	bf75                	j	80004eae <_printf_i+0x17a>
80004ef4:	0405f813          	andi	a6,a1,64
80004ef8:	c308                	sw	a0,0(a4)
80004efa:	fc0803e3          	beqz	a6,80004ec0 <_printf_i+0x18c>
80004efe:	07c2                	slli	a5,a5,0x10
80004f00:	83c1                	srli	a5,a5,0x10
80004f02:	bf7d                	j	80004ec0 <_printf_i+0x18c>
80004f04:	4821                	li	a6,8
80004f06:	bf31                	j	80004e22 <_printf_i+0xee>
80004f08:	4190                	lw	a2,0(a1)
80004f0a:	431c                	lw	a5,0(a4)
80004f0c:	49cc                	lw	a1,20(a1)
80004f0e:	08067813          	andi	a6,a2,128
80004f12:	00478513          	addi	a0,a5,4
80004f16:	00080663          	beqz	a6,80004f22 <_printf_i+0x1ee>
80004f1a:	c308                	sw	a0,0(a4)
80004f1c:	439c                	lw	a5,0(a5)
80004f1e:	c38c                	sw	a1,0(a5)
80004f20:	a801                	j	80004f30 <_printf_i+0x1fc>
80004f22:	c308                	sw	a0,0(a4)
80004f24:	04067613          	andi	a2,a2,64
80004f28:	439c                	lw	a5,0(a5)
80004f2a:	da75                	beqz	a2,80004f1e <_printf_i+0x1ea>
80004f2c:	00b79023          	sh	a1,0(a5)
80004f30:	00042823          	sw	zero,16(s0)
80004f34:	8ab6                	mv	s5,a3
80004f36:	b791                	j	80004e7a <_printf_i+0x146>
80004f38:	431c                	lw	a5,0(a4)
80004f3a:	41d0                	lw	a2,4(a1)
80004f3c:	4581                	li	a1,0
80004f3e:	00478693          	addi	a3,a5,4
80004f42:	c314                	sw	a3,0(a4)
80004f44:	0007aa83          	lw	s5,0(a5)
80004f48:	8556                	mv	a0,s5
80004f4a:	66c010ef          	jal	ra,800065b6 <memchr>
80004f4e:	c501                	beqz	a0,80004f56 <_printf_i+0x222>
80004f50:	41550533          	sub	a0,a0,s5
80004f54:	c048                	sw	a0,4(s0)
80004f56:	405c                	lw	a5,4(s0)
80004f58:	c81c                	sw	a5,16(s0)
80004f5a:	040401a3          	sb	zero,67(s0)
80004f5e:	bf31                	j	80004e7a <_printf_i+0x146>
80004f60:	4814                	lw	a3,16(s0)
80004f62:	8656                	mv	a2,s5
80004f64:	85ca                	mv	a1,s2
80004f66:	8526                	mv	a0,s1
80004f68:	9982                	jalr	s3
80004f6a:	f34501e3          	beq	a0,s4,80004e8c <_printf_i+0x158>
80004f6e:	401c                	lw	a5,0(s0)
80004f70:	8b89                	andi	a5,a5,2
80004f72:	e78d                	bnez	a5,80004f9c <_printf_i+0x268>
80004f74:	47b2                	lw	a5,12(sp)
80004f76:	4448                	lw	a0,12(s0)
80004f78:	f0f55be3          	bge	a0,a5,80004e8e <_printf_i+0x15a>
80004f7c:	853e                	mv	a0,a5
80004f7e:	bf01                	j	80004e8e <_printf_i+0x15a>
80004f80:	4685                	li	a3,1
80004f82:	8656                	mv	a2,s5
80004f84:	85ca                	mv	a1,s2
80004f86:	8526                	mv	a0,s1
80004f88:	9982                	jalr	s3
80004f8a:	f16501e3          	beq	a0,s6,80004e8c <_printf_i+0x158>
80004f8e:	0a05                	addi	s4,s4,1
80004f90:	445c                	lw	a5,12(s0)
80004f92:	4732                	lw	a4,12(sp)
80004f94:	8f99                	sub	a5,a5,a4
80004f96:	fefa45e3          	blt	s4,a5,80004f80 <_printf_i+0x24c>
80004f9a:	bfe9                	j	80004f74 <_printf_i+0x240>
80004f9c:	4a01                	li	s4,0
80004f9e:	01940a93          	addi	s5,s0,25
80004fa2:	5b7d                	li	s6,-1
80004fa4:	b7f5                	j	80004f90 <_printf_i+0x25c>

80004fa6 <iprintf>:
printf():
80004fa6:	715d                	addi	sp,sp,-80
80004fa8:	d422                	sw	s0,40(sp)
80004faa:	d606                	sw	ra,44(sp)
80004fac:	842a                	mv	s0,a0
80004fae:	da2e                	sw	a1,52(sp)
80004fb0:	dc32                	sw	a2,56(sp)
80004fb2:	de36                	sw	a3,60(sp)
80004fb4:	c0ba                	sw	a4,64(sp)
80004fb6:	c2be                	sw	a5,68(sp)
80004fb8:	c4c2                	sw	a6,72(sp)
80004fba:	c6c6                	sw	a7,76(sp)
80004fbc:	0fffb517          	auipc	a0,0xfffb
80004fc0:	21c52503          	lw	a0,540(a0) # 900001d8 <_impure_ptr>
80004fc4:	c519                	beqz	a0,80004fd2 <iprintf+0x2c>
80004fc6:	4d1c                	lw	a5,24(a0)
80004fc8:	e789                	bnez	a5,80004fd2 <iprintf+0x2c>
80004fca:	c62a                	sw	a0,12(sp)
80004fcc:	36e010ef          	jal	ra,8000633a <__sinit>
80004fd0:	4532                	lw	a0,12(sp)
80004fd2:	450c                	lw	a1,8(a0)
80004fd4:	1854                	addi	a3,sp,52
80004fd6:	8622                	mv	a2,s0
80004fd8:	ce36                	sw	a3,28(sp)
80004fda:	222020ef          	jal	ra,800071fc <_vfiprintf_r>
80004fde:	50b2                	lw	ra,44(sp)
80004fe0:	5422                	lw	s0,40(sp)
80004fe2:	6161                	addi	sp,sp,80
80004fe4:	8082                	ret

80004fe6 <putchar>:
putchar():
80004fe6:	85aa                	mv	a1,a0
80004fe8:	0fffb517          	auipc	a0,0xfffb
80004fec:	1f052503          	lw	a0,496(a0) # 900001d8 <_impure_ptr>
80004ff0:	c105                	beqz	a0,80005010 <putchar+0x2a>
80004ff2:	4d1c                	lw	a5,24(a0)
80004ff4:	ef91                	bnez	a5,80005010 <putchar+0x2a>
80004ff6:	1101                	addi	sp,sp,-32
80004ff8:	ce06                	sw	ra,28(sp)
80004ffa:	c62e                	sw	a1,12(sp)
80004ffc:	c42a                	sw	a0,8(sp)
80004ffe:	33c010ef          	jal	ra,8000633a <__sinit>
80005002:	4522                	lw	a0,8(sp)
80005004:	45b2                	lw	a1,12(sp)
80005006:	40f2                	lw	ra,28(sp)
80005008:	4510                	lw	a2,8(a0)
8000500a:	6105                	addi	sp,sp,32
8000500c:	4900206f          	j	8000749c <_putc_r>
80005010:	4510                	lw	a2,8(a0)
80005012:	bfed                	j	8000500c <putchar+0x26>

80005014 <_puts_r>:
_puts_r():
80005014:	1101                	addi	sp,sp,-32
80005016:	ca26                	sw	s1,20(sp)
80005018:	c84a                	sw	s2,16(sp)
8000501a:	ce06                	sw	ra,28(sp)
8000501c:	cc22                	sw	s0,24(sp)
8000501e:	c64e                	sw	s3,12(sp)
80005020:	c452                	sw	s4,8(sp)
80005022:	84aa                	mv	s1,a0
80005024:	892e                	mv	s2,a1
80005026:	c509                	beqz	a0,80005030 <_puts_r+0x1c>
80005028:	4d1c                	lw	a5,24(a0)
8000502a:	e399                	bnez	a5,80005030 <_puts_r+0x1c>
8000502c:	30e010ef          	jal	ra,8000633a <__sinit>
80005030:	4c9c                	lw	a5,24(s1)
80005032:	4480                	lw	s0,8(s1)
80005034:	e781                	bnez	a5,8000503c <_puts_r+0x28>
80005036:	8526                	mv	a0,s1
80005038:	302010ef          	jal	ra,8000633a <__sinit>
8000503c:	00005797          	auipc	a5,0x5
80005040:	84878793          	addi	a5,a5,-1976 # 80009884 <__sf_fake_stdin>
80005044:	02f41c63          	bne	s0,a5,8000507c <_puts_r+0x68>
80005048:	40c0                	lw	s0,4(s1)
8000504a:	00c45783          	lhu	a5,12(s0)
8000504e:	8ba1                	andi	a5,a5,8
80005050:	c7b1                	beqz	a5,8000509c <_puts_r+0x88>
80005052:	481c                	lw	a5,16(s0)
80005054:	c7a1                	beqz	a5,8000509c <_puts_r+0x88>
80005056:	59fd                	li	s3,-1
80005058:	4a29                	li	s4,10
8000505a:	441c                	lw	a5,8(s0)
8000505c:	00094583          	lbu	a1,0(s2) # 800000 <__stack_size+0x7ff800>
80005060:	17fd                	addi	a5,a5,-1
80005062:	e9b1                	bnez	a1,800050b6 <_puts_r+0xa2>
80005064:	c41c                	sw	a5,8(s0)
80005066:	0607de63          	bgez	a5,800050e2 <_puts_r+0xce>
8000506a:	8622                	mv	a2,s0
8000506c:	45a9                	li	a1,10
8000506e:	8526                	mv	a0,s1
80005070:	2055                	jal	80005114 <__swbuf_r>
80005072:	57fd                	li	a5,-1
80005074:	02f50863          	beq	a0,a5,800050a4 <_puts_r+0x90>
80005078:	4529                	li	a0,10
8000507a:	a035                	j	800050a6 <_puts_r+0x92>
8000507c:	00005797          	auipc	a5,0x5
80005080:	82878793          	addi	a5,a5,-2008 # 800098a4 <__sf_fake_stdout>
80005084:	00f41463          	bne	s0,a5,8000508c <_puts_r+0x78>
80005088:	4480                	lw	s0,8(s1)
8000508a:	b7c1                	j	8000504a <_puts_r+0x36>
8000508c:	00004797          	auipc	a5,0x4
80005090:	7d878793          	addi	a5,a5,2008 # 80009864 <__sf_fake_stderr>
80005094:	faf41be3          	bne	s0,a5,8000504a <_puts_r+0x36>
80005098:	44c0                	lw	s0,12(s1)
8000509a:	bf45                	j	8000504a <_puts_r+0x36>
8000509c:	85a2                	mv	a1,s0
8000509e:	8526                	mv	a0,s1
800050a0:	2a2d                	jal	800051da <__swsetup_r>
800050a2:	d955                	beqz	a0,80005056 <_puts_r+0x42>
800050a4:	557d                	li	a0,-1
800050a6:	40f2                	lw	ra,28(sp)
800050a8:	4462                	lw	s0,24(sp)
800050aa:	44d2                	lw	s1,20(sp)
800050ac:	4942                	lw	s2,16(sp)
800050ae:	49b2                	lw	s3,12(sp)
800050b0:	4a22                	lw	s4,8(sp)
800050b2:	6105                	addi	sp,sp,32
800050b4:	8082                	ret
800050b6:	c41c                	sw	a5,8(s0)
800050b8:	0905                	addi	s2,s2,1
800050ba:	0007d763          	bgez	a5,800050c8 <_puts_r+0xb4>
800050be:	4c18                	lw	a4,24(s0)
800050c0:	00e7cb63          	blt	a5,a4,800050d6 <_puts_r+0xc2>
800050c4:	01458963          	beq	a1,s4,800050d6 <_puts_r+0xc2>
800050c8:	401c                	lw	a5,0(s0)
800050ca:	00178713          	addi	a4,a5,1
800050ce:	c018                	sw	a4,0(s0)
800050d0:	00b78023          	sb	a1,0(a5)
800050d4:	b759                	j	8000505a <_puts_r+0x46>
800050d6:	8622                	mv	a2,s0
800050d8:	8526                	mv	a0,s1
800050da:	282d                	jal	80005114 <__swbuf_r>
800050dc:	f7351fe3          	bne	a0,s3,8000505a <_puts_r+0x46>
800050e0:	b7d1                	j	800050a4 <_puts_r+0x90>
800050e2:	401c                	lw	a5,0(s0)
800050e4:	00178713          	addi	a4,a5,1
800050e8:	c018                	sw	a4,0(s0)
800050ea:	4729                	li	a4,10
800050ec:	00e78023          	sb	a4,0(a5)
800050f0:	b761                	j	80005078 <_puts_r+0x64>

800050f2 <puts>:
puts():
800050f2:	85aa                	mv	a1,a0
800050f4:	0fffb517          	auipc	a0,0xfffb
800050f8:	0e452503          	lw	a0,228(a0) # 900001d8 <_impure_ptr>
800050fc:	bf21                	j	80005014 <_puts_r>

800050fe <strlen>:
strlen():
800050fe:	87aa                	mv	a5,a0
80005100:	0007c703          	lbu	a4,0(a5)
80005104:	0785                	addi	a5,a5,1
80005106:	ff6d                	bnez	a4,80005100 <strlen+0x2>
80005108:	40a78533          	sub	a0,a5,a0
8000510c:	157d                	addi	a0,a0,-1
8000510e:	8082                	ret

80005110 <isatty>:
isatty():
80005110:	a80fb06f          	j	80000390 <_isatty>

80005114 <__swbuf_r>:
__swbuf_r():
80005114:	1101                	addi	sp,sp,-32
80005116:	cc22                	sw	s0,24(sp)
80005118:	ca26                	sw	s1,20(sp)
8000511a:	c84a                	sw	s2,16(sp)
8000511c:	ce06                	sw	ra,28(sp)
8000511e:	c64e                	sw	s3,12(sp)
80005120:	84aa                	mv	s1,a0
80005122:	892e                	mv	s2,a1
80005124:	8432                	mv	s0,a2
80005126:	c509                	beqz	a0,80005130 <__swbuf_r+0x1c>
80005128:	4d1c                	lw	a5,24(a0)
8000512a:	e399                	bnez	a5,80005130 <__swbuf_r+0x1c>
8000512c:	20e010ef          	jal	ra,8000633a <__sinit>
80005130:	00004797          	auipc	a5,0x4
80005134:	75478793          	addi	a5,a5,1876 # 80009884 <__sf_fake_stdin>
80005138:	06f41b63          	bne	s0,a5,800051ae <__swbuf_r+0x9a>
8000513c:	40c0                	lw	s0,4(s1)
8000513e:	4c1c                	lw	a5,24(s0)
80005140:	c41c                	sw	a5,8(s0)
80005142:	00c45783          	lhu	a5,12(s0)
80005146:	8ba1                	andi	a5,a5,8
80005148:	c3d9                	beqz	a5,800051ce <__swbuf_r+0xba>
8000514a:	481c                	lw	a5,16(s0)
8000514c:	c3c9                	beqz	a5,800051ce <__swbuf_r+0xba>
8000514e:	481c                	lw	a5,16(s0)
80005150:	4008                	lw	a0,0(s0)
80005152:	0ff97993          	zext.b	s3,s2
80005156:	0ff97913          	zext.b	s2,s2
8000515a:	8d1d                	sub	a0,a0,a5
8000515c:	485c                	lw	a5,20(s0)
8000515e:	00f54763          	blt	a0,a5,8000516c <__swbuf_r+0x58>
80005162:	85a2                	mv	a1,s0
80005164:	8526                	mv	a0,s1
80005166:	0b8010ef          	jal	ra,8000621e <_fflush_r>
8000516a:	e535                	bnez	a0,800051d6 <__swbuf_r+0xc2>
8000516c:	441c                	lw	a5,8(s0)
8000516e:	0505                	addi	a0,a0,1
80005170:	17fd                	addi	a5,a5,-1
80005172:	c41c                	sw	a5,8(s0)
80005174:	401c                	lw	a5,0(s0)
80005176:	00178713          	addi	a4,a5,1
8000517a:	c018                	sw	a4,0(s0)
8000517c:	01378023          	sb	s3,0(a5)
80005180:	485c                	lw	a5,20(s0)
80005182:	00a78963          	beq	a5,a0,80005194 <__swbuf_r+0x80>
80005186:	00c45783          	lhu	a5,12(s0)
8000518a:	8b85                	andi	a5,a5,1
8000518c:	cb89                	beqz	a5,8000519e <__swbuf_r+0x8a>
8000518e:	47a9                	li	a5,10
80005190:	00f91763          	bne	s2,a5,8000519e <__swbuf_r+0x8a>
80005194:	85a2                	mv	a1,s0
80005196:	8526                	mv	a0,s1
80005198:	086010ef          	jal	ra,8000621e <_fflush_r>
8000519c:	ed0d                	bnez	a0,800051d6 <__swbuf_r+0xc2>
8000519e:	40f2                	lw	ra,28(sp)
800051a0:	4462                	lw	s0,24(sp)
800051a2:	44d2                	lw	s1,20(sp)
800051a4:	49b2                	lw	s3,12(sp)
800051a6:	854a                	mv	a0,s2
800051a8:	4942                	lw	s2,16(sp)
800051aa:	6105                	addi	sp,sp,32
800051ac:	8082                	ret
800051ae:	00004797          	auipc	a5,0x4
800051b2:	6f678793          	addi	a5,a5,1782 # 800098a4 <__sf_fake_stdout>
800051b6:	00f41463          	bne	s0,a5,800051be <__swbuf_r+0xaa>
800051ba:	4480                	lw	s0,8(s1)
800051bc:	b749                	j	8000513e <__swbuf_r+0x2a>
800051be:	00004797          	auipc	a5,0x4
800051c2:	6a678793          	addi	a5,a5,1702 # 80009864 <__sf_fake_stderr>
800051c6:	f6f41ce3          	bne	s0,a5,8000513e <__swbuf_r+0x2a>
800051ca:	44c0                	lw	s0,12(s1)
800051cc:	bf8d                	j	8000513e <__swbuf_r+0x2a>
800051ce:	85a2                	mv	a1,s0
800051d0:	8526                	mv	a0,s1
800051d2:	2021                	jal	800051da <__swsetup_r>
800051d4:	dd2d                	beqz	a0,8000514e <__swbuf_r+0x3a>
800051d6:	597d                	li	s2,-1
800051d8:	b7d9                	j	8000519e <__swbuf_r+0x8a>

800051da <__swsetup_r>:
__swsetup_r():
800051da:	1141                	addi	sp,sp,-16
800051dc:	c422                	sw	s0,8(sp)
800051de:	c226                	sw	s1,4(sp)
800051e0:	c04a                	sw	s2,0(sp)
800051e2:	c606                	sw	ra,12(sp)
800051e4:	0fffb497          	auipc	s1,0xfffb
800051e8:	ff44a483          	lw	s1,-12(s1) # 900001d8 <_impure_ptr>
800051ec:	892a                	mv	s2,a0
800051ee:	842e                	mv	s0,a1
800051f0:	c491                	beqz	s1,800051fc <__swsetup_r+0x22>
800051f2:	4c9c                	lw	a5,24(s1)
800051f4:	e781                	bnez	a5,800051fc <__swsetup_r+0x22>
800051f6:	8526                	mv	a0,s1
800051f8:	142010ef          	jal	ra,8000633a <__sinit>
800051fc:	00004797          	auipc	a5,0x4
80005200:	68878793          	addi	a5,a5,1672 # 80009884 <__sf_fake_stdin>
80005204:	02f41763          	bne	s0,a5,80005232 <__swsetup_r+0x58>
80005208:	40c0                	lw	s0,4(s1)
8000520a:	00c41783          	lh	a5,12(s0)
8000520e:	01079713          	slli	a4,a5,0x10
80005212:	0087f693          	andi	a3,a5,8
80005216:	8341                	srli	a4,a4,0x10
80005218:	eab5                	bnez	a3,8000528c <__swsetup_r+0xb2>
8000521a:	01077693          	andi	a3,a4,16
8000521e:	ea95                	bnez	a3,80005252 <__swsetup_r+0x78>
80005220:	4725                	li	a4,9
80005222:	00e92023          	sw	a4,0(s2)
80005226:	0407e793          	ori	a5,a5,64
8000522a:	00f41623          	sh	a5,12(s0)
8000522e:	557d                	li	a0,-1
80005230:	a045                	j	800052d0 <__swsetup_r+0xf6>
80005232:	00004797          	auipc	a5,0x4
80005236:	67278793          	addi	a5,a5,1650 # 800098a4 <__sf_fake_stdout>
8000523a:	00f41463          	bne	s0,a5,80005242 <__swsetup_r+0x68>
8000523e:	4480                	lw	s0,8(s1)
80005240:	b7e9                	j	8000520a <__swsetup_r+0x30>
80005242:	00004797          	auipc	a5,0x4
80005246:	62278793          	addi	a5,a5,1570 # 80009864 <__sf_fake_stderr>
8000524a:	fcf410e3          	bne	s0,a5,8000520a <__swsetup_r+0x30>
8000524e:	44c0                	lw	s0,12(s1)
80005250:	bf6d                	j	8000520a <__swsetup_r+0x30>
80005252:	8b11                	andi	a4,a4,4
80005254:	c715                	beqz	a4,80005280 <__swsetup_r+0xa6>
80005256:	584c                	lw	a1,52(s0)
80005258:	c991                	beqz	a1,8000526c <__swsetup_r+0x92>
8000525a:	04440793          	addi	a5,s0,68
8000525e:	00f58563          	beq	a1,a5,80005268 <__swsetup_r+0x8e>
80005262:	854a                	mv	a0,s2
80005264:	5bb010ef          	jal	ra,8000701e <_free_r>
80005268:	02042a23          	sw	zero,52(s0)
8000526c:	00c45783          	lhu	a5,12(s0)
80005270:	00042223          	sw	zero,4(s0)
80005274:	fdb7f793          	andi	a5,a5,-37
80005278:	00f41623          	sh	a5,12(s0)
8000527c:	481c                	lw	a5,16(s0)
8000527e:	c01c                	sw	a5,0(s0)
80005280:	00c45783          	lhu	a5,12(s0)
80005284:	0087e793          	ori	a5,a5,8
80005288:	00f41623          	sh	a5,12(s0)
8000528c:	481c                	lw	a5,16(s0)
8000528e:	ef89                	bnez	a5,800052a8 <__swsetup_r+0xce>
80005290:	00c45783          	lhu	a5,12(s0)
80005294:	20000713          	li	a4,512
80005298:	2807f793          	andi	a5,a5,640
8000529c:	00e78663          	beq	a5,a4,800052a8 <__swsetup_r+0xce>
800052a0:	85a2                	mv	a1,s0
800052a2:	854a                	mv	a0,s2
800052a4:	264010ef          	jal	ra,80006508 <__smakebuf_r>
800052a8:	00c41783          	lh	a5,12(s0)
800052ac:	01079713          	slli	a4,a5,0x10
800052b0:	0017f693          	andi	a3,a5,1
800052b4:	8341                	srli	a4,a4,0x10
800052b6:	c29d                	beqz	a3,800052dc <__swsetup_r+0x102>
800052b8:	4854                	lw	a3,20(s0)
800052ba:	00042423          	sw	zero,8(s0)
800052be:	40d006b3          	neg	a3,a3
800052c2:	cc14                	sw	a3,24(s0)
800052c4:	4814                	lw	a3,16(s0)
800052c6:	4501                	li	a0,0
800052c8:	e681                	bnez	a3,800052d0 <__swsetup_r+0xf6>
800052ca:	08077713          	andi	a4,a4,128
800052ce:	ff21                	bnez	a4,80005226 <__swsetup_r+0x4c>
800052d0:	40b2                	lw	ra,12(sp)
800052d2:	4422                	lw	s0,8(sp)
800052d4:	4492                	lw	s1,4(sp)
800052d6:	4902                	lw	s2,0(sp)
800052d8:	0141                	addi	sp,sp,16
800052da:	8082                	ret
800052dc:	00277693          	andi	a3,a4,2
800052e0:	4601                	li	a2,0
800052e2:	e291                	bnez	a3,800052e6 <__swsetup_r+0x10c>
800052e4:	4850                	lw	a2,20(s0)
800052e6:	c410                	sw	a2,8(s0)
800052e8:	bff1                	j	800052c4 <__swsetup_r+0xea>

800052ea <__register_exitproc>:
__register_exitproc():
800052ea:	88aa                	mv	a7,a0
800052ec:	a1018513          	addi	a0,gp,-1520 # 900003e0 <_global_atexit>
800052f0:	411c                	lw	a5,0(a0)
800052f2:	ef81                	bnez	a5,8000530a <__register_exitproc+0x20>
800052f4:	ba018713          	addi	a4,gp,-1120 # 90000570 <_global_atexit0>
800052f8:	c118                	sw	a4,0(a0)
800052fa:	00000513          	li	a0,0
800052fe:	87ba                	mv	a5,a4
80005300:	c509                	beqz	a0,8000530a <__register_exitproc+0x20>
80005302:	411c                	lw	a5,0(a0)
80005304:	08f72423          	sw	a5,136(a4)
80005308:	87ba                	mv	a5,a4
8000530a:	43d8                	lw	a4,4(a5)
8000530c:	487d                	li	a6,31
8000530e:	557d                	li	a0,-1
80005310:	04e84663          	blt	a6,a4,8000535c <__register_exitproc+0x72>
80005314:	02088d63          	beqz	a7,8000534e <__register_exitproc+0x64>
80005318:	0887a803          	lw	a6,136(a5)
8000531c:	04080063          	beqz	a6,8000535c <__register_exitproc+0x72>
80005320:	00271513          	slli	a0,a4,0x2
80005324:	9542                	add	a0,a0,a6
80005326:	c110                	sw	a2,0(a0)
80005328:	10082303          	lw	t1,256(a6)
8000532c:	4605                	li	a2,1
8000532e:	00e61633          	sll	a2,a2,a4
80005332:	00c36333          	or	t1,t1,a2
80005336:	10682023          	sw	t1,256(a6)
8000533a:	08d52023          	sw	a3,128(a0)
8000533e:	4689                	li	a3,2
80005340:	00d89763          	bne	a7,a3,8000534e <__register_exitproc+0x64>
80005344:	10482683          	lw	a3,260(a6)
80005348:	8e55                	or	a2,a2,a3
8000534a:	10c82223          	sw	a2,260(a6)
8000534e:	00170693          	addi	a3,a4,1
80005352:	070a                	slli	a4,a4,0x2
80005354:	c3d4                	sw	a3,4(a5)
80005356:	97ba                	add	a5,a5,a4
80005358:	c78c                	sw	a1,8(a5)
8000535a:	4501                	li	a0,0
8000535c:	8082                	ret

8000535e <quorem>:
quorem():
8000535e:	1101                	addi	sp,sp,-32
80005360:	cc22                	sw	s0,24(sp)
80005362:	491c                	lw	a5,16(a0)
80005364:	4980                	lw	s0,16(a1)
80005366:	ce06                	sw	ra,28(sp)
80005368:	ca26                	sw	s1,20(sp)
8000536a:	c84a                	sw	s2,16(sp)
8000536c:	c64e                	sw	s3,12(sp)
8000536e:	c452                	sw	s4,8(sp)
80005370:	c256                	sw	s5,4(sp)
80005372:	1087ca63          	blt	a5,s0,80005486 <quorem+0x128>
80005376:	147d                	addi	s0,s0,-1
80005378:	00241613          	slli	a2,s0,0x2
8000537c:	01458a13          	addi	s4,a1,20
80005380:	00ca0ab3          	add	s5,s4,a2
80005384:	01450993          	addi	s3,a0,20
80005388:	000aa783          	lw	a5,0(s5)
8000538c:	964e                	add	a2,a2,s3
8000538e:	4218                	lw	a4,0(a2)
80005390:	0785                	addi	a5,a5,1
80005392:	892a                	mv	s2,a0
80005394:	02f754b3          	divu	s1,a4,a5
80005398:	06f76263          	bltu	a4,a5,800053fc <quorem+0x9e>
8000539c:	6541                	lui	a0,0x10
8000539e:	8852                	mv	a6,s4
800053a0:	88ce                	mv	a7,s3
800053a2:	4301                	li	t1,0
800053a4:	4e01                	li	t3,0
800053a6:	157d                	addi	a0,a0,-1
800053a8:	00082683          	lw	a3,0(a6)
800053ac:	0891                	addi	a7,a7,4
800053ae:	0811                	addi	a6,a6,4
800053b0:	00a6f7b3          	and	a5,a3,a0
800053b4:	82c1                	srli	a3,a3,0x10
800053b6:	029787b3          	mul	a5,a5,s1
800053ba:	029686b3          	mul	a3,a3,s1
800053be:	979a                	add	a5,a5,t1
800053c0:	0107d713          	srli	a4,a5,0x10
800053c4:	8fe9                	and	a5,a5,a0
800053c6:	40fe07b3          	sub	a5,t3,a5
800053ca:	96ba                	add	a3,a3,a4
800053cc:	ffc8a703          	lw	a4,-4(a7) # 3ffffc <__stack_size+0x3ff7fc>
800053d0:	0106d313          	srli	t1,a3,0x10
800053d4:	8ee9                	and	a3,a3,a0
800053d6:	00a77e33          	and	t3,a4,a0
800053da:	97f2                	add	a5,a5,t3
800053dc:	8341                	srli	a4,a4,0x10
800053de:	8f15                	sub	a4,a4,a3
800053e0:	4107d693          	srai	a3,a5,0x10
800053e4:	9736                	add	a4,a4,a3
800053e6:	41075e13          	srai	t3,a4,0x10
800053ea:	8fe9                	and	a5,a5,a0
800053ec:	0742                	slli	a4,a4,0x10
800053ee:	8fd9                	or	a5,a5,a4
800053f0:	fef8ae23          	sw	a5,-4(a7)
800053f4:	fb0afae3          	bgeu	s5,a6,800053a8 <quorem+0x4a>
800053f8:	421c                	lw	a5,0(a2)
800053fa:	c7bd                	beqz	a5,80005468 <quorem+0x10a>
800053fc:	854a                	mv	a0,s2
800053fe:	16b010ef          	jal	ra,80006d68 <__mcmp>
80005402:	04054663          	bltz	a0,8000544e <quorem+0xf0>
80005406:	66c1                	lui	a3,0x10
80005408:	0485                	addi	s1,s1,1
8000540a:	864e                	mv	a2,s3
8000540c:	4581                	li	a1,0
8000540e:	16fd                	addi	a3,a3,-1
80005410:	000a2503          	lw	a0,0(s4)
80005414:	421c                	lw	a5,0(a2)
80005416:	0611                	addi	a2,a2,4
80005418:	00d57733          	and	a4,a0,a3
8000541c:	8d99                	sub	a1,a1,a4
8000541e:	00d7f733          	and	a4,a5,a3
80005422:	972e                	add	a4,a4,a1
80005424:	83c1                	srli	a5,a5,0x10
80005426:	8141                	srli	a0,a0,0x10
80005428:	41075593          	srai	a1,a4,0x10
8000542c:	8f89                	sub	a5,a5,a0
8000542e:	97ae                	add	a5,a5,a1
80005430:	4107d593          	srai	a1,a5,0x10
80005434:	8f75                	and	a4,a4,a3
80005436:	07c2                	slli	a5,a5,0x10
80005438:	8fd9                	or	a5,a5,a4
8000543a:	0a11                	addi	s4,s4,4
8000543c:	fef62e23          	sw	a5,-4(a2)
80005440:	fd4af8e3          	bgeu	s5,s4,80005410 <quorem+0xb2>
80005444:	00241793          	slli	a5,s0,0x2
80005448:	97ce                	add	a5,a5,s3
8000544a:	4398                	lw	a4,0(a5)
8000544c:	c71d                	beqz	a4,8000547a <quorem+0x11c>
8000544e:	8526                	mv	a0,s1
80005450:	40f2                	lw	ra,28(sp)
80005452:	4462                	lw	s0,24(sp)
80005454:	44d2                	lw	s1,20(sp)
80005456:	4942                	lw	s2,16(sp)
80005458:	49b2                	lw	s3,12(sp)
8000545a:	4a22                	lw	s4,8(sp)
8000545c:	4a92                	lw	s5,4(sp)
8000545e:	6105                	addi	sp,sp,32
80005460:	8082                	ret
80005462:	421c                	lw	a5,0(a2)
80005464:	e789                	bnez	a5,8000546e <quorem+0x110>
80005466:	147d                	addi	s0,s0,-1
80005468:	1671                	addi	a2,a2,-4
8000546a:	fec9ece3          	bltu	s3,a2,80005462 <quorem+0x104>
8000546e:	00892823          	sw	s0,16(s2)
80005472:	b769                	j	800053fc <quorem+0x9e>
80005474:	4398                	lw	a4,0(a5)
80005476:	e709                	bnez	a4,80005480 <quorem+0x122>
80005478:	147d                	addi	s0,s0,-1
8000547a:	17f1                	addi	a5,a5,-4
8000547c:	fef9ece3          	bltu	s3,a5,80005474 <quorem+0x116>
80005480:	00892823          	sw	s0,16(s2)
80005484:	b7e9                	j	8000544e <quorem+0xf0>
80005486:	4501                	li	a0,0
80005488:	b7e1                	j	80005450 <quorem+0xf2>

8000548a <_dtoa_r>:
_dtoa_r():
8000548a:	7135                	addi	sp,sp,-160
8000548c:	dc3e                	sw	a5,56(sp)
8000548e:	515c                	lw	a5,36(a0)
80005490:	cd22                	sw	s0,152(sp)
80005492:	cb26                	sw	s1,148(sp)
80005494:	c94a                	sw	s2,144(sp)
80005496:	c74e                	sw	s3,140(sp)
80005498:	c552                	sw	s4,136(sp)
8000549a:	d8ea                	sw	s10,112(sp)
8000549c:	cf06                	sw	ra,156(sp)
8000549e:	c356                	sw	s5,132(sp)
800054a0:	c15a                	sw	s6,128(sp)
800054a2:	dede                	sw	s7,124(sp)
800054a4:	dce2                	sw	s8,120(sp)
800054a6:	dae6                	sw	s9,116(sp)
800054a8:	d6ee                	sw	s11,108(sp)
800054aa:	cc3a                	sw	a4,24(sp)
800054ac:	ce46                	sw	a7,28(sp)
800054ae:	c82e                	sw	a1,16(sp)
800054b0:	892a                	mv	s2,a0
800054b2:	84ae                	mv	s1,a1
800054b4:	8432                	mv	s0,a2
800054b6:	8d36                	mv	s10,a3
800054b8:	8a42                	mv	s4,a6
800054ba:	89b2                	mv	s3,a2
800054bc:	ef85                	bnez	a5,800054f4 <_dtoa_r+0x6a>
800054be:	4541                	li	a0,16
800054c0:	0e8010ef          	jal	ra,800065a8 <malloc>
800054c4:	02a92223          	sw	a0,36(s2)
800054c8:	ed11                	bnez	a0,800054e4 <_dtoa_r+0x5a>
800054ca:	00004697          	auipc	a3,0x4
800054ce:	31a68693          	addi	a3,a3,794 # 800097e4 <__clz_tab+0x1a4>
800054d2:	4601                	li	a2,0
800054d4:	0ea00593          	li	a1,234
800054d8:	00004517          	auipc	a0,0x4
800054dc:	32450513          	addi	a0,a0,804 # 800097fc <__clz_tab+0x1bc>
800054e0:	150020ef          	jal	ra,80007630 <__assert_func>
800054e4:	00052223          	sw	zero,4(a0)
800054e8:	00052423          	sw	zero,8(a0)
800054ec:	00052023          	sw	zero,0(a0)
800054f0:	00052623          	sw	zero,12(a0)
800054f4:	02492783          	lw	a5,36(s2)
800054f8:	438c                	lw	a1,0(a5)
800054fa:	cd91                	beqz	a1,80005516 <_dtoa_r+0x8c>
800054fc:	43d8                	lw	a4,4(a5)
800054fe:	4785                	li	a5,1
80005500:	854a                	mv	a0,s2
80005502:	00e797b3          	sll	a5,a5,a4
80005506:	c59c                	sw	a5,8(a1)
80005508:	c1d8                	sw	a4,4(a1)
8000550a:	2f8010ef          	jal	ra,80006802 <_Bfree>
8000550e:	02492783          	lw	a5,36(s2)
80005512:	0007a023          	sw	zero,0(a5)
80005516:	06045663          	bgez	s0,80005582 <_dtoa_r+0xf8>
8000551a:	4785                	li	a5,1
8000551c:	0406                	slli	s0,s0,0x1
8000551e:	00fa2023          	sw	a5,0(s4)
80005522:	00145993          	srli	s3,s0,0x1
80005526:	7ff007b7          	lui	a5,0x7ff00
8000552a:	00f9f733          	and	a4,s3,a5
8000552e:	04f71d63          	bne	a4,a5,80005588 <_dtoa_r+0xfe>
80005532:	5762                	lw	a4,56(sp)
80005534:	6789                	lui	a5,0x2
80005536:	09b2                	slli	s3,s3,0xc
80005538:	70f78793          	addi	a5,a5,1807 # 270f <__stack_size+0x1f0f>
8000553c:	00c9d993          	srli	s3,s3,0xc
80005540:	c31c                	sw	a5,0(a4)
80005542:	0099e4b3          	or	s1,s3,s1
80005546:	32048ee3          	beqz	s1,80006082 <_dtoa_r+0xbf8>
8000554a:	47f2                	lw	a5,28(sp)
8000554c:	00004b17          	auipc	s6,0x4
80005550:	294b0b13          	addi	s6,s6,660 # 800097e0 <__clz_tab+0x1a0>
80005554:	c799                	beqz	a5,80005562 <_dtoa_r+0xd8>
80005556:	00004797          	auipc	a5,0x4
8000555a:	28d78793          	addi	a5,a5,653 # 800097e3 <__clz_tab+0x1a3>
8000555e:	4772                	lw	a4,28(sp)
80005560:	c31c                	sw	a5,0(a4)
80005562:	40fa                	lw	ra,156(sp)
80005564:	446a                	lw	s0,152(sp)
80005566:	44da                	lw	s1,148(sp)
80005568:	494a                	lw	s2,144(sp)
8000556a:	49ba                	lw	s3,140(sp)
8000556c:	4a2a                	lw	s4,136(sp)
8000556e:	4a9a                	lw	s5,132(sp)
80005570:	5bf6                	lw	s7,124(sp)
80005572:	5c66                	lw	s8,120(sp)
80005574:	5cd6                	lw	s9,116(sp)
80005576:	5d46                	lw	s10,112(sp)
80005578:	5db6                	lw	s11,108(sp)
8000557a:	855a                	mv	a0,s6
8000557c:	4b0a                	lw	s6,128(sp)
8000557e:	610d                	addi	sp,sp,160
80005580:	8082                	ret
80005582:	000a2023          	sw	zero,0(s4)
80005586:	b745                	j	80005526 <_dtoa_r+0x9c>
80005588:	4601                	li	a2,0
8000558a:	4681                	li	a3,0
8000558c:	8526                	mv	a0,s1
8000558e:	85ce                	mv	a1,s3
80005590:	d426                	sw	s1,40(sp)
80005592:	d64e                	sw	s3,44(sp)
80005594:	167020ef          	jal	ra,80007efa <__eqdf2>
80005598:	ed19                	bnez	a0,800055b6 <_dtoa_r+0x12c>
8000559a:	5762                	lw	a4,56(sp)
8000559c:	4785                	li	a5,1
8000559e:	00004b17          	auipc	s6,0x4
800055a2:	1b2b0b13          	addi	s6,s6,434 # 80009750 <__clz_tab+0x110>
800055a6:	c31c                	sw	a5,0(a4)
800055a8:	47f2                	lw	a5,28(sp)
800055aa:	dfc5                	beqz	a5,80005562 <_dtoa_r+0xd8>
800055ac:	00004797          	auipc	a5,0x4
800055b0:	1a578793          	addi	a5,a5,421 # 80009751 <__clz_tab+0x111>
800055b4:	b76d                	j	8000555e <_dtoa_r+0xd4>
800055b6:	08b8                	addi	a4,sp,88
800055b8:	08f4                	addi	a3,sp,92
800055ba:	864e                	mv	a2,s3
800055bc:	85a6                	mv	a1,s1
800055be:	854a                	mv	a0,s2
800055c0:	0149da13          	srli	s4,s3,0x14
800055c4:	137010ef          	jal	ra,80006efa <__d2b>
800055c8:	7ffa7a13          	andi	s4,s4,2047
800055cc:	4be6                	lw	s7,88(sp)
800055ce:	842a                	mv	s0,a0
800055d0:	120a0263          	beqz	s4,800056f4 <_dtoa_r+0x26a>
800055d4:	57b2                	lw	a5,44(sp)
800055d6:	5522                	lw	a0,40(sp)
800055d8:	c01a0a13          	addi	s4,s4,-1023
800055dc:	00c79593          	slli	a1,a5,0xc
800055e0:	81b1                	srli	a1,a1,0xc
800055e2:	3ff007b7          	lui	a5,0x3ff00
800055e6:	8ddd                	or	a1,a1,a5
800055e8:	c082                	sw	zero,64(sp)
800055ea:	0fffb797          	auipc	a5,0xfffb
800055ee:	c0678793          	addi	a5,a5,-1018 # 900001f0 <_impure_ptr+0x18>
800055f2:	4390                	lw	a2,0(a5)
800055f4:	43d4                	lw	a3,4(a5)
800055f6:	305020ef          	jal	ra,800080fa <__subdf3>
800055fa:	0fffb797          	auipc	a5,0xfffb
800055fe:	bfe78793          	addi	a5,a5,-1026 # 900001f8 <_impure_ptr+0x20>
80005602:	4390                	lw	a2,0(a5)
80005604:	43d4                	lw	a3,4(a5)
80005606:	e1cfe0ef          	jal	ra,80003c22 <__muldf3>
8000560a:	0fffb797          	auipc	a5,0xfffb
8000560e:	bf678793          	addi	a5,a5,-1034 # 90000200 <_impure_ptr+0x28>
80005612:	4390                	lw	a2,0(a5)
80005614:	43d4                	lw	a3,4(a5)
80005616:	d63fd0ef          	jal	ra,80003378 <__adddf3>
8000561a:	8aaa                	mv	s5,a0
8000561c:	8552                	mv	a0,s4
8000561e:	84ae                	mv	s1,a1
80005620:	4d0030ef          	jal	ra,80008af0 <__floatsidf>
80005624:	0fffb797          	auipc	a5,0xfffb
80005628:	be478793          	addi	a5,a5,-1052 # 90000208 <_impure_ptr+0x30>
8000562c:	4390                	lw	a2,0(a5)
8000562e:	43d4                	lw	a3,4(a5)
80005630:	df2fe0ef          	jal	ra,80003c22 <__muldf3>
80005634:	862a                	mv	a2,a0
80005636:	86ae                	mv	a3,a1
80005638:	8556                	mv	a0,s5
8000563a:	85a6                	mv	a1,s1
8000563c:	d3dfd0ef          	jal	ra,80003378 <__adddf3>
80005640:	8aaa                	mv	s5,a0
80005642:	8b2e                	mv	s6,a1
80005644:	3e8030ef          	jal	ra,80008a2c <__fixdfsi>
80005648:	84aa                	mv	s1,a0
8000564a:	4601                	li	a2,0
8000564c:	4681                	li	a3,0
8000564e:	8556                	mv	a0,s5
80005650:	85da                	mv	a1,s6
80005652:	1fb020ef          	jal	ra,8000804c <__ledf2>
80005656:	00055b63          	bgez	a0,8000566c <_dtoa_r+0x1e2>
8000565a:	8526                	mv	a0,s1
8000565c:	494030ef          	jal	ra,80008af0 <__floatsidf>
80005660:	8656                	mv	a2,s5
80005662:	86da                	mv	a3,s6
80005664:	097020ef          	jal	ra,80007efa <__eqdf2>
80005668:	c111                	beqz	a0,8000566c <_dtoa_r+0x1e2>
8000566a:	14fd                	addi	s1,s1,-1
8000566c:	4705                	li	a4,1
8000566e:	47d9                	li	a5,22
80005670:	d83a                	sw	a4,48(sp)
80005672:	0297e363          	bltu	a5,s1,80005698 <_dtoa_r+0x20e>
80005676:	00349713          	slli	a4,s1,0x3
8000567a:	00004797          	auipc	a5,0x4
8000567e:	2c678793          	addi	a5,a5,710 # 80009940 <__mprec_tens>
80005682:	97ba                	add	a5,a5,a4
80005684:	4390                	lw	a2,0(a5)
80005686:	43d4                	lw	a3,4(a5)
80005688:	5522                	lw	a0,40(sp)
8000568a:	55b2                	lw	a1,44(sp)
8000568c:	1c1020ef          	jal	ra,8000804c <__ledf2>
80005690:	00055363          	bgez	a0,80005696 <_dtoa_r+0x20c>
80005694:	14fd                	addi	s1,s1,-1
80005696:	d802                	sw	zero,48(sp)
80005698:	414b8a33          	sub	s4,s7,s4
8000569c:	fffa0c93          	addi	s9,s4,-1
800056a0:	4c01                	li	s8,0
800056a2:	000cd663          	bgez	s9,800056ae <_dtoa_r+0x224>
800056a6:	4c05                	li	s8,1
800056a8:	414c0c33          	sub	s8,s8,s4
800056ac:	4c81                	li	s9,0
800056ae:	0804c363          	bltz	s1,80005734 <_dtoa_r+0x2aa>
800056b2:	9ca6                	add	s9,s9,s1
800056b4:	d026                	sw	s1,32(sp)
800056b6:	4a81                	li	s5,0
800056b8:	47a5                	li	a5,9
800056ba:	0fa7e263          	bltu	a5,s10,8000579e <_dtoa_r+0x314>
800056be:	4795                	li	a5,5
800056c0:	4a05                	li	s4,1
800056c2:	01a7d463          	bge	a5,s10,800056ca <_dtoa_r+0x240>
800056c6:	1d71                	addi	s10,s10,-4
800056c8:	4a01                	li	s4,0
800056ca:	4791                	li	a5,4
800056cc:	06fd0a63          	beq	s10,a5,80005740 <_dtoa_r+0x2b6>
800056d0:	4795                	li	a5,5
800056d2:	0afd0a63          	beq	s10,a5,80005786 <_dtoa_r+0x2fc>
800056d6:	4789                	li	a5,2
800056d8:	0afd0563          	beq	s10,a5,80005782 <_dtoa_r+0x2f8>
800056dc:	478d                	li	a5,3
800056de:	ca02                	sw	zero,20(sp)
800056e0:	0afd0563          	beq	s10,a5,8000578a <_dtoa_r+0x300>
800056e4:	4785                	li	a5,1
800056e6:	ca3e                	sw	a5,20(sp)
800056e8:	57fd                	li	a5,-1
800056ea:	c63e                	sw	a5,12(sp)
800056ec:	5bfd                	li	s7,-1
800056ee:	47c9                	li	a5,18
800056f0:	cc02                	sw	zero,24(sp)
800056f2:	a08d                	j	80005754 <_dtoa_r+0x2ca>
800056f4:	4a76                	lw	s4,92(sp)
800056f6:	02000793          	li	a5,32
800056fa:	9a5e                	add	s4,s4,s7
800056fc:	432a0593          	addi	a1,s4,1074
80005700:	02b7d563          	bge	a5,a1,8000572a <_dtoa_r+0x2a0>
80005704:	04000513          	li	a0,64
80005708:	8d0d                	sub	a0,a0,a1
8000570a:	412a0593          	addi	a1,s4,1042
8000570e:	00a99533          	sll	a0,s3,a0
80005712:	00b4d4b3          	srl	s1,s1,a1
80005716:	8d45                	or	a0,a0,s1
80005718:	aa3fe0ef          	jal	ra,800041ba <__floatunsidf>
8000571c:	fe1007b7          	lui	a5,0xfe100
80005720:	95be                	add	a1,a1,a5
80005722:	4785                	li	a5,1
80005724:	1a7d                	addi	s4,s4,-1
80005726:	c0be                	sw	a5,64(sp)
80005728:	b5c9                	j	800055ea <_dtoa_r+0x160>
8000572a:	40b78533          	sub	a0,a5,a1
8000572e:	00a49533          	sll	a0,s1,a0
80005732:	b7dd                	j	80005718 <_dtoa_r+0x28e>
80005734:	409c0c33          	sub	s8,s8,s1
80005738:	40900ab3          	neg	s5,s1
8000573c:	d002                	sw	zero,32(sp)
8000573e:	bfad                	j	800056b8 <_dtoa_r+0x22e>
80005740:	4785                	li	a5,1
80005742:	ca3e                	sw	a5,20(sp)
80005744:	47e2                	lw	a5,24(sp)
80005746:	04f04f63          	bgtz	a5,800057a4 <_dtoa_r+0x31a>
8000574a:	4785                	li	a5,1
8000574c:	4705                	li	a4,1
8000574e:	c63e                	sw	a5,12(sp)
80005750:	4b85                	li	s7,1
80005752:	cc3a                	sw	a4,24(sp)
80005754:	02492683          	lw	a3,36(s2)
80005758:	4711                	li	a4,4
8000575a:	0006a223          	sw	zero,4(a3)
8000575e:	01470613          	addi	a2,a4,20
80005762:	42cc                	lw	a1,4(a3)
80005764:	04c7f463          	bgeu	a5,a2,800057ac <_dtoa_r+0x322>
80005768:	854a                	mv	a0,s2
8000576a:	7eb000ef          	jal	ra,80006754 <_Balloc>
8000576e:	8b2a                	mv	s6,a0
80005770:	e131                	bnez	a0,800057b4 <_dtoa_r+0x32a>
80005772:	00004697          	auipc	a3,0x4
80005776:	0de68693          	addi	a3,a3,222 # 80009850 <__clz_tab+0x210>
8000577a:	4601                	li	a2,0
8000577c:	1aa00593          	li	a1,426
80005780:	bba1                	j	800054d8 <_dtoa_r+0x4e>
80005782:	ca02                	sw	zero,20(sp)
80005784:	b7c1                	j	80005744 <_dtoa_r+0x2ba>
80005786:	4785                	li	a5,1
80005788:	ca3e                	sw	a5,20(sp)
8000578a:	47e2                	lw	a5,24(sp)
8000578c:	97a6                	add	a5,a5,s1
8000578e:	c63e                	sw	a5,12(sp)
80005790:	00178b93          	addi	s7,a5,1 # fe100001 <_sp+0x6e0f0001>
80005794:	87de                	mv	a5,s7
80005796:	fb704fe3          	bgtz	s7,80005754 <_dtoa_r+0x2ca>
8000579a:	4785                	li	a5,1
8000579c:	bf65                	j	80005754 <_dtoa_r+0x2ca>
8000579e:	4a05                	li	s4,1
800057a0:	4d01                	li	s10,0
800057a2:	b789                	j	800056e4 <_dtoa_r+0x25a>
800057a4:	47e2                	lw	a5,24(sp)
800057a6:	c63e                	sw	a5,12(sp)
800057a8:	8bbe                	mv	s7,a5
800057aa:	b76d                	j	80005754 <_dtoa_r+0x2ca>
800057ac:	0585                	addi	a1,a1,1
800057ae:	c2cc                	sw	a1,4(a3)
800057b0:	0706                	slli	a4,a4,0x1
800057b2:	b775                	j	8000575e <_dtoa_r+0x2d4>
800057b4:	02492783          	lw	a5,36(s2)
800057b8:	c388                	sw	a0,0(a5)
800057ba:	47b9                	li	a5,14
800057bc:	1577e463          	bltu	a5,s7,80005904 <_dtoa_r+0x47a>
800057c0:	140a0263          	beqz	s4,80005904 <_dtoa_r+0x47a>
800057c4:	1c905763          	blez	s1,80005992 <_dtoa_r+0x508>
800057c8:	00f4f793          	andi	a5,s1,15
800057cc:	00379713          	slli	a4,a5,0x3
800057d0:	4044dd93          	srai	s11,s1,0x4
800057d4:	00004797          	auipc	a5,0x4
800057d8:	16c78793          	addi	a5,a5,364 # 80009940 <__mprec_tens>
800057dc:	97ba                	add	a5,a5,a4
800057de:	010df693          	andi	a3,s11,16
800057e2:	4398                	lw	a4,0(a5)
800057e4:	4a09                	li	s4,2
800057e6:	43dc                	lw	a5,4(a5)
800057e8:	c685                	beqz	a3,80005810 <_dtoa_r+0x386>
800057ea:	00004697          	auipc	a3,0x4
800057ee:	12e68693          	addi	a3,a3,302 # 80009918 <__mprec_bigtens>
800057f2:	5290                	lw	a2,32(a3)
800057f4:	5522                	lw	a0,40(sp)
800057f6:	52d4                	lw	a3,36(a3)
800057f8:	55b2                	lw	a1,44(sp)
800057fa:	da3e                	sw	a5,52(sp)
800057fc:	d23a                	sw	a4,36(sp)
800057fe:	072020ef          	jal	ra,80007870 <__divdf3>
80005802:	57d2                	lw	a5,52(sp)
80005804:	5712                	lw	a4,36(sp)
80005806:	00fdfd93          	andi	s11,s11,15
8000580a:	c82a                	sw	a0,16(sp)
8000580c:	89ae                	mv	s3,a1
8000580e:	4a0d                	li	s4,3
80005810:	00004817          	auipc	a6,0x4
80005814:	10880813          	addi	a6,a6,264 # 80009918 <__mprec_bigtens>
80005818:	140d9963          	bnez	s11,8000596a <_dtoa_r+0x4e0>
8000581c:	863a                	mv	a2,a4
8000581e:	4742                	lw	a4,16(sp)
80005820:	86be                	mv	a3,a5
80005822:	85ce                	mv	a1,s3
80005824:	853a                	mv	a0,a4
80005826:	04a020ef          	jal	ra,80007870 <__divdf3>
8000582a:	c82a                	sw	a0,16(sp)
8000582c:	89ae                	mv	s3,a1
8000582e:	57c2                	lw	a5,48(sp)
80005830:	1c078663          	beqz	a5,800059fc <_dtoa_r+0x572>
80005834:	4742                	lw	a4,16(sp)
80005836:	0fffb697          	auipc	a3,0xfffb
8000583a:	9da68693          	addi	a3,a3,-1574 # 90000210 <_impure_ptr+0x38>
8000583e:	4290                	lw	a2,0(a3)
80005840:	42d4                	lw	a3,4(a3)
80005842:	853a                	mv	a0,a4
80005844:	85ce                	mv	a1,s3
80005846:	da3a                	sw	a4,52(sp)
80005848:	d24e                	sw	s3,36(sp)
8000584a:	003020ef          	jal	ra,8000804c <__ledf2>
8000584e:	1a055763          	bgez	a0,800059fc <_dtoa_r+0x572>
80005852:	1a0b8863          	beqz	s7,80005a02 <_dtoa_r+0x578>
80005856:	47b2                	lw	a5,12(sp)
80005858:	0af05363          	blez	a5,800058fe <_dtoa_r+0x474>
8000585c:	5752                	lw	a4,52(sp)
8000585e:	0fffb697          	auipc	a3,0xfffb
80005862:	9ba68693          	addi	a3,a3,-1606 # 90000218 <_impure_ptr+0x40>
80005866:	4290                	lw	a2,0(a3)
80005868:	42d4                	lw	a3,4(a3)
8000586a:	85ce                	mv	a1,s3
8000586c:	853a                	mv	a0,a4
8000586e:	bb4fe0ef          	jal	ra,80003c22 <__muldf3>
80005872:	4832                	lw	a6,12(sp)
80005874:	fff48d93          	addi	s11,s1,-1
80005878:	c82a                	sw	a0,16(sp)
8000587a:	89ae                	mv	s3,a1
8000587c:	0a05                	addi	s4,s4,1
8000587e:	4742                	lw	a4,16(sp)
80005880:	8552                	mv	a0,s4
80005882:	c2c2                	sw	a6,68(sp)
80005884:	de3a                	sw	a4,60(sp)
80005886:	d24e                	sw	s3,36(sp)
80005888:	da4e                	sw	s3,52(sp)
8000588a:	266030ef          	jal	ra,80008af0 <__floatsidf>
8000588e:	5772                	lw	a4,60(sp)
80005890:	86ce                	mv	a3,s3
80005892:	863a                	mv	a2,a4
80005894:	b8efe0ef          	jal	ra,80003c22 <__muldf3>
80005898:	0fffb697          	auipc	a3,0xfffb
8000589c:	98868693          	addi	a3,a3,-1656 # 90000220 <_impure_ptr+0x48>
800058a0:	4290                	lw	a2,0(a3)
800058a2:	42d4                	lw	a3,4(a3)
800058a4:	ad5fd0ef          	jal	ra,80003378 <__adddf3>
800058a8:	4816                	lw	a6,68(sp)
800058aa:	fcc00337          	lui	t1,0xfcc00
800058ae:	932e                	add	t1,t1,a1
800058b0:	14081c63          	bnez	a6,80005a08 <_dtoa_r+0x57e>
800058b4:	5772                	lw	a4,60(sp)
800058b6:	0fffb697          	auipc	a3,0xfffb
800058ba:	97268693          	addi	a3,a3,-1678 # 90000228 <_impure_ptr+0x50>
800058be:	4290                	lw	a2,0(a3)
800058c0:	42d4                	lw	a3,4(a3)
800058c2:	d22a                	sw	a0,36(sp)
800058c4:	85ce                	mv	a1,s3
800058c6:	853a                	mv	a0,a4
800058c8:	c81a                	sw	t1,16(sp)
800058ca:	031020ef          	jal	ra,800080fa <__subdf3>
800058ce:	5892                	lw	a7,36(sp)
800058d0:	4342                	lw	t1,16(sp)
800058d2:	8a2a                	mv	s4,a0
800058d4:	8646                	mv	a2,a7
800058d6:	869a                	mv	a3,t1
800058d8:	89ae                	mv	s3,a1
800058da:	6c4020ef          	jal	ra,80007f9e <__gedf2>
800058de:	5aa04a63          	bgtz	a0,80005e92 <_dtoa_r+0xa08>
800058e2:	4342                	lw	t1,16(sp)
800058e4:	5892                	lw	a7,36(sp)
800058e6:	800007b7          	lui	a5,0x80000
800058ea:	0067c7b3          	xor	a5,a5,t1
800058ee:	8646                	mv	a2,a7
800058f0:	86be                	mv	a3,a5
800058f2:	8552                	mv	a0,s4
800058f4:	85ce                	mv	a1,s3
800058f6:	756020ef          	jal	ra,8000804c <__ledf2>
800058fa:	58054963          	bltz	a0,80005e8c <_dtoa_r+0xa02>
800058fe:	57a2                	lw	a5,40(sp)
80005900:	59b2                	lw	s3,44(sp)
80005902:	c83e                	sw	a5,16(sp)
80005904:	4776                	lw	a4,92(sp)
80005906:	36074463          	bltz	a4,80005c6e <_dtoa_r+0x7e4>
8000590a:	47b9                	li	a5,14
8000590c:	3697c163          	blt	a5,s1,80005c6e <_dtoa_r+0x7e4>
80005910:	00349713          	slli	a4,s1,0x3
80005914:	00004797          	auipc	a5,0x4
80005918:	02c78793          	addi	a5,a5,44 # 80009940 <__mprec_tens>
8000591c:	97ba                	add	a5,a5,a4
8000591e:	0007aa03          	lw	s4,0(a5)
80005922:	0047aa83          	lw	s5,4(a5)
80005926:	47e2                	lw	a5,24(sp)
80005928:	2607d363          	bgez	a5,80005b8e <_dtoa_r+0x704>
8000592c:	27704163          	bgtz	s7,80005b8e <_dtoa_r+0x704>
80005930:	540b9e63          	bnez	s7,80005e8c <_dtoa_r+0xa02>
80005934:	0fffb797          	auipc	a5,0xfffb
80005938:	8f478793          	addi	a5,a5,-1804 # 90000228 <_impure_ptr+0x50>
8000593c:	4390                	lw	a2,0(a5)
8000593e:	43d4                	lw	a3,4(a5)
80005940:	8552                	mv	a0,s4
80005942:	85d6                	mv	a1,s5
80005944:	adefe0ef          	jal	ra,80003c22 <__muldf3>
80005948:	4742                	lw	a4,16(sp)
8000594a:	86ce                	mv	a3,s3
8000594c:	4a81                	li	s5,0
8000594e:	863a                	mv	a2,a4
80005950:	64e020ef          	jal	ra,80007f9e <__gedf2>
80005954:	4a01                	li	s4,0
80005956:	50055363          	bgez	a0,80005e5c <_dtoa_r+0x9d2>
8000595a:	03100793          	li	a5,49
8000595e:	001b0993          	addi	s3,s6,1
80005962:	00fb0023          	sb	a5,0(s6)
80005966:	0485                	addi	s1,s1,1
80005968:	a9f5                	j	80005e64 <_dtoa_r+0x9da>
8000596a:	001df693          	andi	a3,s11,1
8000596e:	ce91                	beqz	a3,8000598a <_dtoa_r+0x500>
80005970:	00082603          	lw	a2,0(a6)
80005974:	00482683          	lw	a3,4(a6)
80005978:	853a                	mv	a0,a4
8000597a:	85be                	mv	a1,a5
8000597c:	d242                	sw	a6,36(sp)
8000597e:	aa4fe0ef          	jal	ra,80003c22 <__muldf3>
80005982:	5812                	lw	a6,36(sp)
80005984:	0a05                	addi	s4,s4,1
80005986:	872a                	mv	a4,a0
80005988:	87ae                	mv	a5,a1
8000598a:	401ddd93          	srai	s11,s11,0x1
8000598e:	0821                	addi	a6,a6,8
80005990:	b561                	j	80005818 <_dtoa_r+0x38e>
80005992:	4a09                	li	s4,2
80005994:	e8048de3          	beqz	s1,8000582e <_dtoa_r+0x3a4>
80005998:	40900db3          	neg	s11,s1
8000599c:	00fdf793          	andi	a5,s11,15
800059a0:	00379713          	slli	a4,a5,0x3
800059a4:	00004797          	auipc	a5,0x4
800059a8:	f9c78793          	addi	a5,a5,-100 # 80009940 <__mprec_tens>
800059ac:	97ba                	add	a5,a5,a4
800059ae:	43d4                	lw	a3,4(a5)
800059b0:	4390                	lw	a2,0(a5)
800059b2:	5522                	lw	a0,40(sp)
800059b4:	55b2                	lw	a1,44(sp)
800059b6:	404ddd93          	srai	s11,s11,0x4
800059ba:	a68fe0ef          	jal	ra,80003c22 <__muldf3>
800059be:	87aa                	mv	a5,a0
800059c0:	c82a                	sw	a0,16(sp)
800059c2:	89ae                	mv	s3,a1
800059c4:	00004717          	auipc	a4,0x4
800059c8:	f5470713          	addi	a4,a4,-172 # 80009918 <__mprec_bigtens>
800059cc:	4681                	li	a3,0
800059ce:	000d9663          	bnez	s11,800059da <_dtoa_r+0x550>
800059d2:	e4068ee3          	beqz	a3,8000582e <_dtoa_r+0x3a4>
800059d6:	c83e                	sw	a5,16(sp)
800059d8:	bd91                	j	8000582c <_dtoa_r+0x3a2>
800059da:	001df613          	andi	a2,s11,1
800059de:	ca19                	beqz	a2,800059f4 <_dtoa_r+0x56a>
800059e0:	4354                	lw	a3,4(a4)
800059e2:	4310                	lw	a2,0(a4)
800059e4:	853e                	mv	a0,a5
800059e6:	d23a                	sw	a4,36(sp)
800059e8:	a3afe0ef          	jal	ra,80003c22 <__muldf3>
800059ec:	5712                	lw	a4,36(sp)
800059ee:	0a05                	addi	s4,s4,1
800059f0:	87aa                	mv	a5,a0
800059f2:	4685                	li	a3,1
800059f4:	401ddd93          	srai	s11,s11,0x1
800059f8:	0721                	addi	a4,a4,8
800059fa:	bfd1                	j	800059ce <_dtoa_r+0x544>
800059fc:	8da6                	mv	s11,s1
800059fe:	885e                	mv	a6,s7
80005a00:	bdbd                	j	8000587e <_dtoa_r+0x3f4>
80005a02:	8da6                	mv	s11,s1
80005a04:	4801                	li	a6,0
80005a06:	bda5                	j	8000587e <_dtoa_r+0x3f4>
80005a08:	fff80793          	addi	a5,a6,-1
80005a0c:	00379713          	slli	a4,a5,0x3
80005a10:	00004797          	auipc	a5,0x4
80005a14:	f3078793          	addi	a5,a5,-208 # 80009940 <__mprec_tens>
80005a18:	97ba                	add	a5,a5,a4
80005a1a:	4390                	lw	a2,0(a5)
80005a1c:	43d4                	lw	a3,4(a5)
80005a1e:	010b07b3          	add	a5,s6,a6
80005a22:	de3e                	sw	a5,60(sp)
80005a24:	47d2                	lw	a5,20(sp)
80005a26:	8a2a                	mv	s4,a0
80005a28:	899a                	mv	s3,t1
80005a2a:	c7dd                	beqz	a5,80005ad8 <_dtoa_r+0x64e>
80005a2c:	0fffb797          	auipc	a5,0xfffb
80005a30:	80478793          	addi	a5,a5,-2044 # 90000230 <_impure_ptr+0x58>
80005a34:	4388                	lw	a0,0(a5)
80005a36:	43cc                	lw	a1,4(a5)
80005a38:	639010ef          	jal	ra,80007870 <__divdf3>
80005a3c:	8652                	mv	a2,s4
80005a3e:	86ce                	mv	a3,s3
80005a40:	6ba020ef          	jal	ra,800080fa <__subdf3>
80005a44:	8a2a                	mv	s4,a0
80005a46:	da2e                	sw	a1,52(sp)
80005a48:	89da                	mv	s3,s6
80005a4a:	5592                	lw	a1,36(sp)
80005a4c:	4542                	lw	a0,16(sp)
80005a4e:	0985                	addi	s3,s3,1
80005a50:	7dd020ef          	jal	ra,80008a2c <__fixdfsi>
80005a54:	c2aa                	sw	a0,68(sp)
80005a56:	09a030ef          	jal	ra,80008af0 <__floatsidf>
80005a5a:	862a                	mv	a2,a0
80005a5c:	86ae                	mv	a3,a1
80005a5e:	4542                	lw	a0,16(sp)
80005a60:	5592                	lw	a1,36(sp)
80005a62:	698020ef          	jal	ra,800080fa <__subdf3>
80005a66:	4796                	lw	a5,68(sp)
80005a68:	56d2                	lw	a3,52(sp)
80005a6a:	8652                	mv	a2,s4
80005a6c:	03078793          	addi	a5,a5,48
80005a70:	fef98fa3          	sb	a5,-1(s3)
80005a74:	c82a                	sw	a0,16(sp)
80005a76:	d22e                	sw	a1,36(sp)
80005a78:	5d4020ef          	jal	ra,8000804c <__ledf2>
80005a7c:	0e054c63          	bltz	a0,80005b74 <_dtoa_r+0x6ea>
80005a80:	0fffa797          	auipc	a5,0xfffa
80005a84:	79078793          	addi	a5,a5,1936 # 90000210 <_impure_ptr+0x38>
80005a88:	4642                	lw	a2,16(sp)
80005a8a:	5692                	lw	a3,36(sp)
80005a8c:	4388                	lw	a0,0(a5)
80005a8e:	43cc                	lw	a1,4(a5)
80005a90:	66a020ef          	jal	ra,800080fa <__subdf3>
80005a94:	56d2                	lw	a3,52(sp)
80005a96:	8652                	mv	a2,s4
80005a98:	5b4020ef          	jal	ra,8000804c <__ledf2>
80005a9c:	18054263          	bltz	a0,80005c20 <_dtoa_r+0x796>
80005aa0:	57f2                	lw	a5,60(sp)
80005aa2:	e4f98ee3          	beq	s3,a5,800058fe <_dtoa_r+0x474>
80005aa6:	0fffa797          	auipc	a5,0xfffa
80005aaa:	77278793          	addi	a5,a5,1906 # 90000218 <_impure_ptr+0x40>
80005aae:	4390                	lw	a2,0(a5)
80005ab0:	43d4                	lw	a3,4(a5)
80005ab2:	55d2                	lw	a1,52(sp)
80005ab4:	8552                	mv	a0,s4
80005ab6:	96cfe0ef          	jal	ra,80003c22 <__muldf3>
80005aba:	0fffa797          	auipc	a5,0xfffa
80005abe:	75e78793          	addi	a5,a5,1886 # 90000218 <_impure_ptr+0x40>
80005ac2:	da2e                	sw	a1,52(sp)
80005ac4:	4390                	lw	a2,0(a5)
80005ac6:	5592                	lw	a1,36(sp)
80005ac8:	43d4                	lw	a3,4(a5)
80005aca:	8a2a                	mv	s4,a0
80005acc:	4542                	lw	a0,16(sp)
80005ace:	954fe0ef          	jal	ra,80003c22 <__muldf3>
80005ad2:	c82a                	sw	a0,16(sp)
80005ad4:	d22e                	sw	a1,36(sp)
80005ad6:	bf95                	j	80005a4a <_dtoa_r+0x5c0>
80005ad8:	859a                	mv	a1,t1
80005ada:	948fe0ef          	jal	ra,80003c22 <__muldf3>
80005ade:	57f2                	lw	a5,60(sp)
80005ae0:	c2aa                	sw	a0,68(sp)
80005ae2:	c4ae                	sw	a1,72(sp)
80005ae4:	da3e                	sw	a5,52(sp)
80005ae6:	89da                	mv	s3,s6
80005ae8:	4542                	lw	a0,16(sp)
80005aea:	5592                	lw	a1,36(sp)
80005aec:	0985                	addi	s3,s3,1
80005aee:	73f020ef          	jal	ra,80008a2c <__fixdfsi>
80005af2:	c6aa                	sw	a0,76(sp)
80005af4:	7fd020ef          	jal	ra,80008af0 <__floatsidf>
80005af8:	862a                	mv	a2,a0
80005afa:	86ae                	mv	a3,a1
80005afc:	4542                	lw	a0,16(sp)
80005afe:	5592                	lw	a1,36(sp)
80005b00:	5fa020ef          	jal	ra,800080fa <__subdf3>
80005b04:	47b6                	lw	a5,76(sp)
80005b06:	c82e                	sw	a1,16(sp)
80005b08:	8a2a                	mv	s4,a0
80005b0a:	03078793          	addi	a5,a5,48
80005b0e:	fef98fa3          	sb	a5,-1(s3)
80005b12:	57f2                	lw	a5,60(sp)
80005b14:	06f99263          	bne	s3,a5,80005b78 <_dtoa_r+0x6ee>
80005b18:	0fffa797          	auipc	a5,0xfffa
80005b1c:	71878793          	addi	a5,a5,1816 # 90000230 <_impure_ptr+0x58>
80005b20:	4390                	lw	a2,0(a5)
80005b22:	43d4                	lw	a3,4(a5)
80005b24:	4516                	lw	a0,68(sp)
80005b26:	45a6                	lw	a1,72(sp)
80005b28:	851fd0ef          	jal	ra,80003378 <__adddf3>
80005b2c:	86ae                	mv	a3,a1
80005b2e:	45c2                	lw	a1,16(sp)
80005b30:	862a                	mv	a2,a0
80005b32:	8552                	mv	a0,s4
80005b34:	46a020ef          	jal	ra,80007f9e <__gedf2>
80005b38:	0ea04463          	bgtz	a0,80005c20 <_dtoa_r+0x796>
80005b3c:	0fffa797          	auipc	a5,0xfffa
80005b40:	6f478793          	addi	a5,a5,1780 # 90000230 <_impure_ptr+0x58>
80005b44:	4616                	lw	a2,68(sp)
80005b46:	46a6                	lw	a3,72(sp)
80005b48:	4388                	lw	a0,0(a5)
80005b4a:	43cc                	lw	a1,4(a5)
80005b4c:	5ae020ef          	jal	ra,800080fa <__subdf3>
80005b50:	86ae                	mv	a3,a1
80005b52:	45c2                	lw	a1,16(sp)
80005b54:	862a                	mv	a2,a0
80005b56:	8552                	mv	a0,s4
80005b58:	4f4020ef          	jal	ra,8000804c <__ledf2>
80005b5c:	da0551e3          	bgez	a0,800058fe <_dtoa_r+0x474>
80005b60:	03000793          	li	a5,48
80005b64:	59d2                	lw	s3,52(sp)
80005b66:	fff98713          	addi	a4,s3,-1
80005b6a:	da3a                	sw	a4,52(sp)
80005b6c:	fff9c703          	lbu	a4,-1(s3)
80005b70:	fef70ae3          	beq	a4,a5,80005b64 <_dtoa_r+0x6da>
80005b74:	84ee                	mv	s1,s11
80005b76:	a069                	j	80005c00 <_dtoa_r+0x776>
80005b78:	0fffa797          	auipc	a5,0xfffa
80005b7c:	6a078793          	addi	a5,a5,1696 # 90000218 <_impure_ptr+0x40>
80005b80:	4390                	lw	a2,0(a5)
80005b82:	43d4                	lw	a3,4(a5)
80005b84:	89efe0ef          	jal	ra,80003c22 <__muldf3>
80005b88:	c82a                	sw	a0,16(sp)
80005b8a:	d22e                	sw	a1,36(sp)
80005b8c:	bfb1                	j	80005ae8 <_dtoa_r+0x65e>
80005b8e:	4542                	lw	a0,16(sp)
80005b90:	8dce                	mv	s11,s3
80005b92:	001b0c93          	addi	s9,s6,1
80005b96:	8d2a                	mv	s10,a0
80005b98:	9bda                	add	s7,s7,s6
80005b9a:	8652                	mv	a2,s4
80005b9c:	86d6                	mv	a3,s5
80005b9e:	856a                	mv	a0,s10
80005ba0:	85ee                	mv	a1,s11
80005ba2:	4cf010ef          	jal	ra,80007870 <__divdf3>
80005ba6:	687020ef          	jal	ra,80008a2c <__fixdfsi>
80005baa:	8c2a                	mv	s8,a0
80005bac:	745020ef          	jal	ra,80008af0 <__floatsidf>
80005bb0:	8652                	mv	a2,s4
80005bb2:	86d6                	mv	a3,s5
80005bb4:	86efe0ef          	jal	ra,80003c22 <__muldf3>
80005bb8:	86ae                	mv	a3,a1
80005bba:	862a                	mv	a2,a0
80005bbc:	85ee                	mv	a1,s11
80005bbe:	856a                	mv	a0,s10
80005bc0:	53a020ef          	jal	ra,800080fa <__subdf3>
80005bc4:	030c0693          	addi	a3,s8,48
80005bc8:	fedc8fa3          	sb	a3,-1(s9)
80005bcc:	89e6                	mv	s3,s9
80005bce:	079b9f63          	bne	s7,s9,80005c4c <_dtoa_r+0x7c2>
80005bd2:	862a                	mv	a2,a0
80005bd4:	86ae                	mv	a3,a1
80005bd6:	fa2fd0ef          	jal	ra,80003378 <__adddf3>
80005bda:	8652                	mv	a2,s4
80005bdc:	86d6                	mv	a3,s5
80005bde:	8caa                	mv	s9,a0
80005be0:	8bae                	mv	s7,a1
80005be2:	3bc020ef          	jal	ra,80007f9e <__gedf2>
80005be6:	02a04c63          	bgtz	a0,80005c1e <_dtoa_r+0x794>
80005bea:	8652                	mv	a2,s4
80005bec:	86d6                	mv	a3,s5
80005bee:	8566                	mv	a0,s9
80005bf0:	85de                	mv	a1,s7
80005bf2:	308020ef          	jal	ra,80007efa <__eqdf2>
80005bf6:	e509                	bnez	a0,80005c00 <_dtoa_r+0x776>
80005bf8:	001c7c13          	andi	s8,s8,1
80005bfc:	020c1163          	bnez	s8,80005c1e <_dtoa_r+0x794>
80005c00:	85a2                	mv	a1,s0
80005c02:	854a                	mv	a0,s2
80005c04:	3ff000ef          	jal	ra,80006802 <_Bfree>
80005c08:	57e2                	lw	a5,56(sp)
80005c0a:	00098023          	sb	zero,0(s3)
80005c0e:	0485                	addi	s1,s1,1
80005c10:	c384                	sw	s1,0(a5)
80005c12:	47f2                	lw	a5,28(sp)
80005c14:	940787e3          	beqz	a5,80005562 <_dtoa_r+0xd8>
80005c18:	0137a023          	sw	s3,0(a5)
80005c1c:	b299                	j	80005562 <_dtoa_r+0xd8>
80005c1e:	8da6                	mv	s11,s1
80005c20:	87ce                	mv	a5,s3
80005c22:	03900713          	li	a4,57
80005c26:	89be                	mv	s3,a5
80005c28:	fff7c683          	lbu	a3,-1(a5)
80005c2c:	17fd                	addi	a5,a5,-1
80005c2e:	00e69963          	bne	a3,a4,80005c40 <_dtoa_r+0x7b6>
80005c32:	fefb1ae3          	bne	s6,a5,80005c26 <_dtoa_r+0x79c>
80005c36:	03000713          	li	a4,48
80005c3a:	0d85                	addi	s11,s11,1
80005c3c:	00eb0023          	sb	a4,0(s6)
80005c40:	0007c703          	lbu	a4,0(a5)
80005c44:	0705                	addi	a4,a4,1
80005c46:	00e78023          	sb	a4,0(a5)
80005c4a:	b72d                	j	80005b74 <_dtoa_r+0x6ea>
80005c4c:	0fffa797          	auipc	a5,0xfffa
80005c50:	5cc78793          	addi	a5,a5,1484 # 90000218 <_impure_ptr+0x40>
80005c54:	4390                	lw	a2,0(a5)
80005c56:	43d4                	lw	a3,4(a5)
80005c58:	0c85                	addi	s9,s9,1
80005c5a:	fc9fd0ef          	jal	ra,80003c22 <__muldf3>
80005c5e:	4601                	li	a2,0
80005c60:	4681                	li	a3,0
80005c62:	8d2a                	mv	s10,a0
80005c64:	8dae                	mv	s11,a1
80005c66:	294020ef          	jal	ra,80007efa <__eqdf2>
80005c6a:	f905                	bnez	a0,80005b9a <_dtoa_r+0x710>
80005c6c:	bf51                	j	80005c00 <_dtoa_r+0x776>
80005c6e:	47d2                	lw	a5,20(sp)
80005c70:	0e078f63          	beqz	a5,80005d6e <_dtoa_r+0x8e4>
80005c74:	4785                	li	a5,1
80005c76:	0da7c563          	blt	a5,s10,80005d40 <_dtoa_r+0x8b6>
80005c7a:	4786                	lw	a5,64(sp)
80005c7c:	43370713          	addi	a4,a4,1075
80005c80:	e789                	bnez	a5,80005c8a <_dtoa_r+0x800>
80005c82:	47e6                	lw	a5,88(sp)
80005c84:	03600713          	li	a4,54
80005c88:	8f1d                	sub	a4,a4,a5
80005c8a:	87d6                	mv	a5,s5
80005c8c:	8de2                	mv	s11,s8
80005c8e:	4585                	li	a1,1
80005c90:	854a                	mv	a0,s2
80005c92:	d23e                	sw	a5,36(sp)
80005c94:	9c3a                	add	s8,s8,a4
80005c96:	9cba                	add	s9,s9,a4
80005c98:	53b000ef          	jal	ra,800069d2 <__i2b>
80005c9c:	5792                	lw	a5,36(sp)
80005c9e:	8a2a                	mv	s4,a0
80005ca0:	01b05e63          	blez	s11,80005cbc <_dtoa_r+0x832>
80005ca4:	01905c63          	blez	s9,80005cbc <_dtoa_r+0x832>
80005ca8:	876e                	mv	a4,s11
80005caa:	01bcd363          	bge	s9,s11,80005cb0 <_dtoa_r+0x826>
80005cae:	8766                	mv	a4,s9
80005cb0:	40ec0c33          	sub	s8,s8,a4
80005cb4:	40ed8db3          	sub	s11,s11,a4
80005cb8:	40ec8cb3          	sub	s9,s9,a4
80005cbc:	040a8363          	beqz	s5,80005d02 <_dtoa_r+0x878>
80005cc0:	4752                	lw	a4,20(sp)
80005cc2:	cb55                	beqz	a4,80005d76 <_dtoa_r+0x8ec>
80005cc4:	02f05663          	blez	a5,80005cf0 <_dtoa_r+0x866>
80005cc8:	863e                	mv	a2,a5
80005cca:	85d2                	mv	a1,s4
80005ccc:	854a                	mv	a0,s2
80005cce:	d43e                	sw	a5,40(sp)
80005cd0:	6bb000ef          	jal	ra,80006b8a <__pow5mult>
80005cd4:	8622                	mv	a2,s0
80005cd6:	85aa                	mv	a1,a0
80005cd8:	8a2a                	mv	s4,a0
80005cda:	854a                	mv	a0,s2
80005cdc:	52f000ef          	jal	ra,80006a0a <__multiply>
80005ce0:	d22a                	sw	a0,36(sp)
80005ce2:	85a2                	mv	a1,s0
80005ce4:	854a                	mv	a0,s2
80005ce6:	31d000ef          	jal	ra,80006802 <_Bfree>
80005cea:	5712                	lw	a4,36(sp)
80005cec:	57a2                	lw	a5,40(sp)
80005cee:	843a                	mv	s0,a4
80005cf0:	40fa8633          	sub	a2,s5,a5
80005cf4:	00fa8763          	beq	s5,a5,80005d02 <_dtoa_r+0x878>
80005cf8:	85a2                	mv	a1,s0
80005cfa:	854a                	mv	a0,s2
80005cfc:	68f000ef          	jal	ra,80006b8a <__pow5mult>
80005d00:	842a                	mv	s0,a0
80005d02:	4585                	li	a1,1
80005d04:	854a                	mv	a0,s2
80005d06:	4cd000ef          	jal	ra,800069d2 <__i2b>
80005d0a:	5782                	lw	a5,32(sp)
80005d0c:	8aaa                	mv	s5,a0
80005d0e:	06f05663          	blez	a5,80005d7a <_dtoa_r+0x8f0>
80005d12:	863e                	mv	a2,a5
80005d14:	85aa                	mv	a1,a0
80005d16:	854a                	mv	a0,s2
80005d18:	673000ef          	jal	ra,80006b8a <__pow5mult>
80005d1c:	4785                	li	a5,1
80005d1e:	8aaa                	mv	s5,a0
80005d20:	07a7d163          	bge	a5,s10,80005d82 <_dtoa_r+0x8f8>
80005d24:	d202                	sw	zero,36(sp)
80005d26:	010aa783          	lw	a5,16(s5)
80005d2a:	078d                	addi	a5,a5,3
80005d2c:	078a                	slli	a5,a5,0x2
80005d2e:	97d6                	add	a5,a5,s5
80005d30:	43c8                	lw	a0,4(a5)
80005d32:	3f1000ef          	jal	ra,80006922 <__hi0bits>
80005d36:	02000793          	li	a5,32
80005d3a:	40a78533          	sub	a0,a5,a0
80005d3e:	a0ad                	j	80005da8 <_dtoa_r+0x91e>
80005d40:	fffb8793          	addi	a5,s7,-1
80005d44:	00faca63          	blt	s5,a5,80005d58 <_dtoa_r+0x8ce>
80005d48:	40fa87b3          	sub	a5,s5,a5
80005d4c:	000bde63          	bgez	s7,80005d68 <_dtoa_r+0x8de>
80005d50:	417c0db3          	sub	s11,s8,s7
80005d54:	4701                	li	a4,0
80005d56:	bf25                	j	80005c8e <_dtoa_r+0x804>
80005d58:	5702                	lw	a4,32(sp)
80005d5a:	41578ab3          	sub	s5,a5,s5
80005d5e:	9756                	add	a4,a4,s5
80005d60:	d03a                	sw	a4,32(sp)
80005d62:	8abe                	mv	s5,a5
80005d64:	4781                	li	a5,0
80005d66:	b7dd                	j	80005d4c <_dtoa_r+0x8c2>
80005d68:	8de2                	mv	s11,s8
80005d6a:	875e                	mv	a4,s7
80005d6c:	b70d                	j	80005c8e <_dtoa_r+0x804>
80005d6e:	87d6                	mv	a5,s5
80005d70:	8de2                	mv	s11,s8
80005d72:	4a01                	li	s4,0
80005d74:	b735                	j	80005ca0 <_dtoa_r+0x816>
80005d76:	8656                	mv	a2,s5
80005d78:	b741                	j	80005cf8 <_dtoa_r+0x86e>
80005d7a:	4785                	li	a5,1
80005d7c:	d202                	sw	zero,36(sp)
80005d7e:	03a7c263          	blt	a5,s10,80005da2 <_dtoa_r+0x918>
80005d82:	47c2                	lw	a5,16(sp)
80005d84:	d202                	sw	zero,36(sp)
80005d86:	ef91                	bnez	a5,80005da2 <_dtoa_r+0x918>
80005d88:	00c99793          	slli	a5,s3,0xc
80005d8c:	eb99                	bnez	a5,80005da2 <_dtoa_r+0x918>
80005d8e:	7ff005b7          	lui	a1,0x7ff00
80005d92:	00b9f9b3          	and	s3,s3,a1
80005d96:	00098663          	beqz	s3,80005da2 <_dtoa_r+0x918>
80005d9a:	4785                	li	a5,1
80005d9c:	0c05                	addi	s8,s8,1
80005d9e:	0c85                	addi	s9,s9,1
80005da0:	d23e                	sw	a5,36(sp)
80005da2:	5782                	lw	a5,32(sp)
80005da4:	4505                	li	a0,1
80005da6:	f3c1                	bnez	a5,80005d26 <_dtoa_r+0x89c>
80005da8:	9566                	add	a0,a0,s9
80005daa:	897d                	andi	a0,a0,31
80005dac:	c149                	beqz	a0,80005e2e <_dtoa_r+0x9a4>
80005dae:	02000793          	li	a5,32
80005db2:	8f89                	sub	a5,a5,a0
80005db4:	4711                	li	a4,4
80005db6:	06f75963          	bge	a4,a5,80005e28 <_dtoa_r+0x99e>
80005dba:	47f1                	li	a5,28
80005dbc:	40a78533          	sub	a0,a5,a0
80005dc0:	9c2a                	add	s8,s8,a0
80005dc2:	9daa                	add	s11,s11,a0
80005dc4:	9caa                	add	s9,s9,a0
80005dc6:	01805863          	blez	s8,80005dd6 <_dtoa_r+0x94c>
80005dca:	85a2                	mv	a1,s0
80005dcc:	8662                	mv	a2,s8
80005dce:	854a                	mv	a0,s2
80005dd0:	695000ef          	jal	ra,80006c64 <__lshift>
80005dd4:	842a                	mv	s0,a0
80005dd6:	01905863          	blez	s9,80005de6 <_dtoa_r+0x95c>
80005dda:	85d6                	mv	a1,s5
80005ddc:	8666                	mv	a2,s9
80005dde:	854a                	mv	a0,s2
80005de0:	685000ef          	jal	ra,80006c64 <__lshift>
80005de4:	8aaa                	mv	s5,a0
80005de6:	57c2                	lw	a5,48(sp)
80005de8:	c7a9                	beqz	a5,80005e32 <_dtoa_r+0x9a8>
80005dea:	85d6                	mv	a1,s5
80005dec:	8522                	mv	a0,s0
80005dee:	77b000ef          	jal	ra,80006d68 <__mcmp>
80005df2:	04055063          	bgez	a0,80005e32 <_dtoa_r+0x9a8>
80005df6:	85a2                	mv	a1,s0
80005df8:	4681                	li	a3,0
80005dfa:	4629                	li	a2,10
80005dfc:	854a                	mv	a0,s2
80005dfe:	267000ef          	jal	ra,80006864 <__multadd>
80005e02:	47d2                	lw	a5,20(sp)
80005e04:	14fd                	addi	s1,s1,-1
80005e06:	842a                	mv	s0,a0
80005e08:	28078a63          	beqz	a5,8000609c <_dtoa_r+0xc12>
80005e0c:	85d2                	mv	a1,s4
80005e0e:	4681                	li	a3,0
80005e10:	4629                	li	a2,10
80005e12:	854a                	mv	a0,s2
80005e14:	251000ef          	jal	ra,80006864 <__multadd>
80005e18:	47b2                	lw	a5,12(sp)
80005e1a:	8a2a                	mv	s4,a0
80005e1c:	08f04363          	bgtz	a5,80005ea2 <_dtoa_r+0xa18>
80005e20:	4789                	li	a5,2
80005e22:	01a7ce63          	blt	a5,s10,80005e3e <_dtoa_r+0x9b4>
80005e26:	a8b5                	j	80005ea2 <_dtoa_r+0xa18>
80005e28:	f8e78fe3          	beq	a5,a4,80005dc6 <_dtoa_r+0x93c>
80005e2c:	853e                	mv	a0,a5
80005e2e:	0571                	addi	a0,a0,28
80005e30:	bf41                	j	80005dc0 <_dtoa_r+0x936>
80005e32:	07704463          	bgtz	s7,80005e9a <_dtoa_r+0xa10>
80005e36:	4789                	li	a5,2
80005e38:	07a7d163          	bge	a5,s10,80005e9a <_dtoa_r+0xa10>
80005e3c:	c65e                	sw	s7,12(sp)
80005e3e:	47b2                	lw	a5,12(sp)
80005e40:	ef91                	bnez	a5,80005e5c <_dtoa_r+0x9d2>
80005e42:	85d6                	mv	a1,s5
80005e44:	4681                	li	a3,0
80005e46:	4615                	li	a2,5
80005e48:	854a                	mv	a0,s2
80005e4a:	21b000ef          	jal	ra,80006864 <__multadd>
80005e4e:	8aaa                	mv	s5,a0
80005e50:	85aa                	mv	a1,a0
80005e52:	8522                	mv	a0,s0
80005e54:	715000ef          	jal	ra,80006d68 <__mcmp>
80005e58:	b0a041e3          	bgtz	a0,8000595a <_dtoa_r+0x4d0>
80005e5c:	47e2                	lw	a5,24(sp)
80005e5e:	89da                	mv	s3,s6
80005e60:	fff7c493          	not	s1,a5
80005e64:	4c01                	li	s8,0
80005e66:	85d6                	mv	a1,s5
80005e68:	854a                	mv	a0,s2
80005e6a:	199000ef          	jal	ra,80006802 <_Bfree>
80005e6e:	d80a09e3          	beqz	s4,80005c00 <_dtoa_r+0x776>
80005e72:	000c0863          	beqz	s8,80005e82 <_dtoa_r+0x9f8>
80005e76:	014c0663          	beq	s8,s4,80005e82 <_dtoa_r+0x9f8>
80005e7a:	85e2                	mv	a1,s8
80005e7c:	854a                	mv	a0,s2
80005e7e:	185000ef          	jal	ra,80006802 <_Bfree>
80005e82:	85d2                	mv	a1,s4
80005e84:	854a                	mv	a0,s2
80005e86:	17d000ef          	jal	ra,80006802 <_Bfree>
80005e8a:	bb9d                	j	80005c00 <_dtoa_r+0x776>
80005e8c:	4a81                	li	s5,0
80005e8e:	4a01                	li	s4,0
80005e90:	b7f1                	j	80005e5c <_dtoa_r+0x9d2>
80005e92:	84ee                	mv	s1,s11
80005e94:	4a81                	li	s5,0
80005e96:	4a01                	li	s4,0
80005e98:	b4c9                	j	8000595a <_dtoa_r+0x4d0>
80005e9a:	47d2                	lw	a5,20(sp)
80005e9c:	c65e                	sw	s7,12(sp)
80005e9e:	20078563          	beqz	a5,800060a8 <_dtoa_r+0xc1e>
80005ea2:	01b05863          	blez	s11,80005eb2 <_dtoa_r+0xa28>
80005ea6:	85d2                	mv	a1,s4
80005ea8:	866e                	mv	a2,s11
80005eaa:	854a                	mv	a0,s2
80005eac:	5b9000ef          	jal	ra,80006c64 <__lshift>
80005eb0:	8a2a                	mv	s4,a0
80005eb2:	5792                	lw	a5,36(sp)
80005eb4:	8552                	mv	a0,s4
80005eb6:	cf9d                	beqz	a5,80005ef4 <_dtoa_r+0xa6a>
80005eb8:	004a2583          	lw	a1,4(s4)
80005ebc:	854a                	mv	a0,s2
80005ebe:	097000ef          	jal	ra,80006754 <_Balloc>
80005ec2:	89aa                	mv	s3,a0
80005ec4:	e911                	bnez	a0,80005ed8 <_dtoa_r+0xa4e>
80005ec6:	00004697          	auipc	a3,0x4
80005eca:	98a68693          	addi	a3,a3,-1654 # 80009850 <__clz_tab+0x210>
80005ece:	4601                	li	a2,0
80005ed0:	2ea00593          	li	a1,746
80005ed4:	e04ff06f          	j	800054d8 <_dtoa_r+0x4e>
80005ed8:	010a2603          	lw	a2,16(s4)
80005edc:	00ca0593          	addi	a1,s4,12
80005ee0:	0531                	addi	a0,a0,12
80005ee2:	0609                	addi	a2,a2,2
80005ee4:	060a                	slli	a2,a2,0x2
80005ee6:	6ea000ef          	jal	ra,800065d0 <memcpy>
80005eea:	4605                	li	a2,1
80005eec:	85ce                	mv	a1,s3
80005eee:	854a                	mv	a0,s2
80005ef0:	575000ef          	jal	ra,80006c64 <__lshift>
80005ef4:	47b2                	lw	a5,12(sp)
80005ef6:	8c52                	mv	s8,s4
80005ef8:	001b0b93          	addi	s7,s6,1
80005efc:	97da                	add	a5,a5,s6
80005efe:	cc3e                	sw	a5,24(sp)
80005f00:	47c2                	lw	a5,16(sp)
80005f02:	8a2a                	mv	s4,a0
80005f04:	8b85                	andi	a5,a5,1
80005f06:	ca3e                	sw	a5,20(sp)
80005f08:	fffb8793          	addi	a5,s7,-1
80005f0c:	85d6                	mv	a1,s5
80005f0e:	8522                	mv	a0,s0
80005f10:	c63e                	sw	a5,12(sp)
80005f12:	c4cff0ef          	jal	ra,8000535e <quorem>
80005f16:	c82a                	sw	a0,16(sp)
80005f18:	85e2                	mv	a1,s8
80005f1a:	03050c93          	addi	s9,a0,48
80005f1e:	8522                	mv	a0,s0
80005f20:	649000ef          	jal	ra,80006d68 <__mcmp>
80005f24:	85d6                	mv	a1,s5
80005f26:	8daa                	mv	s11,a0
80005f28:	8652                	mv	a2,s4
80005f2a:	854a                	mv	a0,s2
80005f2c:	673000ef          	jal	ra,80006d9e <__mdiff>
80005f30:	4554                	lw	a3,12(a0)
80005f32:	85aa                	mv	a1,a0
80005f34:	4705                	li	a4,1
80005f36:	e699                	bnez	a3,80005f44 <_dtoa_r+0xaba>
80005f38:	d02a                	sw	a0,32(sp)
80005f3a:	8522                	mv	a0,s0
80005f3c:	62d000ef          	jal	ra,80006d68 <__mcmp>
80005f40:	5582                	lw	a1,32(sp)
80005f42:	872a                	mv	a4,a0
80005f44:	854a                	mv	a0,s2
80005f46:	d03a                	sw	a4,32(sp)
80005f48:	0bb000ef          	jal	ra,80006802 <_Bfree>
80005f4c:	5702                	lw	a4,32(sp)
80005f4e:	47d2                	lw	a5,20(sp)
80005f50:	89de                	mv	s3,s7
80005f52:	00ed66b3          	or	a3,s10,a4
80005f56:	8edd                	or	a3,a3,a5
80005f58:	ee91                	bnez	a3,80005f74 <_dtoa_r+0xaea>
80005f5a:	03900713          	li	a4,57
80005f5e:	04ec8963          	beq	s9,a4,80005fb0 <_dtoa_r+0xb26>
80005f62:	01b05563          	blez	s11,80005f6c <_dtoa_r+0xae2>
80005f66:	47c2                	lw	a5,16(sp)
80005f68:	03178c93          	addi	s9,a5,49
80005f6c:	47b2                	lw	a5,12(sp)
80005f6e:	01978023          	sb	s9,0(a5)
80005f72:	bdd5                	j	80005e66 <_dtoa_r+0x9dc>
80005f74:	000dc963          	bltz	s11,80005f86 <_dtoa_r+0xafc>
80005f78:	47d2                	lw	a5,20(sp)
80005f7a:	01bd6db3          	or	s11,s10,s11
80005f7e:	00fdedb3          	or	s11,s11,a5
80005f82:	040d9963          	bnez	s11,80005fd4 <_dtoa_r+0xb4a>
80005f86:	fee053e3          	blez	a4,80005f6c <_dtoa_r+0xae2>
80005f8a:	85a2                	mv	a1,s0
80005f8c:	4605                	li	a2,1
80005f8e:	854a                	mv	a0,s2
80005f90:	4d5000ef          	jal	ra,80006c64 <__lshift>
80005f94:	85d6                	mv	a1,s5
80005f96:	842a                	mv	s0,a0
80005f98:	5d1000ef          	jal	ra,80006d68 <__mcmp>
80005f9c:	00a04663          	bgtz	a0,80005fa8 <_dtoa_r+0xb1e>
80005fa0:	f571                	bnez	a0,80005f6c <_dtoa_r+0xae2>
80005fa2:	001cf713          	andi	a4,s9,1
80005fa6:	d379                	beqz	a4,80005f6c <_dtoa_r+0xae2>
80005fa8:	03900713          	li	a4,57
80005fac:	faec9de3          	bne	s9,a4,80005f66 <_dtoa_r+0xadc>
80005fb0:	4732                	lw	a4,12(sp)
80005fb2:	03900793          	li	a5,57
80005fb6:	00f70023          	sb	a5,0(a4)
80005fba:	87ce                	mv	a5,s3
80005fbc:	03900693          	li	a3,57
80005fc0:	89be                	mv	s3,a5
80005fc2:	fff9c703          	lbu	a4,-1(s3)
80005fc6:	17fd                	addi	a5,a5,-1
80005fc8:	0ad70563          	beq	a4,a3,80006072 <_dtoa_r+0xbe8>
80005fcc:	0705                	addi	a4,a4,1
80005fce:	00e78023          	sb	a4,0(a5)
80005fd2:	bd51                	j	80005e66 <_dtoa_r+0x9dc>
80005fd4:	00e05c63          	blez	a4,80005fec <_dtoa_r+0xb62>
80005fd8:	03900713          	li	a4,57
80005fdc:	fcec8ae3          	beq	s9,a4,80005fb0 <_dtoa_r+0xb26>
80005fe0:	4732                	lw	a4,12(sp)
80005fe2:	001c8793          	addi	a5,s9,1
80005fe6:	00f70023          	sb	a5,0(a4)
80005fea:	bdb5                	j	80005e66 <_dtoa_r+0x9dc>
80005fec:	47e2                	lw	a5,24(sp)
80005fee:	ff9b8fa3          	sb	s9,-1(s7)
80005ff2:	05778763          	beq	a5,s7,80006040 <_dtoa_r+0xbb6>
80005ff6:	85a2                	mv	a1,s0
80005ff8:	4681                	li	a3,0
80005ffa:	4629                	li	a2,10
80005ffc:	854a                	mv	a0,s2
80005ffe:	067000ef          	jal	ra,80006864 <__multadd>
80006002:	842a                	mv	s0,a0
80006004:	4681                	li	a3,0
80006006:	4629                	li	a2,10
80006008:	85e2                	mv	a1,s8
8000600a:	854a                	mv	a0,s2
8000600c:	014c1863          	bne	s8,s4,8000601c <_dtoa_r+0xb92>
80006010:	055000ef          	jal	ra,80006864 <__multadd>
80006014:	8c2a                	mv	s8,a0
80006016:	8a2a                	mv	s4,a0
80006018:	0b85                	addi	s7,s7,1
8000601a:	b5fd                	j	80005f08 <_dtoa_r+0xa7e>
8000601c:	049000ef          	jal	ra,80006864 <__multadd>
80006020:	85d2                	mv	a1,s4
80006022:	8c2a                	mv	s8,a0
80006024:	4681                	li	a3,0
80006026:	4629                	li	a2,10
80006028:	854a                	mv	a0,s2
8000602a:	03b000ef          	jal	ra,80006864 <__multadd>
8000602e:	8a2a                	mv	s4,a0
80006030:	b7e5                	j	80006018 <_dtoa_r+0xb8e>
80006032:	47b2                	lw	a5,12(sp)
80006034:	4985                	li	s3,1
80006036:	00f05363          	blez	a5,8000603c <_dtoa_r+0xbb2>
8000603a:	89be                	mv	s3,a5
8000603c:	99da                	add	s3,s3,s6
8000603e:	4c01                	li	s8,0
80006040:	85a2                	mv	a1,s0
80006042:	4605                	li	a2,1
80006044:	854a                	mv	a0,s2
80006046:	41f000ef          	jal	ra,80006c64 <__lshift>
8000604a:	85d6                	mv	a1,s5
8000604c:	842a                	mv	s0,a0
8000604e:	51b000ef          	jal	ra,80006d68 <__mcmp>
80006052:	f6a044e3          	bgtz	a0,80005fba <_dtoa_r+0xb30>
80006056:	e501                	bnez	a0,8000605e <_dtoa_r+0xbd4>
80006058:	001cf793          	andi	a5,s9,1
8000605c:	ffb9                	bnez	a5,80005fba <_dtoa_r+0xb30>
8000605e:	87ce                	mv	a5,s3
80006060:	03000713          	li	a4,48
80006064:	89be                	mv	s3,a5
80006066:	fff7c683          	lbu	a3,-1(a5)
8000606a:	17fd                	addi	a5,a5,-1
8000606c:	fee68ce3          	beq	a3,a4,80006064 <_dtoa_r+0xbda>
80006070:	bbdd                	j	80005e66 <_dtoa_r+0x9dc>
80006072:	f4fb17e3          	bne	s6,a5,80005fc0 <_dtoa_r+0xb36>
80006076:	03100793          	li	a5,49
8000607a:	0485                	addi	s1,s1,1
8000607c:	00fb0023          	sb	a5,0(s6)
80006080:	b3dd                	j	80005e66 <_dtoa_r+0x9dc>
80006082:	4772                	lw	a4,28(sp)
80006084:	00003b17          	auipc	s6,0x3
80006088:	750b0b13          	addi	s6,s6,1872 # 800097d4 <__clz_tab+0x194>
8000608c:	00003797          	auipc	a5,0x3
80006090:	75078793          	addi	a5,a5,1872 # 800097dc <__clz_tab+0x19c>
80006094:	cc071563          	bnez	a4,8000555e <_dtoa_r+0xd4>
80006098:	ccaff06f          	j	80005562 <_dtoa_r+0xd8>
8000609c:	47b2                	lw	a5,12(sp)
8000609e:	00f04563          	bgtz	a5,800060a8 <_dtoa_r+0xc1e>
800060a2:	4789                	li	a5,2
800060a4:	d9a7cde3          	blt	a5,s10,80005e3e <_dtoa_r+0x9b4>
800060a8:	4981                	li	s3,0
800060aa:	85d6                	mv	a1,s5
800060ac:	8522                	mv	a0,s0
800060ae:	ab0ff0ef          	jal	ra,8000535e <quorem>
800060b2:	47b2                	lw	a5,12(sp)
800060b4:	013b0733          	add	a4,s6,s3
800060b8:	03050c93          	addi	s9,a0,48
800060bc:	01970023          	sb	s9,0(a4)
800060c0:	0985                	addi	s3,s3,1
800060c2:	f6f9d8e3          	bge	s3,a5,80006032 <_dtoa_r+0xba8>
800060c6:	85a2                	mv	a1,s0
800060c8:	4681                	li	a3,0
800060ca:	4629                	li	a2,10
800060cc:	854a                	mv	a0,s2
800060ce:	796000ef          	jal	ra,80006864 <__multadd>
800060d2:	842a                	mv	s0,a0
800060d4:	bfd9                	j	800060aa <_dtoa_r+0xc20>

800060d6 <__sflush_r>:
__sflush_r():
800060d6:	00c5d783          	lhu	a5,12(a1) # 7ff0000c <__stack_size+0x7feff80c>
800060da:	1101                	addi	sp,sp,-32
800060dc:	cc22                	sw	s0,24(sp)
800060de:	ca26                	sw	s1,20(sp)
800060e0:	ce06                	sw	ra,28(sp)
800060e2:	c84a                	sw	s2,16(sp)
800060e4:	c64e                	sw	s3,12(sp)
800060e6:	0087f713          	andi	a4,a5,8
800060ea:	84aa                	mv	s1,a0
800060ec:	842e                	mv	s0,a1
800060ee:	e37d                	bnez	a4,800061d4 <__sflush_r+0xfe>
800060f0:	41d8                	lw	a4,4(a1)
800060f2:	00e04763          	bgtz	a4,80006100 <__sflush_r+0x2a>
800060f6:	41b8                	lw	a4,64(a1)
800060f8:	00e04463          	bgtz	a4,80006100 <__sflush_r+0x2a>
800060fc:	4501                	li	a0,0
800060fe:	a87d                	j	800061bc <__sflush_r+0xe6>
80006100:	5458                	lw	a4,44(s0)
80006102:	df6d                	beqz	a4,800060fc <__sflush_r+0x26>
80006104:	6685                	lui	a3,0x1
80006106:	0004a903          	lw	s2,0(s1)
8000610a:	8ff5                	and	a5,a5,a3
8000610c:	0004a023          	sw	zero,0(s1)
80006110:	cfad                	beqz	a5,8000618a <__sflush_r+0xb4>
80006112:	4868                	lw	a0,84(s0)
80006114:	00c45783          	lhu	a5,12(s0)
80006118:	8b91                	andi	a5,a5,4
8000611a:	c799                	beqz	a5,80006128 <__sflush_r+0x52>
8000611c:	405c                	lw	a5,4(s0)
8000611e:	8d1d                	sub	a0,a0,a5
80006120:	585c                	lw	a5,52(s0)
80006122:	c399                	beqz	a5,80006128 <__sflush_r+0x52>
80006124:	403c                	lw	a5,64(s0)
80006126:	8d1d                	sub	a0,a0,a5
80006128:	545c                	lw	a5,44(s0)
8000612a:	500c                	lw	a1,32(s0)
8000612c:	862a                	mv	a2,a0
8000612e:	4681                	li	a3,0
80006130:	8526                	mv	a0,s1
80006132:	9782                	jalr	a5
80006134:	57fd                	li	a5,-1
80006136:	00c45703          	lhu	a4,12(s0)
8000613a:	00f51d63          	bne	a0,a5,80006154 <__sflush_r+0x7e>
8000613e:	4094                	lw	a3,0(s1)
80006140:	47f5                	li	a5,29
80006142:	08d7e463          	bltu	a5,a3,800061ca <__sflush_r+0xf4>
80006146:	204007b7          	lui	a5,0x20400
8000614a:	0785                	addi	a5,a5,1
8000614c:	00d7d7b3          	srl	a5,a5,a3
80006150:	8b85                	andi	a5,a5,1
80006152:	cfa5                	beqz	a5,800061ca <__sflush_r+0xf4>
80006154:	481c                	lw	a5,16(s0)
80006156:	00042223          	sw	zero,4(s0)
8000615a:	c01c                	sw	a5,0(s0)
8000615c:	6785                	lui	a5,0x1
8000615e:	8f7d                	and	a4,a4,a5
80006160:	c719                	beqz	a4,8000616e <__sflush_r+0x98>
80006162:	57fd                	li	a5,-1
80006164:	00f51463          	bne	a0,a5,8000616c <__sflush_r+0x96>
80006168:	409c                	lw	a5,0(s1)
8000616a:	e391                	bnez	a5,8000616e <__sflush_r+0x98>
8000616c:	c868                	sw	a0,84(s0)
8000616e:	584c                	lw	a1,52(s0)
80006170:	0124a023          	sw	s2,0(s1)
80006174:	d5c1                	beqz	a1,800060fc <__sflush_r+0x26>
80006176:	04440793          	addi	a5,s0,68
8000617a:	00f58563          	beq	a1,a5,80006184 <__sflush_r+0xae>
8000617e:	8526                	mv	a0,s1
80006180:	69f000ef          	jal	ra,8000701e <_free_r>
80006184:	02042a23          	sw	zero,52(s0)
80006188:	bf95                	j	800060fc <__sflush_r+0x26>
8000618a:	500c                	lw	a1,32(s0)
8000618c:	4685                	li	a3,1
8000618e:	4601                	li	a2,0
80006190:	8526                	mv	a0,s1
80006192:	9702                	jalr	a4
80006194:	57fd                	li	a5,-1
80006196:	f6f51fe3          	bne	a0,a5,80006114 <__sflush_r+0x3e>
8000619a:	409c                	lw	a5,0(s1)
8000619c:	dfa5                	beqz	a5,80006114 <__sflush_r+0x3e>
8000619e:	4775                	li	a4,29
800061a0:	00e78563          	beq	a5,a4,800061aa <__sflush_r+0xd4>
800061a4:	4759                	li	a4,22
800061a6:	00e79563          	bne	a5,a4,800061b0 <__sflush_r+0xda>
800061aa:	0124a023          	sw	s2,0(s1)
800061ae:	b7b9                	j	800060fc <__sflush_r+0x26>
800061b0:	00c45783          	lhu	a5,12(s0)
800061b4:	0407e793          	ori	a5,a5,64
800061b8:	00f41623          	sh	a5,12(s0)
800061bc:	40f2                	lw	ra,28(sp)
800061be:	4462                	lw	s0,24(sp)
800061c0:	44d2                	lw	s1,20(sp)
800061c2:	4942                	lw	s2,16(sp)
800061c4:	49b2                	lw	s3,12(sp)
800061c6:	6105                	addi	sp,sp,32
800061c8:	8082                	ret
800061ca:	04076713          	ori	a4,a4,64
800061ce:	00e41623          	sh	a4,12(s0)
800061d2:	b7ed                	j	800061bc <__sflush_r+0xe6>
800061d4:	0105a983          	lw	s3,16(a1)
800061d8:	f20982e3          	beqz	s3,800060fc <__sflush_r+0x26>
800061dc:	0005a903          	lw	s2,0(a1)
800061e0:	8b8d                	andi	a5,a5,3
800061e2:	0135a023          	sw	s3,0(a1)
800061e6:	41390933          	sub	s2,s2,s3
800061ea:	4701                	li	a4,0
800061ec:	e391                	bnez	a5,800061f0 <__sflush_r+0x11a>
800061ee:	49d8                	lw	a4,20(a1)
800061f0:	c418                	sw	a4,8(s0)
800061f2:	f12055e3          	blez	s2,800060fc <__sflush_r+0x26>
800061f6:	541c                	lw	a5,40(s0)
800061f8:	500c                	lw	a1,32(s0)
800061fa:	86ca                	mv	a3,s2
800061fc:	864e                	mv	a2,s3
800061fe:	8526                	mv	a0,s1
80006200:	9782                	jalr	a5
80006202:	00a04a63          	bgtz	a0,80006216 <__sflush_r+0x140>
80006206:	00c45783          	lhu	a5,12(s0)
8000620a:	557d                	li	a0,-1
8000620c:	0407e793          	ori	a5,a5,64
80006210:	00f41623          	sh	a5,12(s0)
80006214:	b765                	j	800061bc <__sflush_r+0xe6>
80006216:	99aa                	add	s3,s3,a0
80006218:	40a90933          	sub	s2,s2,a0
8000621c:	bfd9                	j	800061f2 <__sflush_r+0x11c>

8000621e <_fflush_r>:
_fflush_r():
8000621e:	499c                	lw	a5,16(a1)
80006220:	cfb9                	beqz	a5,8000627e <_fflush_r+0x60>
80006222:	1101                	addi	sp,sp,-32
80006224:	cc22                	sw	s0,24(sp)
80006226:	ce06                	sw	ra,28(sp)
80006228:	842a                	mv	s0,a0
8000622a:	c511                	beqz	a0,80006236 <_fflush_r+0x18>
8000622c:	4d1c                	lw	a5,24(a0)
8000622e:	e781                	bnez	a5,80006236 <_fflush_r+0x18>
80006230:	c62e                	sw	a1,12(sp)
80006232:	2221                	jal	8000633a <__sinit>
80006234:	45b2                	lw	a1,12(sp)
80006236:	00003797          	auipc	a5,0x3
8000623a:	64e78793          	addi	a5,a5,1614 # 80009884 <__sf_fake_stdin>
8000623e:	00f59b63          	bne	a1,a5,80006254 <_fflush_r+0x36>
80006242:	404c                	lw	a1,4(s0)
80006244:	00c59783          	lh	a5,12(a1)
80006248:	c795                	beqz	a5,80006274 <_fflush_r+0x56>
8000624a:	8522                	mv	a0,s0
8000624c:	4462                	lw	s0,24(sp)
8000624e:	40f2                	lw	ra,28(sp)
80006250:	6105                	addi	sp,sp,32
80006252:	b551                	j	800060d6 <__sflush_r>
80006254:	00003797          	auipc	a5,0x3
80006258:	65078793          	addi	a5,a5,1616 # 800098a4 <__sf_fake_stdout>
8000625c:	00f59463          	bne	a1,a5,80006264 <_fflush_r+0x46>
80006260:	440c                	lw	a1,8(s0)
80006262:	b7cd                	j	80006244 <_fflush_r+0x26>
80006264:	00003797          	auipc	a5,0x3
80006268:	60078793          	addi	a5,a5,1536 # 80009864 <__sf_fake_stderr>
8000626c:	fcf59ce3          	bne	a1,a5,80006244 <_fflush_r+0x26>
80006270:	444c                	lw	a1,12(s0)
80006272:	bfc9                	j	80006244 <_fflush_r+0x26>
80006274:	40f2                	lw	ra,28(sp)
80006276:	4462                	lw	s0,24(sp)
80006278:	4501                	li	a0,0
8000627a:	6105                	addi	sp,sp,32
8000627c:	8082                	ret
8000627e:	4501                	li	a0,0
80006280:	8082                	ret

80006282 <std>:
std():
80006282:	1141                	addi	sp,sp,-16
80006284:	c422                	sw	s0,8(sp)
80006286:	c606                	sw	ra,12(sp)
80006288:	842a                	mv	s0,a0
8000628a:	00b51623          	sh	a1,12(a0)
8000628e:	00c51723          	sh	a2,14(a0)
80006292:	00052023          	sw	zero,0(a0)
80006296:	00052223          	sw	zero,4(a0)
8000629a:	00052423          	sw	zero,8(a0)
8000629e:	06052223          	sw	zero,100(a0)
800062a2:	00052823          	sw	zero,16(a0)
800062a6:	00052a23          	sw	zero,20(a0)
800062aa:	00052c23          	sw	zero,24(a0)
800062ae:	4621                	li	a2,8
800062b0:	4581                	li	a1,0
800062b2:	05c50513          	addi	a0,a0,92
800062b6:	2edd                	jal	800066ac <memset>
800062b8:	00001797          	auipc	a5,0x1
800062bc:	29278793          	addi	a5,a5,658 # 8000754a <__sread>
800062c0:	d05c                	sw	a5,36(s0)
800062c2:	00001797          	auipc	a5,0x1
800062c6:	2b878793          	addi	a5,a5,696 # 8000757a <__swrite>
800062ca:	d41c                	sw	a5,40(s0)
800062cc:	00001797          	auipc	a5,0x1
800062d0:	2fc78793          	addi	a5,a5,764 # 800075c8 <__sseek>
800062d4:	d45c                	sw	a5,44(s0)
800062d6:	00001797          	auipc	a5,0x1
800062da:	32878793          	addi	a5,a5,808 # 800075fe <__sclose>
800062de:	40b2                	lw	ra,12(sp)
800062e0:	d000                	sw	s0,32(s0)
800062e2:	d81c                	sw	a5,48(s0)
800062e4:	4422                	lw	s0,8(sp)
800062e6:	0141                	addi	sp,sp,16
800062e8:	8082                	ret

800062ea <_cleanup_r>:
_cleanup_r():
800062ea:	00000597          	auipc	a1,0x0
800062ee:	f3458593          	addi	a1,a1,-204 # 8000621e <_fflush_r>
800062f2:	a299                	j	80006438 <_fwalk_reent>

800062f4 <__sfmoreglue>:
__sfmoreglue():
800062f4:	1141                	addi	sp,sp,-16
800062f6:	c226                	sw	s1,4(sp)
800062f8:	06800613          	li	a2,104
800062fc:	fff58493          	addi	s1,a1,-1
80006300:	02c484b3          	mul	s1,s1,a2
80006304:	c04a                	sw	s2,0(sp)
80006306:	892e                	mv	s2,a1
80006308:	c422                	sw	s0,8(sp)
8000630a:	c606                	sw	ra,12(sp)
8000630c:	07448593          	addi	a1,s1,116
80006310:	5b1000ef          	jal	ra,800070c0 <_malloc_r>
80006314:	842a                	mv	s0,a0
80006316:	c919                	beqz	a0,8000632c <__sfmoreglue+0x38>
80006318:	00052023          	sw	zero,0(a0)
8000631c:	01252223          	sw	s2,4(a0)
80006320:	0531                	addi	a0,a0,12
80006322:	c408                	sw	a0,8(s0)
80006324:	06848613          	addi	a2,s1,104
80006328:	4581                	li	a1,0
8000632a:	2649                	jal	800066ac <memset>
8000632c:	40b2                	lw	ra,12(sp)
8000632e:	8522                	mv	a0,s0
80006330:	4422                	lw	s0,8(sp)
80006332:	4492                	lw	s1,4(sp)
80006334:	4902                	lw	s2,0(sp)
80006336:	0141                	addi	sp,sp,16
80006338:	8082                	ret

8000633a <__sinit>:
__sinit():
8000633a:	4d1c                	lw	a5,24(a0)
8000633c:	e3ad                	bnez	a5,8000639e <__sinit+0x64>
8000633e:	1141                	addi	sp,sp,-16
80006340:	c422                	sw	s0,8(sp)
80006342:	c606                	sw	ra,12(sp)
80006344:	00000797          	auipc	a5,0x0
80006348:	fa678793          	addi	a5,a5,-90 # 800062ea <_cleanup_r>
8000634c:	d51c                	sw	a5,40(a0)
8000634e:	04052423          	sw	zero,72(a0)
80006352:	04052623          	sw	zero,76(a0)
80006356:	04052823          	sw	zero,80(a0)
8000635a:	9f01a783          	lw	a5,-1552(gp) # 900003c0 <_global_impure_ptr>
8000635e:	842a                	mv	s0,a0
80006360:	00f51463          	bne	a0,a5,80006368 <__sinit+0x2e>
80006364:	4785                	li	a5,1
80006366:	cd1c                	sw	a5,24(a0)
80006368:	8522                	mv	a0,s0
8000636a:	281d                	jal	800063a0 <__sfp>
8000636c:	c048                	sw	a0,4(s0)
8000636e:	8522                	mv	a0,s0
80006370:	2805                	jal	800063a0 <__sfp>
80006372:	c408                	sw	a0,8(s0)
80006374:	8522                	mv	a0,s0
80006376:	202d                	jal	800063a0 <__sfp>
80006378:	c448                	sw	a0,12(s0)
8000637a:	4048                	lw	a0,4(s0)
8000637c:	4601                	li	a2,0
8000637e:	4591                	li	a1,4
80006380:	3709                	jal	80006282 <std>
80006382:	4408                	lw	a0,8(s0)
80006384:	4605                	li	a2,1
80006386:	45a5                	li	a1,9
80006388:	3ded                	jal	80006282 <std>
8000638a:	4448                	lw	a0,12(s0)
8000638c:	4609                	li	a2,2
8000638e:	45c9                	li	a1,18
80006390:	3dcd                	jal	80006282 <std>
80006392:	4785                	li	a5,1
80006394:	40b2                	lw	ra,12(sp)
80006396:	cc1c                	sw	a5,24(s0)
80006398:	4422                	lw	s0,8(sp)
8000639a:	0141                	addi	sp,sp,16
8000639c:	8082                	ret
8000639e:	8082                	ret

800063a0 <__sfp>:
__sfp():
800063a0:	1141                	addi	sp,sp,-16
800063a2:	c226                	sw	s1,4(sp)
800063a4:	9f01a483          	lw	s1,-1552(gp) # 900003c0 <_global_impure_ptr>
800063a8:	4c9c                	lw	a5,24(s1)
800063aa:	c04a                	sw	s2,0(sp)
800063ac:	c606                	sw	ra,12(sp)
800063ae:	c422                	sw	s0,8(sp)
800063b0:	892a                	mv	s2,a0
800063b2:	e399                	bnez	a5,800063b8 <__sfp+0x18>
800063b4:	8526                	mv	a0,s1
800063b6:	3751                	jal	8000633a <__sinit>
800063b8:	04848493          	addi	s1,s1,72
800063bc:	4480                	lw	s0,8(s1)
800063be:	40dc                	lw	a5,4(s1)
800063c0:	17fd                	addi	a5,a5,-1
800063c2:	0007d663          	bgez	a5,800063ce <__sfp+0x2e>
800063c6:	409c                	lw	a5,0(s1)
800063c8:	cfb1                	beqz	a5,80006424 <__sfp+0x84>
800063ca:	4084                	lw	s1,0(s1)
800063cc:	bfc5                	j	800063bc <__sfp+0x1c>
800063ce:	00c41703          	lh	a4,12(s0)
800063d2:	e731                	bnez	a4,8000641e <__sfp+0x7e>
800063d4:	77c1                	lui	a5,0xffff0
800063d6:	0785                	addi	a5,a5,1
800063d8:	06042223          	sw	zero,100(s0)
800063dc:	00042023          	sw	zero,0(s0)
800063e0:	00042223          	sw	zero,4(s0)
800063e4:	00042423          	sw	zero,8(s0)
800063e8:	c45c                	sw	a5,12(s0)
800063ea:	00042823          	sw	zero,16(s0)
800063ee:	00042a23          	sw	zero,20(s0)
800063f2:	00042c23          	sw	zero,24(s0)
800063f6:	4621                	li	a2,8
800063f8:	4581                	li	a1,0
800063fa:	05c40513          	addi	a0,s0,92
800063fe:	247d                	jal	800066ac <memset>
80006400:	02042a23          	sw	zero,52(s0)
80006404:	02042c23          	sw	zero,56(s0)
80006408:	04042423          	sw	zero,72(s0)
8000640c:	04042623          	sw	zero,76(s0)
80006410:	40b2                	lw	ra,12(sp)
80006412:	8522                	mv	a0,s0
80006414:	4422                	lw	s0,8(sp)
80006416:	4492                	lw	s1,4(sp)
80006418:	4902                	lw	s2,0(sp)
8000641a:	0141                	addi	sp,sp,16
8000641c:	8082                	ret
8000641e:	06840413          	addi	s0,s0,104
80006422:	bf79                	j	800063c0 <__sfp+0x20>
80006424:	4591                	li	a1,4
80006426:	854a                	mv	a0,s2
80006428:	35f1                	jal	800062f4 <__sfmoreglue>
8000642a:	c088                	sw	a0,0(s1)
8000642c:	842a                	mv	s0,a0
8000642e:	fd51                	bnez	a0,800063ca <__sfp+0x2a>
80006430:	47b1                	li	a5,12
80006432:	00f92023          	sw	a5,0(s2)
80006436:	bfe9                	j	80006410 <__sfp+0x70>

80006438 <_fwalk_reent>:
_fwalk_reent():
80006438:	7179                	addi	sp,sp,-48
8000643a:	d422                	sw	s0,40(sp)
8000643c:	d04a                	sw	s2,32(sp)
8000643e:	ce4e                	sw	s3,28(sp)
80006440:	cc52                	sw	s4,24(sp)
80006442:	c85a                	sw	s6,16(sp)
80006444:	c65e                	sw	s7,12(sp)
80006446:	d606                	sw	ra,44(sp)
80006448:	d226                	sw	s1,36(sp)
8000644a:	ca56                	sw	s5,20(sp)
8000644c:	892a                	mv	s2,a0
8000644e:	8a2e                	mv	s4,a1
80006450:	04850413          	addi	s0,a0,72
80006454:	4981                	li	s3,0
80006456:	4b05                	li	s6,1
80006458:	5bfd                	li	s7,-1
8000645a:	4404                	lw	s1,8(s0)
8000645c:	00442a83          	lw	s5,4(s0)
80006460:	1afd                	addi	s5,s5,-1
80006462:	020ad063          	bgez	s5,80006482 <_fwalk_reent+0x4a>
80006466:	4000                	lw	s0,0(s0)
80006468:	f86d                	bnez	s0,8000645a <_fwalk_reent+0x22>
8000646a:	50b2                	lw	ra,44(sp)
8000646c:	5422                	lw	s0,40(sp)
8000646e:	5492                	lw	s1,36(sp)
80006470:	5902                	lw	s2,32(sp)
80006472:	4a62                	lw	s4,24(sp)
80006474:	4ad2                	lw	s5,20(sp)
80006476:	4b42                	lw	s6,16(sp)
80006478:	4bb2                	lw	s7,12(sp)
8000647a:	854e                	mv	a0,s3
8000647c:	49f2                	lw	s3,28(sp)
8000647e:	6145                	addi	sp,sp,48
80006480:	8082                	ret
80006482:	00c4d783          	lhu	a5,12(s1)
80006486:	00fb7b63          	bgeu	s6,a5,8000649c <_fwalk_reent+0x64>
8000648a:	00e49783          	lh	a5,14(s1)
8000648e:	01778763          	beq	a5,s7,8000649c <_fwalk_reent+0x64>
80006492:	85a6                	mv	a1,s1
80006494:	854a                	mv	a0,s2
80006496:	9a02                	jalr	s4
80006498:	00a9e9b3          	or	s3,s3,a0
8000649c:	06848493          	addi	s1,s1,104
800064a0:	b7c1                	j	80006460 <_fwalk_reent+0x28>

800064a2 <_localeconv_r>:
_localeconv_r():
800064a2:	0fffa517          	auipc	a0,0xfffa
800064a6:	cae50513          	addi	a0,a0,-850 # 90000150 <__global_locale+0xf0>
800064aa:	8082                	ret

800064ac <__swhatbuf_r>:
__swhatbuf_r():
800064ac:	7159                	addi	sp,sp,-112
800064ae:	d0ca                	sw	s2,96(sp)
800064b0:	892e                	mv	s2,a1
800064b2:	00e59583          	lh	a1,14(a1)
800064b6:	d4a2                	sw	s0,104(sp)
800064b8:	d2a6                	sw	s1,100(sp)
800064ba:	d686                	sw	ra,108(sp)
800064bc:	8432                	mv	s0,a2
800064be:	84b6                	mv	s1,a3
800064c0:	0005dc63          	bgez	a1,800064d8 <__swhatbuf_r+0x2c>
800064c4:	00c91783          	lh	a5,12(s2)
800064c8:	0004a023          	sw	zero,0(s1)
800064cc:	0807f793          	andi	a5,a5,128
800064d0:	e395                	bnez	a5,800064f4 <__swhatbuf_r+0x48>
800064d2:	40000793          	li	a5,1024
800064d6:	a00d                	j	800064f8 <__swhatbuf_r+0x4c>
800064d8:	0030                	addi	a2,sp,8
800064da:	1e2010ef          	jal	ra,800076bc <_fstat_r>
800064de:	fe0543e3          	bltz	a0,800064c4 <__swhatbuf_r+0x18>
800064e2:	4732                	lw	a4,12(sp)
800064e4:	67bd                	lui	a5,0xf
800064e6:	8ff9                	and	a5,a5,a4
800064e8:	7779                	lui	a4,0xffffe
800064ea:	97ba                	add	a5,a5,a4
800064ec:	0017b793          	seqz	a5,a5
800064f0:	c09c                	sw	a5,0(s1)
800064f2:	b7c5                	j	800064d2 <__swhatbuf_r+0x26>
800064f4:	04000793          	li	a5,64
800064f8:	50b6                	lw	ra,108(sp)
800064fa:	c01c                	sw	a5,0(s0)
800064fc:	5426                	lw	s0,104(sp)
800064fe:	5496                	lw	s1,100(sp)
80006500:	5906                	lw	s2,96(sp)
80006502:	4501                	li	a0,0
80006504:	6165                	addi	sp,sp,112
80006506:	8082                	ret

80006508 <__smakebuf_r>:
__smakebuf_r():
80006508:	00c5d783          	lhu	a5,12(a1)
8000650c:	1101                	addi	sp,sp,-32
8000650e:	cc22                	sw	s0,24(sp)
80006510:	ce06                	sw	ra,28(sp)
80006512:	ca26                	sw	s1,20(sp)
80006514:	c84a                	sw	s2,16(sp)
80006516:	8b89                	andi	a5,a5,2
80006518:	842e                	mv	s0,a1
8000651a:	cf89                	beqz	a5,80006534 <__smakebuf_r+0x2c>
8000651c:	04740793          	addi	a5,s0,71
80006520:	c01c                	sw	a5,0(s0)
80006522:	c81c                	sw	a5,16(s0)
80006524:	4785                	li	a5,1
80006526:	c85c                	sw	a5,20(s0)
80006528:	40f2                	lw	ra,28(sp)
8000652a:	4462                	lw	s0,24(sp)
8000652c:	44d2                	lw	s1,20(sp)
8000652e:	4942                	lw	s2,16(sp)
80006530:	6105                	addi	sp,sp,32
80006532:	8082                	ret
80006534:	0074                	addi	a3,sp,12
80006536:	0030                	addi	a2,sp,8
80006538:	892a                	mv	s2,a0
8000653a:	3f8d                	jal	800064ac <__swhatbuf_r>
8000653c:	45a2                	lw	a1,8(sp)
8000653e:	84aa                	mv	s1,a0
80006540:	854a                	mv	a0,s2
80006542:	37f000ef          	jal	ra,800070c0 <_malloc_r>
80006546:	ed01                	bnez	a0,8000655e <__smakebuf_r+0x56>
80006548:	00c41783          	lh	a5,12(s0)
8000654c:	2007f713          	andi	a4,a5,512
80006550:	ff61                	bnez	a4,80006528 <__smakebuf_r+0x20>
80006552:	9bf1                	andi	a5,a5,-4
80006554:	0027e793          	ori	a5,a5,2
80006558:	00f41623          	sh	a5,12(s0)
8000655c:	b7c1                	j	8000651c <__smakebuf_r+0x14>
8000655e:	00000797          	auipc	a5,0x0
80006562:	d8c78793          	addi	a5,a5,-628 # 800062ea <_cleanup_r>
80006566:	02f92423          	sw	a5,40(s2)
8000656a:	00c45783          	lhu	a5,12(s0)
8000656e:	c008                	sw	a0,0(s0)
80006570:	c808                	sw	a0,16(s0)
80006572:	0807e793          	ori	a5,a5,128
80006576:	00f41623          	sh	a5,12(s0)
8000657a:	47a2                	lw	a5,8(sp)
8000657c:	c85c                	sw	a5,20(s0)
8000657e:	47b2                	lw	a5,12(sp)
80006580:	cf91                	beqz	a5,8000659c <__smakebuf_r+0x94>
80006582:	00e41583          	lh	a1,14(s0)
80006586:	854a                	mv	a0,s2
80006588:	15e010ef          	jal	ra,800076e6 <_isatty_r>
8000658c:	c901                	beqz	a0,8000659c <__smakebuf_r+0x94>
8000658e:	00c45783          	lhu	a5,12(s0)
80006592:	9bf1                	andi	a5,a5,-4
80006594:	0017e793          	ori	a5,a5,1
80006598:	00f41623          	sh	a5,12(s0)
8000659c:	00c45503          	lhu	a0,12(s0)
800065a0:	8cc9                	or	s1,s1,a0
800065a2:	00941623          	sh	s1,12(s0)
800065a6:	b749                	j	80006528 <__smakebuf_r+0x20>

800065a8 <malloc>:
malloc():
800065a8:	85aa                	mv	a1,a0
800065aa:	0fffa517          	auipc	a0,0xfffa
800065ae:	c2e52503          	lw	a0,-978(a0) # 900001d8 <_impure_ptr>
800065b2:	30f0006f          	j	800070c0 <_malloc_r>

800065b6 <memchr>:
memchr():
800065b6:	0ff5f593          	zext.b	a1,a1
800065ba:	962a                	add	a2,a2,a0
800065bc:	00c51463          	bne	a0,a2,800065c4 <memchr+0xe>
800065c0:	4501                	li	a0,0
800065c2:	8082                	ret
800065c4:	00054783          	lbu	a5,0(a0)
800065c8:	feb78de3          	beq	a5,a1,800065c2 <memchr+0xc>
800065cc:	0505                	addi	a0,a0,1
800065ce:	b7fd                	j	800065bc <memchr+0x6>

800065d0 <memcpy>:
memcpy():
800065d0:	00a5c7b3          	xor	a5,a1,a0
800065d4:	8b8d                	andi	a5,a5,3
800065d6:	00c506b3          	add	a3,a0,a2
800065da:	e781                	bnez	a5,800065e2 <memcpy+0x12>
800065dc:	478d                	li	a5,3
800065de:	00c7ee63          	bltu	a5,a2,800065fa <memcpy+0x2a>
800065e2:	87aa                	mv	a5,a0
800065e4:	06d57163          	bgeu	a0,a3,80006646 <memcpy+0x76>
800065e8:	0005c703          	lbu	a4,0(a1)
800065ec:	0785                	addi	a5,a5,1
800065ee:	0585                	addi	a1,a1,1
800065f0:	fee78fa3          	sb	a4,-1(a5)
800065f4:	fed7eae3          	bltu	a5,a3,800065e8 <memcpy+0x18>
800065f8:	8082                	ret
800065fa:	00357713          	andi	a4,a0,3
800065fe:	87aa                	mv	a5,a0
80006600:	cb11                	beqz	a4,80006614 <memcpy+0x44>
80006602:	0005c703          	lbu	a4,0(a1)
80006606:	0785                	addi	a5,a5,1
80006608:	0585                	addi	a1,a1,1
8000660a:	fee78fa3          	sb	a4,-1(a5)
8000660e:	0037f713          	andi	a4,a5,3
80006612:	b7fd                	j	80006600 <memcpy+0x30>
80006614:	ffc6f713          	andi	a4,a3,-4
80006618:	40f70833          	sub	a6,a4,a5
8000661c:	02000613          	li	a2,32
80006620:	03064463          	blt	a2,a6,80006648 <memcpy+0x78>
80006624:	882e                	mv	a6,a1
80006626:	863e                	mv	a2,a5
80006628:	06e66b63          	bltu	a2,a4,8000669e <memcpy+0xce>
8000662c:	ffd78813          	addi	a6,a5,-3
80006630:	4601                	li	a2,0
80006632:	01076663          	bltu	a4,a6,8000663e <memcpy+0x6e>
80006636:	070d                	addi	a4,a4,3
80006638:	8f1d                	sub	a4,a4,a5
8000663a:	ffc77613          	andi	a2,a4,-4
8000663e:	97b2                	add	a5,a5,a2
80006640:	95b2                	add	a1,a1,a2
80006642:	fad7e3e3          	bltu	a5,a3,800065e8 <memcpy+0x18>
80006646:	8082                	ret
80006648:	0005a383          	lw	t2,0(a1)
8000664c:	0045a283          	lw	t0,4(a1)
80006650:	0085af83          	lw	t6,8(a1)
80006654:	00c5af03          	lw	t5,12(a1)
80006658:	0105ae83          	lw	t4,16(a1)
8000665c:	0145ae03          	lw	t3,20(a1)
80006660:	0185a303          	lw	t1,24(a1)
80006664:	01c5a883          	lw	a7,28(a1)
80006668:	0077a023          	sw	t2,0(a5)
8000666c:	0057a223          	sw	t0,4(a5)
80006670:	0205a803          	lw	a6,32(a1)
80006674:	01f7a423          	sw	t6,8(a5)
80006678:	01e7a623          	sw	t5,12(a5)
8000667c:	01d7a823          	sw	t4,16(a5)
80006680:	01c7aa23          	sw	t3,20(a5)
80006684:	0067ac23          	sw	t1,24(a5)
80006688:	0117ae23          	sw	a7,28(a5)
8000668c:	02478793          	addi	a5,a5,36
80006690:	02458593          	addi	a1,a1,36
80006694:	ff07ae23          	sw	a6,-4(a5)
80006698:	40f70833          	sub	a6,a4,a5
8000669c:	b751                	j	80006620 <memcpy+0x50>
8000669e:	00082883          	lw	a7,0(a6)
800066a2:	0611                	addi	a2,a2,4
800066a4:	0811                	addi	a6,a6,4
800066a6:	ff162e23          	sw	a7,-4(a2)
800066aa:	bfbd                	j	80006628 <memcpy+0x58>

800066ac <memset>:
memset():
800066ac:	433d                	li	t1,15
800066ae:	872a                	mv	a4,a0
800066b0:	02c37363          	bgeu	t1,a2,800066d6 <memset+0x2a>
800066b4:	00f77793          	andi	a5,a4,15
800066b8:	efbd                	bnez	a5,80006736 <memset+0x8a>
800066ba:	e5ad                	bnez	a1,80006724 <memset+0x78>
800066bc:	ff067693          	andi	a3,a2,-16
800066c0:	8a3d                	andi	a2,a2,15
800066c2:	96ba                	add	a3,a3,a4
800066c4:	c30c                	sw	a1,0(a4)
800066c6:	c34c                	sw	a1,4(a4)
800066c8:	c70c                	sw	a1,8(a4)
800066ca:	c74c                	sw	a1,12(a4)
800066cc:	0741                	addi	a4,a4,16
800066ce:	fed76be3          	bltu	a4,a3,800066c4 <memset+0x18>
800066d2:	e211                	bnez	a2,800066d6 <memset+0x2a>
800066d4:	8082                	ret
800066d6:	40c306b3          	sub	a3,t1,a2
800066da:	068a                	slli	a3,a3,0x2
800066dc:	00000297          	auipc	t0,0x0
800066e0:	9696                	add	a3,a3,t0
800066e2:	00a68067          	jr	10(a3) # 100a <__stack_size+0x80a>
800066e6:	00b70723          	sb	a1,14(a4) # ffffe00e <_sp+0x6ffee00e>
800066ea:	00b706a3          	sb	a1,13(a4)
800066ee:	00b70623          	sb	a1,12(a4)
800066f2:	00b705a3          	sb	a1,11(a4)
800066f6:	00b70523          	sb	a1,10(a4)
800066fa:	00b704a3          	sb	a1,9(a4)
800066fe:	00b70423          	sb	a1,8(a4)
80006702:	00b703a3          	sb	a1,7(a4)
80006706:	00b70323          	sb	a1,6(a4)
8000670a:	00b702a3          	sb	a1,5(a4)
8000670e:	00b70223          	sb	a1,4(a4)
80006712:	00b701a3          	sb	a1,3(a4)
80006716:	00b70123          	sb	a1,2(a4)
8000671a:	00b700a3          	sb	a1,1(a4)
8000671e:	00b70023          	sb	a1,0(a4)
80006722:	8082                	ret
80006724:	0ff5f593          	zext.b	a1,a1
80006728:	00859693          	slli	a3,a1,0x8
8000672c:	8dd5                	or	a1,a1,a3
8000672e:	01059693          	slli	a3,a1,0x10
80006732:	8dd5                	or	a1,a1,a3
80006734:	b761                	j	800066bc <memset+0x10>
80006736:	00279693          	slli	a3,a5,0x2
8000673a:	00000297          	auipc	t0,0x0
8000673e:	9696                	add	a3,a3,t0
80006740:	8286                	mv	t0,ra
80006742:	fa8680e7          	jalr	-88(a3)
80006746:	8096                	mv	ra,t0
80006748:	17c1                	addi	a5,a5,-16
8000674a:	8f1d                	sub	a4,a4,a5
8000674c:	963e                	add	a2,a2,a5
8000674e:	f8c374e3          	bgeu	t1,a2,800066d6 <memset+0x2a>
80006752:	b7a5                	j	800066ba <memset+0xe>

80006754 <_Balloc>:
_Balloc():
80006754:	515c                	lw	a5,36(a0)
80006756:	1141                	addi	sp,sp,-16
80006758:	c422                	sw	s0,8(sp)
8000675a:	c226                	sw	s1,4(sp)
8000675c:	c606                	sw	ra,12(sp)
8000675e:	c04a                	sw	s2,0(sp)
80006760:	842a                	mv	s0,a0
80006762:	84ae                	mv	s1,a1
80006764:	eb9d                	bnez	a5,8000679a <_Balloc+0x46>
80006766:	4541                	li	a0,16
80006768:	e41ff0ef          	jal	ra,800065a8 <malloc>
8000676c:	d048                	sw	a0,36(s0)
8000676e:	ed11                	bnez	a0,8000678a <_Balloc+0x36>
80006770:	00003697          	auipc	a3,0x3
80006774:	07468693          	addi	a3,a3,116 # 800097e4 <__clz_tab+0x1a4>
80006778:	4601                	li	a2,0
8000677a:	06600593          	li	a1,102
8000677e:	00003517          	auipc	a0,0x3
80006782:	14650513          	addi	a0,a0,326 # 800098c4 <__sf_fake_stdout+0x20>
80006786:	6ab000ef          	jal	ra,80007630 <__assert_func>
8000678a:	00052223          	sw	zero,4(a0)
8000678e:	00052423          	sw	zero,8(a0)
80006792:	00052023          	sw	zero,0(a0)
80006796:	00052623          	sw	zero,12(a0)
8000679a:	02442903          	lw	s2,36(s0)
8000679e:	00c92783          	lw	a5,12(s2)
800067a2:	c79d                	beqz	a5,800067d0 <_Balloc+0x7c>
800067a4:	5058                	lw	a4,36(s0)
800067a6:	00249793          	slli	a5,s1,0x2
800067aa:	4758                	lw	a4,12(a4)
800067ac:	97ba                	add	a5,a5,a4
800067ae:	4388                	lw	a0,0(a5)
800067b0:	e131                	bnez	a0,800067f4 <_Balloc+0xa0>
800067b2:	4905                	li	s2,1
800067b4:	00991933          	sll	s2,s2,s1
800067b8:	00590613          	addi	a2,s2,5
800067bc:	060a                	slli	a2,a2,0x2
800067be:	4585                	li	a1,1
800067c0:	8522                	mv	a0,s0
800067c2:	027000ef          	jal	ra,80006fe8 <_calloc_r>
800067c6:	c105                	beqz	a0,800067e6 <_Balloc+0x92>
800067c8:	c144                	sw	s1,4(a0)
800067ca:	01252423          	sw	s2,8(a0)
800067ce:	a02d                	j	800067f8 <_Balloc+0xa4>
800067d0:	02100613          	li	a2,33
800067d4:	4591                	li	a1,4
800067d6:	8522                	mv	a0,s0
800067d8:	011000ef          	jal	ra,80006fe8 <_calloc_r>
800067dc:	505c                	lw	a5,36(s0)
800067de:	00a92623          	sw	a0,12(s2)
800067e2:	47dc                	lw	a5,12(a5)
800067e4:	f3e1                	bnez	a5,800067a4 <_Balloc+0x50>
800067e6:	4501                	li	a0,0
800067e8:	40b2                	lw	ra,12(sp)
800067ea:	4422                	lw	s0,8(sp)
800067ec:	4492                	lw	s1,4(sp)
800067ee:	4902                	lw	s2,0(sp)
800067f0:	0141                	addi	sp,sp,16
800067f2:	8082                	ret
800067f4:	4118                	lw	a4,0(a0)
800067f6:	c398                	sw	a4,0(a5)
800067f8:	00052823          	sw	zero,16(a0)
800067fc:	00052623          	sw	zero,12(a0)
80006800:	b7e5                	j	800067e8 <_Balloc+0x94>

80006802 <_Bfree>:
_Bfree():
80006802:	515c                	lw	a5,36(a0)
80006804:	1141                	addi	sp,sp,-16
80006806:	c422                	sw	s0,8(sp)
80006808:	c226                	sw	s1,4(sp)
8000680a:	c606                	sw	ra,12(sp)
8000680c:	84aa                	mv	s1,a0
8000680e:	842e                	mv	s0,a1
80006810:	eb9d                	bnez	a5,80006846 <_Bfree+0x44>
80006812:	4541                	li	a0,16
80006814:	d95ff0ef          	jal	ra,800065a8 <malloc>
80006818:	d0c8                	sw	a0,36(s1)
8000681a:	ed11                	bnez	a0,80006836 <_Bfree+0x34>
8000681c:	00003697          	auipc	a3,0x3
80006820:	fc868693          	addi	a3,a3,-56 # 800097e4 <__clz_tab+0x1a4>
80006824:	4601                	li	a2,0
80006826:	08a00593          	li	a1,138
8000682a:	00003517          	auipc	a0,0x3
8000682e:	09a50513          	addi	a0,a0,154 # 800098c4 <__sf_fake_stdout+0x20>
80006832:	5ff000ef          	jal	ra,80007630 <__assert_func>
80006836:	00052223          	sw	zero,4(a0)
8000683a:	00052423          	sw	zero,8(a0)
8000683e:	00052023          	sw	zero,0(a0)
80006842:	00052623          	sw	zero,12(a0)
80006846:	c811                	beqz	s0,8000685a <_Bfree+0x58>
80006848:	50d4                	lw	a3,36(s1)
8000684a:	405c                	lw	a5,4(s0)
8000684c:	00279713          	slli	a4,a5,0x2
80006850:	46dc                	lw	a5,12(a3)
80006852:	97ba                	add	a5,a5,a4
80006854:	4398                	lw	a4,0(a5)
80006856:	c018                	sw	a4,0(s0)
80006858:	c380                	sw	s0,0(a5)
8000685a:	40b2                	lw	ra,12(sp)
8000685c:	4422                	lw	s0,8(sp)
8000685e:	4492                	lw	s1,4(sp)
80006860:	0141                	addi	sp,sp,16
80006862:	8082                	ret

80006864 <__multadd>:
__multadd():
80006864:	1101                	addi	sp,sp,-32
80006866:	cc22                	sw	s0,24(sp)
80006868:	c84a                	sw	s2,16(sp)
8000686a:	c64e                	sw	s3,12(sp)
8000686c:	0105a903          	lw	s2,16(a1)
80006870:	842e                	mv	s0,a1
80006872:	89b6                	mv	s3,a3
80006874:	01458693          	addi	a3,a1,20
80006878:	65c1                	lui	a1,0x10
8000687a:	ca26                	sw	s1,20(sp)
8000687c:	ce06                	sw	ra,28(sp)
8000687e:	84aa                	mv	s1,a0
80006880:	c452                	sw	s4,8(sp)
80006882:	4501                	li	a0,0
80006884:	15fd                	addi	a1,a1,-1
80006886:	429c                	lw	a5,0(a3)
80006888:	0691                	addi	a3,a3,4
8000688a:	0505                	addi	a0,a0,1
8000688c:	00b7f733          	and	a4,a5,a1
80006890:	02c70733          	mul	a4,a4,a2
80006894:	83c1                	srli	a5,a5,0x10
80006896:	02c787b3          	mul	a5,a5,a2
8000689a:	974e                	add	a4,a4,s3
8000689c:	01075813          	srli	a6,a4,0x10
800068a0:	8f6d                	and	a4,a4,a1
800068a2:	97c2                	add	a5,a5,a6
800068a4:	0107d993          	srli	s3,a5,0x10
800068a8:	07c2                	slli	a5,a5,0x10
800068aa:	97ba                	add	a5,a5,a4
800068ac:	fef6ae23          	sw	a5,-4(a3)
800068b0:	fd254be3          	blt	a0,s2,80006886 <__multadd+0x22>
800068b4:	04098e63          	beqz	s3,80006910 <__multadd+0xac>
800068b8:	441c                	lw	a5,8(s0)
800068ba:	04f94263          	blt	s2,a5,800068fe <__multadd+0x9a>
800068be:	404c                	lw	a1,4(s0)
800068c0:	8526                	mv	a0,s1
800068c2:	0585                	addi	a1,a1,1
800068c4:	e91ff0ef          	jal	ra,80006754 <_Balloc>
800068c8:	8a2a                	mv	s4,a0
800068ca:	ed11                	bnez	a0,800068e6 <__multadd+0x82>
800068cc:	00003697          	auipc	a3,0x3
800068d0:	f8468693          	addi	a3,a3,-124 # 80009850 <__clz_tab+0x210>
800068d4:	4601                	li	a2,0
800068d6:	0b500593          	li	a1,181
800068da:	00003517          	auipc	a0,0x3
800068de:	fea50513          	addi	a0,a0,-22 # 800098c4 <__sf_fake_stdout+0x20>
800068e2:	54f000ef          	jal	ra,80007630 <__assert_func>
800068e6:	4810                	lw	a2,16(s0)
800068e8:	00c40593          	addi	a1,s0,12
800068ec:	0531                	addi	a0,a0,12
800068ee:	0609                	addi	a2,a2,2
800068f0:	060a                	slli	a2,a2,0x2
800068f2:	cdfff0ef          	jal	ra,800065d0 <memcpy>
800068f6:	85a2                	mv	a1,s0
800068f8:	8526                	mv	a0,s1
800068fa:	3721                	jal	80006802 <_Bfree>
800068fc:	8452                	mv	s0,s4
800068fe:	00490793          	addi	a5,s2,4
80006902:	078a                	slli	a5,a5,0x2
80006904:	97a2                	add	a5,a5,s0
80006906:	0137a223          	sw	s3,4(a5)
8000690a:	0905                	addi	s2,s2,1
8000690c:	01242823          	sw	s2,16(s0)
80006910:	40f2                	lw	ra,28(sp)
80006912:	8522                	mv	a0,s0
80006914:	4462                	lw	s0,24(sp)
80006916:	44d2                	lw	s1,20(sp)
80006918:	4942                	lw	s2,16(sp)
8000691a:	49b2                	lw	s3,12(sp)
8000691c:	4a22                	lw	s4,8(sp)
8000691e:	6105                	addi	sp,sp,32
80006920:	8082                	ret

80006922 <__hi0bits>:
__hi0bits():
80006922:	7741                	lui	a4,0xffff0
80006924:	8f69                	and	a4,a4,a0
80006926:	87aa                	mv	a5,a0
80006928:	4501                	li	a0,0
8000692a:	e319                	bnez	a4,80006930 <__hi0bits+0xe>
8000692c:	07c2                	slli	a5,a5,0x10
8000692e:	4541                	li	a0,16
80006930:	ff000737          	lui	a4,0xff000
80006934:	8f7d                	and	a4,a4,a5
80006936:	e319                	bnez	a4,8000693c <__hi0bits+0x1a>
80006938:	0521                	addi	a0,a0,8
8000693a:	07a2                	slli	a5,a5,0x8
8000693c:	f0000737          	lui	a4,0xf0000
80006940:	8f7d                	and	a4,a4,a5
80006942:	e319                	bnez	a4,80006948 <__hi0bits+0x26>
80006944:	0511                	addi	a0,a0,4
80006946:	0792                	slli	a5,a5,0x4
80006948:	c0000737          	lui	a4,0xc0000
8000694c:	8f7d                	and	a4,a4,a5
8000694e:	e319                	bnez	a4,80006954 <__hi0bits+0x32>
80006950:	0509                	addi	a0,a0,2
80006952:	078a                	slli	a5,a5,0x2
80006954:	0007c963          	bltz	a5,80006966 <__hi0bits+0x44>
80006958:	40000737          	lui	a4,0x40000
8000695c:	8ff9                	and	a5,a5,a4
8000695e:	0505                	addi	a0,a0,1
80006960:	e399                	bnez	a5,80006966 <__hi0bits+0x44>
80006962:	02000513          	li	a0,32
80006966:	8082                	ret

80006968 <__lo0bits>:
__lo0bits():
80006968:	411c                	lw	a5,0(a0)
8000696a:	872a                	mv	a4,a0
8000696c:	0077f693          	andi	a3,a5,7
80006970:	c285                	beqz	a3,80006990 <__lo0bits+0x28>
80006972:	0017f693          	andi	a3,a5,1
80006976:	4501                	li	a0,0
80006978:	eea1                	bnez	a3,800069d0 <__lo0bits+0x68>
8000697a:	0027f693          	andi	a3,a5,2
8000697e:	c689                	beqz	a3,80006988 <__lo0bits+0x20>
80006980:	8385                	srli	a5,a5,0x1
80006982:	c31c                	sw	a5,0(a4)
80006984:	4505                	li	a0,1
80006986:	8082                	ret
80006988:	8389                	srli	a5,a5,0x2
8000698a:	c31c                	sw	a5,0(a4)
8000698c:	4509                	li	a0,2
8000698e:	8082                	ret
80006990:	01079693          	slli	a3,a5,0x10
80006994:	82c1                	srli	a3,a3,0x10
80006996:	4501                	li	a0,0
80006998:	e299                	bnez	a3,8000699e <__lo0bits+0x36>
8000699a:	83c1                	srli	a5,a5,0x10
8000699c:	4541                	li	a0,16
8000699e:	0ff7f693          	zext.b	a3,a5
800069a2:	e299                	bnez	a3,800069a8 <__lo0bits+0x40>
800069a4:	0521                	addi	a0,a0,8
800069a6:	83a1                	srli	a5,a5,0x8
800069a8:	00f7f693          	andi	a3,a5,15
800069ac:	e299                	bnez	a3,800069b2 <__lo0bits+0x4a>
800069ae:	0511                	addi	a0,a0,4
800069b0:	8391                	srli	a5,a5,0x4
800069b2:	0037f693          	andi	a3,a5,3
800069b6:	e299                	bnez	a3,800069bc <__lo0bits+0x54>
800069b8:	0509                	addi	a0,a0,2
800069ba:	8389                	srli	a5,a5,0x2
800069bc:	0017f693          	andi	a3,a5,1
800069c0:	e681                	bnez	a3,800069c8 <__lo0bits+0x60>
800069c2:	8385                	srli	a5,a5,0x1
800069c4:	0505                	addi	a0,a0,1
800069c6:	c399                	beqz	a5,800069cc <__lo0bits+0x64>
800069c8:	c31c                	sw	a5,0(a4)
800069ca:	8082                	ret
800069cc:	02000513          	li	a0,32
800069d0:	8082                	ret

800069d2 <__i2b>:
__i2b():
800069d2:	1141                	addi	sp,sp,-16
800069d4:	c422                	sw	s0,8(sp)
800069d6:	842e                	mv	s0,a1
800069d8:	4585                	li	a1,1
800069da:	c606                	sw	ra,12(sp)
800069dc:	d79ff0ef          	jal	ra,80006754 <_Balloc>
800069e0:	ed11                	bnez	a0,800069fc <__i2b+0x2a>
800069e2:	00003697          	auipc	a3,0x3
800069e6:	e6e68693          	addi	a3,a3,-402 # 80009850 <__clz_tab+0x210>
800069ea:	4601                	li	a2,0
800069ec:	14000593          	li	a1,320
800069f0:	00003517          	auipc	a0,0x3
800069f4:	ed450513          	addi	a0,a0,-300 # 800098c4 <__sf_fake_stdout+0x20>
800069f8:	439000ef          	jal	ra,80007630 <__assert_func>
800069fc:	40b2                	lw	ra,12(sp)
800069fe:	c940                	sw	s0,20(a0)
80006a00:	4422                	lw	s0,8(sp)
80006a02:	4705                	li	a4,1
80006a04:	c918                	sw	a4,16(a0)
80006a06:	0141                	addi	sp,sp,16
80006a08:	8082                	ret

80006a0a <__multiply>:
__multiply():
80006a0a:	4998                	lw	a4,16(a1)
80006a0c:	4a1c                	lw	a5,16(a2)
80006a0e:	1101                	addi	sp,sp,-32
80006a10:	cc22                	sw	s0,24(sp)
80006a12:	c84a                	sw	s2,16(sp)
80006a14:	ce06                	sw	ra,28(sp)
80006a16:	ca26                	sw	s1,20(sp)
80006a18:	c64e                	sw	s3,12(sp)
80006a1a:	c452                	sw	s4,8(sp)
80006a1c:	842e                	mv	s0,a1
80006a1e:	8932                	mv	s2,a2
80006a20:	00f75463          	bge	a4,a5,80006a28 <__multiply+0x1e>
80006a24:	8432                	mv	s0,a2
80006a26:	892e                	mv	s2,a1
80006a28:	01042a03          	lw	s4,16(s0)
80006a2c:	01092983          	lw	s3,16(s2)
80006a30:	441c                	lw	a5,8(s0)
80006a32:	404c                	lw	a1,4(s0)
80006a34:	013a04b3          	add	s1,s4,s3
80006a38:	0097d363          	bge	a5,s1,80006a3e <__multiply+0x34>
80006a3c:	0585                	addi	a1,a1,1
80006a3e:	d17ff0ef          	jal	ra,80006754 <_Balloc>
80006a42:	ed11                	bnez	a0,80006a5e <__multiply+0x54>
80006a44:	00003697          	auipc	a3,0x3
80006a48:	e0c68693          	addi	a3,a3,-500 # 80009850 <__clz_tab+0x210>
80006a4c:	4601                	li	a2,0
80006a4e:	15d00593          	li	a1,349
80006a52:	00003517          	auipc	a0,0x3
80006a56:	e7250513          	addi	a0,a0,-398 # 800098c4 <__sf_fake_stdout+0x20>
80006a5a:	3d7000ef          	jal	ra,80007630 <__assert_func>
80006a5e:	01450693          	addi	a3,a0,20
80006a62:	00249813          	slli	a6,s1,0x2
80006a66:	9836                	add	a6,a6,a3
80006a68:	87b6                	mv	a5,a3
80006a6a:	0507ea63          	bltu	a5,a6,80006abe <__multiply+0xb4>
80006a6e:	01440313          	addi	t1,s0,20
80006a72:	002a1593          	slli	a1,s4,0x2
80006a76:	01490613          	addi	a2,s2,20
80006a7a:	00299893          	slli	a7,s3,0x2
80006a7e:	959a                	add	a1,a1,t1
80006a80:	01540793          	addi	a5,s0,21
80006a84:	98b2                	add	a7,a7,a2
80006a86:	4e11                	li	t3,4
80006a88:	00f5e863          	bltu	a1,a5,80006a98 <__multiply+0x8e>
80006a8c:	40858433          	sub	s0,a1,s0
80006a90:	142d                	addi	s0,s0,-21
80006a92:	9871                	andi	s0,s0,-4
80006a94:	00440e13          	addi	t3,s0,4
80006a98:	6ec1                	lui	t4,0x10
80006a9a:	1efd                	addi	t4,t4,-1
80006a9c:	03166563          	bltu	a2,a7,80006ac6 <__multiply+0xbc>
80006aa0:	00905663          	blez	s1,80006aac <__multiply+0xa2>
80006aa4:	ffc82783          	lw	a5,-4(a6)
80006aa8:	1871                	addi	a6,a6,-4
80006aaa:	cff1                	beqz	a5,80006b86 <__multiply+0x17c>
80006aac:	40f2                	lw	ra,28(sp)
80006aae:	4462                	lw	s0,24(sp)
80006ab0:	c904                	sw	s1,16(a0)
80006ab2:	4942                	lw	s2,16(sp)
80006ab4:	44d2                	lw	s1,20(sp)
80006ab6:	49b2                	lw	s3,12(sp)
80006ab8:	4a22                	lw	s4,8(sp)
80006aba:	6105                	addi	sp,sp,32
80006abc:	8082                	ret
80006abe:	0007a023          	sw	zero,0(a5)
80006ac2:	0791                	addi	a5,a5,4
80006ac4:	b75d                	j	80006a6a <__multiply+0x60>
80006ac6:	00062f83          	lw	t6,0(a2)
80006aca:	01dfffb3          	and	t6,t6,t4
80006ace:	040f8b63          	beqz	t6,80006b24 <__multiply+0x11a>
80006ad2:	83b6                	mv	t2,a3
80006ad4:	829a                	mv	t0,t1
80006ad6:	4901                	li	s2,0
80006ad8:	0002a703          	lw	a4,0(t0) # 8000673a <memset+0x8e>
80006adc:	0003a403          	lw	s0,0(t2)
80006ae0:	0391                	addi	t2,t2,4
80006ae2:	01d77f33          	and	t5,a4,t4
80006ae6:	03ff0f33          	mul	t5,t5,t6
80006aea:	01d477b3          	and	a5,s0,t4
80006aee:	8041                	srli	s0,s0,0x10
80006af0:	0291                	addi	t0,t0,4
80006af2:	9f3e                	add	t5,t5,a5
80006af4:	01075793          	srli	a5,a4,0x10
80006af8:	03f787b3          	mul	a5,a5,t6
80006afc:	9f4a                	add	t5,t5,s2
80006afe:	010f5713          	srli	a4,t5,0x10
80006b02:	01df7f33          	and	t5,t5,t4
80006b06:	97a2                	add	a5,a5,s0
80006b08:	97ba                	add	a5,a5,a4
80006b0a:	0107d913          	srli	s2,a5,0x10
80006b0e:	07c2                	slli	a5,a5,0x10
80006b10:	01e7e7b3          	or	a5,a5,t5
80006b14:	fef3ae23          	sw	a5,-4(t2)
80006b18:	fcb2e0e3          	bltu	t0,a1,80006ad8 <__multiply+0xce>
80006b1c:	01c687b3          	add	a5,a3,t3
80006b20:	0127a023          	sw	s2,0(a5)
80006b24:	00265383          	lhu	t2,2(a2)
80006b28:	04038c63          	beqz	t2,80006b80 <__multiply+0x176>
80006b2c:	429c                	lw	a5,0(a3)
80006b2e:	8fb6                	mv	t6,a3
80006b30:	8f1a                	mv	t5,t1
80006b32:	4281                	li	t0,0
80006b34:	000f2703          	lw	a4,0(t5)
80006b38:	002fd403          	lhu	s0,2(t6)
80006b3c:	01d7f7b3          	and	a5,a5,t4
80006b40:	01d77733          	and	a4,a4,t4
80006b44:	02770733          	mul	a4,a4,t2
80006b48:	0f91                	addi	t6,t6,4
80006b4a:	0f11                	addi	t5,t5,4
80006b4c:	9722                	add	a4,a4,s0
80006b4e:	9716                	add	a4,a4,t0
80006b50:	01071293          	slli	t0,a4,0x10
80006b54:	00f2e7b3          	or	a5,t0,a5
80006b58:	feffae23          	sw	a5,-4(t6)
80006b5c:	ffef5783          	lhu	a5,-2(t5)
80006b60:	000fa283          	lw	t0,0(t6)
80006b64:	8341                	srli	a4,a4,0x10
80006b66:	027787b3          	mul	a5,a5,t2
80006b6a:	01d2f2b3          	and	t0,t0,t4
80006b6e:	9796                	add	a5,a5,t0
80006b70:	97ba                	add	a5,a5,a4
80006b72:	0107d293          	srli	t0,a5,0x10
80006b76:	fabf6fe3          	bltu	t5,a1,80006b34 <__multiply+0x12a>
80006b7a:	01c68733          	add	a4,a3,t3
80006b7e:	c31c                	sw	a5,0(a4)
80006b80:	0611                	addi	a2,a2,4
80006b82:	0691                	addi	a3,a3,4
80006b84:	bf21                	j	80006a9c <__multiply+0x92>
80006b86:	14fd                	addi	s1,s1,-1
80006b88:	bf21                	j	80006aa0 <__multiply+0x96>

80006b8a <__pow5mult>:
__pow5mult():
80006b8a:	1101                	addi	sp,sp,-32
80006b8c:	ca26                	sw	s1,20(sp)
80006b8e:	c84a                	sw	s2,16(sp)
80006b90:	c64e                	sw	s3,12(sp)
80006b92:	ce06                	sw	ra,28(sp)
80006b94:	cc22                	sw	s0,24(sp)
80006b96:	c452                	sw	s4,8(sp)
80006b98:	00367793          	andi	a5,a2,3
80006b9c:	892a                	mv	s2,a0
80006b9e:	84b2                	mv	s1,a2
80006ba0:	89ae                	mv	s3,a1
80006ba2:	cf89                	beqz	a5,80006bbc <__pow5mult+0x32>
80006ba4:	17fd                	addi	a5,a5,-1
80006ba6:	00003717          	auipc	a4,0x3
80006baa:	e6270713          	addi	a4,a4,-414 # 80009a08 <p05.0>
80006bae:	078a                	slli	a5,a5,0x2
80006bb0:	97ba                	add	a5,a5,a4
80006bb2:	4390                	lw	a2,0(a5)
80006bb4:	4681                	li	a3,0
80006bb6:	cafff0ef          	jal	ra,80006864 <__multadd>
80006bba:	89aa                	mv	s3,a0
80006bbc:	8489                	srai	s1,s1,0x2
80006bbe:	c8d1                	beqz	s1,80006c52 <__pow5mult+0xc8>
80006bc0:	02492783          	lw	a5,36(s2)
80006bc4:	ef85                	bnez	a5,80006bfc <__pow5mult+0x72>
80006bc6:	4541                	li	a0,16
80006bc8:	9e1ff0ef          	jal	ra,800065a8 <malloc>
80006bcc:	02a92223          	sw	a0,36(s2)
80006bd0:	ed11                	bnez	a0,80006bec <__pow5mult+0x62>
80006bd2:	00003697          	auipc	a3,0x3
80006bd6:	c1268693          	addi	a3,a3,-1006 # 800097e4 <__clz_tab+0x1a4>
80006bda:	4601                	li	a2,0
80006bdc:	1ae00593          	li	a1,430
80006be0:	00003517          	auipc	a0,0x3
80006be4:	ce450513          	addi	a0,a0,-796 # 800098c4 <__sf_fake_stdout+0x20>
80006be8:	249000ef          	jal	ra,80007630 <__assert_func>
80006bec:	00052223          	sw	zero,4(a0)
80006bf0:	00052423          	sw	zero,8(a0)
80006bf4:	00052023          	sw	zero,0(a0)
80006bf8:	00052623          	sw	zero,12(a0)
80006bfc:	02492a03          	lw	s4,36(s2)
80006c00:	008a2403          	lw	s0,8(s4)
80006c04:	e819                	bnez	s0,80006c1a <__pow5mult+0x90>
80006c06:	27100593          	li	a1,625
80006c0a:	854a                	mv	a0,s2
80006c0c:	dc7ff0ef          	jal	ra,800069d2 <__i2b>
80006c10:	00aa2423          	sw	a0,8(s4)
80006c14:	842a                	mv	s0,a0
80006c16:	00052023          	sw	zero,0(a0)
80006c1a:	0014f793          	andi	a5,s1,1
80006c1e:	cf81                	beqz	a5,80006c36 <__pow5mult+0xac>
80006c20:	85ce                	mv	a1,s3
80006c22:	8622                	mv	a2,s0
80006c24:	854a                	mv	a0,s2
80006c26:	de5ff0ef          	jal	ra,80006a0a <__multiply>
80006c2a:	8a2a                	mv	s4,a0
80006c2c:	85ce                	mv	a1,s3
80006c2e:	854a                	mv	a0,s2
80006c30:	bd3ff0ef          	jal	ra,80006802 <_Bfree>
80006c34:	89d2                	mv	s3,s4
80006c36:	8485                	srai	s1,s1,0x1
80006c38:	cc89                	beqz	s1,80006c52 <__pow5mult+0xc8>
80006c3a:	4008                	lw	a0,0(s0)
80006c3c:	e909                	bnez	a0,80006c4e <__pow5mult+0xc4>
80006c3e:	8622                	mv	a2,s0
80006c40:	85a2                	mv	a1,s0
80006c42:	854a                	mv	a0,s2
80006c44:	dc7ff0ef          	jal	ra,80006a0a <__multiply>
80006c48:	c008                	sw	a0,0(s0)
80006c4a:	00052023          	sw	zero,0(a0)
80006c4e:	842a                	mv	s0,a0
80006c50:	b7e9                	j	80006c1a <__pow5mult+0x90>
80006c52:	40f2                	lw	ra,28(sp)
80006c54:	4462                	lw	s0,24(sp)
80006c56:	44d2                	lw	s1,20(sp)
80006c58:	4942                	lw	s2,16(sp)
80006c5a:	4a22                	lw	s4,8(sp)
80006c5c:	854e                	mv	a0,s3
80006c5e:	49b2                	lw	s3,12(sp)
80006c60:	6105                	addi	sp,sp,32
80006c62:	8082                	ret

80006c64 <__lshift>:
__lshift():
80006c64:	1101                	addi	sp,sp,-32
80006c66:	cc22                	sw	s0,24(sp)
80006c68:	842e                	mv	s0,a1
80006c6a:	c05a                	sw	s6,0(sp)
80006c6c:	01042b03          	lw	s6,16(s0)
80006c70:	ca26                	sw	s1,20(sp)
80006c72:	41cc                	lw	a1,4(a1)
80006c74:	40565493          	srai	s1,a2,0x5
80006c78:	441c                	lw	a5,8(s0)
80006c7a:	9b26                	add	s6,s6,s1
80006c7c:	c84a                	sw	s2,16(sp)
80006c7e:	c452                	sw	s4,8(sp)
80006c80:	c256                	sw	s5,4(sp)
80006c82:	ce06                	sw	ra,28(sp)
80006c84:	c64e                	sw	s3,12(sp)
80006c86:	8aaa                	mv	s5,a0
80006c88:	8932                	mv	s2,a2
80006c8a:	001b0a13          	addi	s4,s6,1
80006c8e:	0347c463          	blt	a5,s4,80006cb6 <__lshift+0x52>
80006c92:	8556                	mv	a0,s5
80006c94:	ac1ff0ef          	jal	ra,80006754 <_Balloc>
80006c98:	89aa                	mv	s3,a0
80006c9a:	e10d                	bnez	a0,80006cbc <__lshift+0x58>
80006c9c:	00003697          	auipc	a3,0x3
80006ca0:	bb468693          	addi	a3,a3,-1100 # 80009850 <__clz_tab+0x210>
80006ca4:	4601                	li	a2,0
80006ca6:	1d900593          	li	a1,473
80006caa:	00003517          	auipc	a0,0x3
80006cae:	c1a50513          	addi	a0,a0,-998 # 800098c4 <__sf_fake_stdout+0x20>
80006cb2:	17f000ef          	jal	ra,80007630 <__assert_func>
80006cb6:	0585                	addi	a1,a1,1
80006cb8:	0786                	slli	a5,a5,0x1
80006cba:	bfd1                	j	80006c8e <__lshift+0x2a>
80006cbc:	01450793          	addi	a5,a0,20
80006cc0:	86be                	mv	a3,a5
80006cc2:	4701                	li	a4,0
80006cc4:	0691                	addi	a3,a3,4
80006cc6:	08974563          	blt	a4,s1,80006d50 <__lshift+0xec>
80006cca:	0004d363          	bgez	s1,80006cd0 <__lshift+0x6c>
80006cce:	4481                	li	s1,0
80006cd0:	048a                	slli	s1,s1,0x2
80006cd2:	009786b3          	add	a3,a5,s1
80006cd6:	481c                	lw	a5,16(s0)
80006cd8:	01440713          	addi	a4,s0,20
80006cdc:	01f97613          	andi	a2,s2,31
80006ce0:	078a                	slli	a5,a5,0x2
80006ce2:	97ba                	add	a5,a5,a4
80006ce4:	ca35                	beqz	a2,80006d58 <__lshift+0xf4>
80006ce6:	02000813          	li	a6,32
80006cea:	40c80833          	sub	a6,a6,a2
80006cee:	88b6                	mv	a7,a3
80006cf0:	4581                	li	a1,0
80006cf2:	4308                	lw	a0,0(a4)
80006cf4:	0891                	addi	a7,a7,4
80006cf6:	0711                	addi	a4,a4,4
80006cf8:	00c51533          	sll	a0,a0,a2
80006cfc:	8dc9                	or	a1,a1,a0
80006cfe:	feb8ae23          	sw	a1,-4(a7)
80006d02:	ffc72583          	lw	a1,-4(a4)
80006d06:	0105d5b3          	srl	a1,a1,a6
80006d0a:	fef764e3          	bltu	a4,a5,80006cf2 <__lshift+0x8e>
80006d0e:	01540713          	addi	a4,s0,21
80006d12:	4611                	li	a2,4
80006d14:	00e7e763          	bltu	a5,a4,80006d22 <__lshift+0xbe>
80006d18:	8f81                	sub	a5,a5,s0
80006d1a:	17ad                	addi	a5,a5,-21
80006d1c:	9bf1                	andi	a5,a5,-4
80006d1e:	00478613          	addi	a2,a5,4
80006d22:	96b2                	add	a3,a3,a2
80006d24:	c28c                	sw	a1,0(a3)
80006d26:	c199                	beqz	a1,80006d2c <__lshift+0xc8>
80006d28:	002b0a13          	addi	s4,s6,2
80006d2c:	1a7d                	addi	s4,s4,-1
80006d2e:	0149a823          	sw	s4,16(s3)
80006d32:	8556                	mv	a0,s5
80006d34:	85a2                	mv	a1,s0
80006d36:	acdff0ef          	jal	ra,80006802 <_Bfree>
80006d3a:	40f2                	lw	ra,28(sp)
80006d3c:	4462                	lw	s0,24(sp)
80006d3e:	44d2                	lw	s1,20(sp)
80006d40:	4942                	lw	s2,16(sp)
80006d42:	4a22                	lw	s4,8(sp)
80006d44:	4a92                	lw	s5,4(sp)
80006d46:	4b02                	lw	s6,0(sp)
80006d48:	854e                	mv	a0,s3
80006d4a:	49b2                	lw	s3,12(sp)
80006d4c:	6105                	addi	sp,sp,32
80006d4e:	8082                	ret
80006d50:	fe06ae23          	sw	zero,-4(a3)
80006d54:	0705                	addi	a4,a4,1
80006d56:	b7bd                	j	80006cc4 <__lshift+0x60>
80006d58:	4310                	lw	a2,0(a4)
80006d5a:	0711                	addi	a4,a4,4
80006d5c:	0691                	addi	a3,a3,4
80006d5e:	fec6ae23          	sw	a2,-4(a3)
80006d62:	fef76be3          	bltu	a4,a5,80006d58 <__lshift+0xf4>
80006d66:	b7d9                	j	80006d2c <__lshift+0xc8>

80006d68 <__mcmp>:
__mcmp():
80006d68:	4914                	lw	a3,16(a0)
80006d6a:	4998                	lw	a4,16(a1)
80006d6c:	87aa                	mv	a5,a0
80006d6e:	40e68533          	sub	a0,a3,a4
80006d72:	02e69563          	bne	a3,a4,80006d9c <__mcmp+0x34>
80006d76:	070a                	slli	a4,a4,0x2
80006d78:	07d1                	addi	a5,a5,20
80006d7a:	05d1                	addi	a1,a1,20
80006d7c:	00e786b3          	add	a3,a5,a4
80006d80:	95ba                	add	a1,a1,a4
80006d82:	16f1                	addi	a3,a3,-4
80006d84:	15f1                	addi	a1,a1,-4
80006d86:	4290                	lw	a2,0(a3)
80006d88:	4198                	lw	a4,0(a1)
80006d8a:	00e60763          	beq	a2,a4,80006d98 <__mcmp+0x30>
80006d8e:	557d                	li	a0,-1
80006d90:	00e66663          	bltu	a2,a4,80006d9c <__mcmp+0x34>
80006d94:	4505                	li	a0,1
80006d96:	8082                	ret
80006d98:	fed7e5e3          	bltu	a5,a3,80006d82 <__mcmp+0x1a>
80006d9c:	8082                	ret

80006d9e <__mdiff>:
__mdiff():
80006d9e:	1101                	addi	sp,sp,-32
80006da0:	cc22                	sw	s0,24(sp)
80006da2:	842e                	mv	s0,a1
80006da4:	c84a                	sw	s2,16(sp)
80006da6:	85b2                	mv	a1,a2
80006da8:	892a                	mv	s2,a0
80006daa:	8522                	mv	a0,s0
80006dac:	ca26                	sw	s1,20(sp)
80006dae:	ce06                	sw	ra,28(sp)
80006db0:	c64e                	sw	s3,12(sp)
80006db2:	84b2                	mv	s1,a2
80006db4:	3f55                	jal	80006d68 <__mcmp>
80006db6:	ed15                	bnez	a0,80006df2 <__mdiff+0x54>
80006db8:	4581                	li	a1,0
80006dba:	854a                	mv	a0,s2
80006dbc:	999ff0ef          	jal	ra,80006754 <_Balloc>
80006dc0:	ed11                	bnez	a0,80006ddc <__mdiff+0x3e>
80006dc2:	00003697          	auipc	a3,0x3
80006dc6:	a8e68693          	addi	a3,a3,-1394 # 80009850 <__clz_tab+0x210>
80006dca:	4601                	li	a2,0
80006dcc:	23200593          	li	a1,562
80006dd0:	00003517          	auipc	a0,0x3
80006dd4:	af450513          	addi	a0,a0,-1292 # 800098c4 <__sf_fake_stdout+0x20>
80006dd8:	059000ef          	jal	ra,80007630 <__assert_func>
80006ddc:	4785                	li	a5,1
80006dde:	c91c                	sw	a5,16(a0)
80006de0:	00052a23          	sw	zero,20(a0)
80006de4:	40f2                	lw	ra,28(sp)
80006de6:	4462                	lw	s0,24(sp)
80006de8:	44d2                	lw	s1,20(sp)
80006dea:	4942                	lw	s2,16(sp)
80006dec:	49b2                	lw	s3,12(sp)
80006dee:	6105                	addi	sp,sp,32
80006df0:	8082                	ret
80006df2:	4985                	li	s3,1
80006df4:	00054663          	bltz	a0,80006e00 <__mdiff+0x62>
80006df8:	87a6                	mv	a5,s1
80006dfa:	4981                	li	s3,0
80006dfc:	84a2                	mv	s1,s0
80006dfe:	843e                	mv	s0,a5
80006e00:	40cc                	lw	a1,4(s1)
80006e02:	854a                	mv	a0,s2
80006e04:	951ff0ef          	jal	ra,80006754 <_Balloc>
80006e08:	e909                	bnez	a0,80006e1a <__mdiff+0x7c>
80006e0a:	00003697          	auipc	a3,0x3
80006e0e:	a4668693          	addi	a3,a3,-1466 # 80009850 <__clz_tab+0x210>
80006e12:	4601                	li	a2,0
80006e14:	24000593          	li	a1,576
80006e18:	bf65                	j	80006dd0 <__mdiff+0x32>
80006e1a:	0104a803          	lw	a6,16(s1)
80006e1e:	4818                	lw	a4,16(s0)
80006e20:	01448893          	addi	a7,s1,20
80006e24:	00281693          	slli	a3,a6,0x2
80006e28:	01440793          	addi	a5,s0,20
80006e2c:	070a                	slli	a4,a4,0x2
80006e2e:	6ec1                	lui	t4,0x10
80006e30:	01352623          	sw	s3,12(a0)
80006e34:	96c6                	add	a3,a3,a7
80006e36:	97ba                	add	a5,a5,a4
80006e38:	01450613          	addi	a2,a0,20
80006e3c:	4e51                	li	t3,20
80006e3e:	4301                	li	t1,0
80006e40:	1efd                	addi	t4,t4,-1
80006e42:	01c48733          	add	a4,s1,t3
80006e46:	4318                	lw	a4,0(a4)
80006e48:	01c405b3          	add	a1,s0,t3
80006e4c:	0005af03          	lw	t5,0(a1) # 10000 <__stack_size+0xf800>
80006e50:	01d775b3          	and	a1,a4,t4
80006e54:	959a                	add	a1,a1,t1
80006e56:	01df7333          	and	t1,t5,t4
80006e5a:	406585b3          	sub	a1,a1,t1
80006e5e:	010f5f13          	srli	t5,t5,0x10
80006e62:	8341                	srli	a4,a4,0x10
80006e64:	4105d313          	srai	t1,a1,0x10
80006e68:	41e70733          	sub	a4,a4,t5
80006e6c:	971a                	add	a4,a4,t1
80006e6e:	41075313          	srai	t1,a4,0x10
80006e72:	01d5f5b3          	and	a1,a1,t4
80006e76:	0742                	slli	a4,a4,0x10
80006e78:	01c50f33          	add	t5,a0,t3
80006e7c:	8f4d                	or	a4,a4,a1
80006e7e:	0e11                	addi	t3,t3,4
80006e80:	00ef2023          	sw	a4,0(t5)
80006e84:	008e0733          	add	a4,t3,s0
80006e88:	faf76de3          	bltu	a4,a5,80006e42 <__mdiff+0xa4>
80006e8c:	01540593          	addi	a1,s0,21
80006e90:	4711                	li	a4,4
80006e92:	00b7e763          	bltu	a5,a1,80006ea0 <__mdiff+0x102>
80006e96:	8f81                	sub	a5,a5,s0
80006e98:	17ad                	addi	a5,a5,-21
80006e9a:	9bf1                	andi	a5,a5,-4
80006e9c:	00478713          	addi	a4,a5,4
80006ea0:	98ba                	add	a7,a7,a4
80006ea2:	6e41                	lui	t3,0x10
80006ea4:	9732                	add	a4,a4,a2
80006ea6:	8eba                	mv	t4,a4
80006ea8:	85c6                	mv	a1,a7
80006eaa:	1e7d                	addi	t3,t3,-1
80006eac:	02d5e263          	bltu	a1,a3,80006ed0 <__mdiff+0x132>
80006eb0:	ffd88613          	addi	a2,a7,-3
80006eb4:	4781                	li	a5,0
80006eb6:	00c6e663          	bltu	a3,a2,80006ec2 <__mdiff+0x124>
80006eba:	068d                	addi	a3,a3,3
80006ebc:	411687b3          	sub	a5,a3,a7
80006ec0:	9bf1                	andi	a5,a5,-4
80006ec2:	97ba                	add	a5,a5,a4
80006ec4:	17f1                	addi	a5,a5,-4
80006ec6:	4398                	lw	a4,0(a5)
80006ec8:	c71d                	beqz	a4,80006ef6 <__mdiff+0x158>
80006eca:	01052823          	sw	a6,16(a0)
80006ece:	bf19                	j	80006de4 <__mdiff+0x46>
80006ed0:	419c                	lw	a5,0(a1)
80006ed2:	0e91                	addi	t4,t4,4
80006ed4:	0591                	addi	a1,a1,4
80006ed6:	01c7f633          	and	a2,a5,t3
80006eda:	961a                	add	a2,a2,t1
80006edc:	41065313          	srai	t1,a2,0x10
80006ee0:	83c1                	srli	a5,a5,0x10
80006ee2:	979a                	add	a5,a5,t1
80006ee4:	4107d313          	srai	t1,a5,0x10
80006ee8:	01c67633          	and	a2,a2,t3
80006eec:	07c2                	slli	a5,a5,0x10
80006eee:	8fd1                	or	a5,a5,a2
80006ef0:	fefeae23          	sw	a5,-4(t4) # fffc <__stack_size+0xf7fc>
80006ef4:	bf65                	j	80006eac <__mdiff+0x10e>
80006ef6:	187d                	addi	a6,a6,-1
80006ef8:	b7f1                	j	80006ec4 <__mdiff+0x126>

80006efa <__d2b>:
__d2b():
80006efa:	7179                	addi	sp,sp,-48
80006efc:	d226                	sw	s1,36(sp)
80006efe:	84ae                	mv	s1,a1
80006f00:	4585                	li	a1,1
80006f02:	d422                	sw	s0,40(sp)
80006f04:	d04a                	sw	s2,32(sp)
80006f06:	ce4e                	sw	s3,28(sp)
80006f08:	d606                	sw	ra,44(sp)
80006f0a:	cc52                	sw	s4,24(sp)
80006f0c:	8432                	mv	s0,a2
80006f0e:	89b6                	mv	s3,a3
80006f10:	893a                	mv	s2,a4
80006f12:	843ff0ef          	jal	ra,80006754 <_Balloc>
80006f16:	ed09                	bnez	a0,80006f30 <__d2b+0x36>
80006f18:	00003697          	auipc	a3,0x3
80006f1c:	93868693          	addi	a3,a3,-1736 # 80009850 <__clz_tab+0x210>
80006f20:	4601                	li	a2,0
80006f22:	30a00593          	li	a1,778
80006f26:	00003517          	auipc	a0,0x3
80006f2a:	99e50513          	addi	a0,a0,-1634 # 800098c4 <__sf_fake_stdout+0x20>
80006f2e:	2709                	jal	80007630 <__assert_func>
80006f30:	00100737          	lui	a4,0x100
80006f34:	fff70793          	addi	a5,a4,-1 # fffff <__stack_size+0xff7ff>
80006f38:	8fe1                	and	a5,a5,s0
80006f3a:	8051                	srli	s0,s0,0x14
80006f3c:	7ff47413          	andi	s0,s0,2047
80006f40:	8a2a                	mv	s4,a0
80006f42:	e035                	bnez	s0,80006fa6 <__d2b+0xac>
80006f44:	c63e                	sw	a5,12(sp)
80006f46:	c4ad                	beqz	s1,80006fb0 <__d2b+0xb6>
80006f48:	0028                	addi	a0,sp,8
80006f4a:	c426                	sw	s1,8(sp)
80006f4c:	a1dff0ef          	jal	ra,80006968 <__lo0bits>
80006f50:	46a2                	lw	a3,8(sp)
80006f52:	cd21                	beqz	a0,80006faa <__d2b+0xb0>
80006f54:	4732                	lw	a4,12(sp)
80006f56:	02000793          	li	a5,32
80006f5a:	8f89                	sub	a5,a5,a0
80006f5c:	00f717b3          	sll	a5,a4,a5
80006f60:	8fd5                	or	a5,a5,a3
80006f62:	00a75733          	srl	a4,a4,a0
80006f66:	00fa2a23          	sw	a5,20(s4)
80006f6a:	c63a                	sw	a4,12(sp)
80006f6c:	44b2                	lw	s1,12(sp)
80006f6e:	009a2c23          	sw	s1,24(s4)
80006f72:	009034b3          	snez	s1,s1
80006f76:	0485                	addi	s1,s1,1
80006f78:	009a2823          	sw	s1,16(s4)
80006f7c:	c439                	beqz	s0,80006fca <__d2b+0xd0>
80006f7e:	bcd40413          	addi	s0,s0,-1075
80006f82:	942a                	add	s0,s0,a0
80006f84:	03500793          	li	a5,53
80006f88:	0089a023          	sw	s0,0(s3)
80006f8c:	40a78533          	sub	a0,a5,a0
80006f90:	00a92023          	sw	a0,0(s2)
80006f94:	50b2                	lw	ra,44(sp)
80006f96:	5422                	lw	s0,40(sp)
80006f98:	5492                	lw	s1,36(sp)
80006f9a:	5902                	lw	s2,32(sp)
80006f9c:	49f2                	lw	s3,28(sp)
80006f9e:	8552                	mv	a0,s4
80006fa0:	4a62                	lw	s4,24(sp)
80006fa2:	6145                	addi	sp,sp,48
80006fa4:	8082                	ret
80006fa6:	8fd9                	or	a5,a5,a4
80006fa8:	bf71                	j	80006f44 <__d2b+0x4a>
80006faa:	00da2a23          	sw	a3,20(s4)
80006fae:	bf7d                	j	80006f6c <__d2b+0x72>
80006fb0:	0068                	addi	a0,sp,12
80006fb2:	9b7ff0ef          	jal	ra,80006968 <__lo0bits>
80006fb6:	47b2                	lw	a5,12(sp)
80006fb8:	02050513          	addi	a0,a0,32
80006fbc:	4485                	li	s1,1
80006fbe:	00fa2a23          	sw	a5,20(s4)
80006fc2:	4785                	li	a5,1
80006fc4:	00fa2823          	sw	a5,16(s4)
80006fc8:	bf55                	j	80006f7c <__d2b+0x82>
80006fca:	bce50793          	addi	a5,a0,-1074
80006fce:	00f9a023          	sw	a5,0(s3)
80006fd2:	00249793          	slli	a5,s1,0x2
80006fd6:	97d2                	add	a5,a5,s4
80006fd8:	4b88                	lw	a0,16(a5)
80006fda:	0496                	slli	s1,s1,0x5
80006fdc:	947ff0ef          	jal	ra,80006922 <__hi0bits>
80006fe0:	8c89                	sub	s1,s1,a0
80006fe2:	00992023          	sw	s1,0(s2)
80006fe6:	b77d                	j	80006f94 <__d2b+0x9a>

80006fe8 <_calloc_r>:
_calloc_r():
80006fe8:	8732                	mv	a4,a2
80006fea:	02e5b7b3          	mulhu	a5,a1,a4
80006fee:	1101                	addi	sp,sp,-32
80006ff0:	ce06                	sw	ra,28(sp)
80006ff2:	cc22                	sw	s0,24(sp)
80006ff4:	02c58633          	mul	a2,a1,a2
80006ff8:	cb89                	beqz	a5,8000700a <_calloc_r+0x22>
80006ffa:	47b1                	li	a5,12
80006ffc:	c11c                	sw	a5,0(a0)
80006ffe:	4401                	li	s0,0
80007000:	40f2                	lw	ra,28(sp)
80007002:	8522                	mv	a0,s0
80007004:	4462                	lw	s0,24(sp)
80007006:	6105                	addi	sp,sp,32
80007008:	8082                	ret
8000700a:	85b2                	mv	a1,a2
8000700c:	c632                	sw	a2,12(sp)
8000700e:	284d                	jal	800070c0 <_malloc_r>
80007010:	842a                	mv	s0,a0
80007012:	d57d                	beqz	a0,80007000 <_calloc_r+0x18>
80007014:	4632                	lw	a2,12(sp)
80007016:	4581                	li	a1,0
80007018:	e94ff0ef          	jal	ra,800066ac <memset>
8000701c:	b7d5                	j	80007000 <_calloc_r+0x18>

8000701e <_free_r>:
_free_r():
8000701e:	c1c5                	beqz	a1,800070be <_free_r+0xa0>
80007020:	ffc5a783          	lw	a5,-4(a1)
80007024:	1101                	addi	sp,sp,-32
80007026:	cc22                	sw	s0,24(sp)
80007028:	ce06                	sw	ra,28(sp)
8000702a:	ffc58413          	addi	s0,a1,-4
8000702e:	0007d363          	bgez	a5,80007034 <_free_r+0x16>
80007032:	943e                	add	s0,s0,a5
80007034:	c62a                	sw	a0,12(sp)
80007036:	73e000ef          	jal	ra,80007774 <__malloc_lock>
8000703a:	a1418713          	addi	a4,gp,-1516 # 900003e4 <__malloc_free_list>
8000703e:	431c                	lw	a5,0(a4)
80007040:	4532                	lw	a0,12(sp)
80007042:	eb89                	bnez	a5,80007054 <_free_r+0x36>
80007044:	00042223          	sw	zero,4(s0)
80007048:	c300                	sw	s0,0(a4)
8000704a:	4462                	lw	s0,24(sp)
8000704c:	40f2                	lw	ra,28(sp)
8000704e:	6105                	addi	sp,sp,32
80007050:	7260006f          	j	80007776 <__malloc_unlock>
80007054:	00f47d63          	bgeu	s0,a5,8000706e <_free_r+0x50>
80007058:	4010                	lw	a2,0(s0)
8000705a:	00c406b3          	add	a3,s0,a2
8000705e:	00d79663          	bne	a5,a3,8000706a <_free_r+0x4c>
80007062:	4394                	lw	a3,0(a5)
80007064:	43dc                	lw	a5,4(a5)
80007066:	96b2                	add	a3,a3,a2
80007068:	c014                	sw	a3,0(s0)
8000706a:	c05c                	sw	a5,4(s0)
8000706c:	bff1                	j	80007048 <_free_r+0x2a>
8000706e:	873e                	mv	a4,a5
80007070:	43dc                	lw	a5,4(a5)
80007072:	c399                	beqz	a5,80007078 <_free_r+0x5a>
80007074:	fef47de3          	bgeu	s0,a5,8000706e <_free_r+0x50>
80007078:	4314                	lw	a3,0(a4)
8000707a:	00d70633          	add	a2,a4,a3
8000707e:	00861f63          	bne	a2,s0,8000709c <_free_r+0x7e>
80007082:	4010                	lw	a2,0(s0)
80007084:	96b2                	add	a3,a3,a2
80007086:	c314                	sw	a3,0(a4)
80007088:	00d70633          	add	a2,a4,a3
8000708c:	fac79fe3          	bne	a5,a2,8000704a <_free_r+0x2c>
80007090:	4390                	lw	a2,0(a5)
80007092:	43dc                	lw	a5,4(a5)
80007094:	96b2                	add	a3,a3,a2
80007096:	c314                	sw	a3,0(a4)
80007098:	c35c                	sw	a5,4(a4)
8000709a:	bf45                	j	8000704a <_free_r+0x2c>
8000709c:	00c47563          	bgeu	s0,a2,800070a6 <_free_r+0x88>
800070a0:	47b1                	li	a5,12
800070a2:	c11c                	sw	a5,0(a0)
800070a4:	b75d                	j	8000704a <_free_r+0x2c>
800070a6:	4010                	lw	a2,0(s0)
800070a8:	00c406b3          	add	a3,s0,a2
800070ac:	00d79663          	bne	a5,a3,800070b8 <_free_r+0x9a>
800070b0:	4394                	lw	a3,0(a5)
800070b2:	43dc                	lw	a5,4(a5)
800070b4:	96b2                	add	a3,a3,a2
800070b6:	c014                	sw	a3,0(s0)
800070b8:	c05c                	sw	a5,4(s0)
800070ba:	c340                	sw	s0,4(a4)
800070bc:	b779                	j	8000704a <_free_r+0x2c>
800070be:	8082                	ret

800070c0 <_malloc_r>:
_malloc_r():
800070c0:	1101                	addi	sp,sp,-32
800070c2:	ca26                	sw	s1,20(sp)
800070c4:	00358493          	addi	s1,a1,3
800070c8:	98f1                	andi	s1,s1,-4
800070ca:	c84a                	sw	s2,16(sp)
800070cc:	ce06                	sw	ra,28(sp)
800070ce:	cc22                	sw	s0,24(sp)
800070d0:	c64e                	sw	s3,12(sp)
800070d2:	04a1                	addi	s1,s1,8
800070d4:	47b1                	li	a5,12
800070d6:	892a                	mv	s2,a0
800070d8:	04f4f063          	bgeu	s1,a5,80007118 <_malloc_r+0x58>
800070dc:	44b1                	li	s1,12
800070de:	02b4ef63          	bltu	s1,a1,8000711c <_malloc_r+0x5c>
800070e2:	854a                	mv	a0,s2
800070e4:	2d41                	jal	80007774 <__malloc_lock>
800070e6:	a1418693          	addi	a3,gp,-1516 # 900003e4 <__malloc_free_list>
800070ea:	4298                	lw	a4,0(a3)
800070ec:	843a                	mv	s0,a4
800070ee:	e031                	bnez	s0,80007132 <_malloc_r+0x72>
800070f0:	a1818413          	addi	s0,gp,-1512 # 900003e8 <__malloc_sbrk_start>
800070f4:	401c                	lw	a5,0(s0)
800070f6:	e789                	bnez	a5,80007100 <_malloc_r+0x40>
800070f8:	4581                	li	a1,0
800070fa:	854a                	mv	a0,s2
800070fc:	211d                	jal	80007522 <_sbrk_r>
800070fe:	c008                	sw	a0,0(s0)
80007100:	85a6                	mv	a1,s1
80007102:	854a                	mv	a0,s2
80007104:	2939                	jal	80007522 <_sbrk_r>
80007106:	59fd                	li	s3,-1
80007108:	07351863          	bne	a0,s3,80007178 <_malloc_r+0xb8>
8000710c:	47b1                	li	a5,12
8000710e:	00f92023          	sw	a5,0(s2)
80007112:	854a                	mv	a0,s2
80007114:	258d                	jal	80007776 <__malloc_unlock>
80007116:	a031                	j	80007122 <_malloc_r+0x62>
80007118:	fc04d3e3          	bgez	s1,800070de <_malloc_r+0x1e>
8000711c:	47b1                	li	a5,12
8000711e:	00f92023          	sw	a5,0(s2)
80007122:	4501                	li	a0,0
80007124:	40f2                	lw	ra,28(sp)
80007126:	4462                	lw	s0,24(sp)
80007128:	44d2                	lw	s1,20(sp)
8000712a:	4942                	lw	s2,16(sp)
8000712c:	49b2                	lw	s3,12(sp)
8000712e:	6105                	addi	sp,sp,32
80007130:	8082                	ret
80007132:	401c                	lw	a5,0(s0)
80007134:	8f85                	sub	a5,a5,s1
80007136:	0207ce63          	bltz	a5,80007172 <_malloc_r+0xb2>
8000713a:	462d                	li	a2,11
8000713c:	00f67663          	bgeu	a2,a5,80007148 <_malloc_r+0x88>
80007140:	c01c                	sw	a5,0(s0)
80007142:	943e                	add	s0,s0,a5
80007144:	c004                	sw	s1,0(s0)
80007146:	a029                	j	80007150 <_malloc_r+0x90>
80007148:	405c                	lw	a5,4(s0)
8000714a:	02871263          	bne	a4,s0,8000716e <_malloc_r+0xae>
8000714e:	c29c                	sw	a5,0(a3)
80007150:	854a                	mv	a0,s2
80007152:	2515                	jal	80007776 <__malloc_unlock>
80007154:	00b40513          	addi	a0,s0,11
80007158:	00440793          	addi	a5,s0,4
8000715c:	9961                	andi	a0,a0,-8
8000715e:	40f50733          	sub	a4,a0,a5
80007162:	fcf501e3          	beq	a0,a5,80007124 <_malloc_r+0x64>
80007166:	943a                	add	s0,s0,a4
80007168:	8f89                	sub	a5,a5,a0
8000716a:	c01c                	sw	a5,0(s0)
8000716c:	bf65                	j	80007124 <_malloc_r+0x64>
8000716e:	c35c                	sw	a5,4(a4)
80007170:	b7c5                	j	80007150 <_malloc_r+0x90>
80007172:	8722                	mv	a4,s0
80007174:	4040                	lw	s0,4(s0)
80007176:	bfa5                	j	800070ee <_malloc_r+0x2e>
80007178:	00350413          	addi	s0,a0,3
8000717c:	9871                	andi	s0,s0,-4
8000717e:	fc8503e3          	beq	a0,s0,80007144 <_malloc_r+0x84>
80007182:	40a405b3          	sub	a1,s0,a0
80007186:	854a                	mv	a0,s2
80007188:	2e69                	jal	80007522 <_sbrk_r>
8000718a:	fb351de3          	bne	a0,s3,80007144 <_malloc_r+0x84>
8000718e:	bfbd                	j	8000710c <_malloc_r+0x4c>

80007190 <__sfputc_r>:
__sfputc_r():
80007190:	461c                	lw	a5,8(a2)
80007192:	17fd                	addi	a5,a5,-1
80007194:	c61c                	sw	a5,8(a2)
80007196:	0007da63          	bgez	a5,800071aa <__sfputc_r+0x1a>
8000719a:	4e18                	lw	a4,24(a2)
8000719c:	00e7c563          	blt	a5,a4,800071a6 <__sfputc_r+0x16>
800071a0:	47a9                	li	a5,10
800071a2:	00f59463          	bne	a1,a5,800071aa <__sfputc_r+0x1a>
800071a6:	f6ffd06f          	j	80005114 <__swbuf_r>
800071aa:	421c                	lw	a5,0(a2)
800071ac:	852e                	mv	a0,a1
800071ae:	00178713          	addi	a4,a5,1
800071b2:	c218                	sw	a4,0(a2)
800071b4:	00b78023          	sb	a1,0(a5)
800071b8:	8082                	ret

800071ba <__sfputs_r>:
__sfputs_r():
800071ba:	1101                	addi	sp,sp,-32
800071bc:	cc22                	sw	s0,24(sp)
800071be:	ca26                	sw	s1,20(sp)
800071c0:	c84a                	sw	s2,16(sp)
800071c2:	c64e                	sw	s3,12(sp)
800071c4:	c452                	sw	s4,8(sp)
800071c6:	ce06                	sw	ra,28(sp)
800071c8:	892a                	mv	s2,a0
800071ca:	89ae                	mv	s3,a1
800071cc:	8432                	mv	s0,a2
800071ce:	00d604b3          	add	s1,a2,a3
800071d2:	5a7d                	li	s4,-1
800071d4:	00941463          	bne	s0,s1,800071dc <__sfputs_r+0x22>
800071d8:	4501                	li	a0,0
800071da:	a809                	j	800071ec <__sfputs_r+0x32>
800071dc:	00044583          	lbu	a1,0(s0)
800071e0:	864e                	mv	a2,s3
800071e2:	854a                	mv	a0,s2
800071e4:	3775                	jal	80007190 <__sfputc_r>
800071e6:	0405                	addi	s0,s0,1
800071e8:	ff4516e3          	bne	a0,s4,800071d4 <__sfputs_r+0x1a>
800071ec:	40f2                	lw	ra,28(sp)
800071ee:	4462                	lw	s0,24(sp)
800071f0:	44d2                	lw	s1,20(sp)
800071f2:	4942                	lw	s2,16(sp)
800071f4:	49b2                	lw	s3,12(sp)
800071f6:	4a22                	lw	s4,8(sp)
800071f8:	6105                	addi	sp,sp,32
800071fa:	8082                	ret

800071fc <_vfiprintf_r>:
_vfiprintf_r():
800071fc:	7135                	addi	sp,sp,-160
800071fe:	cd22                	sw	s0,152(sp)
80007200:	cb26                	sw	s1,148(sp)
80007202:	c94a                	sw	s2,144(sp)
80007204:	c74e                	sw	s3,140(sp)
80007206:	cf06                	sw	ra,156(sp)
80007208:	c552                	sw	s4,136(sp)
8000720a:	c356                	sw	s5,132(sp)
8000720c:	c15a                	sw	s6,128(sp)
8000720e:	dede                	sw	s7,124(sp)
80007210:	dce2                	sw	s8,120(sp)
80007212:	dae6                	sw	s9,116(sp)
80007214:	89aa                	mv	s3,a0
80007216:	84ae                	mv	s1,a1
80007218:	8932                	mv	s2,a2
8000721a:	8436                	mv	s0,a3
8000721c:	c509                	beqz	a0,80007226 <_vfiprintf_r+0x2a>
8000721e:	4d1c                	lw	a5,24(a0)
80007220:	e399                	bnez	a5,80007226 <_vfiprintf_r+0x2a>
80007222:	918ff0ef          	jal	ra,8000633a <__sinit>
80007226:	00002797          	auipc	a5,0x2
8000722a:	65e78793          	addi	a5,a5,1630 # 80009884 <__sf_fake_stdin>
8000722e:	0cf49d63          	bne	s1,a5,80007308 <_vfiprintf_r+0x10c>
80007232:	0049a483          	lw	s1,4(s3)
80007236:	00c4d783          	lhu	a5,12(s1)
8000723a:	8ba1                	andi	a5,a5,8
8000723c:	cbe5                	beqz	a5,8000732c <_vfiprintf_r+0x130>
8000723e:	489c                	lw	a5,16(s1)
80007240:	c7f5                	beqz	a5,8000732c <_vfiprintf_r+0x130>
80007242:	02000793          	li	a5,32
80007246:	02f104a3          	sb	a5,41(sp)
8000724a:	03000793          	li	a5,48
8000724e:	d202                	sw	zero,36(sp)
80007250:	02f10523          	sb	a5,42(sp)
80007254:	c622                	sw	s0,12(sp)
80007256:	02500b93          	li	s7,37
8000725a:	00002a97          	auipc	s5,0x2
8000725e:	7baa8a93          	addi	s5,s5,1978 # 80009a14 <p05.0+0xc>
80007262:	4c05                	li	s8,1
80007264:	4b29                	li	s6,10
80007266:	844a                	mv	s0,s2
80007268:	00044783          	lbu	a5,0(s0)
8000726c:	c399                	beqz	a5,80007272 <_vfiprintf_r+0x76>
8000726e:	0f779263          	bne	a5,s7,80007352 <_vfiprintf_r+0x156>
80007272:	41240cb3          	sub	s9,s0,s2
80007276:	01240e63          	beq	s0,s2,80007292 <_vfiprintf_r+0x96>
8000727a:	86e6                	mv	a3,s9
8000727c:	864a                	mv	a2,s2
8000727e:	85a6                	mv	a1,s1
80007280:	854e                	mv	a0,s3
80007282:	f39ff0ef          	jal	ra,800071ba <__sfputs_r>
80007286:	57fd                	li	a5,-1
80007288:	1ef50763          	beq	a0,a5,80007476 <_vfiprintf_r+0x27a>
8000728c:	5792                	lw	a5,36(sp)
8000728e:	97e6                	add	a5,a5,s9
80007290:	d23e                	sw	a5,36(sp)
80007292:	00044783          	lbu	a5,0(s0)
80007296:	1e078063          	beqz	a5,80007476 <_vfiprintf_r+0x27a>
8000729a:	57fd                	li	a5,-1
8000729c:	00140913          	addi	s2,s0,1
800072a0:	c802                	sw	zero,16(sp)
800072a2:	ce02                	sw	zero,28(sp)
800072a4:	ca3e                	sw	a5,20(sp)
800072a6:	cc02                	sw	zero,24(sp)
800072a8:	040109a3          	sb	zero,83(sp)
800072ac:	d482                	sw	zero,104(sp)
800072ae:	00094583          	lbu	a1,0(s2)
800072b2:	4615                	li	a2,5
800072b4:	8556                	mv	a0,s5
800072b6:	b00ff0ef          	jal	ra,800065b6 <memchr>
800072ba:	47c2                	lw	a5,16(sp)
800072bc:	00190413          	addi	s0,s2,1
800072c0:	e959                	bnez	a0,80007356 <_vfiprintf_r+0x15a>
800072c2:	0107f713          	andi	a4,a5,16
800072c6:	c709                	beqz	a4,800072d0 <_vfiprintf_r+0xd4>
800072c8:	02000713          	li	a4,32
800072cc:	04e109a3          	sb	a4,83(sp)
800072d0:	0087f713          	andi	a4,a5,8
800072d4:	c709                	beqz	a4,800072de <_vfiprintf_r+0xe2>
800072d6:	02b00713          	li	a4,43
800072da:	04e109a3          	sb	a4,83(sp)
800072de:	00094683          	lbu	a3,0(s2)
800072e2:	02a00713          	li	a4,42
800072e6:	08e68063          	beq	a3,a4,80007366 <_vfiprintf_r+0x16a>
800072ea:	47f2                	lw	a5,28(sp)
800072ec:	844a                	mv	s0,s2
800072ee:	4681                	li	a3,0
800072f0:	4625                	li	a2,9
800072f2:	00044703          	lbu	a4,0(s0)
800072f6:	00140593          	addi	a1,s0,1
800072fa:	fd070713          	addi	a4,a4,-48
800072fe:	0ae67963          	bgeu	a2,a4,800073b0 <_vfiprintf_r+0x1b4>
80007302:	cab5                	beqz	a3,80007376 <_vfiprintf_r+0x17a>
80007304:	ce3e                	sw	a5,28(sp)
80007306:	a885                	j	80007376 <_vfiprintf_r+0x17a>
80007308:	00002797          	auipc	a5,0x2
8000730c:	59c78793          	addi	a5,a5,1436 # 800098a4 <__sf_fake_stdout>
80007310:	00f49563          	bne	s1,a5,8000731a <_vfiprintf_r+0x11e>
80007314:	0089a483          	lw	s1,8(s3)
80007318:	bf39                	j	80007236 <_vfiprintf_r+0x3a>
8000731a:	00002797          	auipc	a5,0x2
8000731e:	54a78793          	addi	a5,a5,1354 # 80009864 <__sf_fake_stderr>
80007322:	f0f49ae3          	bne	s1,a5,80007236 <_vfiprintf_r+0x3a>
80007326:	00c9a483          	lw	s1,12(s3)
8000732a:	b731                	j	80007236 <_vfiprintf_r+0x3a>
8000732c:	85a6                	mv	a1,s1
8000732e:	854e                	mv	a0,s3
80007330:	eabfd0ef          	jal	ra,800051da <__swsetup_r>
80007334:	d519                	beqz	a0,80007242 <_vfiprintf_r+0x46>
80007336:	557d                	li	a0,-1
80007338:	40fa                	lw	ra,156(sp)
8000733a:	446a                	lw	s0,152(sp)
8000733c:	44da                	lw	s1,148(sp)
8000733e:	494a                	lw	s2,144(sp)
80007340:	49ba                	lw	s3,140(sp)
80007342:	4a2a                	lw	s4,136(sp)
80007344:	4a9a                	lw	s5,132(sp)
80007346:	4b0a                	lw	s6,128(sp)
80007348:	5bf6                	lw	s7,124(sp)
8000734a:	5c66                	lw	s8,120(sp)
8000734c:	5cd6                	lw	s9,116(sp)
8000734e:	610d                	addi	sp,sp,160
80007350:	8082                	ret
80007352:	0405                	addi	s0,s0,1
80007354:	bf11                	j	80007268 <_vfiprintf_r+0x6c>
80007356:	41550533          	sub	a0,a0,s5
8000735a:	00ac1533          	sll	a0,s8,a0
8000735e:	8fc9                	or	a5,a5,a0
80007360:	c83e                	sw	a5,16(sp)
80007362:	8922                	mv	s2,s0
80007364:	b7a9                	j	800072ae <_vfiprintf_r+0xb2>
80007366:	4732                	lw	a4,12(sp)
80007368:	00470693          	addi	a3,a4,4
8000736c:	4318                	lw	a4,0(a4)
8000736e:	c636                	sw	a3,12(sp)
80007370:	02074963          	bltz	a4,800073a2 <_vfiprintf_r+0x1a6>
80007374:	ce3a                	sw	a4,28(sp)
80007376:	00044703          	lbu	a4,0(s0)
8000737a:	02e00793          	li	a5,46
8000737e:	04f71f63          	bne	a4,a5,800073dc <_vfiprintf_r+0x1e0>
80007382:	00144703          	lbu	a4,1(s0)
80007386:	02a00793          	li	a5,42
8000738a:	02f71b63          	bne	a4,a5,800073c0 <_vfiprintf_r+0x1c4>
8000738e:	47b2                	lw	a5,12(sp)
80007390:	0409                	addi	s0,s0,2
80007392:	00478713          	addi	a4,a5,4
80007396:	439c                	lw	a5,0(a5)
80007398:	c63a                	sw	a4,12(sp)
8000739a:	0207c163          	bltz	a5,800073bc <_vfiprintf_r+0x1c0>
8000739e:	ca3e                	sw	a5,20(sp)
800073a0:	a835                	j	800073dc <_vfiprintf_r+0x1e0>
800073a2:	40e00733          	neg	a4,a4
800073a6:	0027e793          	ori	a5,a5,2
800073aa:	ce3a                	sw	a4,28(sp)
800073ac:	c83e                	sw	a5,16(sp)
800073ae:	b7e1                	j	80007376 <_vfiprintf_r+0x17a>
800073b0:	036787b3          	mul	a5,a5,s6
800073b4:	842e                	mv	s0,a1
800073b6:	4685                	li	a3,1
800073b8:	97ba                	add	a5,a5,a4
800073ba:	bf25                	j	800072f2 <_vfiprintf_r+0xf6>
800073bc:	57fd                	li	a5,-1
800073be:	b7c5                	j	8000739e <_vfiprintf_r+0x1a2>
800073c0:	0405                	addi	s0,s0,1
800073c2:	ca02                	sw	zero,20(sp)
800073c4:	4681                	li	a3,0
800073c6:	4781                	li	a5,0
800073c8:	4625                	li	a2,9
800073ca:	00044703          	lbu	a4,0(s0)
800073ce:	00140593          	addi	a1,s0,1
800073d2:	fd070713          	addi	a4,a4,-48
800073d6:	06e67863          	bgeu	a2,a4,80007446 <_vfiprintf_r+0x24a>
800073da:	f2f1                	bnez	a3,8000739e <_vfiprintf_r+0x1a2>
800073dc:	00044583          	lbu	a1,0(s0)
800073e0:	460d                	li	a2,3
800073e2:	00002517          	auipc	a0,0x2
800073e6:	63a50513          	addi	a0,a0,1594 # 80009a1c <p05.0+0x14>
800073ea:	9ccff0ef          	jal	ra,800065b6 <memchr>
800073ee:	cd11                	beqz	a0,8000740a <_vfiprintf_r+0x20e>
800073f0:	00002797          	auipc	a5,0x2
800073f4:	62c78793          	addi	a5,a5,1580 # 80009a1c <p05.0+0x14>
800073f8:	8d1d                	sub	a0,a0,a5
800073fa:	04000793          	li	a5,64
800073fe:	00a797b3          	sll	a5,a5,a0
80007402:	4542                	lw	a0,16(sp)
80007404:	0405                	addi	s0,s0,1
80007406:	8d5d                	or	a0,a0,a5
80007408:	c82a                	sw	a0,16(sp)
8000740a:	00044583          	lbu	a1,0(s0)
8000740e:	4619                	li	a2,6
80007410:	00002517          	auipc	a0,0x2
80007414:	61050513          	addi	a0,a0,1552 # 80009a20 <p05.0+0x18>
80007418:	00140913          	addi	s2,s0,1
8000741c:	02b10423          	sb	a1,40(sp)
80007420:	996ff0ef          	jal	ra,800065b6 <memchr>
80007424:	c12d                	beqz	a0,80007486 <_vfiprintf_r+0x28a>
80007426:	ffffd797          	auipc	a5,0xffffd
8000742a:	32e78793          	addi	a5,a5,814 # 80004754 <_printf_float>
8000742e:	e795                	bnez	a5,8000745a <_vfiprintf_r+0x25e>
80007430:	4742                	lw	a4,16(sp)
80007432:	47b2                	lw	a5,12(sp)
80007434:	10077713          	andi	a4,a4,256
80007438:	cf09                	beqz	a4,80007452 <_vfiprintf_r+0x256>
8000743a:	0791                	addi	a5,a5,4
8000743c:	c63e                	sw	a5,12(sp)
8000743e:	5792                	lw	a5,36(sp)
80007440:	97d2                	add	a5,a5,s4
80007442:	d23e                	sw	a5,36(sp)
80007444:	b50d                	j	80007266 <_vfiprintf_r+0x6a>
80007446:	036787b3          	mul	a5,a5,s6
8000744a:	842e                	mv	s0,a1
8000744c:	4685                	li	a3,1
8000744e:	97ba                	add	a5,a5,a4
80007450:	bfad                	j	800073ca <_vfiprintf_r+0x1ce>
80007452:	079d                	addi	a5,a5,7
80007454:	9be1                	andi	a5,a5,-8
80007456:	07a1                	addi	a5,a5,8
80007458:	b7d5                	j	8000743c <_vfiprintf_r+0x240>
8000745a:	0078                	addi	a4,sp,12
8000745c:	00000697          	auipc	a3,0x0
80007460:	d5e68693          	addi	a3,a3,-674 # 800071ba <__sfputs_r>
80007464:	8626                	mv	a2,s1
80007466:	080c                	addi	a1,sp,16
80007468:	854e                	mv	a0,s3
8000746a:	aeafd0ef          	jal	ra,80004754 <_printf_float>
8000746e:	57fd                	li	a5,-1
80007470:	8a2a                	mv	s4,a0
80007472:	fcf516e3          	bne	a0,a5,8000743e <_vfiprintf_r+0x242>
80007476:	00c4d783          	lhu	a5,12(s1)
8000747a:	0407f793          	andi	a5,a5,64
8000747e:	ea079ce3          	bnez	a5,80007336 <_vfiprintf_r+0x13a>
80007482:	5512                	lw	a0,36(sp)
80007484:	bd55                	j	80007338 <_vfiprintf_r+0x13c>
80007486:	0078                	addi	a4,sp,12
80007488:	00000697          	auipc	a3,0x0
8000748c:	d3268693          	addi	a3,a3,-718 # 800071ba <__sfputs_r>
80007490:	8626                	mv	a2,s1
80007492:	080c                	addi	a1,sp,16
80007494:	854e                	mv	a0,s3
80007496:	89ffd0ef          	jal	ra,80004d34 <_printf_i>
8000749a:	bfd1                	j	8000746e <_vfiprintf_r+0x272>

8000749c <_putc_r>:
_putc_r():
8000749c:	1101                	addi	sp,sp,-32
8000749e:	cc22                	sw	s0,24(sp)
800074a0:	ce06                	sw	ra,28(sp)
800074a2:	842a                	mv	s0,a0
800074a4:	c909                	beqz	a0,800074b6 <_putc_r+0x1a>
800074a6:	4d1c                	lw	a5,24(a0)
800074a8:	e799                	bnez	a5,800074b6 <_putc_r+0x1a>
800074aa:	c632                	sw	a2,12(sp)
800074ac:	c42e                	sw	a1,8(sp)
800074ae:	e8dfe0ef          	jal	ra,8000633a <__sinit>
800074b2:	4632                	lw	a2,12(sp)
800074b4:	45a2                	lw	a1,8(sp)
800074b6:	00002797          	auipc	a5,0x2
800074ba:	3ce78793          	addi	a5,a5,974 # 80009884 <__sf_fake_stdin>
800074be:	02f61663          	bne	a2,a5,800074ea <_putc_r+0x4e>
800074c2:	4050                	lw	a2,4(s0)
800074c4:	461c                	lw	a5,8(a2)
800074c6:	17fd                	addi	a5,a5,-1
800074c8:	c61c                	sw	a5,8(a2)
800074ca:	0407d063          	bgez	a5,8000750a <_putc_r+0x6e>
800074ce:	4e18                	lw	a4,24(a2)
800074d0:	00e7c763          	blt	a5,a4,800074de <_putc_r+0x42>
800074d4:	0ff5f793          	zext.b	a5,a1
800074d8:	4729                	li	a4,10
800074da:	02e79863          	bne	a5,a4,8000750a <_putc_r+0x6e>
800074de:	8522                	mv	a0,s0
800074e0:	4462                	lw	s0,24(sp)
800074e2:	40f2                	lw	ra,28(sp)
800074e4:	6105                	addi	sp,sp,32
800074e6:	c2ffd06f          	j	80005114 <__swbuf_r>
800074ea:	00002797          	auipc	a5,0x2
800074ee:	3ba78793          	addi	a5,a5,954 # 800098a4 <__sf_fake_stdout>
800074f2:	00f61463          	bne	a2,a5,800074fa <_putc_r+0x5e>
800074f6:	4410                	lw	a2,8(s0)
800074f8:	b7f1                	j	800074c4 <_putc_r+0x28>
800074fa:	00002797          	auipc	a5,0x2
800074fe:	36a78793          	addi	a5,a5,874 # 80009864 <__sf_fake_stderr>
80007502:	fcf611e3          	bne	a2,a5,800074c4 <_putc_r+0x28>
80007506:	4450                	lw	a2,12(s0)
80007508:	bf75                	j	800074c4 <_putc_r+0x28>
8000750a:	421c                	lw	a5,0(a2)
8000750c:	0ff5f513          	zext.b	a0,a1
80007510:	00178713          	addi	a4,a5,1
80007514:	c218                	sw	a4,0(a2)
80007516:	00b78023          	sb	a1,0(a5)
8000751a:	40f2                	lw	ra,28(sp)
8000751c:	4462                	lw	s0,24(sp)
8000751e:	6105                	addi	sp,sp,32
80007520:	8082                	ret

80007522 <_sbrk_r>:
_sbrk_r():
80007522:	1141                	addi	sp,sp,-16
80007524:	c422                	sw	s0,8(sp)
80007526:	842a                	mv	s0,a0
80007528:	852e                	mv	a0,a1
8000752a:	a001a623          	sw	zero,-1524(gp) # 900003dc <errno>
8000752e:	c606                	sw	ra,12(sp)
80007530:	e95f80ef          	jal	ra,800003c4 <_sbrk>
80007534:	57fd                	li	a5,-1
80007536:	00f51663          	bne	a0,a5,80007542 <_sbrk_r+0x20>
8000753a:	a0c1a783          	lw	a5,-1524(gp) # 900003dc <errno>
8000753e:	c391                	beqz	a5,80007542 <_sbrk_r+0x20>
80007540:	c01c                	sw	a5,0(s0)
80007542:	40b2                	lw	ra,12(sp)
80007544:	4422                	lw	s0,8(sp)
80007546:	0141                	addi	sp,sp,16
80007548:	8082                	ret

8000754a <__sread>:
__sread():
8000754a:	1141                	addi	sp,sp,-16
8000754c:	c422                	sw	s0,8(sp)
8000754e:	842e                	mv	s0,a1
80007550:	00e59583          	lh	a1,14(a1)
80007554:	c606                	sw	ra,12(sp)
80007556:	240d                	jal	80007778 <_read_r>
80007558:	00054963          	bltz	a0,8000756a <__sread+0x20>
8000755c:	487c                	lw	a5,84(s0)
8000755e:	97aa                	add	a5,a5,a0
80007560:	c87c                	sw	a5,84(s0)
80007562:	40b2                	lw	ra,12(sp)
80007564:	4422                	lw	s0,8(sp)
80007566:	0141                	addi	sp,sp,16
80007568:	8082                	ret
8000756a:	00c45783          	lhu	a5,12(s0)
8000756e:	777d                	lui	a4,0xfffff
80007570:	177d                	addi	a4,a4,-1
80007572:	8ff9                	and	a5,a5,a4
80007574:	00f41623          	sh	a5,12(s0)
80007578:	b7ed                	j	80007562 <__sread+0x18>

8000757a <__swrite>:
__swrite():
8000757a:	00c5d783          	lhu	a5,12(a1)
8000757e:	1101                	addi	sp,sp,-32
80007580:	cc22                	sw	s0,24(sp)
80007582:	ca26                	sw	s1,20(sp)
80007584:	c84a                	sw	s2,16(sp)
80007586:	c64e                	sw	s3,12(sp)
80007588:	ce06                	sw	ra,28(sp)
8000758a:	1007f793          	andi	a5,a5,256
8000758e:	84aa                	mv	s1,a0
80007590:	842e                	mv	s0,a1
80007592:	8932                	mv	s2,a2
80007594:	89b6                	mv	s3,a3
80007596:	c791                	beqz	a5,800075a2 <__swrite+0x28>
80007598:	00e59583          	lh	a1,14(a1)
8000759c:	4689                	li	a3,2
8000759e:	4601                	li	a2,0
800075a0:	22bd                	jal	8000770e <_lseek_r>
800075a2:	00c45783          	lhu	a5,12(s0)
800075a6:	777d                	lui	a4,0xfffff
800075a8:	177d                	addi	a4,a4,-1
800075aa:	8ff9                	and	a5,a5,a4
800075ac:	00e41583          	lh	a1,14(s0)
800075b0:	00f41623          	sh	a5,12(s0)
800075b4:	4462                	lw	s0,24(sp)
800075b6:	40f2                	lw	ra,28(sp)
800075b8:	86ce                	mv	a3,s3
800075ba:	864a                	mv	a2,s2
800075bc:	49b2                	lw	s3,12(sp)
800075be:	4942                	lw	s2,16(sp)
800075c0:	8526                	mv	a0,s1
800075c2:	44d2                	lw	s1,20(sp)
800075c4:	6105                	addi	sp,sp,32
800075c6:	a83d                	j	80007604 <_write_r>

800075c8 <__sseek>:
__sseek():
800075c8:	1141                	addi	sp,sp,-16
800075ca:	c422                	sw	s0,8(sp)
800075cc:	842e                	mv	s0,a1
800075ce:	00e59583          	lh	a1,14(a1)
800075d2:	c606                	sw	ra,12(sp)
800075d4:	2a2d                	jal	8000770e <_lseek_r>
800075d6:	57fd                	li	a5,-1
800075d8:	00c45703          	lhu	a4,12(s0)
800075dc:	00f51b63          	bne	a0,a5,800075f2 <__sseek+0x2a>
800075e0:	77fd                	lui	a5,0xfffff
800075e2:	17fd                	addi	a5,a5,-1
800075e4:	8ff9                	and	a5,a5,a4
800075e6:	00f41623          	sh	a5,12(s0)
800075ea:	40b2                	lw	ra,12(sp)
800075ec:	4422                	lw	s0,8(sp)
800075ee:	0141                	addi	sp,sp,16
800075f0:	8082                	ret
800075f2:	6785                	lui	a5,0x1
800075f4:	8fd9                	or	a5,a5,a4
800075f6:	00f41623          	sh	a5,12(s0)
800075fa:	c868                	sw	a0,84(s0)
800075fc:	b7fd                	j	800075ea <__sseek+0x22>

800075fe <__sclose>:
__sclose():
800075fe:	00e59583          	lh	a1,14(a1)
80007602:	a0a5                	j	8000766a <_close_r>

80007604 <_write_r>:
_write_r():
80007604:	1141                	addi	sp,sp,-16
80007606:	c422                	sw	s0,8(sp)
80007608:	842a                	mv	s0,a0
8000760a:	852e                	mv	a0,a1
8000760c:	85b2                	mv	a1,a2
8000760e:	8636                	mv	a2,a3
80007610:	a001a623          	sw	zero,-1524(gp) # 900003dc <errno>
80007614:	c606                	sw	ra,12(sp)
80007616:	ddbf80ef          	jal	ra,800003f0 <_write>
8000761a:	57fd                	li	a5,-1
8000761c:	00f51663          	bne	a0,a5,80007628 <_write_r+0x24>
80007620:	a0c1a783          	lw	a5,-1524(gp) # 900003dc <errno>
80007624:	c391                	beqz	a5,80007628 <_write_r+0x24>
80007626:	c01c                	sw	a5,0(s0)
80007628:	40b2                	lw	ra,12(sp)
8000762a:	4422                	lw	s0,8(sp)
8000762c:	0141                	addi	sp,sp,16
8000762e:	8082                	ret

80007630 <__assert_func>:
__assert_func():
80007630:	1141                	addi	sp,sp,-16
80007632:	0fff9797          	auipc	a5,0xfff9
80007636:	ba67a783          	lw	a5,-1114(a5) # 900001d8 <_impure_ptr>
8000763a:	8832                	mv	a6,a2
8000763c:	c606                	sw	ra,12(sp)
8000763e:	88aa                	mv	a7,a0
80007640:	872e                	mv	a4,a1
80007642:	47c8                	lw	a0,12(a5)
80007644:	8636                	mv	a2,a3
80007646:	00002797          	auipc	a5,0x2
8000764a:	3e278793          	addi	a5,a5,994 # 80009a28 <p05.0+0x20>
8000764e:	00081763          	bnez	a6,8000765c <__assert_func+0x2c>
80007652:	00002797          	auipc	a5,0x2
80007656:	92278793          	addi	a5,a5,-1758 # 80008f74 <__trunctfdf2+0x41c>
8000765a:	883e                	mv	a6,a5
8000765c:	86c6                	mv	a3,a7
8000765e:	00002597          	auipc	a1,0x2
80007662:	3da58593          	addi	a1,a1,986 # 80009a38 <p05.0+0x30>
80007666:	2035                	jal	80007692 <fiprintf>
80007668:	2ab1                	jal	800077c4 <abort>

8000766a <_close_r>:
_close_r():
8000766a:	1141                	addi	sp,sp,-16
8000766c:	c422                	sw	s0,8(sp)
8000766e:	842a                	mv	s0,a0
80007670:	852e                	mv	a0,a1
80007672:	a001a623          	sw	zero,-1524(gp) # 900003dc <errno>
80007676:	c606                	sw	ra,12(sp)
80007678:	ce9f80ef          	jal	ra,80000360 <_close>
8000767c:	57fd                	li	a5,-1
8000767e:	00f51663          	bne	a0,a5,8000768a <_close_r+0x20>
80007682:	a0c1a783          	lw	a5,-1524(gp) # 900003dc <errno>
80007686:	c391                	beqz	a5,8000768a <_close_r+0x20>
80007688:	c01c                	sw	a5,0(s0)
8000768a:	40b2                	lw	ra,12(sp)
8000768c:	4422                	lw	s0,8(sp)
8000768e:	0141                	addi	sp,sp,16
80007690:	8082                	ret

80007692 <fiprintf>:
fprintf():
80007692:	7139                	addi	sp,sp,-64
80007694:	d432                	sw	a2,40(sp)
80007696:	d636                	sw	a3,44(sp)
80007698:	862e                	mv	a2,a1
8000769a:	1034                	addi	a3,sp,40
8000769c:	85aa                	mv	a1,a0
8000769e:	0fff9517          	auipc	a0,0xfff9
800076a2:	b3a52503          	lw	a0,-1222(a0) # 900001d8 <_impure_ptr>
800076a6:	ce06                	sw	ra,28(sp)
800076a8:	d83a                	sw	a4,48(sp)
800076aa:	da3e                	sw	a5,52(sp)
800076ac:	dc42                	sw	a6,56(sp)
800076ae:	de46                	sw	a7,60(sp)
800076b0:	c636                	sw	a3,12(sp)
800076b2:	b4bff0ef          	jal	ra,800071fc <_vfiprintf_r>
800076b6:	40f2                	lw	ra,28(sp)
800076b8:	6121                	addi	sp,sp,64
800076ba:	8082                	ret

800076bc <_fstat_r>:
_fstat_r():
800076bc:	1141                	addi	sp,sp,-16
800076be:	c422                	sw	s0,8(sp)
800076c0:	842a                	mv	s0,a0
800076c2:	852e                	mv	a0,a1
800076c4:	85b2                	mv	a1,a2
800076c6:	a001a623          	sw	zero,-1524(gp) # 900003dc <errno>
800076ca:	c606                	sw	ra,12(sp)
800076cc:	ca5f80ef          	jal	ra,80000370 <_fstat>
800076d0:	57fd                	li	a5,-1
800076d2:	00f51663          	bne	a0,a5,800076de <_fstat_r+0x22>
800076d6:	a0c1a783          	lw	a5,-1524(gp) # 900003dc <errno>
800076da:	c391                	beqz	a5,800076de <_fstat_r+0x22>
800076dc:	c01c                	sw	a5,0(s0)
800076de:	40b2                	lw	ra,12(sp)
800076e0:	4422                	lw	s0,8(sp)
800076e2:	0141                	addi	sp,sp,16
800076e4:	8082                	ret

800076e6 <_isatty_r>:
_isatty_r():
800076e6:	1141                	addi	sp,sp,-16
800076e8:	c422                	sw	s0,8(sp)
800076ea:	842a                	mv	s0,a0
800076ec:	852e                	mv	a0,a1
800076ee:	a001a623          	sw	zero,-1524(gp) # 900003dc <errno>
800076f2:	c606                	sw	ra,12(sp)
800076f4:	c9df80ef          	jal	ra,80000390 <_isatty>
800076f8:	57fd                	li	a5,-1
800076fa:	00f51663          	bne	a0,a5,80007706 <_isatty_r+0x20>
800076fe:	a0c1a783          	lw	a5,-1524(gp) # 900003dc <errno>
80007702:	c391                	beqz	a5,80007706 <_isatty_r+0x20>
80007704:	c01c                	sw	a5,0(s0)
80007706:	40b2                	lw	ra,12(sp)
80007708:	4422                	lw	s0,8(sp)
8000770a:	0141                	addi	sp,sp,16
8000770c:	8082                	ret

8000770e <_lseek_r>:
_lseek_r():
8000770e:	1141                	addi	sp,sp,-16
80007710:	c422                	sw	s0,8(sp)
80007712:	842a                	mv	s0,a0
80007714:	852e                	mv	a0,a1
80007716:	85b2                	mv	a1,a2
80007718:	8636                	mv	a2,a3
8000771a:	a001a623          	sw	zero,-1524(gp) # 900003dc <errno>
8000771e:	c606                	sw	ra,12(sp)
80007720:	c7ff80ef          	jal	ra,8000039e <_lseek>
80007724:	57fd                	li	a5,-1
80007726:	00f51663          	bne	a0,a5,80007732 <_lseek_r+0x24>
8000772a:	a0c1a783          	lw	a5,-1524(gp) # 900003dc <errno>
8000772e:	c391                	beqz	a5,80007732 <_lseek_r+0x24>
80007730:	c01c                	sw	a5,0(s0)
80007732:	40b2                	lw	ra,12(sp)
80007734:	4422                	lw	s0,8(sp)
80007736:	0141                	addi	sp,sp,16
80007738:	8082                	ret

8000773a <__ascii_mbtowc>:
__ascii_mbtowc():
8000773a:	e185                	bnez	a1,8000775a <__ascii_mbtowc+0x20>
8000773c:	1141                	addi	sp,sp,-16
8000773e:	006c                	addi	a1,sp,12
80007740:	4501                	li	a0,0
80007742:	ca11                	beqz	a2,80007756 <__ascii_mbtowc+0x1c>
80007744:	5579                	li	a0,-2
80007746:	ca81                	beqz	a3,80007756 <__ascii_mbtowc+0x1c>
80007748:	00064783          	lbu	a5,0(a2)
8000774c:	c19c                	sw	a5,0(a1)
8000774e:	00064503          	lbu	a0,0(a2)
80007752:	00a03533          	snez	a0,a0
80007756:	0141                	addi	sp,sp,16
80007758:	8082                	ret
8000775a:	4501                	li	a0,0
8000775c:	ca19                	beqz	a2,80007772 <__ascii_mbtowc+0x38>
8000775e:	5579                	li	a0,-2
80007760:	ca89                	beqz	a3,80007772 <__ascii_mbtowc+0x38>
80007762:	00064783          	lbu	a5,0(a2)
80007766:	c19c                	sw	a5,0(a1)
80007768:	00064503          	lbu	a0,0(a2)
8000776c:	00a03533          	snez	a0,a0
80007770:	8082                	ret
80007772:	8082                	ret

80007774 <__malloc_lock>:
__malloc_lock():
80007774:	8082                	ret

80007776 <__malloc_unlock>:
__malloc_unlock():
80007776:	8082                	ret

80007778 <_read_r>:
_read_r():
80007778:	1141                	addi	sp,sp,-16
8000777a:	c422                	sw	s0,8(sp)
8000777c:	842a                	mv	s0,a0
8000777e:	852e                	mv	a0,a1
80007780:	85b2                	mv	a1,a2
80007782:	8636                	mv	a2,a3
80007784:	a001a623          	sw	zero,-1524(gp) # 900003dc <errno>
80007788:	c606                	sw	ra,12(sp)
8000778a:	c19f80ef          	jal	ra,800003a2 <_read>
8000778e:	57fd                	li	a5,-1
80007790:	00f51663          	bne	a0,a5,8000779c <_read_r+0x24>
80007794:	a0c1a783          	lw	a5,-1524(gp) # 900003dc <errno>
80007798:	c391                	beqz	a5,8000779c <_read_r+0x24>
8000779a:	c01c                	sw	a5,0(s0)
8000779c:	40b2                	lw	ra,12(sp)
8000779e:	4422                	lw	s0,8(sp)
800077a0:	0141                	addi	sp,sp,16
800077a2:	8082                	ret

800077a4 <__ascii_wctomb>:
__ascii_wctomb():
800077a4:	cd91                	beqz	a1,800077c0 <__ascii_wctomb+0x1c>
800077a6:	0ff00793          	li	a5,255
800077aa:	00c7f763          	bgeu	a5,a2,800077b8 <__ascii_wctomb+0x14>
800077ae:	08a00793          	li	a5,138
800077b2:	c11c                	sw	a5,0(a0)
800077b4:	557d                	li	a0,-1
800077b6:	8082                	ret
800077b8:	00c58023          	sb	a2,0(a1)
800077bc:	4505                	li	a0,1
800077be:	8082                	ret
800077c0:	4501                	li	a0,0
800077c2:	8082                	ret

800077c4 <abort>:
abort():
800077c4:	1141                	addi	sp,sp,-16
800077c6:	4519                	li	a0,6
800077c8:	c606                	sw	ra,12(sp)
800077ca:	20ad                	jal	80007834 <raise>
800077cc:	4505                	li	a0,1
800077ce:	b9df80ef          	jal	ra,8000036a <_exit>

800077d2 <_raise_r>:
_raise_r():
800077d2:	1101                	addi	sp,sp,-32
800077d4:	cc22                	sw	s0,24(sp)
800077d6:	ce06                	sw	ra,28(sp)
800077d8:	47fd                	li	a5,31
800077da:	842a                	mv	s0,a0
800077dc:	00b7f963          	bgeu	a5,a1,800077ee <_raise_r+0x1c>
800077e0:	47d9                	li	a5,22
800077e2:	c11c                	sw	a5,0(a0)
800077e4:	557d                	li	a0,-1
800077e6:	40f2                	lw	ra,28(sp)
800077e8:	4462                	lw	s0,24(sp)
800077ea:	6105                	addi	sp,sp,32
800077ec:	8082                	ret
800077ee:	417c                	lw	a5,68(a0)
800077f0:	862e                	mv	a2,a1
800077f2:	c791                	beqz	a5,800077fe <_raise_r+0x2c>
800077f4:	00259713          	slli	a4,a1,0x2
800077f8:	97ba                	add	a5,a5,a4
800077fa:	4398                	lw	a4,0(a5)
800077fc:	eb19                	bnez	a4,80007812 <_raise_r+0x40>
800077fe:	8522                	mv	a0,s0
80007800:	c632                	sw	a2,12(sp)
80007802:	20ad                	jal	8000786c <_getpid_r>
80007804:	85aa                	mv	a1,a0
80007806:	8522                	mv	a0,s0
80007808:	4462                	lw	s0,24(sp)
8000780a:	4632                	lw	a2,12(sp)
8000780c:	40f2                	lw	ra,28(sp)
8000780e:	6105                	addi	sp,sp,32
80007810:	a80d                	j	80007842 <_kill_r>
80007812:	4685                	li	a3,1
80007814:	4501                	li	a0,0
80007816:	fcd708e3          	beq	a4,a3,800077e6 <_raise_r+0x14>
8000781a:	56fd                	li	a3,-1
8000781c:	00d71663          	bne	a4,a3,80007828 <_raise_r+0x56>
80007820:	47d9                	li	a5,22
80007822:	c01c                	sw	a5,0(s0)
80007824:	4505                	li	a0,1
80007826:	b7c1                	j	800077e6 <_raise_r+0x14>
80007828:	852e                	mv	a0,a1
8000782a:	0007a023          	sw	zero,0(a5)
8000782e:	9702                	jalr	a4
80007830:	4501                	li	a0,0
80007832:	bf55                	j	800077e6 <_raise_r+0x14>

80007834 <raise>:
raise():
80007834:	85aa                	mv	a1,a0
80007836:	0fff9517          	auipc	a0,0xfff9
8000783a:	9a252503          	lw	a0,-1630(a0) # 900001d8 <_impure_ptr>
8000783e:	f95ff06f          	j	800077d2 <_raise_r>

80007842 <_kill_r>:
_kill_r():
80007842:	1141                	addi	sp,sp,-16
80007844:	c422                	sw	s0,8(sp)
80007846:	842a                	mv	s0,a0
80007848:	852e                	mv	a0,a1
8000784a:	85b2                	mv	a1,a2
8000784c:	a001a623          	sw	zero,-1524(gp) # 900003dc <errno>
80007850:	c606                	sw	ra,12(sp)
80007852:	b43f80ef          	jal	ra,80000394 <_kill>
80007856:	57fd                	li	a5,-1
80007858:	00f51663          	bne	a0,a5,80007864 <_kill_r+0x22>
8000785c:	a0c1a783          	lw	a5,-1524(gp) # 900003dc <errno>
80007860:	c391                	beqz	a5,80007864 <_kill_r+0x22>
80007862:	c01c                	sw	a5,0(s0)
80007864:	40b2                	lw	ra,12(sp)
80007866:	4422                	lw	s0,8(sp)
80007868:	0141                	addi	sp,sp,16
8000786a:	8082                	ret

8000786c <_getpid_r>:
_getpid_r():
8000786c:	b21f806f          	j	8000038c <_getpid>

80007870 <__divdf3>:
__divdf3():
/Local/xl_ci/toolchain/riscv-gnu-toolchain/riscv-gcc/libgcc/soft-fp/divdf3.c:36
80007870:	7179                	addi	sp,sp,-48
80007872:	d422                	sw	s0,40(sp)
80007874:	ca56                	sw	s5,20(sp)
80007876:	c266                	sw	s9,4(sp)
80007878:	d606                	sw	ra,44(sp)
8000787a:	d226                	sw	s1,36(sp)
8000787c:	d04a                	sw	s2,32(sp)
8000787e:	ce4e                	sw	s3,28(sp)
80007880:	cc52                	sw	s4,24(sp)
80007882:	c85a                	sw	s6,16(sp)
80007884:	c65e                	sw	s7,12(sp)
80007886:	c462                	sw	s8,8(sp)
80007888:	842a                	mv	s0,a0
8000788a:	8cb2                	mv	s9,a2
8000788c:	8ab6                	mv	s5,a3
/Local/xl_ci/toolchain/riscv-gnu-toolchain/riscv-gcc/libgcc/soft-fp/divdf3.c:43
8000788e:	00202973          	frrm	s2
/Local/xl_ci/toolchain/riscv-gnu-toolchain/riscv-gcc/libgcc/soft-fp/divdf3.c:44
80007892:	0145db13          	srli	s6,a1,0x14
80007896:	00c59b93          	slli	s7,a1,0xc
8000789a:	7ffb7b13          	andi	s6,s6,2047
8000789e:	00cbdb93          	srli	s7,s7,0xc
800078a2:	01f5da13          	srli	s4,a1,0x1f
800078a6:	020b0663          	beqz	s6,800078d2 <__divdf3+0x62>
800078aa:	7ff00793          	li	a5,2047
800078ae:	06fb0b63          	beq	s6,a5,80007924 <__divdf3+0xb4>
/Local/xl_ci/toolchain/riscv-gnu-toolchain/riscv-gcc/libgcc/soft-fp/divdf3.c:44 (discriminator 1)
800078b2:	01d55713          	srli	a4,a0,0x1d
800078b6:	0b8e                	slli	s7,s7,0x3
800078b8:	01776bb3          	or	s7,a4,s7
800078bc:	008007b7          	lui	a5,0x800
800078c0:	00fbebb3          	or	s7,s7,a5
800078c4:	00351993          	slli	s3,a0,0x3
800078c8:	c01b0b13          	addi	s6,s6,-1023
/Local/xl_ci/toolchain/riscv-gnu-toolchain/riscv-gcc/libgcc/soft-fp/divdf3.c:44 (discriminator 41)
800078cc:	4c01                	li	s8,0
/Local/xl_ci/toolchain/riscv-gnu-toolchain/riscv-gcc/libgcc/soft-fp/divdf3.c:37
800078ce:	4481                	li	s1,0
800078d0:	a0bd                	j	8000793e <__divdf3+0xce>
/Local/xl_ci/toolchain/riscv-gnu-toolchain/riscv-gcc/libgcc/soft-fp/divdf3.c:44 (discriminator 2)
800078d2:	00abe7b3          	or	a5,s7,a0
800078d6:	c7e9                	beqz	a5,800079a0 <__divdf3+0x130>
/Local/xl_ci/toolchain/riscv-gnu-toolchain/riscv-gcc/libgcc/soft-fp/divdf3.c:44 (discriminator 13)
800078d8:	020b8b63          	beqz	s7,8000790e <__divdf3+0x9e>
/Local/xl_ci/toolchain/riscv-gnu-toolchain/riscv-gcc/libgcc/soft-fp/divdf3.c:44 (discriminator 17)
800078dc:	855e                	mv	a0,s7
800078de:	c09fc0ef          	jal	ra,800044e6 <__clzsi2>
/Local/xl_ci/toolchain/riscv-gnu-toolchain/riscv-gcc/libgcc/soft-fp/divdf3.c:44 (discriminator 31)
800078e2:	ff550713          	addi	a4,a0,-11
800078e6:	47f1                	li	a5,28
800078e8:	02e7c863          	blt	a5,a4,80007918 <__divdf3+0xa8>
/Local/xl_ci/toolchain/riscv-gnu-toolchain/riscv-gcc/libgcc/soft-fp/divdf3.c:44 (discriminator 32)
800078ec:	46f5                	li	a3,29
800078ee:	ff850993          	addi	s3,a0,-8
800078f2:	8e99                	sub	a3,a3,a4
800078f4:	013b9bb3          	sll	s7,s7,s3
800078f8:	00d456b3          	srl	a3,s0,a3
800078fc:	0176ebb3          	or	s7,a3,s7
80007900:	013419b3          	sll	s3,s0,s3
/Local/xl_ci/toolchain/riscv-gnu-toolchain/riscv-gcc/libgcc/soft-fp/divdf3.c:44 (discriminator 41)
80007904:	c0d00593          	li	a1,-1011
80007908:	40a58b33          	sub	s6,a1,a0
8000790c:	b7c1                	j	800078cc <__divdf3+0x5c>
/Local/xl_ci/toolchain/riscv-gnu-toolchain/riscv-gcc/libgcc/soft-fp/divdf3.c:44 (discriminator 24)
8000790e:	bd9fc0ef          	jal	ra,800044e6 <__clzsi2>
80007912:	02050513          	addi	a0,a0,32
80007916:	b7f1                	j	800078e2 <__divdf3+0x72>
/Local/xl_ci/toolchain/riscv-gnu-toolchain/riscv-gcc/libgcc/soft-fp/divdf3.c:44 (discriminator 33)
80007918:	fd850b93          	addi	s7,a0,-40
8000791c:	01741bb3          	sll	s7,s0,s7
80007920:	4981                	li	s3,0
80007922:	b7cd                	j	80007904 <__divdf3+0x94>
/Local/xl_ci/toolchain/riscv-gnu-toolchain/riscv-gcc/libgcc/soft-fp/divdf3.c:44 (discriminator 3)
80007924:	00abe433          	or	s0,s7,a0
80007928:	c049                	beqz	s0,800079aa <__divdf3+0x13a>
/Local/xl_ci/toolchain/riscv-gnu-toolchain/riscv-gcc/libgcc/soft-fp/divdf3.c:44 (discriminator 44)
8000792a:	000807b7          	lui	a5,0x80
8000792e:	00fbf7b3          	and	a5,s7,a5
80007932:	89aa                	mv	s3,a0
80007934:	7ff00b13          	li	s6,2047
80007938:	4c0d                	li	s8,3
8000793a:	44c1                	li	s1,16
8000793c:	fbc9                	bnez	a5,800078ce <__divdf3+0x5e>
/Local/xl_ci/toolchain/riscv-gnu-toolchain/riscv-gcc/libgcc/soft-fp/divdf3.c:45 (discriminator 8)
8000793e:	00ca9513          	slli	a0,s5,0xc
80007942:	00c55413          	srli	s0,a0,0xc
80007946:	014ad513          	srli	a0,s5,0x14
8000794a:	7ff57593          	andi	a1,a0,2047
8000794e:	87e6                	mv	a5,s9
80007950:	01fada93          	srli	s5,s5,0x1f
80007954:	c1ad                	beqz	a1,800079b6 <__divdf3+0x146>
/Local/xl_ci/toolchain/riscv-gnu-toolchain/riscv-gcc/libgcc/soft-fp/divdf3.c:45
80007956:	7ff00713          	li	a4,2047
8000795a:	0ae58863          	beq	a1,a4,80007a0a <__divdf3+0x19a>
/Local/xl_ci/toolchain/riscv-gnu-toolchain/riscv-gcc/libgcc/soft-fp/divdf3.c:45 (discriminator 1)
8000795e:	01dcd793          	srli	a5,s9,0x1d
80007962:	00341513          	slli	a0,s0,0x3
80007966:	8d5d                	or	a0,a0,a5
80007968:	00800437          	lui	s0,0x800
8000796c:	8c49                	or	s0,s0,a0
8000796e:	003c9793          	slli	a5,s9,0x3
80007972:	c0158513          	addi	a0,a1,-1023
/Local/xl_ci/toolchain/riscv-gnu-toolchain/riscv-gcc/libgcc/soft-fp/divdf3.c:45 (discriminator 41)
80007976:	4701                	li	a4,0
/Local/xl_ci/toolchain/riscv-gnu-toolchain/riscv-gcc/libgcc/soft-fp/divdf3.c:46 (discriminator 8)
80007978:	002c1693          	slli	a3,s8,0x2
8000797c:	8ed9                	or	a3,a3,a4
8000797e:	40ab05b3          	sub	a1,s6,a0
80007982:	16fd                	addi	a3,a3,-1
80007984:	4539                	li	a0,14
80007986:	015a4633          	xor	a2,s4,s5
8000798a:	0ad56963          	bltu	a0,a3,80007a3c <__divdf3+0x1cc>
8000798e:	00002517          	auipc	a0,0x2
80007992:	1ee50513          	addi	a0,a0,494 # 80009b7c <_ctype_+0x104>
80007996:	068a                	slli	a3,a3,0x2
80007998:	96aa                	add	a3,a3,a0
8000799a:	4294                	lw	a3,0(a3)
8000799c:	96aa                	add	a3,a3,a0
8000799e:	8682                	jr	a3
800079a0:	4b81                	li	s7,0
800079a2:	4981                	li	s3,0
800079a4:	4b01                	li	s6,0
/Local/xl_ci/toolchain/riscv-gnu-toolchain/riscv-gcc/libgcc/soft-fp/divdf3.c:44
800079a6:	4c05                	li	s8,1
800079a8:	b71d                	j	800078ce <__divdf3+0x5e>
800079aa:	4b81                	li	s7,0
800079ac:	4981                	li	s3,0
800079ae:	7ff00b13          	li	s6,2047
800079b2:	4c09                	li	s8,2
800079b4:	bf29                	j	800078ce <__divdf3+0x5e>
/Local/xl_ci/toolchain/riscv-gnu-toolchain/riscv-gcc/libgcc/soft-fp/divdf3.c:45 (discriminator 2)
800079b6:	019467b3          	or	a5,s0,s9
800079ba:	c7a5                	beqz	a5,80007a22 <__divdf3+0x1b2>
/Local/xl_ci/toolchain/riscv-gnu-toolchain/riscv-gcc/libgcc/soft-fp/divdf3.c:45 (discriminator 13)
800079bc:	c81d                	beqz	s0,800079f2 <__divdf3+0x182>
/Local/xl_ci/toolchain/riscv-gnu-toolchain/riscv-gcc/libgcc/soft-fp/divdf3.c:45 (discriminator 17)
800079be:	8522                	mv	a0,s0
800079c0:	b27fc0ef          	jal	ra,800044e6 <__clzsi2>
800079c4:	85aa                	mv	a1,a0
/Local/xl_ci/toolchain/riscv-gnu-toolchain/riscv-gcc/libgcc/soft-fp/divdf3.c:45 (discriminator 31)
800079c6:	ff558693          	addi	a3,a1,-11
800079ca:	47f1                	li	a5,28
800079cc:	02d7c963          	blt	a5,a3,800079fe <__divdf3+0x18e>
/Local/xl_ci/toolchain/riscv-gnu-toolchain/riscv-gcc/libgcc/soft-fp/divdf3.c:45 (discriminator 32)
800079d0:	4775                	li	a4,29
800079d2:	ff858793          	addi	a5,a1,-8
800079d6:	8f15                	sub	a4,a4,a3
800079d8:	00f41533          	sll	a0,s0,a5
800079dc:	00ecd733          	srl	a4,s9,a4
800079e0:	00a76433          	or	s0,a4,a0
800079e4:	00fc97b3          	sll	a5,s9,a5
/Local/xl_ci/toolchain/riscv-gnu-toolchain/riscv-gcc/libgcc/soft-fp/divdf3.c:45 (discriminator 41)
800079e8:	c0d00713          	li	a4,-1011
800079ec:	40b70533          	sub	a0,a4,a1
800079f0:	b759                	j	80007976 <__divdf3+0x106>
/Local/xl_ci/toolchain/riscv-gnu-toolchain/riscv-gcc/libgcc/soft-fp/divdf3.c:45 (discriminator 24)
800079f2:	8566                	mv	a0,s9
800079f4:	af3fc0ef          	jal	ra,800044e6 <__clzsi2>
800079f8:	02050593          	addi	a1,a0,32
800079fc:	b7e9                	j	800079c6 <__divdf3+0x156>
/Local/xl_ci/toolchain/riscv-gnu-toolchain/riscv-gcc/libgcc/soft-fp/divdf3.c:45 (discriminator 33)
800079fe:	fd858513          	addi	a0,a1,-40
80007a02:	00ac9433          	sll	s0,s9,a0
80007a06:	4781                	li	a5,0
80007a08:	b7c5                	j	800079e8 <__divdf3+0x178>
/Local/xl_ci/toolchain/riscv-gnu-toolchain/riscv-gcc/libgcc/soft-fp/divdf3.c:45 (discriminator 3)
80007a0a:	01946633          	or	a2,s0,s9
80007a0e:	ce19                	beqz	a2,80007a2c <__divdf3+0x1bc>
/Local/xl_ci/toolchain/riscv-gnu-toolchain/riscv-gcc/libgcc/soft-fp/divdf3.c:45 (discriminator 44)
80007a10:	00080737          	lui	a4,0x80
80007a14:	8f61                	and	a4,a4,s0
80007a16:	7ff00513          	li	a0,2047
80007a1a:	ef19                	bnez	a4,80007a38 <__divdf3+0x1c8>
/Local/xl_ci/toolchain/riscv-gnu-toolchain/riscv-gcc/libgcc/soft-fp/divdf3.c:45
80007a1c:	470d                	li	a4,3
80007a1e:	44c1                	li	s1,16
80007a20:	bfa1                	j	80007978 <__divdf3+0x108>
80007a22:	4401                	li	s0,0
80007a24:	4781                	li	a5,0
80007a26:	4501                	li	a0,0
80007a28:	4705                	li	a4,1
80007a2a:	b7b9                	j	80007978 <__divdf3+0x108>
80007a2c:	4401                	li	s0,0
80007a2e:	4781                	li	a5,0
80007a30:	7ff00513          	li	a0,2047
80007a34:	4709                	li	a4,2
80007a36:	b789                	j	80007978 <__divdf3+0x108>
80007a38:	470d                	li	a4,3
80007a3a:	bf3d                	j	80007978 <__divdf3+0x108>
/Local/xl_ci/toolchain/riscv-gnu-toolchain/riscv-gcc/libgcc/soft-fp/divdf3.c:46 (discriminator 2)
80007a3c:	01746663          	bltu	s0,s7,80007a48 <__divdf3+0x1d8>
/Local/xl_ci/toolchain/riscv-gnu-toolchain/riscv-gcc/libgcc/soft-fp/divdf3.c:46 (discriminator 11)
80007a40:	268b9463          	bne	s7,s0,80007ca8 <__divdf3+0x438>
/Local/xl_ci/toolchain/riscv-gnu-toolchain/riscv-gcc/libgcc/soft-fp/divdf3.c:46 (discriminator 12)
80007a44:	26f9e263          	bltu	s3,a5,80007ca8 <__divdf3+0x438>
/Local/xl_ci/toolchain/riscv-gnu-toolchain/riscv-gcc/libgcc/soft-fp/divdf3.c:46 (discriminator 14)
80007a48:	01fb9513          	slli	a0,s7,0x1f
80007a4c:	0019d713          	srli	a4,s3,0x1
80007a50:	01f99693          	slli	a3,s3,0x1f
80007a54:	001bdb93          	srli	s7,s7,0x1
80007a58:	00e569b3          	or	s3,a0,a4
/Local/xl_ci/toolchain/riscv-gnu-toolchain/riscv-gcc/libgcc/soft-fp/divdf3.c:46 (discriminator 19)
80007a5c:	00841513          	slli	a0,s0,0x8
80007a60:	0187d813          	srli	a6,a5,0x18
80007a64:	00a86833          	or	a6,a6,a0
80007a68:	8141                	srli	a0,a0,0x10
80007a6a:	02abde33          	divu	t3,s7,a0
80007a6e:	01081f13          	slli	t5,a6,0x10
80007a72:	010f5f13          	srli	t5,t5,0x10
80007a76:	00879893          	slli	a7,a5,0x8
80007a7a:	0109d793          	srli	a5,s3,0x10
80007a7e:	02abfbb3          	remu	s7,s7,a0
80007a82:	8372                	mv	t1,t3
80007a84:	03cf0733          	mul	a4,t5,t3
80007a88:	0bc2                	slli	s7,s7,0x10
80007a8a:	0177e7b3          	or	a5,a5,s7
80007a8e:	00e7fc63          	bgeu	a5,a4,80007aa6 <__divdf3+0x236>
/Local/xl_ci/toolchain/riscv-gnu-toolchain/riscv-gcc/libgcc/soft-fp/divdf3.c:46 (discriminator 22)
80007a92:	97c2                	add	a5,a5,a6
80007a94:	fffe0313          	addi	t1,t3,-1 # ffff <__stack_size+0xf7ff>
80007a98:	0107e763          	bltu	a5,a6,80007aa6 <__divdf3+0x236>
/Local/xl_ci/toolchain/riscv-gnu-toolchain/riscv-gcc/libgcc/soft-fp/divdf3.c:46 (discriminator 24)
80007a9c:	00e7f563          	bgeu	a5,a4,80007aa6 <__divdf3+0x236>
/Local/xl_ci/toolchain/riscv-gnu-toolchain/riscv-gcc/libgcc/soft-fp/divdf3.c:46 (discriminator 26)
80007aa0:	ffee0313          	addi	t1,t3,-2
80007aa4:	97c2                	add	a5,a5,a6
/Local/xl_ci/toolchain/riscv-gnu-toolchain/riscv-gcc/libgcc/soft-fp/divdf3.c:46 (discriminator 28)
80007aa6:	8f99                	sub	a5,a5,a4
80007aa8:	02a7deb3          	divu	t4,a5,a0
80007aac:	01099713          	slli	a4,s3,0x10
80007ab0:	8341                	srli	a4,a4,0x10
80007ab2:	02a7f7b3          	remu	a5,a5,a0
80007ab6:	89f6                	mv	s3,t4
80007ab8:	03df0e33          	mul	t3,t5,t4
80007abc:	07c2                	slli	a5,a5,0x10
80007abe:	8f5d                	or	a4,a4,a5
80007ac0:	01c77c63          	bgeu	a4,t3,80007ad8 <__divdf3+0x268>
/Local/xl_ci/toolchain/riscv-gnu-toolchain/riscv-gcc/libgcc/soft-fp/divdf3.c:46 (discriminator 29)
80007ac4:	9742                	add	a4,a4,a6
80007ac6:	fffe8993          	addi	s3,t4,-1
80007aca:	01076763          	bltu	a4,a6,80007ad8 <__divdf3+0x268>
/Local/xl_ci/toolchain/riscv-gnu-toolchain/riscv-gcc/libgcc/soft-fp/divdf3.c:46 (discriminator 31)
80007ace:	01c77563          	bgeu	a4,t3,80007ad8 <__divdf3+0x268>
/Local/xl_ci/toolchain/riscv-gnu-toolchain/riscv-gcc/libgcc/soft-fp/divdf3.c:46 (discriminator 33)
80007ad2:	ffee8993          	addi	s3,t4,-2
80007ad6:	9742                	add	a4,a4,a6
/Local/xl_ci/toolchain/riscv-gnu-toolchain/riscv-gcc/libgcc/soft-fp/divdf3.c:46 (discriminator 35)
80007ad8:	0342                	slli	t1,t1,0x10
80007ada:	013369b3          	or	s3,t1,s3
80007ade:	6341                	lui	t1,0x10
80007ae0:	fff30e93          	addi	t4,t1,-1 # ffff <__stack_size+0xf7ff>
80007ae4:	0109d293          	srli	t0,s3,0x10
80007ae8:	0108df93          	srli	t6,a7,0x10
80007aec:	41c70733          	sub	a4,a4,t3
80007af0:	01d9fe33          	and	t3,s3,t4
80007af4:	01d8feb3          	and	t4,a7,t4
80007af8:	03de07b3          	mul	a5,t3,t4
80007afc:	03d28433          	mul	s0,t0,t4
80007b00:	03cf8e33          	mul	t3,t6,t3
80007b04:	008e03b3          	add	t2,t3,s0
80007b08:	0107de13          	srli	t3,a5,0x10
80007b0c:	9e1e                	add	t3,t3,t2
80007b0e:	03f282b3          	mul	t0,t0,t6
80007b12:	008e7363          	bgeu	t3,s0,80007b18 <__divdf3+0x2a8>
/Local/xl_ci/toolchain/riscv-gnu-toolchain/riscv-gcc/libgcc/soft-fp/divdf3.c:46 (discriminator 36)
80007b16:	929a                	add	t0,t0,t1
/Local/xl_ci/toolchain/riscv-gnu-toolchain/riscv-gcc/libgcc/soft-fp/divdf3.c:46 (discriminator 38)
80007b18:	63c1                	lui	t2,0x10
80007b1a:	010e5313          	srli	t1,t3,0x10
80007b1e:	13fd                	addi	t2,t2,-1
80007b20:	929a                	add	t0,t0,t1
80007b22:	007e7333          	and	t1,t3,t2
80007b26:	0342                	slli	t1,t1,0x10
80007b28:	0077f7b3          	and	a5,a5,t2
80007b2c:	933e                	add	t1,t1,a5
80007b2e:	00576763          	bltu	a4,t0,80007b3c <__divdf3+0x2cc>
/Local/xl_ci/toolchain/riscv-gnu-toolchain/riscv-gcc/libgcc/soft-fp/divdf3.c:46 (discriminator 40)
80007b32:	844e                	mv	s0,s3
80007b34:	02571e63          	bne	a4,t0,80007b70 <__divdf3+0x300>
/Local/xl_ci/toolchain/riscv-gnu-toolchain/riscv-gcc/libgcc/soft-fp/divdf3.c:46 (discriminator 41)
80007b38:	0266fc63          	bgeu	a3,t1,80007b70 <__divdf3+0x300>
/Local/xl_ci/toolchain/riscv-gnu-toolchain/riscv-gcc/libgcc/soft-fp/divdf3.c:46 (discriminator 43)
80007b3c:	96c6                	add	a3,a3,a7
80007b3e:	0116b7b3          	sltu	a5,a3,a7
80007b42:	97c2                	add	a5,a5,a6
80007b44:	973e                	add	a4,a4,a5
80007b46:	fff98413          	addi	s0,s3,-1
80007b4a:	00e86663          	bltu	a6,a4,80007b56 <__divdf3+0x2e6>
/Local/xl_ci/toolchain/riscv-gnu-toolchain/riscv-gcc/libgcc/soft-fp/divdf3.c:46 (discriminator 46)
80007b4e:	02e81163          	bne	a6,a4,80007b70 <__divdf3+0x300>
/Local/xl_ci/toolchain/riscv-gnu-toolchain/riscv-gcc/libgcc/soft-fp/divdf3.c:46 (discriminator 47)
80007b52:	0116ef63          	bltu	a3,a7,80007b70 <__divdf3+0x300>
/Local/xl_ci/toolchain/riscv-gnu-toolchain/riscv-gcc/libgcc/soft-fp/divdf3.c:46 (discriminator 49)
80007b56:	00576663          	bltu	a4,t0,80007b62 <__divdf3+0x2f2>
/Local/xl_ci/toolchain/riscv-gnu-toolchain/riscv-gcc/libgcc/soft-fp/divdf3.c:46 (discriminator 52)
80007b5a:	00e29b63          	bne	t0,a4,80007b70 <__divdf3+0x300>
/Local/xl_ci/toolchain/riscv-gnu-toolchain/riscv-gcc/libgcc/soft-fp/divdf3.c:46 (discriminator 53)
80007b5e:	0066f963          	bgeu	a3,t1,80007b70 <__divdf3+0x300>
/Local/xl_ci/toolchain/riscv-gnu-toolchain/riscv-gcc/libgcc/soft-fp/divdf3.c:46 (discriminator 55)
80007b62:	96c6                	add	a3,a3,a7
80007b64:	0116b7b3          	sltu	a5,a3,a7
80007b68:	97c2                	add	a5,a5,a6
80007b6a:	ffe98413          	addi	s0,s3,-2
80007b6e:	973e                	add	a4,a4,a5
/Local/xl_ci/toolchain/riscv-gnu-toolchain/riscv-gcc/libgcc/soft-fp/divdf3.c:46 (discriminator 57)
80007b70:	40668333          	sub	t1,a3,t1
80007b74:	40570733          	sub	a4,a4,t0
80007b78:	0066b6b3          	sltu	a3,a3,t1
80007b7c:	8f15                	sub	a4,a4,a3
80007b7e:	57fd                	li	a5,-1
80007b80:	0ee80763          	beq	a6,a4,80007c6e <__divdf3+0x3fe>
/Local/xl_ci/toolchain/riscv-gnu-toolchain/riscv-gcc/libgcc/soft-fp/divdf3.c:46 (discriminator 59)
80007b84:	02a752b3          	divu	t0,a4,a0
80007b88:	01035793          	srli	a5,t1,0x10
80007b8c:	02a77733          	remu	a4,a4,a0
80007b90:	8696                	mv	a3,t0
80007b92:	025f0e33          	mul	t3,t5,t0
80007b96:	0742                	slli	a4,a4,0x10
80007b98:	8f5d                	or	a4,a4,a5
80007b9a:	01c77c63          	bgeu	a4,t3,80007bb2 <__divdf3+0x342>
/Local/xl_ci/toolchain/riscv-gnu-toolchain/riscv-gcc/libgcc/soft-fp/divdf3.c:46 (discriminator 61)
80007b9e:	9742                	add	a4,a4,a6
80007ba0:	fff28693          	addi	a3,t0,-1
80007ba4:	01076763          	bltu	a4,a6,80007bb2 <__divdf3+0x342>
/Local/xl_ci/toolchain/riscv-gnu-toolchain/riscv-gcc/libgcc/soft-fp/divdf3.c:46 (discriminator 63)
80007ba8:	01c77563          	bgeu	a4,t3,80007bb2 <__divdf3+0x342>
/Local/xl_ci/toolchain/riscv-gnu-toolchain/riscv-gcc/libgcc/soft-fp/divdf3.c:46 (discriminator 65)
80007bac:	ffe28693          	addi	a3,t0,-2
80007bb0:	9742                	add	a4,a4,a6
/Local/xl_ci/toolchain/riscv-gnu-toolchain/riscv-gcc/libgcc/soft-fp/divdf3.c:46 (discriminator 67)
80007bb2:	41c70733          	sub	a4,a4,t3
80007bb6:	02a75e33          	divu	t3,a4,a0
80007bba:	01031793          	slli	a5,t1,0x10
80007bbe:	83c1                	srli	a5,a5,0x10
80007bc0:	02a77733          	remu	a4,a4,a0
80007bc4:	03cf0f33          	mul	t5,t5,t3
80007bc8:	0742                	slli	a4,a4,0x10
80007bca:	8f5d                	or	a4,a4,a5
80007bcc:	87f2                	mv	a5,t3
80007bce:	01e77c63          	bgeu	a4,t5,80007be6 <__divdf3+0x376>
/Local/xl_ci/toolchain/riscv-gnu-toolchain/riscv-gcc/libgcc/soft-fp/divdf3.c:46 (discriminator 68)
80007bd2:	9742                	add	a4,a4,a6
80007bd4:	fffe0793          	addi	a5,t3,-1
80007bd8:	01076763          	bltu	a4,a6,80007be6 <__divdf3+0x376>
/Local/xl_ci/toolchain/riscv-gnu-toolchain/riscv-gcc/libgcc/soft-fp/divdf3.c:46 (discriminator 70)
80007bdc:	01e77563          	bgeu	a4,t5,80007be6 <__divdf3+0x376>
/Local/xl_ci/toolchain/riscv-gnu-toolchain/riscv-gcc/libgcc/soft-fp/divdf3.c:46 (discriminator 72)
80007be0:	ffee0793          	addi	a5,t3,-2
80007be4:	9742                	add	a4,a4,a6
/Local/xl_ci/toolchain/riscv-gnu-toolchain/riscv-gcc/libgcc/soft-fp/divdf3.c:46 (discriminator 74)
80007be6:	06c2                	slli	a3,a3,0x10
80007be8:	8edd                	or	a3,a3,a5
80007bea:	01069793          	slli	a5,a3,0x10
80007bee:	83c1                	srli	a5,a5,0x10
80007bf0:	0106d313          	srli	t1,a3,0x10
80007bf4:	026f8e33          	mul	t3,t6,t1
80007bf8:	41e70733          	sub	a4,a4,t5
80007bfc:	02ff8fb3          	mul	t6,t6,a5
80007c00:	02fe8f33          	mul	t5,t4,a5
80007c04:	03d30eb3          	mul	t4,t1,t4
80007c08:	010f5793          	srli	a5,t5,0x10
80007c0c:	9ff6                	add	t6,t6,t4
80007c0e:	97fe                	add	a5,a5,t6
80007c10:	01d7f463          	bgeu	a5,t4,80007c18 <__divdf3+0x3a8>
/Local/xl_ci/toolchain/riscv-gnu-toolchain/riscv-gcc/libgcc/soft-fp/divdf3.c:46 (discriminator 75)
80007c14:	6541                	lui	a0,0x10
80007c16:	9e2a                	add	t3,t3,a0
/Local/xl_ci/toolchain/riscv-gnu-toolchain/riscv-gcc/libgcc/soft-fp/divdf3.c:46 (discriminator 77)
80007c18:	0107d313          	srli	t1,a5,0x10
80007c1c:	9372                	add	t1,t1,t3
80007c1e:	6e41                	lui	t3,0x10
80007c20:	1e7d                	addi	t3,t3,-1
80007c22:	01c7f533          	and	a0,a5,t3
80007c26:	0542                	slli	a0,a0,0x10
80007c28:	01cf7f33          	and	t5,t5,t3
80007c2c:	957a                	add	a0,a0,t5
80007c2e:	00676663          	bltu	a4,t1,80007c3a <__divdf3+0x3ca>
/Local/xl_ci/toolchain/riscv-gnu-toolchain/riscv-gcc/libgcc/soft-fp/divdf3.c:46 (discriminator 79)
80007c32:	2c671263          	bne	a4,t1,80007ef6 <__divdf3+0x686>
/Local/xl_ci/toolchain/riscv-gnu-toolchain/riscv-gcc/libgcc/soft-fp/divdf3.c:46 (discriminator 80)
80007c36:	87b6                	mv	a5,a3
80007c38:	c91d                	beqz	a0,80007c6e <__divdf3+0x3fe>
/Local/xl_ci/toolchain/riscv-gnu-toolchain/riscv-gcc/libgcc/soft-fp/divdf3.c:46 (discriminator 82)
80007c3a:	9742                	add	a4,a4,a6
80007c3c:	fff68793          	addi	a5,a3,-1
80007c40:	03076163          	bltu	a4,a6,80007c62 <__divdf3+0x3f2>
/Local/xl_ci/toolchain/riscv-gnu-toolchain/riscv-gcc/libgcc/soft-fp/divdf3.c:46 (discriminator 88)
80007c44:	00676663          	bltu	a4,t1,80007c50 <__divdf3+0x3e0>
/Local/xl_ci/toolchain/riscv-gnu-toolchain/riscv-gcc/libgcc/soft-fp/divdf3.c:46 (discriminator 91)
80007c48:	2a671663          	bne	a4,t1,80007ef4 <__divdf3+0x684>
/Local/xl_ci/toolchain/riscv-gnu-toolchain/riscv-gcc/libgcc/soft-fp/divdf3.c:46 (discriminator 92)
80007c4c:	00a8fd63          	bgeu	a7,a0,80007c66 <__divdf3+0x3f6>
/Local/xl_ci/toolchain/riscv-gnu-toolchain/riscv-gcc/libgcc/soft-fp/divdf3.c:46 (discriminator 94)
80007c50:	ffe68793          	addi	a5,a3,-2
80007c54:	00189693          	slli	a3,a7,0x1
80007c58:	0116b8b3          	sltu	a7,a3,a7
80007c5c:	9846                	add	a6,a6,a7
80007c5e:	9742                	add	a4,a4,a6
80007c60:	88b6                	mv	a7,a3
/Local/xl_ci/toolchain/riscv-gnu-toolchain/riscv-gcc/libgcc/soft-fp/divdf3.c:46 (discriminator 96)
80007c62:	00671463          	bne	a4,t1,80007c6a <__divdf3+0x3fa>
/Local/xl_ci/toolchain/riscv-gnu-toolchain/riscv-gcc/libgcc/soft-fp/divdf3.c:46 (discriminator 98)
80007c66:	00a88463          	beq	a7,a0,80007c6e <__divdf3+0x3fe>
/Local/xl_ci/toolchain/riscv-gnu-toolchain/riscv-gcc/libgcc/soft-fp/divdf3.c:46 (discriminator 99)
80007c6a:	0017e793          	ori	a5,a5,1
/Local/xl_ci/toolchain/riscv-gnu-toolchain/riscv-gcc/libgcc/soft-fp/divdf3.c:47 (discriminator 2)
80007c6e:	3ff58813          	addi	a6,a1,1023
80007c72:	11005863          	blez	a6,80007d82 <__divdf3+0x512>
/Local/xl_ci/toolchain/riscv-gnu-toolchain/riscv-gcc/libgcc/soft-fp/divdf3.c:47 (discriminator 6)
80007c76:	0077f713          	andi	a4,a5,7
80007c7a:	cf25                	beqz	a4,80007cf2 <__divdf3+0x482>
/Local/xl_ci/toolchain/riscv-gnu-toolchain/riscv-gcc/libgcc/soft-fp/divdf3.c:47 (discriminator 8)
80007c7c:	4709                	li	a4,2
80007c7e:	0014e493          	ori	s1,s1,1
80007c82:	06e90763          	beq	s2,a4,80007cf0 <__divdf3+0x480>
80007c86:	470d                	li	a4,3
80007c88:	06e90063          	beq	s2,a4,80007ce8 <__divdf3+0x478>
80007c8c:	06091363          	bnez	s2,80007cf2 <__divdf3+0x482>
/Local/xl_ci/toolchain/riscv-gnu-toolchain/riscv-gcc/libgcc/soft-fp/divdf3.c:47
80007c90:	00f7f713          	andi	a4,a5,15
80007c94:	4691                	li	a3,4
80007c96:	04d70e63          	beq	a4,a3,80007cf2 <__divdf3+0x482>
/Local/xl_ci/toolchain/riscv-gnu-toolchain/riscv-gcc/libgcc/soft-fp/divdf3.c:47 (discriminator 10)
80007c9a:	00478713          	addi	a4,a5,4 # 80004 <__stack_size+0x7f804>
/Local/xl_ci/toolchain/riscv-gnu-toolchain/riscv-gcc/libgcc/soft-fp/divdf3.c:47 (discriminator 21)
80007c9e:	00f737b3          	sltu	a5,a4,a5
80007ca2:	943e                	add	s0,s0,a5
80007ca4:	87ba                	mv	a5,a4
80007ca6:	a0b1                	j	80007cf2 <__divdf3+0x482>
/Local/xl_ci/toolchain/riscv-gnu-toolchain/riscv-gcc/libgcc/soft-fp/divdf3.c:46 (discriminator 15)
80007ca8:	15fd                	addi	a1,a1,-1
80007caa:	4681                	li	a3,0
80007cac:	bb45                	j	80007a5c <__divdf3+0x1ec>
/Local/xl_ci/toolchain/riscv-gnu-toolchain/riscv-gcc/libgcc/soft-fp/divdf3.c:44 (discriminator 8)
80007cae:	8652                	mv	a2,s4
/Local/xl_ci/toolchain/riscv-gnu-toolchain/riscv-gcc/libgcc/soft-fp/divdf3.c:46 (discriminator 8)
80007cb0:	845e                	mv	s0,s7
80007cb2:	87ce                	mv	a5,s3
80007cb4:	8762                	mv	a4,s8
/Local/xl_ci/toolchain/riscv-gnu-toolchain/riscv-gcc/libgcc/soft-fp/divdf3.c:47 (discriminator 108)
80007cb6:	468d                	li	a3,3
80007cb8:	22d70763          	beq	a4,a3,80007ee6 <__divdf3+0x676>
/Local/xl_ci/toolchain/riscv-gnu-toolchain/riscv-gcc/libgcc/soft-fp/divdf3.c:47
80007cbc:	4685                	li	a3,1
80007cbe:	22d70163          	beq	a4,a3,80007ee0 <__divdf3+0x670>
80007cc2:	4689                	li	a3,2
80007cc4:	fad715e3          	bne	a4,a3,80007c6e <__divdf3+0x3fe>
80007cc8:	a029                	j	80007cd2 <__divdf3+0x462>
/Local/xl_ci/toolchain/riscv-gnu-toolchain/riscv-gcc/libgcc/soft-fp/divdf3.c:45 (discriminator 5)
80007cca:	8656                	mv	a2,s5
/Local/xl_ci/toolchain/riscv-gnu-toolchain/riscv-gcc/libgcc/soft-fp/divdf3.c:46 (discriminator 5)
80007ccc:	b7ed                	j	80007cb6 <__divdf3+0x446>
/Local/xl_ci/toolchain/riscv-gnu-toolchain/riscv-gcc/libgcc/soft-fp/divdf3.c:46 (discriminator 3)
80007cce:	0084e493          	ori	s1,s1,8
/Local/xl_ci/toolchain/riscv-gnu-toolchain/riscv-gcc/libgcc/soft-fp/divdf3.c:47
80007cd2:	4501                	li	a0,0
80007cd4:	4781                	li	a5,0
80007cd6:	7ff00713          	li	a4,2047
80007cda:	a091                	j	80007d1e <__divdf3+0x4ae>
/Local/xl_ci/toolchain/riscv-gnu-toolchain/riscv-gcc/libgcc/soft-fp/divdf3.c:46
80007cdc:	00080437          	lui	s0,0x80
80007ce0:	4781                	li	a5,0
80007ce2:	4601                	li	a2,0
80007ce4:	470d                	li	a4,3
80007ce6:	bfc1                	j	80007cb6 <__divdf3+0x446>
/Local/xl_ci/toolchain/riscv-gnu-toolchain/riscv-gcc/libgcc/soft-fp/divdf3.c:47
80007ce8:	e609                	bnez	a2,80007cf2 <__divdf3+0x482>
/Local/xl_ci/toolchain/riscv-gnu-toolchain/riscv-gcc/libgcc/soft-fp/divdf3.c:47 (discriminator 21)
80007cea:	00878713          	addi	a4,a5,8
80007cee:	bf45                	j	80007c9e <__divdf3+0x42e>
/Local/xl_ci/toolchain/riscv-gnu-toolchain/riscv-gcc/libgcc/soft-fp/divdf3.c:47
80007cf0:	fe6d                	bnez	a2,80007cea <__divdf3+0x47a>
/Local/xl_ci/toolchain/riscv-gnu-toolchain/riscv-gcc/libgcc/soft-fp/divdf3.c:47 (discriminator 9)
80007cf2:	01000737          	lui	a4,0x1000
80007cf6:	8f61                	and	a4,a4,s0
80007cf8:	c719                	beqz	a4,80007d06 <__divdf3+0x496>
/Local/xl_ci/toolchain/riscv-gnu-toolchain/riscv-gcc/libgcc/soft-fp/divdf3.c:47 (discriminator 24)
80007cfa:	ff000737          	lui	a4,0xff000
80007cfe:	177d                	addi	a4,a4,-1
80007d00:	8c79                	and	s0,s0,a4
80007d02:	40058813          	addi	a6,a1,1024
/Local/xl_ci/toolchain/riscv-gnu-toolchain/riscv-gcc/libgcc/soft-fp/divdf3.c:47 (discriminator 26)
80007d06:	7fe00713          	li	a4,2046
80007d0a:	05074663          	blt	a4,a6,80007d56 <__divdf3+0x4e6>
/Local/xl_ci/toolchain/riscv-gnu-toolchain/riscv-gcc/libgcc/soft-fp/divdf3.c:47
80007d0e:	0037d713          	srli	a4,a5,0x3
80007d12:	01d41793          	slli	a5,s0,0x1d
80007d16:	8fd9                	or	a5,a5,a4
80007d18:	00345513          	srli	a0,s0,0x3
80007d1c:	8742                	mv	a4,a6
/Local/xl_ci/toolchain/riscv-gnu-toolchain/riscv-gcc/libgcc/soft-fp/divdf3.c:47 (discriminator 119)
80007d1e:	0752                	slli	a4,a4,0x14
80007d20:	7ff006b7          	lui	a3,0x7ff00
80007d24:	0532                	slli	a0,a0,0xc
80007d26:	8f75                	and	a4,a4,a3
80007d28:	8131                	srli	a0,a0,0xc
80007d2a:	8d59                	or	a0,a0,a4
80007d2c:	067e                	slli	a2,a2,0x1f
80007d2e:	00c56733          	or	a4,a0,a2
80007d32:	85ba                	mv	a1,a4
80007d34:	853e                	mv	a0,a5
/Local/xl_ci/toolchain/riscv-gnu-toolchain/riscv-gcc/libgcc/soft-fp/divdf3.c:48 (discriminator 119)
80007d36:	c099                	beqz	s1,80007d3c <__divdf3+0x4cc>
/Local/xl_ci/toolchain/riscv-gnu-toolchain/riscv-gcc/libgcc/soft-fp/divdf3.c:48 (discriminator 1)
80007d38:	0014a073          	csrs	fflags,s1
/Local/xl_ci/toolchain/riscv-gnu-toolchain/riscv-gcc/libgcc/soft-fp/divdf3.c:51
80007d3c:	50b2                	lw	ra,44(sp)
80007d3e:	5422                	lw	s0,40(sp)
80007d40:	5492                	lw	s1,36(sp)
80007d42:	5902                	lw	s2,32(sp)
80007d44:	49f2                	lw	s3,28(sp)
80007d46:	4a62                	lw	s4,24(sp)
80007d48:	4ad2                	lw	s5,20(sp)
80007d4a:	4b42                	lw	s6,16(sp)
80007d4c:	4bb2                	lw	s7,12(sp)
80007d4e:	4c22                	lw	s8,8(sp)
80007d50:	4c92                	lw	s9,4(sp)
80007d52:	6145                	addi	sp,sp,48
80007d54:	8082                	ret
/Local/xl_ci/toolchain/riscv-gnu-toolchain/riscv-gcc/libgcc/soft-fp/divdf3.c:47
80007d56:	4789                	li	a5,2
80007d58:	02f90363          	beq	s2,a5,80007d7e <__divdf3+0x50e>
80007d5c:	478d                	li	a5,3
80007d5e:	00f90863          	beq	s2,a5,80007d6e <__divdf3+0x4fe>
80007d62:	00091763          	bnez	s2,80007d70 <__divdf3+0x500>
80007d66:	4781                	li	a5,0
80007d68:	7ff00713          	li	a4,2047
80007d6c:	a029                	j	80007d76 <__divdf3+0x506>
80007d6e:	de65                	beqz	a2,80007d66 <__divdf3+0x4f6>
80007d70:	57fd                	li	a5,-1
80007d72:	7fe00713          	li	a4,2046
/Local/xl_ci/toolchain/riscv-gnu-toolchain/riscv-gcc/libgcc/soft-fp/divdf3.c:47 (discriminator 38)
80007d76:	0054e493          	ori	s1,s1,5
80007d7a:	853e                	mv	a0,a5
80007d7c:	b74d                	j	80007d1e <__divdf3+0x4ae>
/Local/xl_ci/toolchain/riscv-gnu-toolchain/riscv-gcc/libgcc/soft-fp/divdf3.c:47
80007d7e:	f665                	bnez	a2,80007d66 <__divdf3+0x4f6>
80007d80:	bfc5                	j	80007d70 <__divdf3+0x500>
/Local/xl_ci/toolchain/riscv-gnu-toolchain/riscv-gcc/libgcc/soft-fp/divdf3.c:47 (discriminator 7)
80007d82:	4705                	li	a4,1
80007d84:	04081463          	bnez	a6,80007dcc <__divdf3+0x55c>
/Local/xl_ci/toolchain/riscv-gnu-toolchain/riscv-gcc/libgcc/soft-fp/divdf3.c:47 (discriminator 39)
80007d88:	0077f693          	andi	a3,a5,7
80007d8c:	8722                	mv	a4,s0
80007d8e:	ca9d                	beqz	a3,80007dc4 <__divdf3+0x554>
/Local/xl_ci/toolchain/riscv-gnu-toolchain/riscv-gcc/libgcc/soft-fp/divdf3.c:47 (discriminator 41)
80007d90:	4689                	li	a3,2
80007d92:	0014e493          	ori	s1,s1,1
80007d96:	02d90663          	beq	s2,a3,80007dc2 <__divdf3+0x552>
80007d9a:	468d                	li	a3,3
80007d9c:	00d90f63          	beq	s2,a3,80007dba <__divdf3+0x54a>
80007da0:	02091263          	bnez	s2,80007dc4 <__divdf3+0x554>
/Local/xl_ci/toolchain/riscv-gnu-toolchain/riscv-gcc/libgcc/soft-fp/divdf3.c:47
80007da4:	00f7f693          	andi	a3,a5,15
80007da8:	4511                	li	a0,4
80007daa:	00a68d63          	beq	a3,a0,80007dc4 <__divdf3+0x554>
/Local/xl_ci/toolchain/riscv-gnu-toolchain/riscv-gcc/libgcc/soft-fp/divdf3.c:47 (discriminator 43)
80007dae:	ffc7b713          	sltiu	a4,a5,-4
/Local/xl_ci/toolchain/riscv-gnu-toolchain/riscv-gcc/libgcc/soft-fp/divdf3.c:47 (discriminator 54)
80007db2:	00174713          	xori	a4,a4,1
80007db6:	9722                	add	a4,a4,s0
80007db8:	a031                	j	80007dc4 <__divdf3+0x554>
/Local/xl_ci/toolchain/riscv-gnu-toolchain/riscv-gcc/libgcc/soft-fp/divdf3.c:47
80007dba:	e609                	bnez	a2,80007dc4 <__divdf3+0x554>
/Local/xl_ci/toolchain/riscv-gnu-toolchain/riscv-gcc/libgcc/soft-fp/divdf3.c:47 (discriminator 54)
80007dbc:	ff87b713          	sltiu	a4,a5,-8
80007dc0:	bfcd                	j	80007db2 <__divdf3+0x542>
/Local/xl_ci/toolchain/riscv-gnu-toolchain/riscv-gcc/libgcc/soft-fp/divdf3.c:47
80007dc2:	fe6d                	bnez	a2,80007dbc <__divdf3+0x54c>
/Local/xl_ci/toolchain/riscv-gnu-toolchain/riscv-gcc/libgcc/soft-fp/divdf3.c:47 (discriminator 42)
80007dc4:	8361                	srli	a4,a4,0x18
80007dc6:	00174713          	xori	a4,a4,1
80007dca:	8b05                	andi	a4,a4,1
/Local/xl_ci/toolchain/riscv-gnu-toolchain/riscv-gcc/libgcc/soft-fp/divdf3.c:47 (discriminator 59)
80007dcc:	4505                	li	a0,1
80007dce:	41050533          	sub	a0,a0,a6
80007dd2:	03800693          	li	a3,56
80007dd6:	0ca6c263          	blt	a3,a0,80007e9a <__divdf3+0x62a>
/Local/xl_ci/toolchain/riscv-gnu-toolchain/riscv-gcc/libgcc/soft-fp/divdf3.c:47 (discriminator 60)
80007dda:	46fd                	li	a3,31
80007ddc:	04a6ca63          	blt	a3,a0,80007e30 <__divdf3+0x5c0>
/Local/xl_ci/toolchain/riscv-gnu-toolchain/riscv-gcc/libgcc/soft-fp/divdf3.c:47 (discriminator 62)
80007de0:	41e58593          	addi	a1,a1,1054
80007de4:	00a7d833          	srl	a6,a5,a0
80007de8:	00b416b3          	sll	a3,s0,a1
80007dec:	00b797b3          	sll	a5,a5,a1
80007df0:	0106e6b3          	or	a3,a3,a6
80007df4:	00f037b3          	snez	a5,a5
80007df8:	8fd5                	or	a5,a5,a3
80007dfa:	00a45533          	srl	a0,s0,a0
/Local/xl_ci/toolchain/riscv-gnu-toolchain/riscv-gcc/libgcc/soft-fp/divdf3.c:47 (discriminator 75)
80007dfe:	0077f693          	andi	a3,a5,7
80007e02:	c2ad                	beqz	a3,80007e64 <__divdf3+0x5f4>
/Local/xl_ci/toolchain/riscv-gnu-toolchain/riscv-gcc/libgcc/soft-fp/divdf3.c:47 (discriminator 76)
80007e04:	4689                	li	a3,2
80007e06:	0014e493          	ori	s1,s1,1
80007e0a:	04d90c63          	beq	s2,a3,80007e62 <__divdf3+0x5f2>
80007e0e:	468d                	li	a3,3
80007e10:	04d90563          	beq	s2,a3,80007e5a <__divdf3+0x5ea>
80007e14:	04091863          	bnez	s2,80007e64 <__divdf3+0x5f4>
/Local/xl_ci/toolchain/riscv-gnu-toolchain/riscv-gcc/libgcc/soft-fp/divdf3.c:47
80007e18:	00f7f693          	andi	a3,a5,15
80007e1c:	4591                	li	a1,4
80007e1e:	04b68363          	beq	a3,a1,80007e64 <__divdf3+0x5f4>
/Local/xl_ci/toolchain/riscv-gnu-toolchain/riscv-gcc/libgcc/soft-fp/divdf3.c:47 (discriminator 78)
80007e22:	00478693          	addi	a3,a5,4
/Local/xl_ci/toolchain/riscv-gnu-toolchain/riscv-gcc/libgcc/soft-fp/divdf3.c:47 (discriminator 89)
80007e26:	00f6b7b3          	sltu	a5,a3,a5
80007e2a:	953e                	add	a0,a0,a5
80007e2c:	87b6                	mv	a5,a3
80007e2e:	a81d                	j	80007e64 <__divdf3+0x5f4>
/Local/xl_ci/toolchain/riscv-gnu-toolchain/riscv-gcc/libgcc/soft-fp/divdf3.c:47 (discriminator 63)
80007e30:	5685                	li	a3,-31
80007e32:	410686b3          	sub	a3,a3,a6
80007e36:	02000893          	li	a7,32
80007e3a:	00d456b3          	srl	a3,s0,a3
80007e3e:	4801                	li	a6,0
80007e40:	01150663          	beq	a0,a7,80007e4c <__divdf3+0x5dc>
/Local/xl_ci/toolchain/riscv-gnu-toolchain/riscv-gcc/libgcc/soft-fp/divdf3.c:47 (discriminator 71)
80007e44:	43e58593          	addi	a1,a1,1086
80007e48:	00b41833          	sll	a6,s0,a1
/Local/xl_ci/toolchain/riscv-gnu-toolchain/riscv-gcc/libgcc/soft-fp/divdf3.c:47 (discriminator 74)
80007e4c:	00f867b3          	or	a5,a6,a5
80007e50:	00f037b3          	snez	a5,a5
80007e54:	8fd5                	or	a5,a5,a3
80007e56:	4501                	li	a0,0
80007e58:	b75d                	j	80007dfe <__divdf3+0x58e>
/Local/xl_ci/toolchain/riscv-gnu-toolchain/riscv-gcc/libgcc/soft-fp/divdf3.c:47
80007e5a:	e609                	bnez	a2,80007e64 <__divdf3+0x5f4>
/Local/xl_ci/toolchain/riscv-gnu-toolchain/riscv-gcc/libgcc/soft-fp/divdf3.c:47 (discriminator 89)
80007e5c:	00878693          	addi	a3,a5,8
80007e60:	b7d9                	j	80007e26 <__divdf3+0x5b6>
/Local/xl_ci/toolchain/riscv-gnu-toolchain/riscv-gcc/libgcc/soft-fp/divdf3.c:47
80007e62:	fe6d                	bnez	a2,80007e5c <__divdf3+0x5ec>
/Local/xl_ci/toolchain/riscv-gnu-toolchain/riscv-gcc/libgcc/soft-fp/divdf3.c:47 (discriminator 77)
80007e64:	008006b7          	lui	a3,0x800
80007e68:	8ee9                	and	a3,a3,a0
80007e6a:	ca81                	beqz	a3,80007e7a <__divdf3+0x60a>
/Local/xl_ci/toolchain/riscv-gnu-toolchain/riscv-gcc/libgcc/soft-fp/divdf3.c:47 (discriminator 92)
80007e6c:	0014e493          	ori	s1,s1,1
80007e70:	4501                	li	a0,0
80007e72:	4781                	li	a5,0
80007e74:	e305                	bnez	a4,80007e94 <__divdf3+0x624>
/Local/xl_ci/toolchain/riscv-gnu-toolchain/riscv-gcc/libgcc/soft-fp/divdf3.c:47
80007e76:	4705                	li	a4,1
80007e78:	b55d                	j	80007d1e <__divdf3+0x4ae>
/Local/xl_ci/toolchain/riscv-gnu-toolchain/riscv-gcc/libgcc/soft-fp/divdf3.c:47 (discriminator 93)
80007e7a:	0037d693          	srli	a3,a5,0x3
80007e7e:	01d51793          	slli	a5,a0,0x1d
80007e82:	8fd5                	or	a5,a5,a3
80007e84:	810d                	srli	a0,a0,0x3
80007e86:	e8070ce3          	beqz	a4,80007d1e <__divdf3+0x4ae>
/Local/xl_ci/toolchain/riscv-gnu-toolchain/riscv-gcc/libgcc/soft-fp/divdf3.c:47 (discriminator 96)
80007e8a:	0014f713          	andi	a4,s1,1
80007e8e:	e80708e3          	beqz	a4,80007d1e <__divdf3+0x4ae>
/Local/xl_ci/toolchain/riscv-gnu-toolchain/riscv-gcc/libgcc/soft-fp/divdf3.c:47
80007e92:	4701                	li	a4,0
/Local/xl_ci/toolchain/riscv-gnu-toolchain/riscv-gcc/libgcc/soft-fp/divdf3.c:47 (discriminator 97)
80007e94:	0024e493          	ori	s1,s1,2
80007e98:	b559                	j	80007d1e <__divdf3+0x4ae>
/Local/xl_ci/toolchain/riscv-gnu-toolchain/riscv-gcc/libgcc/soft-fp/divdf3.c:47 (discriminator 61)
80007e9a:	8fc1                	or	a5,a5,s0
80007e9c:	cf91                	beqz	a5,80007eb8 <__divdf3+0x648>
/Local/xl_ci/toolchain/riscv-gnu-toolchain/riscv-gcc/libgcc/soft-fp/divdf3.c:47 (discriminator 100)
80007e9e:	4789                	li	a5,2
80007ea0:	0014e493          	ori	s1,s1,1
80007ea4:	02f90363          	beq	s2,a5,80007eca <__divdf3+0x65a>
80007ea8:	478d                	li	a5,3
80007eaa:	00f90c63          	beq	s2,a5,80007ec2 <__divdf3+0x652>
/Local/xl_ci/toolchain/riscv-gnu-toolchain/riscv-gcc/libgcc/soft-fp/divdf3.c:47
80007eae:	4785                	li	a5,1
80007eb0:	00091363          	bnez	s2,80007eb6 <__divdf3+0x646>
80007eb4:	4795                	li	a5,5
/Local/xl_ci/toolchain/riscv-gnu-toolchain/riscv-gcc/libgcc/soft-fp/divdf3.c:47 (discriminator 101)
80007eb6:	838d                	srli	a5,a5,0x3
/Local/xl_ci/toolchain/riscv-gnu-toolchain/riscv-gcc/libgcc/soft-fp/divdf3.c:47 (discriminator 116)
80007eb8:	0024e493          	ori	s1,s1,2
80007ebc:	4501                	li	a0,0
/Local/xl_ci/toolchain/riscv-gnu-toolchain/riscv-gcc/libgcc/soft-fp/divdf3.c:47
80007ebe:	4701                	li	a4,0
80007ec0:	bdb9                	j	80007d1e <__divdf3+0x4ae>
80007ec2:	47a5                	li	a5,9
80007ec4:	da6d                	beqz	a2,80007eb6 <__divdf3+0x646>
80007ec6:	4785                	li	a5,1
80007ec8:	b7fd                	j	80007eb6 <__divdf3+0x646>
80007eca:	47a5                	li	a5,9
80007ecc:	f66d                	bnez	a2,80007eb6 <__divdf3+0x646>
80007ece:	bfe5                	j	80007ec6 <__divdf3+0x656>
80007ed0:	00080537          	lui	a0,0x80
80007ed4:	4781                	li	a5,0
80007ed6:	7ff00713          	li	a4,2047
80007eda:	4601                	li	a2,0
/Local/xl_ci/toolchain/riscv-gnu-toolchain/riscv-gcc/libgcc/soft-fp/divdf3.c:46
80007edc:	44c1                	li	s1,16
80007ede:	b581                	j	80007d1e <__divdf3+0x4ae>
/Local/xl_ci/toolchain/riscv-gnu-toolchain/riscv-gcc/libgcc/soft-fp/divdf3.c:47
80007ee0:	4501                	li	a0,0
80007ee2:	4781                	li	a5,0
80007ee4:	bfe9                	j	80007ebe <__divdf3+0x64e>
80007ee6:	00080537          	lui	a0,0x80
80007eea:	4781                	li	a5,0
80007eec:	7ff00713          	li	a4,2047
80007ef0:	4601                	li	a2,0
80007ef2:	b535                	j	80007d1e <__divdf3+0x4ae>
/Local/xl_ci/toolchain/riscv-gnu-toolchain/riscv-gcc/libgcc/soft-fp/divdf3.c:46
80007ef4:	86be                	mv	a3,a5
80007ef6:	87b6                	mv	a5,a3
80007ef8:	bb8d                	j	80007c6a <__divdf3+0x3fa>

80007efa <__eqdf2>:
__eqdf2():
/Local/xl_ci/toolchain/riscv-gnu-toolchain/riscv-gcc/libgcc/soft-fp/eqdf2.c:36
80007efa:	882a                	mv	a6,a0
/Local/xl_ci/toolchain/riscv-gnu-toolchain/riscv-gcc/libgcc/soft-fp/eqdf2.c:42
80007efc:	002027f3          	frrm	a5
/Local/xl_ci/toolchain/riscv-gnu-toolchain/riscv-gcc/libgcc/soft-fp/eqdf2.c:43
80007f00:	001007b7          	lui	a5,0x100
80007f04:	0145d893          	srli	a7,a1,0x14
80007f08:	17fd                	addi	a5,a5,-1
/Local/xl_ci/toolchain/riscv-gnu-toolchain/riscv-gcc/libgcc/soft-fp/eqdf2.c:44
80007f0a:	0146d313          	srli	t1,a3,0x14
80007f0e:	8e2a                	mv	t3,a0
/Local/xl_ci/toolchain/riscv-gnu-toolchain/riscv-gcc/libgcc/soft-fp/eqdf2.c:43
80007f10:	7ff8f893          	andi	a7,a7,2047
/Local/xl_ci/toolchain/riscv-gnu-toolchain/riscv-gcc/libgcc/soft-fp/eqdf2.c:45
80007f14:	7ff00513          	li	a0,2047
/Local/xl_ci/toolchain/riscv-gnu-toolchain/riscv-gcc/libgcc/soft-fp/eqdf2.c:43
80007f18:	00b7f733          	and	a4,a5,a1
80007f1c:	8eb2                	mv	t4,a2
/Local/xl_ci/toolchain/riscv-gnu-toolchain/riscv-gcc/libgcc/soft-fp/eqdf2.c:44
80007f1e:	8ff5                	and	a5,a5,a3
/Local/xl_ci/toolchain/riscv-gnu-toolchain/riscv-gcc/libgcc/soft-fp/eqdf2.c:43
80007f20:	81fd                	srli	a1,a1,0x1f
/Local/xl_ci/toolchain/riscv-gnu-toolchain/riscv-gcc/libgcc/soft-fp/eqdf2.c:44
80007f22:	7ff37313          	andi	t1,t1,2047
80007f26:	82fd                	srli	a3,a3,0x1f
/Local/xl_ci/toolchain/riscv-gnu-toolchain/riscv-gcc/libgcc/soft-fp/eqdf2.c:45
80007f28:	00a89863          	bne	a7,a0,80007f38 <__eqdf2+0x3e>
/Local/xl_ci/toolchain/riscv-gnu-toolchain/riscv-gcc/libgcc/soft-fp/eqdf2.c:45 (discriminator 20)
80007f2c:	01076533          	or	a0,a4,a6
80007f30:	e531                	bnez	a0,80007f7c <__eqdf2+0x82>
/Local/xl_ci/toolchain/riscv-gnu-toolchain/riscv-gcc/libgcc/soft-fp/eqdf2.c:45
80007f32:	07131463          	bne	t1,a7,80007f9a <__eqdf2+0xa0>
80007f36:	a019                	j	80007f3c <__eqdf2+0x42>
/Local/xl_ci/toolchain/riscv-gnu-toolchain/riscv-gcc/libgcc/soft-fp/eqdf2.c:45 (discriminator 23)
80007f38:	00a31563          	bne	t1,a0,80007f42 <__eqdf2+0x48>
/Local/xl_ci/toolchain/riscv-gnu-toolchain/riscv-gcc/libgcc/soft-fp/eqdf2.c:45 (discriminator 24)
80007f3c:	00c7e533          	or	a0,a5,a2
80007f40:	e515                	bnez	a0,80007f6c <__eqdf2+0x72>
/Local/xl_ci/toolchain/riscv-gnu-toolchain/riscv-gcc/libgcc/soft-fp/eqdf2.c:45 (discriminator 78)
80007f42:	4505                	li	a0,1
80007f44:	04689c63          	bne	a7,t1,80007f9c <__eqdf2+0xa2>
/Local/xl_ci/toolchain/riscv-gnu-toolchain/riscv-gcc/libgcc/soft-fp/eqdf2.c:45 (discriminator 80)
80007f48:	04f71a63          	bne	a4,a5,80007f9c <__eqdf2+0xa2>
/Local/xl_ci/toolchain/riscv-gnu-toolchain/riscv-gcc/libgcc/soft-fp/eqdf2.c:45 (discriminator 82)
80007f4c:	05de1863          	bne	t3,t4,80007f9c <__eqdf2+0xa2>
/Local/xl_ci/toolchain/riscv-gnu-toolchain/riscv-gcc/libgcc/soft-fp/eqdf2.c:45 (discriminator 84)
80007f50:	00d58c63          	beq	a1,a3,80007f68 <__eqdf2+0x6e>
/Local/xl_ci/toolchain/riscv-gnu-toolchain/riscv-gcc/libgcc/soft-fp/eqdf2.c:45 (discriminator 85)
80007f54:	04089463          	bnez	a7,80007f9c <__eqdf2+0xa2>
/Local/xl_ci/toolchain/riscv-gnu-toolchain/riscv-gcc/libgcc/soft-fp/eqdf2.c:45 (discriminator 88)
80007f58:	01076733          	or	a4,a4,a6
80007f5c:	00e03533          	snez	a0,a4
80007f60:	8082                	ret
/Local/xl_ci/toolchain/riscv-gnu-toolchain/riscv-gcc/libgcc/soft-fp/eqdf2.c:46 (discriminator 1)
80007f62:	00186073          	csrsi	fflags,16
80007f66:	a815                	j	80007f9a <__eqdf2+0xa0>
/Local/xl_ci/toolchain/riscv-gnu-toolchain/riscv-gcc/libgcc/soft-fp/eqdf2.c:45
80007f68:	4501                	li	a0,0
80007f6a:	8082                	ret
80007f6c:	7ff00693          	li	a3,2047
80007f70:	02d89163          	bne	a7,a3,80007f92 <__eqdf2+0x98>
/Local/xl_ci/toolchain/riscv-gnu-toolchain/riscv-gcc/libgcc/soft-fp/eqdf2.c:45 (discriminator 52)
80007f74:	01076833          	or	a6,a4,a6
80007f78:	00080d63          	beqz	a6,80007f92 <__eqdf2+0x98>
/Local/xl_ci/toolchain/riscv-gnu-toolchain/riscv-gcc/libgcc/soft-fp/eqdf2.c:45 (discriminator 54)
80007f7c:	000806b7          	lui	a3,0x80
80007f80:	8f75                	and	a4,a4,a3
80007f82:	d365                	beqz	a4,80007f62 <__eqdf2+0x68>
/Local/xl_ci/toolchain/riscv-gnu-toolchain/riscv-gcc/libgcc/soft-fp/eqdf2.c:45 (discriminator 60)
80007f84:	7ff00713          	li	a4,2047
80007f88:	4505                	li	a0,1
80007f8a:	00e31963          	bne	t1,a4,80007f9c <__eqdf2+0xa2>
/Local/xl_ci/toolchain/riscv-gnu-toolchain/riscv-gcc/libgcc/soft-fp/eqdf2.c:45 (discriminator 61)
80007f8e:	8e5d                	or	a2,a2,a5
80007f90:	c611                	beqz	a2,80007f9c <__eqdf2+0xa2>
/Local/xl_ci/toolchain/riscv-gnu-toolchain/riscv-gcc/libgcc/soft-fp/eqdf2.c:45 (discriminator 63)
80007f92:	00080737          	lui	a4,0x80
80007f96:	8ff9                	and	a5,a5,a4
80007f98:	d7e9                	beqz	a5,80007f62 <__eqdf2+0x68>
/Local/xl_ci/toolchain/riscv-gnu-toolchain/riscv-gcc/libgcc/soft-fp/eqdf2.c:45
80007f9a:	4505                	li	a0,1
/Local/xl_ci/toolchain/riscv-gnu-toolchain/riscv-gcc/libgcc/soft-fp/eqdf2.c:49
80007f9c:	8082                	ret

80007f9e <__gedf2>:
__gedf2():
/Local/xl_ci/toolchain/riscv-gnu-toolchain/riscv-gcc/libgcc/soft-fp/gedf2.c:36
80007f9e:	87aa                	mv	a5,a0
/Local/xl_ci/toolchain/riscv-gnu-toolchain/riscv-gcc/libgcc/soft-fp/gedf2.c:42
80007fa0:	00202773          	frrm	a4
/Local/xl_ci/toolchain/riscv-gnu-toolchain/riscv-gcc/libgcc/soft-fp/gedf2.c:43
80007fa4:	00100737          	lui	a4,0x100
80007fa8:	177d                	addi	a4,a4,-1
80007faa:	0145d813          	srli	a6,a1,0x14
80007fae:	00b778b3          	and	a7,a4,a1
80007fb2:	832a                	mv	t1,a0
80007fb4:	7ff87813          	andi	a6,a6,2047
80007fb8:	01f5d513          	srli	a0,a1,0x1f
/Local/xl_ci/toolchain/riscv-gnu-toolchain/riscv-gcc/libgcc/soft-fp/gedf2.c:45
80007fbc:	7ff00e93          	li	t4,2047
/Local/xl_ci/toolchain/riscv-gnu-toolchain/riscv-gcc/libgcc/soft-fp/gedf2.c:44
80007fc0:	0146d593          	srli	a1,a3,0x14
80007fc4:	8f75                	and	a4,a4,a3
80007fc6:	8e32                	mv	t3,a2
80007fc8:	7ff5f593          	andi	a1,a1,2047
80007fcc:	82fd                	srli	a3,a3,0x1f
/Local/xl_ci/toolchain/riscv-gnu-toolchain/riscv-gcc/libgcc/soft-fp/gedf2.c:45
80007fce:	01d81a63          	bne	a6,t4,80007fe2 <__gedf2+0x44>
/Local/xl_ci/toolchain/riscv-gnu-toolchain/riscv-gcc/libgcc/soft-fp/gedf2.c:45 (discriminator 20)
80007fd2:	00f8eeb3          	or	t4,a7,a5
80007fd6:	060e8663          	beqz	t4,80008042 <__gedf2+0xa4>
/Local/xl_ci/toolchain/riscv-gnu-toolchain/riscv-gcc/libgcc/soft-fp/gedf2.c:46 (discriminator 1)
80007fda:	00186073          	csrsi	fflags,16
80007fde:	5579                	li	a0,-2
80007fe0:	8082                	ret
/Local/xl_ci/toolchain/riscv-gnu-toolchain/riscv-gcc/libgcc/soft-fp/gedf2.c:45 (discriminator 23)
80007fe2:	01d59663          	bne	a1,t4,80007fee <__gedf2+0x50>
/Local/xl_ci/toolchain/riscv-gnu-toolchain/riscv-gcc/libgcc/soft-fp/gedf2.c:45 (discriminator 24)
80007fe6:	00c76eb3          	or	t4,a4,a2
80007fea:	fe0e98e3          	bnez	t4,80007fda <__gedf2+0x3c>
/Local/xl_ci/toolchain/riscv-gnu-toolchain/riscv-gcc/libgcc/soft-fp/gedf2.c:45 (discriminator 62)
80007fee:	04081c63          	bnez	a6,80008046 <__gedf2+0xa8>
/Local/xl_ci/toolchain/riscv-gnu-toolchain/riscv-gcc/libgcc/soft-fp/gedf2.c:45 (discriminator 63)
80007ff2:	00f8e7b3          	or	a5,a7,a5
80007ff6:	0017b793          	seqz	a5,a5
80007ffa:	e199                	bnez	a1,80008000 <__gedf2+0x62>
/Local/xl_ci/toolchain/riscv-gnu-toolchain/riscv-gcc/libgcc/soft-fp/gedf2.c:45 (discriminator 69)
80007ffc:	8e59                	or	a2,a2,a4
80007ffe:	ce0d                	beqz	a2,80008038 <__gedf2+0x9a>
/Local/xl_ci/toolchain/riscv-gnu-toolchain/riscv-gcc/libgcc/soft-fp/gedf2.c:45
80008000:	eb81                	bnez	a5,80008010 <__gedf2+0x72>
80008002:	00d51463          	bne	a0,a3,8000800a <__gedf2+0x6c>
/Local/xl_ci/toolchain/riscv-gnu-toolchain/riscv-gcc/libgcc/soft-fp/gedf2.c:45 (discriminator 95)
80008006:	0105d963          	bge	a1,a6,80008018 <__gedf2+0x7a>
/Local/xl_ci/toolchain/riscv-gnu-toolchain/riscv-gcc/libgcc/soft-fp/gedf2.c:45 (discriminator 119)
8000800a:	c50d                	beqz	a0,80008034 <__gedf2+0x96>
/Local/xl_ci/toolchain/riscv-gnu-toolchain/riscv-gcc/libgcc/soft-fp/gedf2.c:45
8000800c:	557d                	li	a0,-1
8000800e:	8082                	ret
/Local/xl_ci/toolchain/riscv-gnu-toolchain/riscv-gcc/libgcc/soft-fp/gedf2.c:45 (discriminator 80)
80008010:	557d                	li	a0,-1
80008012:	c691                	beqz	a3,8000801e <__gedf2+0x80>
/Local/xl_ci/toolchain/riscv-gnu-toolchain/riscv-gcc/libgcc/soft-fp/gedf2.c:45
80008014:	8536                	mv	a0,a3
80008016:	8082                	ret
/Local/xl_ci/toolchain/riscv-gnu-toolchain/riscv-gcc/libgcc/soft-fp/gedf2.c:45 (discriminator 102)
80008018:	00b85463          	bge	a6,a1,80008020 <__gedf2+0x82>
/Local/xl_ci/toolchain/riscv-gnu-toolchain/riscv-gcc/libgcc/soft-fp/gedf2.c:45 (discriminator 130)
8000801c:	d965                	beqz	a0,8000800c <__gedf2+0x6e>
/Local/xl_ci/toolchain/riscv-gnu-toolchain/riscv-gcc/libgcc/soft-fp/gedf2.c:49
8000801e:	8082                	ret
/Local/xl_ci/toolchain/riscv-gnu-toolchain/riscv-gcc/libgcc/soft-fp/gedf2.c:45 (discriminator 109)
80008020:	ff1765e3          	bltu	a4,a7,8000800a <__gedf2+0x6c>
/Local/xl_ci/toolchain/riscv-gnu-toolchain/riscv-gcc/libgcc/soft-fp/gedf2.c:45 (discriminator 116)
80008024:	00e89c63          	bne	a7,a4,8000803c <__gedf2+0x9e>
/Local/xl_ci/toolchain/riscv-gnu-toolchain/riscv-gcc/libgcc/soft-fp/gedf2.c:45 (discriminator 117)
80008028:	fe6e61e3          	bltu	t3,t1,8000800a <__gedf2+0x6c>
/Local/xl_ci/toolchain/riscv-gnu-toolchain/riscv-gcc/libgcc/soft-fp/gedf2.c:45 (discriminator 128)
8000802c:	ffc368e3          	bltu	t1,t3,8000801c <__gedf2+0x7e>
/Local/xl_ci/toolchain/riscv-gnu-toolchain/riscv-gcc/libgcc/soft-fp/gedf2.c:45
80008030:	4501                	li	a0,0
80008032:	8082                	ret
80008034:	4505                	li	a0,1
80008036:	8082                	ret
80008038:	ffe5                	bnez	a5,80008030 <__gedf2+0x92>
8000803a:	bfc1                	j	8000800a <__gedf2+0x6c>
8000803c:	fee8e0e3          	bltu	a7,a4,8000801c <__gedf2+0x7e>
80008040:	bfc5                	j	80008030 <__gedf2+0x92>
80008042:	fb0582e3          	beq	a1,a6,80007fe6 <__gedf2+0x48>
80008046:	fdd5                	bnez	a1,80008002 <__gedf2+0x64>
80008048:	4781                	li	a5,0
8000804a:	bf4d                	j	80007ffc <__gedf2+0x5e>

8000804c <__ledf2>:
__ledf2():
/Local/xl_ci/toolchain/riscv-gnu-toolchain/riscv-gcc/libgcc/soft-fp/ledf2.c:36
8000804c:	87aa                	mv	a5,a0
/Local/xl_ci/toolchain/riscv-gnu-toolchain/riscv-gcc/libgcc/soft-fp/ledf2.c:42
8000804e:	00202773          	frrm	a4
/Local/xl_ci/toolchain/riscv-gnu-toolchain/riscv-gcc/libgcc/soft-fp/ledf2.c:43
80008052:	00100737          	lui	a4,0x100
80008056:	177d                	addi	a4,a4,-1
80008058:	0145d813          	srli	a6,a1,0x14
8000805c:	00b778b3          	and	a7,a4,a1
80008060:	832a                	mv	t1,a0
80008062:	7ff87813          	andi	a6,a6,2047
80008066:	01f5d513          	srli	a0,a1,0x1f
/Local/xl_ci/toolchain/riscv-gnu-toolchain/riscv-gcc/libgcc/soft-fp/ledf2.c:45
8000806a:	7ff00e93          	li	t4,2047
/Local/xl_ci/toolchain/riscv-gnu-toolchain/riscv-gcc/libgcc/soft-fp/ledf2.c:44
8000806e:	0146d593          	srli	a1,a3,0x14
80008072:	8f75                	and	a4,a4,a3
80008074:	8e32                	mv	t3,a2
80008076:	7ff5f593          	andi	a1,a1,2047
8000807a:	82fd                	srli	a3,a3,0x1f
/Local/xl_ci/toolchain/riscv-gnu-toolchain/riscv-gcc/libgcc/soft-fp/ledf2.c:45
8000807c:	01d81a63          	bne	a6,t4,80008090 <__ledf2+0x44>
/Local/xl_ci/toolchain/riscv-gnu-toolchain/riscv-gcc/libgcc/soft-fp/ledf2.c:45 (discriminator 20)
80008080:	00f8eeb3          	or	t4,a7,a5
80008084:	060e8663          	beqz	t4,800080f0 <__ledf2+0xa4>
/Local/xl_ci/toolchain/riscv-gnu-toolchain/riscv-gcc/libgcc/soft-fp/ledf2.c:46 (discriminator 1)
80008088:	00186073          	csrsi	fflags,16
8000808c:	4509                	li	a0,2
8000808e:	8082                	ret
/Local/xl_ci/toolchain/riscv-gnu-toolchain/riscv-gcc/libgcc/soft-fp/ledf2.c:45 (discriminator 23)
80008090:	01d59663          	bne	a1,t4,8000809c <__ledf2+0x50>
/Local/xl_ci/toolchain/riscv-gnu-toolchain/riscv-gcc/libgcc/soft-fp/ledf2.c:45 (discriminator 24)
80008094:	00c76eb3          	or	t4,a4,a2
80008098:	fe0e98e3          	bnez	t4,80008088 <__ledf2+0x3c>
/Local/xl_ci/toolchain/riscv-gnu-toolchain/riscv-gcc/libgcc/soft-fp/ledf2.c:45 (discriminator 62)
8000809c:	04081c63          	bnez	a6,800080f4 <__ledf2+0xa8>
/Local/xl_ci/toolchain/riscv-gnu-toolchain/riscv-gcc/libgcc/soft-fp/ledf2.c:45 (discriminator 63)
800080a0:	00f8e7b3          	or	a5,a7,a5
800080a4:	0017b793          	seqz	a5,a5
800080a8:	e199                	bnez	a1,800080ae <__ledf2+0x62>
/Local/xl_ci/toolchain/riscv-gnu-toolchain/riscv-gcc/libgcc/soft-fp/ledf2.c:45 (discriminator 69)
800080aa:	8e59                	or	a2,a2,a4
800080ac:	ce0d                	beqz	a2,800080e6 <__ledf2+0x9a>
/Local/xl_ci/toolchain/riscv-gnu-toolchain/riscv-gcc/libgcc/soft-fp/ledf2.c:45
800080ae:	eb81                	bnez	a5,800080be <__ledf2+0x72>
800080b0:	00d51463          	bne	a0,a3,800080b8 <__ledf2+0x6c>
/Local/xl_ci/toolchain/riscv-gnu-toolchain/riscv-gcc/libgcc/soft-fp/ledf2.c:45 (discriminator 95)
800080b4:	0105d963          	bge	a1,a6,800080c6 <__ledf2+0x7a>
/Local/xl_ci/toolchain/riscv-gnu-toolchain/riscv-gcc/libgcc/soft-fp/ledf2.c:45 (discriminator 119)
800080b8:	c50d                	beqz	a0,800080e2 <__ledf2+0x96>
/Local/xl_ci/toolchain/riscv-gnu-toolchain/riscv-gcc/libgcc/soft-fp/ledf2.c:45
800080ba:	557d                	li	a0,-1
800080bc:	8082                	ret
/Local/xl_ci/toolchain/riscv-gnu-toolchain/riscv-gcc/libgcc/soft-fp/ledf2.c:45 (discriminator 80)
800080be:	557d                	li	a0,-1
800080c0:	c691                	beqz	a3,800080cc <__ledf2+0x80>
/Local/xl_ci/toolchain/riscv-gnu-toolchain/riscv-gcc/libgcc/soft-fp/ledf2.c:45
800080c2:	8536                	mv	a0,a3
800080c4:	8082                	ret
/Local/xl_ci/toolchain/riscv-gnu-toolchain/riscv-gcc/libgcc/soft-fp/ledf2.c:45 (discriminator 102)
800080c6:	00b85463          	bge	a6,a1,800080ce <__ledf2+0x82>
/Local/xl_ci/toolchain/riscv-gnu-toolchain/riscv-gcc/libgcc/soft-fp/ledf2.c:45 (discriminator 130)
800080ca:	d965                	beqz	a0,800080ba <__ledf2+0x6e>
/Local/xl_ci/toolchain/riscv-gnu-toolchain/riscv-gcc/libgcc/soft-fp/ledf2.c:49
800080cc:	8082                	ret
/Local/xl_ci/toolchain/riscv-gnu-toolchain/riscv-gcc/libgcc/soft-fp/ledf2.c:45 (discriminator 109)
800080ce:	ff1765e3          	bltu	a4,a7,800080b8 <__ledf2+0x6c>
/Local/xl_ci/toolchain/riscv-gnu-toolchain/riscv-gcc/libgcc/soft-fp/ledf2.c:45 (discriminator 116)
800080d2:	00e89c63          	bne	a7,a4,800080ea <__ledf2+0x9e>
/Local/xl_ci/toolchain/riscv-gnu-toolchain/riscv-gcc/libgcc/soft-fp/ledf2.c:45 (discriminator 117)
800080d6:	fe6e61e3          	bltu	t3,t1,800080b8 <__ledf2+0x6c>
/Local/xl_ci/toolchain/riscv-gnu-toolchain/riscv-gcc/libgcc/soft-fp/ledf2.c:45 (discriminator 128)
800080da:	ffc368e3          	bltu	t1,t3,800080ca <__ledf2+0x7e>
/Local/xl_ci/toolchain/riscv-gnu-toolchain/riscv-gcc/libgcc/soft-fp/ledf2.c:45
800080de:	4501                	li	a0,0
800080e0:	8082                	ret
800080e2:	4505                	li	a0,1
800080e4:	8082                	ret
800080e6:	ffe5                	bnez	a5,800080de <__ledf2+0x92>
800080e8:	bfc1                	j	800080b8 <__ledf2+0x6c>
800080ea:	fee8e0e3          	bltu	a7,a4,800080ca <__ledf2+0x7e>
800080ee:	bfc5                	j	800080de <__ledf2+0x92>
800080f0:	fb0582e3          	beq	a1,a6,80008094 <__ledf2+0x48>
800080f4:	fdd5                	bnez	a1,800080b0 <__ledf2+0x64>
800080f6:	4781                	li	a5,0
800080f8:	bf4d                	j	800080aa <__ledf2+0x5e>

800080fa <__subdf3>:
__subdf3():
/Local/xl_ci/toolchain/riscv-gnu-toolchain/riscv-gcc/libgcc/soft-fp/subdf3.c:36
800080fa:	1101                	addi	sp,sp,-32
800080fc:	ce06                	sw	ra,28(sp)
800080fe:	cc22                	sw	s0,24(sp)
80008100:	ca26                	sw	s1,20(sp)
80008102:	c84a                	sw	s2,16(sp)
80008104:	c64e                	sw	s3,12(sp)
80008106:	c452                	sw	s4,8(sp)
/Local/xl_ci/toolchain/riscv-gnu-toolchain/riscv-gcc/libgcc/soft-fp/subdf3.c:43
80008108:	002029f3          	frrm	s3
/Local/xl_ci/toolchain/riscv-gnu-toolchain/riscv-gcc/libgcc/soft-fp/subdf3.c:44
8000810c:	001008b7          	lui	a7,0x100
80008110:	18fd                	addi	a7,a7,-1
80008112:	00b8f733          	and	a4,a7,a1
80008116:	0145d413          	srli	s0,a1,0x14
/Local/xl_ci/toolchain/riscv-gnu-toolchain/riscv-gcc/libgcc/soft-fp/subdf3.c:45
8000811a:	00d8f8b3          	and	a7,a7,a3
/Local/xl_ci/toolchain/riscv-gnu-toolchain/riscv-gcc/libgcc/soft-fp/subdf3.c:44
8000811e:	01f5d493          	srli	s1,a1,0x1f
/Local/xl_ci/toolchain/riscv-gnu-toolchain/riscv-gcc/libgcc/soft-fp/subdf3.c:45
80008122:	0146d593          	srli	a1,a3,0x14
/Local/xl_ci/toolchain/riscv-gnu-toolchain/riscv-gcc/libgcc/soft-fp/subdf3.c:44
80008126:	00371793          	slli	a5,a4,0x3
/Local/xl_ci/toolchain/riscv-gnu-toolchain/riscv-gcc/libgcc/soft-fp/subdf3.c:45
8000812a:	01f6d313          	srli	t1,a3,0x1f
/Local/xl_ci/toolchain/riscv-gnu-toolchain/riscv-gcc/libgcc/soft-fp/subdf3.c:44
8000812e:	01d55713          	srli	a4,a0,0x1d
/Local/xl_ci/toolchain/riscv-gnu-toolchain/riscv-gcc/libgcc/soft-fp/subdf3.c:45
80008132:	01d65693          	srli	a3,a2,0x1d
80008136:	088e                	slli	a7,a7,0x3
80008138:	00361813          	slli	a6,a2,0x3
8000813c:	7ff5f593          	andi	a1,a1,2047
/Local/xl_ci/toolchain/riscv-gnu-toolchain/riscv-gcc/libgcc/soft-fp/subdf3.c:46
80008140:	7ff00613          	li	a2,2047
/Local/xl_ci/toolchain/riscv-gnu-toolchain/riscv-gcc/libgcc/soft-fp/subdf3.c:44
80008144:	8f5d                	or	a4,a4,a5
80008146:	7ff47413          	andi	s0,s0,2047
8000814a:	00351793          	slli	a5,a0,0x3
/Local/xl_ci/toolchain/riscv-gnu-toolchain/riscv-gcc/libgcc/soft-fp/subdf3.c:45
8000814e:	0116e6b3          	or	a3,a3,a7
/Local/xl_ci/toolchain/riscv-gnu-toolchain/riscv-gcc/libgcc/soft-fp/subdf3.c:46
80008152:	00c59563          	bne	a1,a2,8000815c <__subdf3+0x62>
/Local/xl_ci/toolchain/riscv-gnu-toolchain/riscv-gcc/libgcc/soft-fp/subdf3.c:46 (discriminator 2)
80008156:	0106e633          	or	a2,a3,a6
8000815a:	e219                	bnez	a2,80008160 <__subdf3+0x66>
/Local/xl_ci/toolchain/riscv-gnu-toolchain/riscv-gcc/libgcc/soft-fp/subdf3.c:46 (discriminator 3)
8000815c:	00134313          	xori	t1,t1,1
/Local/xl_ci/toolchain/riscv-gnu-toolchain/riscv-gcc/libgcc/soft-fp/subdf3.c:46 (discriminator 11)
80008160:	40b40633          	sub	a2,s0,a1
80008164:	3c931663          	bne	t1,s1,80008530 <__subdf3+0x436>
/Local/xl_ci/toolchain/riscv-gnu-toolchain/riscv-gcc/libgcc/soft-fp/subdf3.c:46 (discriminator 12)
80008168:	12c05063          	blez	a2,80008288 <__subdf3+0x18e>
/Local/xl_ci/toolchain/riscv-gnu-toolchain/riscv-gcc/libgcc/soft-fp/subdf3.c:46 (discriminator 14)
8000816c:	e9a9                	bnez	a1,800081be <__subdf3+0xc4>
/Local/xl_ci/toolchain/riscv-gnu-toolchain/riscv-gcc/libgcc/soft-fp/subdf3.c:46 (discriminator 16)
8000816e:	0106e533          	or	a0,a3,a6
80008172:	e10d                	bnez	a0,80008194 <__subdf3+0x9a>
/Local/xl_ci/toolchain/riscv-gnu-toolchain/riscv-gcc/libgcc/soft-fp/subdf3.c:46 (discriminator 209)
80008174:	7ff00693          	li	a3,2047
80008178:	4401                	li	s0,0
8000817a:	24d61363          	bne	a2,a3,800083c0 <__subdf3+0x2c6>
/Local/xl_ci/toolchain/riscv-gnu-toolchain/riscv-gcc/libgcc/soft-fp/subdf3.c:46 (discriminator 211)
8000817e:	00f766b3          	or	a3,a4,a5
80008182:	7a068063          	beqz	a3,80008922 <__subdf3+0x828>
/Local/xl_ci/toolchain/riscv-gnu-toolchain/riscv-gcc/libgcc/soft-fp/subdf3.c:46 (discriminator 226)
80008186:	00400437          	lui	s0,0x400
8000818a:	8c79                	and	s0,s0,a4
8000818c:	00143413          	seqz	s0,s0
80008190:	0412                	slli	s0,s0,0x4
80008192:	a43d                	j	800083c0 <__subdf3+0x2c6>
/Local/xl_ci/toolchain/riscv-gnu-toolchain/riscv-gcc/libgcc/soft-fp/subdf3.c:46 (discriminator 19)
80008194:	fff60513          	addi	a0,a2,-1
80008198:	e901                	bnez	a0,800081a8 <__subdf3+0xae>
/Local/xl_ci/toolchain/riscv-gnu-toolchain/riscv-gcc/libgcc/soft-fp/subdf3.c:46 (discriminator 28)
8000819a:	983e                	add	a6,a6,a5
8000819c:	96ba                	add	a3,a3,a4
8000819e:	00f837b3          	sltu	a5,a6,a5
800081a2:	96be                	add	a3,a3,a5
/Local/xl_ci/toolchain/riscv-gnu-toolchain/riscv-gcc/libgcc/soft-fp/subdf3.c:45 (discriminator 85)
800081a4:	4605                	li	a2,1
/Local/xl_ci/toolchain/riscv-gnu-toolchain/riscv-gcc/libgcc/soft-fp/subdf3.c:46 (discriminator 85)
800081a6:	a041                	j	80008226 <__subdf3+0x12c>
/Local/xl_ci/toolchain/riscv-gnu-toolchain/riscv-gcc/libgcc/soft-fp/subdf3.c:46 (discriminator 29)
800081a8:	7ff00893          	li	a7,2047
800081ac:	03161f63          	bne	a2,a7,800081ea <__subdf3+0xf0>
/Local/xl_ci/toolchain/riscv-gnu-toolchain/riscv-gcc/libgcc/soft-fp/subdf3.c:46 (discriminator 224)
800081b0:	00f766b3          	or	a3,a4,a5
800081b4:	fae9                	bnez	a3,80008186 <__subdf3+0x8c>
800081b6:	4701                	li	a4,0
800081b8:	4781                	li	a5,0
800081ba:	4401                	li	s0,0
800081bc:	ac8d                	j	8000842e <__subdf3+0x334>
/Local/xl_ci/toolchain/riscv-gnu-toolchain/riscv-gcc/libgcc/soft-fp/subdf3.c:46 (discriminator 17)
800081be:	7ff00593          	li	a1,2047
800081c2:	02b41063          	bne	s0,a1,800081e2 <__subdf3+0xe8>
/Local/xl_ci/toolchain/riscv-gnu-toolchain/riscv-gcc/libgcc/soft-fp/subdf3.c:46 (discriminator 235)
800081c6:	00f766b3          	or	a3,a4,a5
800081ca:	74068f63          	beqz	a3,80008928 <__subdf3+0x82e>
/Local/xl_ci/toolchain/riscv-gnu-toolchain/riscv-gcc/libgcc/soft-fp/subdf3.c:46 (discriminator 237)
800081ce:	004006b7          	lui	a3,0x400
800081d2:	8ef9                	and	a3,a3,a4
800081d4:	7ff00613          	li	a2,2047
/Local/xl_ci/toolchain/riscv-gnu-toolchain/riscv-gcc/libgcc/soft-fp/subdf3.c:47 (discriminator 237)
800081d8:	4581                	li	a1,0
/Local/xl_ci/toolchain/riscv-gnu-toolchain/riscv-gcc/libgcc/soft-fp/subdf3.c:46 (discriminator 237)
800081da:	2e069063          	bnez	a3,800084ba <__subdf3+0x3c0>
/Local/xl_ci/toolchain/riscv-gnu-toolchain/riscv-gcc/libgcc/soft-fp/subdf3.c:46
800081de:	4441                	li	s0,16
800081e0:	a2c5                	j	800083c0 <__subdf3+0x2c6>
/Local/xl_ci/toolchain/riscv-gnu-toolchain/riscv-gcc/libgcc/soft-fp/subdf3.c:46 (discriminator 43)
800081e2:	008005b7          	lui	a1,0x800
800081e6:	8ecd                	or	a3,a3,a1
800081e8:	8532                	mv	a0,a2
/Local/xl_ci/toolchain/riscv-gnu-toolchain/riscv-gcc/libgcc/soft-fp/subdf3.c:46 (discriminator 52)
800081ea:	03800613          	li	a2,56
800081ee:	08a64863          	blt	a2,a0,8000827e <__subdf3+0x184>
/Local/xl_ci/toolchain/riscv-gnu-toolchain/riscv-gcc/libgcc/soft-fp/subdf3.c:46 (discriminator 53)
800081f2:	467d                	li	a2,31
800081f4:	04a64f63          	blt	a2,a0,80008252 <__subdf3+0x158>
/Local/xl_ci/toolchain/riscv-gnu-toolchain/riscv-gcc/libgcc/soft-fp/subdf3.c:46 (discriminator 55)
800081f8:	02000613          	li	a2,32
800081fc:	8e09                	sub	a2,a2,a0
800081fe:	00c695b3          	sll	a1,a3,a2
80008202:	00a858b3          	srl	a7,a6,a0
80008206:	00c81833          	sll	a6,a6,a2
8000820a:	0115e5b3          	or	a1,a1,a7
8000820e:	01003833          	snez	a6,a6
80008212:	0105e833          	or	a6,a1,a6
80008216:	00a6d6b3          	srl	a3,a3,a0
/Local/xl_ci/toolchain/riscv-gnu-toolchain/riscv-gcc/libgcc/soft-fp/subdf3.c:46 (discriminator 69)
8000821a:	983e                	add	a6,a6,a5
8000821c:	96ba                	add	a3,a3,a4
8000821e:	00f837b3          	sltu	a5,a6,a5
80008222:	96be                	add	a3,a3,a5
/Local/xl_ci/toolchain/riscv-gnu-toolchain/riscv-gcc/libgcc/soft-fp/subdf3.c:44 (discriminator 69)
80008224:	8622                	mv	a2,s0
/Local/xl_ci/toolchain/riscv-gnu-toolchain/riscv-gcc/libgcc/soft-fp/subdf3.c:46 (discriminator 127)
80008226:	008007b7          	lui	a5,0x800
8000822a:	8ff5                	and	a5,a5,a3
8000822c:	cbad                	beqz	a5,8000829e <__subdf3+0x1a4>
/Local/xl_ci/toolchain/riscv-gnu-toolchain/riscv-gcc/libgcc/soft-fp/subdf3.c:46 (discriminator 187)
8000822e:	0605                	addi	a2,a2,1
80008230:	7ff00793          	li	a5,2047
80008234:	2cf60e63          	beq	a2,a5,80008510 <__subdf3+0x416>
/Local/xl_ci/toolchain/riscv-gnu-toolchain/riscv-gcc/libgcc/soft-fp/subdf3.c:46
80008238:	ff800737          	lui	a4,0xff800
8000823c:	177d                	addi	a4,a4,-1
8000823e:	00185793          	srli	a5,a6,0x1
80008242:	8f75                	and	a4,a4,a3
80008244:	00187813          	andi	a6,a6,1
80008248:	0107e833          	or	a6,a5,a6
8000824c:	01f71793          	slli	a5,a4,0x1f
80008250:	a48d                	j	800084b2 <__subdf3+0x3b8>
/Local/xl_ci/toolchain/riscv-gnu-toolchain/riscv-gcc/libgcc/soft-fp/subdf3.c:46 (discriminator 56)
80008252:	fe050593          	addi	a1,a0,-32 # 7ffe0 <__stack_size+0x7f7e0>
80008256:	02000893          	li	a7,32
8000825a:	00b6d5b3          	srl	a1,a3,a1
8000825e:	4601                	li	a2,0
80008260:	01150763          	beq	a0,a7,8000826e <__subdf3+0x174>
/Local/xl_ci/toolchain/riscv-gnu-toolchain/riscv-gcc/libgcc/soft-fp/subdf3.c:46 (discriminator 63)
80008264:	04000613          	li	a2,64
80008268:	8e09                	sub	a2,a2,a0
8000826a:	00c69633          	sll	a2,a3,a2
/Local/xl_ci/toolchain/riscv-gnu-toolchain/riscv-gcc/libgcc/soft-fp/subdf3.c:46 (discriminator 66)
8000826e:	01066833          	or	a6,a2,a6
80008272:	01003833          	snez	a6,a6
80008276:	0105e833          	or	a6,a1,a6
/Local/xl_ci/toolchain/riscv-gnu-toolchain/riscv-gcc/libgcc/soft-fp/subdf3.c:46 (discriminator 54)
8000827a:	4681                	li	a3,0
8000827c:	bf79                	j	8000821a <__subdf3+0x120>
8000827e:	0106e833          	or	a6,a3,a6
80008282:	01003833          	snez	a6,a6
80008286:	bfd5                	j	8000827a <__subdf3+0x180>
/Local/xl_ci/toolchain/riscv-gnu-toolchain/riscv-gcc/libgcc/soft-fp/subdf3.c:46 (discriminator 15)
80008288:	ce65                	beqz	a2,80008380 <__subdf3+0x286>
/Local/xl_ci/toolchain/riscv-gnu-toolchain/riscv-gcc/libgcc/soft-fp/subdf3.c:46 (discriminator 71)
8000828a:	40858633          	sub	a2,a1,s0
8000828e:	e829                	bnez	s0,800082e0 <__subdf3+0x1e6>
/Local/xl_ci/toolchain/riscv-gnu-toolchain/riscv-gcc/libgcc/soft-fp/subdf3.c:46 (discriminator 73)
80008290:	00f76533          	or	a0,a4,a5
80008294:	e911                	bnez	a0,800082a8 <__subdf3+0x1ae>
/Local/xl_ci/toolchain/riscv-gnu-toolchain/riscv-gcc/libgcc/soft-fp/subdf3.c:46 (discriminator 75)
80008296:	7ff00793          	li	a5,2047
/Local/xl_ci/toolchain/riscv-gnu-toolchain/riscv-gcc/libgcc/soft-fp/subdf3.c:46 (discriminator 266)
8000829a:	02f60663          	beq	a2,a5,800082c6 <__subdf3+0x1cc>
/Local/xl_ci/toolchain/riscv-gnu-toolchain/riscv-gcc/libgcc/soft-fp/subdf3.c:47 (discriminator 426)
8000829e:	8736                	mv	a4,a3
800082a0:	87c2                	mv	a5,a6
800082a2:	46060e63          	beqz	a2,8000871e <__subdf3+0x624>
800082a6:	ac09                	j	800084b8 <__subdf3+0x3be>
/Local/xl_ci/toolchain/riscv-gnu-toolchain/riscv-gcc/libgcc/soft-fp/subdf3.c:46 (discriminator 76)
800082a8:	fff60893          	addi	a7,a2,-1
800082ac:	00089963          	bnez	a7,800082be <__subdf3+0x1c4>
/Local/xl_ci/toolchain/riscv-gnu-toolchain/riscv-gcc/libgcc/soft-fp/subdf3.c:46 (discriminator 85)
800082b0:	97c2                	add	a5,a5,a6
800082b2:	0107b833          	sltu	a6,a5,a6
800082b6:	96ba                	add	a3,a3,a4
800082b8:	96c2                	add	a3,a3,a6
800082ba:	883e                	mv	a6,a5
800082bc:	b5e5                	j	800081a4 <__subdf3+0xaa>
/Local/xl_ci/toolchain/riscv-gnu-toolchain/riscv-gcc/libgcc/soft-fp/subdf3.c:46 (discriminator 86)
800082be:	7ff00513          	li	a0,2047
800082c2:	04a61663          	bne	a2,a0,8000830e <__subdf3+0x214>
/Local/xl_ci/toolchain/riscv-gnu-toolchain/riscv-gcc/libgcc/soft-fp/subdf3.c:46 (discriminator 268)
800082c6:	0106e7b3          	or	a5,a3,a6
800082ca:	4701                	li	a4,0
800082cc:	16078163          	beqz	a5,8000842e <__subdf3+0x334>
/Local/xl_ci/toolchain/riscv-gnu-toolchain/riscv-gcc/libgcc/soft-fp/subdf3.c:46 (discriminator 270)
800082d0:	004007b7          	lui	a5,0x400
800082d4:	8ff5                	and	a5,a5,a3
800082d6:	8736                	mv	a4,a3
800082d8:	64079b63          	bnez	a5,8000892e <__subdf3+0x834>
/Local/xl_ci/toolchain/riscv-gnu-toolchain/riscv-gcc/libgcc/soft-fp/subdf3.c:45
800082dc:	87c2                	mv	a5,a6
800082de:	a015                	j	80008302 <__subdf3+0x208>
/Local/xl_ci/toolchain/riscv-gnu-toolchain/riscv-gcc/libgcc/soft-fp/subdf3.c:46 (discriminator 74)
800082e0:	7ff00513          	li	a0,2047
800082e4:	02a59163          	bne	a1,a0,80008306 <__subdf3+0x20c>
/Local/xl_ci/toolchain/riscv-gnu-toolchain/riscv-gcc/libgcc/soft-fp/subdf3.c:46 (discriminator 101)
800082e8:	0106e7b3          	or	a5,a3,a6
800082ec:	60078d63          	beqz	a5,80008906 <__subdf3+0x80c>
/Local/xl_ci/toolchain/riscv-gnu-toolchain/riscv-gcc/libgcc/soft-fp/subdf3.c:46 (discriminator 103)
800082f0:	004007b7          	lui	a5,0x400
800082f4:	8ff5                	and	a5,a5,a3
800082f6:	8736                	mv	a4,a3
800082f8:	60079b63          	bnez	a5,8000890e <__subdf3+0x814>
/Local/xl_ci/toolchain/riscv-gnu-toolchain/riscv-gcc/libgcc/soft-fp/subdf3.c:45
800082fc:	87c2                	mv	a5,a6
/Local/xl_ci/toolchain/riscv-gnu-toolchain/riscv-gcc/libgcc/soft-fp/subdf3.c:46
800082fe:	7ff00613          	li	a2,2047
/Local/xl_ci/toolchain/riscv-gnu-toolchain/riscv-gcc/libgcc/soft-fp/subdf3.c:47
80008302:	4581                	li	a1,0
80008304:	bde9                	j	800081de <__subdf3+0xe4>
/Local/xl_ci/toolchain/riscv-gnu-toolchain/riscv-gcc/libgcc/soft-fp/subdf3.c:46 (discriminator 100)
80008306:	00800537          	lui	a0,0x800
8000830a:	8f49                	or	a4,a4,a0
8000830c:	88b2                	mv	a7,a2
/Local/xl_ci/toolchain/riscv-gnu-toolchain/riscv-gcc/libgcc/soft-fp/subdf3.c:46 (discriminator 109)
8000830e:	03800613          	li	a2,56
80008312:	07164363          	blt	a2,a7,80008378 <__subdf3+0x27e>
/Local/xl_ci/toolchain/riscv-gnu-toolchain/riscv-gcc/libgcc/soft-fp/subdf3.c:46 (discriminator 110)
80008316:	467d                	li	a2,31
80008318:	03164b63          	blt	a2,a7,8000834e <__subdf3+0x254>
/Local/xl_ci/toolchain/riscv-gnu-toolchain/riscv-gcc/libgcc/soft-fp/subdf3.c:46 (discriminator 112)
8000831c:	02000513          	li	a0,32
80008320:	41150533          	sub	a0,a0,a7
80008324:	00a71633          	sll	a2,a4,a0
80008328:	0117d333          	srl	t1,a5,a7
8000832c:	00a797b3          	sll	a5,a5,a0
80008330:	00666633          	or	a2,a2,t1
80008334:	00f037b3          	snez	a5,a5
80008338:	8fd1                	or	a5,a5,a2
8000833a:	01175733          	srl	a4,a4,a7
/Local/xl_ci/toolchain/riscv-gnu-toolchain/riscv-gcc/libgcc/soft-fp/subdf3.c:46 (discriminator 126)
8000833e:	97c2                	add	a5,a5,a6
80008340:	9736                	add	a4,a4,a3
80008342:	0107b6b3          	sltu	a3,a5,a6
80008346:	96ba                	add	a3,a3,a4
80008348:	883e                	mv	a6,a5
/Local/xl_ci/toolchain/riscv-gnu-toolchain/riscv-gcc/libgcc/soft-fp/subdf3.c:45 (discriminator 126)
8000834a:	862e                	mv	a2,a1
8000834c:	bde9                	j	80008226 <__subdf3+0x12c>
/Local/xl_ci/toolchain/riscv-gnu-toolchain/riscv-gcc/libgcc/soft-fp/subdf3.c:46 (discriminator 113)
8000834e:	fe088613          	addi	a2,a7,-32 # fffe0 <__stack_size+0xff7e0>
80008352:	02000313          	li	t1,32
80008356:	00c75633          	srl	a2,a4,a2
8000835a:	4501                	li	a0,0
8000835c:	00688863          	beq	a7,t1,8000836c <__subdf3+0x272>
/Local/xl_ci/toolchain/riscv-gnu-toolchain/riscv-gcc/libgcc/soft-fp/subdf3.c:46 (discriminator 120)
80008360:	04000513          	li	a0,64
80008364:	41150533          	sub	a0,a0,a7
80008368:	00a71533          	sll	a0,a4,a0
/Local/xl_ci/toolchain/riscv-gnu-toolchain/riscv-gcc/libgcc/soft-fp/subdf3.c:46 (discriminator 123)
8000836c:	8fc9                	or	a5,a5,a0
8000836e:	00f037b3          	snez	a5,a5
80008372:	8fd1                	or	a5,a5,a2
/Local/xl_ci/toolchain/riscv-gnu-toolchain/riscv-gcc/libgcc/soft-fp/subdf3.c:46 (discriminator 111)
80008374:	4701                	li	a4,0
80008376:	b7e1                	j	8000833e <__subdf3+0x244>
80008378:	8fd9                	or	a5,a5,a4
8000837a:	00f037b3          	snez	a5,a5
8000837e:	bfdd                	j	80008374 <__subdf3+0x27a>
/Local/xl_ci/toolchain/riscv-gnu-toolchain/riscv-gcc/libgcc/soft-fp/subdf3.c:46 (discriminator 72)
80008380:	00140613          	addi	a2,s0,1 # 400001 <__stack_size+0x3ff801>
80008384:	7fe67513          	andi	a0,a2,2046
80008388:	10051863          	bnez	a0,80008498 <__subdf3+0x39e>
/Local/xl_ci/toolchain/riscv-gnu-toolchain/riscv-gcc/libgcc/soft-fp/subdf3.c:46 (discriminator 128)
8000838c:	00f76633          	or	a2,a4,a5
80008390:	e039                	bnez	s0,800083d6 <__subdf3+0x2dc>
/Local/xl_ci/toolchain/riscv-gnu-toolchain/riscv-gcc/libgcc/soft-fp/subdf3.c:46 (discriminator 130)
80008392:	52060d63          	beqz	a2,800088cc <__subdf3+0x7d2>
/Local/xl_ci/toolchain/riscv-gnu-toolchain/riscv-gcc/libgcc/soft-fp/subdf3.c:46 (discriminator 133)
80008396:	0106e633          	or	a2,a3,a6
8000839a:	38060263          	beqz	a2,8000871e <__subdf3+0x624>
/Local/xl_ci/toolchain/riscv-gnu-toolchain/riscv-gcc/libgcc/soft-fp/subdf3.c:46 (discriminator 139)
8000839e:	983e                	add	a6,a6,a5
800083a0:	00f837b3          	sltu	a5,a6,a5
800083a4:	9736                	add	a4,a4,a3
800083a6:	973e                	add	a4,a4,a5
800083a8:	008007b7          	lui	a5,0x800
800083ac:	8ff9                	and	a5,a5,a4
800083ae:	52078063          	beqz	a5,800088ce <__subdf3+0x7d4>
/Local/xl_ci/toolchain/riscv-gnu-toolchain/riscv-gcc/libgcc/soft-fp/subdf3.c:46 (discriminator 141)
800083b2:	ff8007b7          	lui	a5,0xff800
800083b6:	17fd                	addi	a5,a5,-1
800083b8:	8f7d                	and	a4,a4,a5
/Local/xl_ci/toolchain/riscv-gnu-toolchain/riscv-gcc/libgcc/soft-fp/subdf3.c:47 (discriminator 141)
800083ba:	4581                	li	a1,0
/Local/xl_ci/toolchain/riscv-gnu-toolchain/riscv-gcc/libgcc/soft-fp/subdf3.c:46 (discriminator 141)
800083bc:	87c2                	mv	a5,a6
800083be:	4605                	li	a2,1
/Local/xl_ci/toolchain/riscv-gnu-toolchain/riscv-gcc/libgcc/soft-fp/subdf3.c:47 (discriminator 36)
800083c0:	0077f693          	andi	a3,a5,7
800083c4:	12069063          	bnez	a3,800084e4 <__subdf3+0x3ea>
/Local/xl_ci/toolchain/riscv-gnu-toolchain/riscv-gcc/libgcc/soft-fp/subdf3.c:47 (discriminator 47)
800083c8:	c1bd                	beqz	a1,8000842e <__subdf3+0x334>
/Local/xl_ci/toolchain/riscv-gnu-toolchain/riscv-gcc/libgcc/soft-fp/subdf3.c:47 (discriminator 58)
800083ca:	00147693          	andi	a3,s0,1
800083ce:	c2a5                	beqz	a3,8000842e <__subdf3+0x334>
/Local/xl_ci/toolchain/riscv-gnu-toolchain/riscv-gcc/libgcc/soft-fp/subdf3.c:47 (discriminator 60)
800083d0:	00246413          	ori	s0,s0,2
800083d4:	a8a9                	j	8000842e <__subdf3+0x334>
/Local/xl_ci/toolchain/riscv-gnu-toolchain/riscv-gcc/libgcc/soft-fp/subdf3.c:46 (discriminator 131)
800083d6:	7ff00513          	li	a0,2047
800083da:	02a41563          	bne	s0,a0,80008404 <__subdf3+0x30a>
/Local/xl_ci/toolchain/riscv-gnu-toolchain/riscv-gcc/libgcc/soft-fp/subdf3.c:46 (discriminator 145)
800083de:	5c060663          	beqz	a2,800089aa <__subdf3+0x8b0>
/Local/xl_ci/toolchain/riscv-gnu-toolchain/riscv-gcc/libgcc/soft-fp/subdf3.c:46 (discriminator 147)
800083e2:	00400437          	lui	s0,0x400
800083e6:	8c79                	and	s0,s0,a4
/Local/xl_ci/toolchain/riscv-gnu-toolchain/riscv-gcc/libgcc/soft-fp/subdf3.c:37 (discriminator 147)
800083e8:	00143413          	seqz	s0,s0
800083ec:	0412                	slli	s0,s0,0x4
/Local/xl_ci/toolchain/riscv-gnu-toolchain/riscv-gcc/libgcc/soft-fp/subdf3.c:46 (discriminator 147)
800083ee:	02a59763          	bne	a1,a0,8000841c <__subdf3+0x322>
/Local/xl_ci/toolchain/riscv-gnu-toolchain/riscv-gcc/libgcc/soft-fp/subdf3.c:46 (discriminator 152)
800083f2:	0106e5b3          	or	a1,a3,a6
800083f6:	c991                	beqz	a1,8000840a <__subdf3+0x310>
/Local/xl_ci/toolchain/riscv-gnu-toolchain/riscv-gcc/libgcc/soft-fp/subdf3.c:46 (discriminator 154)
800083f8:	004005b7          	lui	a1,0x400
800083fc:	8df5                	and	a1,a1,a3
800083fe:	e591                	bnez	a1,8000840a <__subdf3+0x310>
/Local/xl_ci/toolchain/riscv-gnu-toolchain/riscv-gcc/libgcc/soft-fp/subdf3.c:46
80008400:	4441                	li	s0,16
80008402:	a021                	j	8000840a <__subdf3+0x310>
/Local/xl_ci/toolchain/riscv-gnu-toolchain/riscv-gcc/libgcc/soft-fp/subdf3.c:46 (discriminator 151)
80008404:	4401                	li	s0,0
80008406:	fea586e3          	beq	a1,a0,800083f2 <__subdf3+0x2f8>
/Local/xl_ci/toolchain/riscv-gnu-toolchain/riscv-gcc/libgcc/soft-fp/subdf3.c:46 (discriminator 158)
8000840a:	ea09                	bnez	a2,8000841c <__subdf3+0x322>
/Local/xl_ci/toolchain/riscv-gnu-toolchain/riscv-gcc/libgcc/soft-fp/subdf3.c:45
8000840c:	8736                	mv	a4,a3
8000840e:	87c2                	mv	a5,a6
/Local/xl_ci/toolchain/riscv-gnu-toolchain/riscv-gcc/libgcc/soft-fp/subdf3.c:47
80008410:	4581                	li	a1,0
/Local/xl_ci/toolchain/riscv-gnu-toolchain/riscv-gcc/libgcc/soft-fp/subdf3.c:46
80008412:	7ff00613          	li	a2,2047
80008416:	b76d                	j	800083c0 <__subdf3+0x2c6>
80008418:	4401                	li	s0,0
8000841a:	bfe1                	j	800083f2 <__subdf3+0x2f8>
/Local/xl_ci/toolchain/riscv-gnu-toolchain/riscv-gcc/libgcc/soft-fp/subdf3.c:46 (discriminator 160)
8000841c:	0106e6b3          	or	a3,a3,a6
80008420:	dae5                	beqz	a3,80008410 <__subdf3+0x316>
/Local/xl_ci/toolchain/riscv-gnu-toolchain/riscv-gcc/libgcc/soft-fp/subdf3.c:46
80008422:	4481                	li	s1,0
80008424:	00400737          	lui	a4,0x400
80008428:	4781                	li	a5,0
8000842a:	7ff00613          	li	a2,2047
/Local/xl_ci/toolchain/riscv-gnu-toolchain/riscv-gcc/libgcc/soft-fp/subdf3.c:47 (discriminator 62)
8000842e:	008006b7          	lui	a3,0x800
80008432:	8ef9                	and	a3,a3,a4
80008434:	ca91                	beqz	a3,80008448 <__subdf3+0x34e>
/Local/xl_ci/toolchain/riscv-gnu-toolchain/riscv-gcc/libgcc/soft-fp/subdf3.c:47 (discriminator 63)
80008436:	0605                	addi	a2,a2,1
80008438:	7ff00693          	li	a3,2047
8000843c:	54d60063          	beq	a2,a3,8000897c <__subdf3+0x882>
/Local/xl_ci/toolchain/riscv-gnu-toolchain/riscv-gcc/libgcc/soft-fp/subdf3.c:47
80008440:	ff8006b7          	lui	a3,0xff800
80008444:	16fd                	addi	a3,a3,-1
80008446:	8f75                	and	a4,a4,a3
/Local/xl_ci/toolchain/riscv-gnu-toolchain/riscv-gcc/libgcc/soft-fp/subdf3.c:47 (discriminator 79)
80008448:	0037d513          	srli	a0,a5,0x3
8000844c:	7ff00693          	li	a3,2047
80008450:	01d71793          	slli	a5,a4,0x1d
80008454:	8fc9                	or	a5,a5,a0
80008456:	830d                	srli	a4,a4,0x3
80008458:	00d61963          	bne	a2,a3,8000846a <__subdf3+0x370>
/Local/xl_ci/toolchain/riscv-gnu-toolchain/riscv-gcc/libgcc/soft-fp/subdf3.c:47 (discriminator 80)
8000845c:	8fd9                	or	a5,a5,a4
8000845e:	4701                	li	a4,0
80008460:	c789                	beqz	a5,8000846a <__subdf3+0x370>
/Local/xl_ci/toolchain/riscv-gnu-toolchain/riscv-gcc/libgcc/soft-fp/subdf3.c:47
80008462:	00080737          	lui	a4,0x80
80008466:	4781                	li	a5,0
80008468:	4481                	li	s1,0
/Local/xl_ci/toolchain/riscv-gnu-toolchain/riscv-gcc/libgcc/soft-fp/subdf3.c:47 (discriminator 90)
8000846a:	7ff006b7          	lui	a3,0x7ff00
8000846e:	0652                	slli	a2,a2,0x14
80008470:	0732                	slli	a4,a4,0xc
80008472:	8e75                	and	a2,a2,a3
80008474:	8331                	srli	a4,a4,0xc
80008476:	8f51                	or	a4,a4,a2
80008478:	04fe                	slli	s1,s1,0x1f
8000847a:	009766b3          	or	a3,a4,s1
8000847e:	853e                	mv	a0,a5
80008480:	85b6                	mv	a1,a3
/Local/xl_ci/toolchain/riscv-gnu-toolchain/riscv-gcc/libgcc/soft-fp/subdf3.c:48 (discriminator 90)
80008482:	c019                	beqz	s0,80008488 <__subdf3+0x38e>
/Local/xl_ci/toolchain/riscv-gnu-toolchain/riscv-gcc/libgcc/soft-fp/subdf3.c:48 (discriminator 1)
80008484:	00142073          	csrs	fflags,s0
/Local/xl_ci/toolchain/riscv-gnu-toolchain/riscv-gcc/libgcc/soft-fp/subdf3.c:51
80008488:	40f2                	lw	ra,28(sp)
8000848a:	4462                	lw	s0,24(sp)
8000848c:	44d2                	lw	s1,20(sp)
8000848e:	4942                	lw	s2,16(sp)
80008490:	49b2                	lw	s3,12(sp)
80008492:	4a22                	lw	s4,8(sp)
80008494:	6105                	addi	sp,sp,32
80008496:	8082                	ret
/Local/xl_ci/toolchain/riscv-gnu-toolchain/riscv-gcc/libgcc/soft-fp/subdf3.c:46 (discriminator 129)
80008498:	7ff00593          	li	a1,2047
8000849c:	02b60163          	beq	a2,a1,800084be <__subdf3+0x3c4>
/Local/xl_ci/toolchain/riscv-gnu-toolchain/riscv-gcc/libgcc/soft-fp/subdf3.c:46
800084a0:	983e                	add	a6,a6,a5
800084a2:	00f837b3          	sltu	a5,a6,a5
800084a6:	9736                	add	a4,a4,a3
800084a8:	973e                	add	a4,a4,a5
800084aa:	01f71793          	slli	a5,a4,0x1f
800084ae:	00185813          	srli	a6,a6,0x1
800084b2:	0107e7b3          	or	a5,a5,a6
800084b6:	8305                	srli	a4,a4,0x1
/Local/xl_ci/toolchain/riscv-gnu-toolchain/riscv-gcc/libgcc/soft-fp/subdf3.c:47
800084b8:	4581                	li	a1,0
800084ba:	4401                	li	s0,0
800084bc:	b711                	j	800083c0 <__subdf3+0x2c6>
/Local/xl_ci/toolchain/riscv-gnu-toolchain/riscv-gcc/libgcc/soft-fp/subdf3.c:46 (discriminator 171)
800084be:	00098663          	beqz	s3,800084ca <__subdf3+0x3d0>
/Local/xl_ci/toolchain/riscv-gnu-toolchain/riscv-gcc/libgcc/soft-fp/subdf3.c:46 (discriminator 174)
800084c2:	478d                	li	a5,3
800084c4:	00f99663          	bne	s3,a5,800084d0 <__subdf3+0x3d6>
/Local/xl_ci/toolchain/riscv-gnu-toolchain/riscv-gcc/libgcc/soft-fp/subdf3.c:46 (discriminator 175)
800084c8:	e881                	bnez	s1,800084d8 <__subdf3+0x3de>
/Local/xl_ci/toolchain/riscv-gnu-toolchain/riscv-gcc/libgcc/soft-fp/subdf3.c:46
800084ca:	7ff00613          	li	a2,2047
800084ce:	a881                	j	8000851e <__subdf3+0x424>
/Local/xl_ci/toolchain/riscv-gnu-toolchain/riscv-gcc/libgcc/soft-fp/subdf3.c:46 (discriminator 178)
800084d0:	4789                	li	a5,2
800084d2:	00f99363          	bne	s3,a5,800084d8 <__subdf3+0x3de>
/Local/xl_ci/toolchain/riscv-gnu-toolchain/riscv-gcc/libgcc/soft-fp/subdf3.c:46 (discriminator 179)
800084d6:	f8f5                	bnez	s1,800084ca <__subdf3+0x3d0>
/Local/xl_ci/toolchain/riscv-gnu-toolchain/riscv-gcc/libgcc/soft-fp/subdf3.c:47
800084d8:	4581                	li	a1,0
/Local/xl_ci/toolchain/riscv-gnu-toolchain/riscv-gcc/libgcc/soft-fp/subdf3.c:46
800084da:	577d                	li	a4,-1
800084dc:	57fd                	li	a5,-1
800084de:	7fe00613          	li	a2,2046
800084e2:	4415                	li	s0,5
/Local/xl_ci/toolchain/riscv-gnu-toolchain/riscv-gcc/libgcc/soft-fp/subdf3.c:47 (discriminator 37)
800084e4:	4689                	li	a3,2
800084e6:	00146413          	ori	s0,s0,1
800084ea:	48d98563          	beq	s3,a3,80008974 <__subdf3+0x87a>
/Local/xl_ci/toolchain/riscv-gnu-toolchain/riscv-gcc/libgcc/soft-fp/subdf3.c:47
800084ee:	468d                	li	a3,3
800084f0:	46d98e63          	beq	s3,a3,8000896c <__subdf3+0x872>
800084f4:	48099163          	bnez	s3,80008976 <__subdf3+0x87c>
/Local/xl_ci/toolchain/riscv-gnu-toolchain/riscv-gcc/libgcc/soft-fp/subdf3.c:47 (discriminator 40)
800084f8:	00f7f693          	andi	a3,a5,15
800084fc:	4511                	li	a0,4
800084fe:	46a68c63          	beq	a3,a0,80008976 <__subdf3+0x87c>
/Local/xl_ci/toolchain/riscv-gnu-toolchain/riscv-gcc/libgcc/soft-fp/subdf3.c:47 (discriminator 44)
80008502:	00478693          	addi	a3,a5,4 # ff800004 <_sp+0x6f7f0004>
/Local/xl_ci/toolchain/riscv-gnu-toolchain/riscv-gcc/libgcc/soft-fp/subdf3.c:47 (discriminator 55)
80008506:	00f6b7b3          	sltu	a5,a3,a5
8000850a:	973e                	add	a4,a4,a5
8000850c:	87b6                	mv	a5,a3
8000850e:	a1a5                	j	80008976 <__subdf3+0x87c>
/Local/xl_ci/toolchain/riscv-gnu-toolchain/riscv-gcc/libgcc/soft-fp/subdf3.c:46 (discriminator 189)
80008510:	00098763          	beqz	s3,8000851e <__subdf3+0x424>
/Local/xl_ci/toolchain/riscv-gnu-toolchain/riscv-gcc/libgcc/soft-fp/subdf3.c:46 (discriminator 192)
80008514:	478d                	li	a5,3
80008516:	00f99863          	bne	s3,a5,80008526 <__subdf3+0x42c>
/Local/xl_ci/toolchain/riscv-gnu-toolchain/riscv-gcc/libgcc/soft-fp/subdf3.c:46 (discriminator 193)
8000851a:	3e049e63          	bnez	s1,80008916 <__subdf3+0x81c>
/Local/xl_ci/toolchain/riscv-gnu-toolchain/riscv-gcc/libgcc/soft-fp/subdf3.c:46
8000851e:	4701                	li	a4,0
80008520:	4781                	li	a5,0
80008522:	4415                	li	s0,5
80008524:	b729                	j	8000842e <__subdf3+0x334>
/Local/xl_ci/toolchain/riscv-gnu-toolchain/riscv-gcc/libgcc/soft-fp/subdf3.c:46 (discriminator 196)
80008526:	4789                	li	a5,2
80008528:	3ef99763          	bne	s3,a5,80008916 <__subdf3+0x81c>
/Local/xl_ci/toolchain/riscv-gnu-toolchain/riscv-gcc/libgcc/soft-fp/subdf3.c:46 (discriminator 197)
8000852c:	f8ed                	bnez	s1,8000851e <__subdf3+0x424>
8000852e:	b76d                	j	800084d8 <__subdf3+0x3de>
/Local/xl_ci/toolchain/riscv-gnu-toolchain/riscv-gcc/libgcc/soft-fp/subdf3.c:46 (discriminator 13)
80008530:	0cc05763          	blez	a2,800085fe <__subdf3+0x504>
/Local/xl_ci/toolchain/riscv-gnu-toolchain/riscv-gcc/libgcc/soft-fp/subdf3.c:46 (discriminator 205)
80008534:	e1c9                	bnez	a1,800085b6 <__subdf3+0x4bc>
/Local/xl_ci/toolchain/riscv-gnu-toolchain/riscv-gcc/libgcc/soft-fp/subdf3.c:46 (discriminator 207)
80008536:	0106e533          	or	a0,a3,a6
8000853a:	c2050de3          	beqz	a0,80008174 <__subdf3+0x7a>
/Local/xl_ci/toolchain/riscv-gnu-toolchain/riscv-gcc/libgcc/soft-fp/subdf3.c:46 (discriminator 210)
8000853e:	fff60513          	addi	a0,a2,-1
80008542:	e911                	bnez	a0,80008556 <__subdf3+0x45c>
/Local/xl_ci/toolchain/riscv-gnu-toolchain/riscv-gcc/libgcc/soft-fp/subdf3.c:46 (discriminator 219)
80008544:	41078833          	sub	a6,a5,a6
80008548:	40d706b3          	sub	a3,a4,a3
8000854c:	0107b7b3          	sltu	a5,a5,a6
80008550:	8e9d                	sub	a3,a3,a5
/Local/xl_ci/toolchain/riscv-gnu-toolchain/riscv-gcc/libgcc/soft-fp/subdf3.c:45 (discriminator 276)
80008552:	4605                	li	a2,1
/Local/xl_ci/toolchain/riscv-gnu-toolchain/riscv-gcc/libgcc/soft-fp/subdf3.c:46 (discriminator 276)
80008554:	a0a9                	j	8000859e <__subdf3+0x4a4>
/Local/xl_ci/toolchain/riscv-gnu-toolchain/riscv-gcc/libgcc/soft-fp/subdf3.c:46 (discriminator 220)
80008556:	7ff00893          	li	a7,2047
8000855a:	c5160be3          	beq	a2,a7,800081b0 <__subdf3+0xb6>
/Local/xl_ci/toolchain/riscv-gnu-toolchain/riscv-gcc/libgcc/soft-fp/subdf3.c:46 (discriminator 243)
8000855e:	03800613          	li	a2,56
80008562:	08a64963          	blt	a2,a0,800085f4 <__subdf3+0x4fa>
/Local/xl_ci/toolchain/riscv-gnu-toolchain/riscv-gcc/libgcc/soft-fp/subdf3.c:46 (discriminator 244)
80008566:	467d                	li	a2,31
80008568:	06a64063          	blt	a2,a0,800085c8 <__subdf3+0x4ce>
/Local/xl_ci/toolchain/riscv-gnu-toolchain/riscv-gcc/libgcc/soft-fp/subdf3.c:46 (discriminator 246)
8000856c:	02000613          	li	a2,32
80008570:	8e09                	sub	a2,a2,a0
80008572:	00c695b3          	sll	a1,a3,a2
80008576:	00a858b3          	srl	a7,a6,a0
8000857a:	00c81833          	sll	a6,a6,a2
8000857e:	0115e5b3          	or	a1,a1,a7
80008582:	01003833          	snez	a6,a6
80008586:	0105e833          	or	a6,a1,a6
8000858a:	00a6d6b3          	srl	a3,a3,a0
/Local/xl_ci/toolchain/riscv-gnu-toolchain/riscv-gcc/libgcc/soft-fp/subdf3.c:46 (discriminator 260)
8000858e:	41078833          	sub	a6,a5,a6
80008592:	40d706b3          	sub	a3,a4,a3
80008596:	0107b7b3          	sltu	a5,a5,a6
8000859a:	8e9d                	sub	a3,a3,a5
/Local/xl_ci/toolchain/riscv-gnu-toolchain/riscv-gcc/libgcc/soft-fp/subdf3.c:44 (discriminator 260)
8000859c:	8622                	mv	a2,s0
/Local/xl_ci/toolchain/riscv-gnu-toolchain/riscv-gcc/libgcc/soft-fp/subdf3.c:46 (discriminator 318)
8000859e:	00800937          	lui	s2,0x800
800085a2:	0126f7b3          	and	a5,a3,s2
800085a6:	ce078ce3          	beqz	a5,8000829e <__subdf3+0x1a4>
/Local/xl_ci/toolchain/riscv-gnu-toolchain/riscv-gcc/libgcc/soft-fp/subdf3.c:46 (discriminator 378)
800085aa:	197d                	addi	s2,s2,-1
800085ac:	0126f933          	and	s2,a3,s2
800085b0:	8a42                	mv	s4,a6
800085b2:	8432                	mv	s0,a2
800085b4:	a4b5                	j	80008820 <__subdf3+0x726>
/Local/xl_ci/toolchain/riscv-gnu-toolchain/riscv-gcc/libgcc/soft-fp/subdf3.c:46 (discriminator 208)
800085b6:	7ff00593          	li	a1,2047
800085ba:	c0b406e3          	beq	s0,a1,800081c6 <__subdf3+0xcc>
/Local/xl_ci/toolchain/riscv-gnu-toolchain/riscv-gcc/libgcc/soft-fp/subdf3.c:46 (discriminator 234)
800085be:	008005b7          	lui	a1,0x800
800085c2:	8ecd                	or	a3,a3,a1
800085c4:	8532                	mv	a0,a2
800085c6:	bf61                	j	8000855e <__subdf3+0x464>
/Local/xl_ci/toolchain/riscv-gnu-toolchain/riscv-gcc/libgcc/soft-fp/subdf3.c:46 (discriminator 247)
800085c8:	fe050593          	addi	a1,a0,-32 # 7fffe0 <__stack_size+0x7ff7e0>
800085cc:	02000893          	li	a7,32
800085d0:	00b6d5b3          	srl	a1,a3,a1
800085d4:	4601                	li	a2,0
800085d6:	01150763          	beq	a0,a7,800085e4 <__subdf3+0x4ea>
/Local/xl_ci/toolchain/riscv-gnu-toolchain/riscv-gcc/libgcc/soft-fp/subdf3.c:46 (discriminator 254)
800085da:	04000613          	li	a2,64
800085de:	8e09                	sub	a2,a2,a0
800085e0:	00c69633          	sll	a2,a3,a2
/Local/xl_ci/toolchain/riscv-gnu-toolchain/riscv-gcc/libgcc/soft-fp/subdf3.c:46 (discriminator 257)
800085e4:	01066833          	or	a6,a2,a6
800085e8:	01003833          	snez	a6,a6
800085ec:	0105e833          	or	a6,a1,a6
/Local/xl_ci/toolchain/riscv-gnu-toolchain/riscv-gcc/libgcc/soft-fp/subdf3.c:46 (discriminator 245)
800085f0:	4681                	li	a3,0
800085f2:	bf71                	j	8000858e <__subdf3+0x494>
800085f4:	0106e833          	or	a6,a3,a6
800085f8:	01003833          	snez	a6,a6
800085fc:	bfd5                	j	800085f0 <__subdf3+0x4f6>
/Local/xl_ci/toolchain/riscv-gnu-toolchain/riscv-gcc/libgcc/soft-fp/subdf3.c:46 (discriminator 206)
800085fe:	ce6d                	beqz	a2,800086f8 <__subdf3+0x5fe>
/Local/xl_ci/toolchain/riscv-gnu-toolchain/riscv-gcc/libgcc/soft-fp/subdf3.c:46 (discriminator 262)
80008600:	40858633          	sub	a2,a1,s0
80008604:	e439                	bnez	s0,80008652 <__subdf3+0x558>
/Local/xl_ci/toolchain/riscv-gnu-toolchain/riscv-gcc/libgcc/soft-fp/subdf3.c:46 (discriminator 264)
80008606:	00f76533          	or	a0,a4,a5
8000860a:	e509                	bnez	a0,80008614 <__subdf3+0x51a>
/Local/xl_ci/toolchain/riscv-gnu-toolchain/riscv-gcc/libgcc/soft-fp/subdf3.c:46 (discriminator 266)
8000860c:	7ff00793          	li	a5,2047
80008610:	849a                	mv	s1,t1
80008612:	b161                	j	8000829a <__subdf3+0x1a0>
/Local/xl_ci/toolchain/riscv-gnu-toolchain/riscv-gcc/libgcc/soft-fp/subdf3.c:46 (discriminator 267)
80008614:	fff60893          	addi	a7,a2,-1
80008618:	00089c63          	bnez	a7,80008630 <__subdf3+0x536>
/Local/xl_ci/toolchain/riscv-gnu-toolchain/riscv-gcc/libgcc/soft-fp/subdf3.c:46 (discriminator 276)
8000861c:	40f807b3          	sub	a5,a6,a5
80008620:	00f83833          	sltu	a6,a6,a5
80008624:	8e99                	sub	a3,a3,a4
80008626:	410686b3          	sub	a3,a3,a6
8000862a:	849a                	mv	s1,t1
8000862c:	883e                	mv	a6,a5
8000862e:	b715                	j	80008552 <__subdf3+0x458>
/Local/xl_ci/toolchain/riscv-gnu-toolchain/riscv-gcc/libgcc/soft-fp/subdf3.c:46 (discriminator 277)
80008630:	7ff00513          	li	a0,2047
80008634:	04a61563          	bne	a2,a0,8000867e <__subdf3+0x584>
/Local/xl_ci/toolchain/riscv-gnu-toolchain/riscv-gcc/libgcc/soft-fp/subdf3.c:46 (discriminator 281)
80008638:	0106e7b3          	or	a5,a3,a6
8000863c:	2e078c63          	beqz	a5,80008934 <__subdf3+0x83a>
/Local/xl_ci/toolchain/riscv-gnu-toolchain/riscv-gcc/libgcc/soft-fp/subdf3.c:46 (discriminator 283)
80008640:	004007b7          	lui	a5,0x400
80008644:	8ff5                	and	a5,a5,a3
80008646:	8736                	mv	a4,a3
80008648:	2e079963          	bnez	a5,8000893a <__subdf3+0x840>
/Local/xl_ci/toolchain/riscv-gnu-toolchain/riscv-gcc/libgcc/soft-fp/subdf3.c:45
8000864c:	87c2                	mv	a5,a6
/Local/xl_ci/toolchain/riscv-gnu-toolchain/riscv-gcc/libgcc/soft-fp/subdf3.c:46
8000864e:	849a                	mv	s1,t1
80008650:	b94d                	j	80008302 <__subdf3+0x208>
/Local/xl_ci/toolchain/riscv-gnu-toolchain/riscv-gcc/libgcc/soft-fp/subdf3.c:46 (discriminator 265)
80008652:	7ff00513          	li	a0,2047
80008656:	02a59063          	bne	a1,a0,80008676 <__subdf3+0x57c>
/Local/xl_ci/toolchain/riscv-gnu-toolchain/riscv-gcc/libgcc/soft-fp/subdf3.c:46 (discriminator 292)
8000865a:	0106e7b3          	or	a5,a3,a6
8000865e:	2e078163          	beqz	a5,80008940 <__subdf3+0x846>
/Local/xl_ci/toolchain/riscv-gnu-toolchain/riscv-gcc/libgcc/soft-fp/subdf3.c:46 (discriminator 294)
80008662:	004007b7          	lui	a5,0x400
80008666:	8ff5                	and	a5,a5,a3
80008668:	8736                	mv	a4,a3
8000866a:	2e079063          	bnez	a5,8000894a <__subdf3+0x850>
/Local/xl_ci/toolchain/riscv-gnu-toolchain/riscv-gcc/libgcc/soft-fp/subdf3.c:45
8000866e:	87c2                	mv	a5,a6
/Local/xl_ci/toolchain/riscv-gnu-toolchain/riscv-gcc/libgcc/soft-fp/subdf3.c:46
80008670:	7ff00613          	li	a2,2047
80008674:	bfe9                	j	8000864e <__subdf3+0x554>
/Local/xl_ci/toolchain/riscv-gnu-toolchain/riscv-gcc/libgcc/soft-fp/subdf3.c:46 (discriminator 291)
80008676:	00800537          	lui	a0,0x800
8000867a:	8f49                	or	a4,a4,a0
8000867c:	88b2                	mv	a7,a2
/Local/xl_ci/toolchain/riscv-gnu-toolchain/riscv-gcc/libgcc/soft-fp/subdf3.c:46 (discriminator 300)
8000867e:	03800613          	li	a2,56
80008682:	07164763          	blt	a2,a7,800086f0 <__subdf3+0x5f6>
/Local/xl_ci/toolchain/riscv-gnu-toolchain/riscv-gcc/libgcc/soft-fp/subdf3.c:46 (discriminator 301)
80008686:	467d                	li	a2,31
80008688:	03164f63          	blt	a2,a7,800086c6 <__subdf3+0x5cc>
/Local/xl_ci/toolchain/riscv-gnu-toolchain/riscv-gcc/libgcc/soft-fp/subdf3.c:46 (discriminator 303)
8000868c:	02000513          	li	a0,32
80008690:	41150533          	sub	a0,a0,a7
80008694:	00a71633          	sll	a2,a4,a0
80008698:	0117de33          	srl	t3,a5,a7
8000869c:	00a797b3          	sll	a5,a5,a0
800086a0:	01c66633          	or	a2,a2,t3
800086a4:	00f037b3          	snez	a5,a5
800086a8:	8fd1                	or	a5,a5,a2
800086aa:	01175733          	srl	a4,a4,a7
/Local/xl_ci/toolchain/riscv-gnu-toolchain/riscv-gcc/libgcc/soft-fp/subdf3.c:46 (discriminator 317)
800086ae:	40f807b3          	sub	a5,a6,a5
800086b2:	40e68733          	sub	a4,a3,a4
800086b6:	00f836b3          	sltu	a3,a6,a5
800086ba:	40d706b3          	sub	a3,a4,a3
800086be:	883e                	mv	a6,a5
/Local/xl_ci/toolchain/riscv-gnu-toolchain/riscv-gcc/libgcc/soft-fp/subdf3.c:45 (discriminator 317)
800086c0:	862e                	mv	a2,a1
800086c2:	849a                	mv	s1,t1
800086c4:	bde9                	j	8000859e <__subdf3+0x4a4>
/Local/xl_ci/toolchain/riscv-gnu-toolchain/riscv-gcc/libgcc/soft-fp/subdf3.c:46 (discriminator 304)
800086c6:	fe088613          	addi	a2,a7,-32
800086ca:	02000e13          	li	t3,32
800086ce:	00c75633          	srl	a2,a4,a2
800086d2:	4501                	li	a0,0
800086d4:	01c88863          	beq	a7,t3,800086e4 <__subdf3+0x5ea>
/Local/xl_ci/toolchain/riscv-gnu-toolchain/riscv-gcc/libgcc/soft-fp/subdf3.c:46 (discriminator 311)
800086d8:	04000513          	li	a0,64
800086dc:	41150533          	sub	a0,a0,a7
800086e0:	00a71533          	sll	a0,a4,a0
/Local/xl_ci/toolchain/riscv-gnu-toolchain/riscv-gcc/libgcc/soft-fp/subdf3.c:46 (discriminator 314)
800086e4:	8fc9                	or	a5,a5,a0
800086e6:	00f037b3          	snez	a5,a5
800086ea:	8fd1                	or	a5,a5,a2
/Local/xl_ci/toolchain/riscv-gnu-toolchain/riscv-gcc/libgcc/soft-fp/subdf3.c:46 (discriminator 302)
800086ec:	4701                	li	a4,0
800086ee:	b7c1                	j	800086ae <__subdf3+0x5b4>
800086f0:	8fd9                	or	a5,a5,a4
800086f2:	00f037b3          	snez	a5,a5
800086f6:	bfdd                	j	800086ec <__subdf3+0x5f2>
/Local/xl_ci/toolchain/riscv-gnu-toolchain/riscv-gcc/libgcc/soft-fp/subdf3.c:46 (discriminator 263)
800086f8:	00140613          	addi	a2,s0,1 # 400001 <__stack_size+0x3ff801>
800086fc:	7fe67613          	andi	a2,a2,2046
80008700:	ea7d                	bnez	a2,800087f6 <__subdf3+0x6fc>
/Local/xl_ci/toolchain/riscv-gnu-toolchain/riscv-gcc/libgcc/soft-fp/subdf3.c:46 (discriminator 319)
80008702:	00f76533          	or	a0,a4,a5
80008706:	0106e633          	or	a2,a3,a6
8000870a:	e055                	bnez	s0,800087ae <__subdf3+0x6b4>
/Local/xl_ci/toolchain/riscv-gnu-toolchain/riscv-gcc/libgcc/soft-fp/subdf3.c:46 (discriminator 321)
8000870c:	e12d                	bnez	a0,8000876e <__subdf3+0x674>
/Local/xl_ci/toolchain/riscv-gnu-toolchain/riscv-gcc/libgcc/soft-fp/subdf3.c:46 (discriminator 323)
8000870e:	1c061263          	bnez	a2,800088d2 <__subdf3+0x7d8>
/Local/xl_ci/toolchain/riscv-gnu-toolchain/riscv-gcc/libgcc/soft-fp/subdf3.c:46 (discriminator 325)
80008712:	ffe98493          	addi	s1,s3,-2
80008716:	0014b493          	seqz	s1,s1
8000871a:	4701                	li	a4,0
8000871c:	4781                	li	a5,0
/Local/xl_ci/toolchain/riscv-gnu-toolchain/riscv-gcc/libgcc/soft-fp/subdf3.c:47 (discriminator 1)
8000871e:	00e7e6b3          	or	a3,a5,a4
80008722:	24068163          	beqz	a3,80008964 <__subdf3+0x86a>
/Local/xl_ci/toolchain/riscv-gnu-toolchain/riscv-gcc/libgcc/soft-fp/subdf3.c:47
80008726:	01f7d693          	srli	a3,a5,0x1f
8000872a:	00171593          	slli	a1,a4,0x1
8000872e:	95b6                	add	a1,a1,a3
80008730:	00179693          	slli	a3,a5,0x1
80008734:	0076f613          	andi	a2,a3,7
80008738:	4401                	li	s0,0
8000873a:	c605                	beqz	a2,80008762 <__subdf3+0x668>
8000873c:	4609                	li	a2,2
8000873e:	1ac98a63          	beq	s3,a2,800088f2 <__subdf3+0x7f8>
80008742:	460d                	li	a2,3
80008744:	18c98d63          	beq	s3,a2,800088de <__subdf3+0x7e4>
80008748:	4405                	li	s0,1
8000874a:	00099c63          	bnez	s3,80008762 <__subdf3+0x668>
/Local/xl_ci/toolchain/riscv-gnu-toolchain/riscv-gcc/libgcc/soft-fp/subdf3.c:47 (discriminator 16)
8000874e:	00f6f613          	andi	a2,a3,15
80008752:	4511                	li	a0,4
80008754:	00a60763          	beq	a2,a0,80008762 <__subdf3+0x668>
/Local/xl_ci/toolchain/riscv-gnu-toolchain/riscv-gcc/libgcc/soft-fp/subdf3.c:47 (discriminator 20)
80008758:	ffc6b693          	sltiu	a3,a3,-4
8000875c:	0016c693          	xori	a3,a3,1
80008760:	95b6                	add	a1,a1,a3
/Local/xl_ci/toolchain/riscv-gnu-toolchain/riscv-gcc/libgcc/soft-fp/subdf3.c:47 (discriminator 23)
80008762:	81e1                	srli	a1,a1,0x18
80008764:	0015c593          	xori	a1,a1,1
80008768:	8985                	andi	a1,a1,1
8000876a:	4601                	li	a2,0
8000876c:	b991                	j	800083c0 <__subdf3+0x2c6>
/Local/xl_ci/toolchain/riscv-gnu-toolchain/riscv-gcc/libgcc/soft-fp/subdf3.c:46 (discriminator 324)
8000876e:	da45                	beqz	a2,8000871e <__subdf3+0x624>
/Local/xl_ci/toolchain/riscv-gnu-toolchain/riscv-gcc/libgcc/soft-fp/subdf3.c:46 (discriminator 331)
80008770:	410785b3          	sub	a1,a5,a6
80008774:	00b7b533          	sltu	a0,a5,a1
80008778:	40d70633          	sub	a2,a4,a3
8000877c:	8e09                	sub	a2,a2,a0
8000877e:	00800537          	lui	a0,0x800
80008782:	8d71                	and	a0,a0,a2
80008784:	c919                	beqz	a0,8000879a <__subdf3+0x6a0>
/Local/xl_ci/toolchain/riscv-gnu-toolchain/riscv-gcc/libgcc/soft-fp/subdf3.c:46 (discriminator 333)
80008786:	40f807b3          	sub	a5,a6,a5
8000878a:	40e68733          	sub	a4,a3,a4
8000878e:	00f83833          	sltu	a6,a6,a5
80008792:	41070733          	sub	a4,a4,a6
80008796:	849a                	mv	s1,t1
80008798:	b759                	j	8000871e <__subdf3+0x624>
/Local/xl_ci/toolchain/riscv-gnu-toolchain/riscv-gcc/libgcc/soft-fp/subdf3.c:46 (discriminator 334)
8000879a:	00c5e7b3          	or	a5,a1,a2
8000879e:	12079d63          	bnez	a5,800088d8 <__subdf3+0x7de>
/Local/xl_ci/toolchain/riscv-gnu-toolchain/riscv-gcc/libgcc/soft-fp/subdf3.c:46 (discriminator 374)
800087a2:	ffe98493          	addi	s1,s3,-2
800087a6:	0014b493          	seqz	s1,s1
/Local/xl_ci/toolchain/riscv-gnu-toolchain/riscv-gcc/libgcc/soft-fp/subdf3.c:46 (discriminator 422)
800087aa:	4701                	li	a4,0
800087ac:	bf8d                	j	8000871e <__subdf3+0x624>
/Local/xl_ci/toolchain/riscv-gnu-toolchain/riscv-gcc/libgcc/soft-fp/subdf3.c:46 (discriminator 322)
800087ae:	7ff00893          	li	a7,2047
800087b2:	03141363          	bne	s0,a7,800087d8 <__subdf3+0x6de>
/Local/xl_ci/toolchain/riscv-gnu-toolchain/riscv-gcc/libgcc/soft-fp/subdf3.c:46 (discriminator 340)
800087b6:	1e050663          	beqz	a0,800089a2 <__subdf3+0x8a8>
/Local/xl_ci/toolchain/riscv-gnu-toolchain/riscv-gcc/libgcc/soft-fp/subdf3.c:46 (discriminator 342)
800087ba:	00400437          	lui	s0,0x400
800087be:	8c79                	and	s0,s0,a4
/Local/xl_ci/toolchain/riscv-gnu-toolchain/riscv-gcc/libgcc/soft-fp/subdf3.c:37 (discriminator 342)
800087c0:	00143413          	seqz	s0,s0
800087c4:	0412                	slli	s0,s0,0x4
/Local/xl_ci/toolchain/riscv-gnu-toolchain/riscv-gcc/libgcc/soft-fp/subdf3.c:46 (discriminator 342)
800087c6:	03159563          	bne	a1,a7,800087f0 <__subdf3+0x6f6>
/Local/xl_ci/toolchain/riscv-gnu-toolchain/riscv-gcc/libgcc/soft-fp/subdf3.c:46 (discriminator 347)
800087ca:	ca11                	beqz	a2,800087de <__subdf3+0x6e4>
/Local/xl_ci/toolchain/riscv-gnu-toolchain/riscv-gcc/libgcc/soft-fp/subdf3.c:46 (discriminator 349)
800087cc:	004005b7          	lui	a1,0x400
800087d0:	8df5                	and	a1,a1,a3
800087d2:	e591                	bnez	a1,800087de <__subdf3+0x6e4>
/Local/xl_ci/toolchain/riscv-gnu-toolchain/riscv-gcc/libgcc/soft-fp/subdf3.c:46
800087d4:	4441                	li	s0,16
800087d6:	a021                	j	800087de <__subdf3+0x6e4>
/Local/xl_ci/toolchain/riscv-gnu-toolchain/riscv-gcc/libgcc/soft-fp/subdf3.c:37 (discriminator 346)
800087d8:	4401                	li	s0,0
/Local/xl_ci/toolchain/riscv-gnu-toolchain/riscv-gcc/libgcc/soft-fp/subdf3.c:46 (discriminator 346)
800087da:	ff1588e3          	beq	a1,a7,800087ca <__subdf3+0x6d0>
/Local/xl_ci/toolchain/riscv-gnu-toolchain/riscv-gcc/libgcc/soft-fp/subdf3.c:46 (discriminator 353)
800087de:	e909                	bnez	a0,800087f0 <__subdf3+0x6f6>
/Local/xl_ci/toolchain/riscv-gnu-toolchain/riscv-gcc/libgcc/soft-fp/subdf3.c:46 (discriminator 354)
800087e0:	16060a63          	beqz	a2,80008954 <__subdf3+0x85a>
/Local/xl_ci/toolchain/riscv-gnu-toolchain/riscv-gcc/libgcc/soft-fp/subdf3.c:45
800087e4:	8736                	mv	a4,a3
800087e6:	87c2                	mv	a5,a6
/Local/xl_ci/toolchain/riscv-gnu-toolchain/riscv-gcc/libgcc/soft-fp/subdf3.c:46
800087e8:	849a                	mv	s1,t1
800087ea:	b11d                	j	80008410 <__subdf3+0x316>
/Local/xl_ci/toolchain/riscv-gnu-toolchain/riscv-gcc/libgcc/soft-fp/subdf3.c:37
800087ec:	4401                	li	s0,0
800087ee:	bff1                	j	800087ca <__subdf3+0x6d0>
/Local/xl_ci/toolchain/riscv-gnu-toolchain/riscv-gcc/libgcc/soft-fp/subdf3.c:46 (discriminator 355)
800087f0:	c20600e3          	beqz	a2,80008410 <__subdf3+0x316>
800087f4:	b13d                	j	80008422 <__subdf3+0x328>
/Local/xl_ci/toolchain/riscv-gnu-toolchain/riscv-gcc/libgcc/soft-fp/subdf3.c:46 (discriminator 320)
800087f6:	41078a33          	sub	s4,a5,a6
800087fa:	0147b633          	sltu	a2,a5,s4
800087fe:	40d70933          	sub	s2,a4,a3
80008802:	40c90933          	sub	s2,s2,a2
80008806:	00800637          	lui	a2,0x800
8000880a:	00c97633          	and	a2,s2,a2
8000880e:	c62d                	beqz	a2,80008878 <__subdf3+0x77e>
/Local/xl_ci/toolchain/riscv-gnu-toolchain/riscv-gcc/libgcc/soft-fp/subdf3.c:46 (discriminator 371)
80008810:	40f80a33          	sub	s4,a6,a5
80008814:	8e99                	sub	a3,a3,a4
80008816:	01483833          	sltu	a6,a6,s4
8000881a:	41068933          	sub	s2,a3,a6
8000881e:	849a                	mv	s1,t1
/Local/xl_ci/toolchain/riscv-gnu-toolchain/riscv-gcc/libgcc/soft-fp/subdf3.c:46 (discriminator 380)
80008820:	06090063          	beqz	s2,80008880 <__subdf3+0x786>
/Local/xl_ci/toolchain/riscv-gnu-toolchain/riscv-gcc/libgcc/soft-fp/subdf3.c:46 (discriminator 383)
80008824:	854a                	mv	a0,s2
80008826:	cc1fb0ef          	jal	ra,800044e6 <__clzsi2>
/Local/xl_ci/toolchain/riscv-gnu-toolchain/riscv-gcc/libgcc/soft-fp/subdf3.c:46 (discriminator 397)
8000882a:	ff850613          	addi	a2,a0,-8 # 7ffff8 <__stack_size+0x7ff7f8>
8000882e:	47fd                	li	a5,31
80008830:	04c7ce63          	blt	a5,a2,8000888c <__subdf3+0x792>
/Local/xl_ci/toolchain/riscv-gnu-toolchain/riscv-gcc/libgcc/soft-fp/subdf3.c:46 (discriminator 403)
80008834:	02000693          	li	a3,32
80008838:	8e91                	sub	a3,a3,a2
8000883a:	00c91733          	sll	a4,s2,a2
8000883e:	00da56b3          	srl	a3,s4,a3
80008842:	8ed9                	or	a3,a3,a4
80008844:	00ca1833          	sll	a6,s4,a2
/Local/xl_ci/toolchain/riscv-gnu-toolchain/riscv-gcc/libgcc/soft-fp/subdf3.c:46 (discriminator 407)
80008848:	06864b63          	blt	a2,s0,800088be <__subdf3+0x7c4>
/Local/xl_ci/toolchain/riscv-gnu-toolchain/riscv-gcc/libgcc/soft-fp/subdf3.c:46 (discriminator 408)
8000884c:	8e01                	sub	a2,a2,s0
8000884e:	00160713          	addi	a4,a2,1 # 800001 <__stack_size+0x7ff801>
80008852:	47fd                	li	a5,31
80008854:	04e7c263          	blt	a5,a4,80008898 <__subdf3+0x79e>
/Local/xl_ci/toolchain/riscv-gnu-toolchain/riscv-gcc/libgcc/soft-fp/subdf3.c:46 (discriminator 410)
80008858:	02000613          	li	a2,32
8000885c:	8e19                	sub	a2,a2,a4
8000885e:	00c697b3          	sll	a5,a3,a2
80008862:	00e85533          	srl	a0,a6,a4
80008866:	00c81633          	sll	a2,a6,a2
8000886a:	8fc9                	or	a5,a5,a0
8000886c:	00c03633          	snez	a2,a2
80008870:	8fd1                	or	a5,a5,a2
80008872:	00e6d733          	srl	a4,a3,a4
80008876:	b565                	j	8000871e <__subdf3+0x624>
/Local/xl_ci/toolchain/riscv-gnu-toolchain/riscv-gcc/libgcc/soft-fp/subdf3.c:46 (discriminator 372)
80008878:	012a67b3          	or	a5,s4,s2
8000887c:	f3d5                	bnez	a5,80008820 <__subdf3+0x726>
8000887e:	b715                	j	800087a2 <__subdf3+0x6a8>
/Local/xl_ci/toolchain/riscv-gnu-toolchain/riscv-gcc/libgcc/soft-fp/subdf3.c:46 (discriminator 390)
80008880:	8552                	mv	a0,s4
80008882:	c65fb0ef          	jal	ra,800044e6 <__clzsi2>
80008886:	02050513          	addi	a0,a0,32
8000888a:	b745                	j	8000882a <__subdf3+0x730>
/Local/xl_ci/toolchain/riscv-gnu-toolchain/riscv-gcc/libgcc/soft-fp/subdf3.c:46 (discriminator 399)
8000888c:	fd850693          	addi	a3,a0,-40
80008890:	00da16b3          	sll	a3,s4,a3
80008894:	4801                	li	a6,0
80008896:	bf4d                	j	80008848 <__subdf3+0x74e>
/Local/xl_ci/toolchain/riscv-gnu-toolchain/riscv-gcc/libgcc/soft-fp/subdf3.c:46 (discriminator 411)
80008898:	1605                	addi	a2,a2,-31
8000889a:	02000593          	li	a1,32
8000889e:	00c6d633          	srl	a2,a3,a2
800088a2:	4781                	li	a5,0
800088a4:	00b70763          	beq	a4,a1,800088b2 <__subdf3+0x7b8>
/Local/xl_ci/toolchain/riscv-gnu-toolchain/riscv-gcc/libgcc/soft-fp/subdf3.c:46 (discriminator 419)
800088a8:	04000793          	li	a5,64
800088ac:	8f99                	sub	a5,a5,a4
800088ae:	00f697b3          	sll	a5,a3,a5
/Local/xl_ci/toolchain/riscv-gnu-toolchain/riscv-gcc/libgcc/soft-fp/subdf3.c:46 (discriminator 422)
800088b2:	00f867b3          	or	a5,a6,a5
800088b6:	00f037b3          	snez	a5,a5
800088ba:	8fd1                	or	a5,a5,a2
800088bc:	b5fd                	j	800087aa <__subdf3+0x6b0>
/Local/xl_ci/toolchain/riscv-gnu-toolchain/riscv-gcc/libgcc/soft-fp/subdf3.c:46 (discriminator 409)
800088be:	ff8007b7          	lui	a5,0xff800
800088c2:	17fd                	addi	a5,a5,-1
800088c4:	40c40633          	sub	a2,s0,a2
800088c8:	8efd                	and	a3,a3,a5
800088ca:	bad1                	j	8000829e <__subdf3+0x1a4>
/Local/xl_ci/toolchain/riscv-gnu-toolchain/riscv-gcc/libgcc/soft-fp/subdf3.c:45
800088cc:	8736                	mv	a4,a3
/Local/xl_ci/toolchain/riscv-gnu-toolchain/riscv-gcc/libgcc/soft-fp/subdf3.c:46
800088ce:	87c2                	mv	a5,a6
800088d0:	b5b9                	j	8000871e <__subdf3+0x624>
/Local/xl_ci/toolchain/riscv-gnu-toolchain/riscv-gcc/libgcc/soft-fp/subdf3.c:45
800088d2:	8736                	mv	a4,a3
800088d4:	87c2                	mv	a5,a6
800088d6:	b5c1                	j	80008796 <__subdf3+0x69c>
800088d8:	8732                	mv	a4,a2
/Local/xl_ci/toolchain/riscv-gnu-toolchain/riscv-gcc/libgcc/soft-fp/subdf3.c:46
800088da:	87ae                	mv	a5,a1
800088dc:	b589                	j	8000871e <__subdf3+0x624>
/Local/xl_ci/toolchain/riscv-gnu-toolchain/riscv-gcc/libgcc/soft-fp/subdf3.c:47 (discriminator 19)
800088de:	8426                	mv	s0,s1
800088e0:	e80491e3          	bnez	s1,80008762 <__subdf3+0x668>
/Local/xl_ci/toolchain/riscv-gnu-toolchain/riscv-gcc/libgcc/soft-fp/subdf3.c:47 (discriminator 26)
800088e4:	ff86b693          	sltiu	a3,a3,-8
800088e8:	0016c693          	xori	a3,a3,1
800088ec:	95b6                	add	a1,a1,a3
800088ee:	4405                	li	s0,1
800088f0:	bd8d                	j	80008762 <__subdf3+0x668>
/Local/xl_ci/toolchain/riscv-gnu-toolchain/riscv-gcc/libgcc/soft-fp/subdf3.c:47 (discriminator 18)
800088f2:	4405                	li	s0,1
800088f4:	e60487e3          	beqz	s1,80008762 <__subdf3+0x668>
/Local/xl_ci/toolchain/riscv-gnu-toolchain/riscv-gcc/libgcc/soft-fp/subdf3.c:47 (discriminator 31)
800088f8:	ff86b693          	sltiu	a3,a3,-8
800088fc:	0016c693          	xori	a3,a3,1
80008900:	95b6                	add	a1,a1,a3
80008902:	8426                	mv	s0,s1
80008904:	bdb9                	j	80008762 <__subdf3+0x668>
80008906:	4701                	li	a4,0
/Local/xl_ci/toolchain/riscv-gnu-toolchain/riscv-gcc/libgcc/soft-fp/subdf3.c:46
80008908:	7ff00613          	li	a2,2047
8000890c:	b07d                	j	800081ba <__subdf3+0xc0>
/Local/xl_ci/toolchain/riscv-gnu-toolchain/riscv-gcc/libgcc/soft-fp/subdf3.c:45
8000890e:	87c2                	mv	a5,a6
/Local/xl_ci/toolchain/riscv-gnu-toolchain/riscv-gcc/libgcc/soft-fp/subdf3.c:46
80008910:	7ff00613          	li	a2,2047
80008914:	b655                	j	800084b8 <__subdf3+0x3be>
80008916:	577d                	li	a4,-1
80008918:	57fd                	li	a5,-1
8000891a:	7fe00613          	li	a2,2046
/Local/xl_ci/toolchain/riscv-gnu-toolchain/riscv-gcc/libgcc/soft-fp/subdf3.c:47
8000891e:	4581                	li	a1,0
80008920:	b6c9                	j	800084e2 <__subdf3+0x3e8>
80008922:	4701                	li	a4,0
80008924:	4781                	li	a5,0
80008926:	b621                	j	8000842e <__subdf3+0x334>
80008928:	4701                	li	a4,0
8000892a:	4781                	li	a5,0
8000892c:	bff1                	j	80008908 <__subdf3+0x80e>
/Local/xl_ci/toolchain/riscv-gnu-toolchain/riscv-gcc/libgcc/soft-fp/subdf3.c:45
8000892e:	87c2                	mv	a5,a6
/Local/xl_ci/toolchain/riscv-gnu-toolchain/riscv-gcc/libgcc/soft-fp/subdf3.c:47
80008930:	4581                	li	a1,0
80008932:	b479                	j	800083c0 <__subdf3+0x2c6>
80008934:	4701                	li	a4,0
80008936:	849a                	mv	s1,t1
80008938:	bcdd                	j	8000842e <__subdf3+0x334>
/Local/xl_ci/toolchain/riscv-gnu-toolchain/riscv-gcc/libgcc/soft-fp/subdf3.c:45
8000893a:	87c2                	mv	a5,a6
8000893c:	849a                	mv	s1,t1
8000893e:	bfcd                	j	80008930 <__subdf3+0x836>
80008940:	4701                	li	a4,0
/Local/xl_ci/toolchain/riscv-gnu-toolchain/riscv-gcc/libgcc/soft-fp/subdf3.c:46
80008942:	7ff00613          	li	a2,2047
80008946:	849a                	mv	s1,t1
80008948:	b88d                	j	800081ba <__subdf3+0xc0>
/Local/xl_ci/toolchain/riscv-gnu-toolchain/riscv-gcc/libgcc/soft-fp/subdf3.c:45
8000894a:	87c2                	mv	a5,a6
/Local/xl_ci/toolchain/riscv-gnu-toolchain/riscv-gcc/libgcc/soft-fp/subdf3.c:46
8000894c:	7ff00613          	li	a2,2047
80008950:	849a                	mv	s1,t1
80008952:	b69d                	j	800084b8 <__subdf3+0x3be>
80008954:	4781                	li	a5,0
80008956:	4481                	li	s1,0
80008958:	00400737          	lui	a4,0x400
8000895c:	7ff00613          	li	a2,2047
80008960:	4441                	li	s0,16
80008962:	b4f1                	j	8000842e <__subdf3+0x334>
80008964:	4701                	li	a4,0
80008966:	4781                	li	a5,0
80008968:	4601                	li	a2,0
8000896a:	b881                	j	800081ba <__subdf3+0xc0>
/Local/xl_ci/toolchain/riscv-gnu-toolchain/riscv-gcc/libgcc/soft-fp/subdf3.c:47 (discriminator 43)
8000896c:	e489                	bnez	s1,80008976 <__subdf3+0x87c>
/Local/xl_ci/toolchain/riscv-gnu-toolchain/riscv-gcc/libgcc/soft-fp/subdf3.c:47 (discriminator 55)
8000896e:	00878693          	addi	a3,a5,8 # ff800008 <_sp+0x6f7f0008>
80008972:	be51                	j	80008506 <__subdf3+0x40c>
/Local/xl_ci/toolchain/riscv-gnu-toolchain/riscv-gcc/libgcc/soft-fp/subdf3.c:47 (discriminator 42)
80008974:	fced                	bnez	s1,8000896e <__subdf3+0x874>
/Local/xl_ci/toolchain/riscv-gnu-toolchain/riscv-gcc/libgcc/soft-fp/subdf3.c:47
80008976:	a4059de3          	bnez	a1,800083d0 <__subdf3+0x2d6>
8000897a:	bc55                	j	8000842e <__subdf3+0x334>
/Local/xl_ci/toolchain/riscv-gnu-toolchain/riscv-gcc/libgcc/soft-fp/subdf3.c:47 (discriminator 65)
8000897c:	4781                	li	a5,0
8000897e:	00098e63          	beqz	s3,8000899a <__subdf3+0x8a0>
/Local/xl_ci/toolchain/riscv-gnu-toolchain/riscv-gcc/libgcc/soft-fp/subdf3.c:47 (discriminator 68)
80008982:	470d                	li	a4,3
80008984:	00e99763          	bne	s3,a4,80008992 <__subdf3+0x898>
/Local/xl_ci/toolchain/riscv-gnu-toolchain/riscv-gcc/libgcc/soft-fp/subdf3.c:47 (discriminator 69)
80008988:	c889                	beqz	s1,8000899a <__subdf3+0x8a0>
/Local/xl_ci/toolchain/riscv-gnu-toolchain/riscv-gcc/libgcc/soft-fp/subdf3.c:47
8000898a:	57fd                	li	a5,-1
8000898c:	7fe00613          	li	a2,2046
80008990:	a029                	j	8000899a <__subdf3+0x8a0>
/Local/xl_ci/toolchain/riscv-gnu-toolchain/riscv-gcc/libgcc/soft-fp/subdf3.c:47 (discriminator 72)
80008992:	4709                	li	a4,2
80008994:	fee99be3          	bne	s3,a4,8000898a <__subdf3+0x890>
/Local/xl_ci/toolchain/riscv-gnu-toolchain/riscv-gcc/libgcc/soft-fp/subdf3.c:47 (discriminator 73)
80008998:	d8ed                	beqz	s1,8000898a <__subdf3+0x890>
/Local/xl_ci/toolchain/riscv-gnu-toolchain/riscv-gcc/libgcc/soft-fp/subdf3.c:47 (discriminator 78)
8000899a:	00546413          	ori	s0,s0,5
8000899e:	873e                	mv	a4,a5
800089a0:	b465                	j	80008448 <__subdf3+0x34e>
/Local/xl_ci/toolchain/riscv-gnu-toolchain/riscv-gcc/libgcc/soft-fp/subdf3.c:46
800089a2:	e48585e3          	beq	a1,s0,800087ec <__subdf3+0x6f2>
/Local/xl_ci/toolchain/riscv-gnu-toolchain/riscv-gcc/libgcc/soft-fp/subdf3.c:37
800089a6:	4401                	li	s0,0
800089a8:	bd25                	j	800087e0 <__subdf3+0x6e6>
/Local/xl_ci/toolchain/riscv-gnu-toolchain/riscv-gcc/libgcc/soft-fp/subdf3.c:46
800089aa:	a68587e3          	beq	a1,s0,80008418 <__subdf3+0x31e>
800089ae:	4401                	li	s0,0
800089b0:	bcb1                	j	8000840c <__subdf3+0x312>

800089b2 <__unorddf2>:
__unorddf2():
/Local/xl_ci/toolchain/riscv-gnu-toolchain/riscv-gcc/libgcc/soft-fp/unorddf2.c:35
800089b2:	872a                	mv	a4,a0
/Local/xl_ci/toolchain/riscv-gnu-toolchain/riscv-gcc/libgcc/soft-fp/unorddf2.c:41
800089b4:	002027f3          	frrm	a5
/Local/xl_ci/toolchain/riscv-gnu-toolchain/riscv-gcc/libgcc/soft-fp/unorddf2.c:42
800089b8:	001007b7          	lui	a5,0x100
800089bc:	17fd                	addi	a5,a5,-1
800089be:	00b7f833          	and	a6,a5,a1
800089c2:	81d1                	srli	a1,a1,0x14
/Local/xl_ci/toolchain/riscv-gnu-toolchain/riscv-gcc/libgcc/soft-fp/unorddf2.c:43
800089c4:	8ff5                	and	a5,a5,a3
/Local/xl_ci/toolchain/riscv-gnu-toolchain/riscv-gcc/libgcc/soft-fp/unorddf2.c:42
800089c6:	7ff5f593          	andi	a1,a1,2047
/Local/xl_ci/toolchain/riscv-gnu-toolchain/riscv-gcc/libgcc/soft-fp/unorddf2.c:43
800089ca:	82d1                	srli	a3,a3,0x14
/Local/xl_ci/toolchain/riscv-gnu-toolchain/riscv-gcc/libgcc/soft-fp/unorddf2.c:44
800089cc:	7ff00513          	li	a0,2047
/Local/xl_ci/toolchain/riscv-gnu-toolchain/riscv-gcc/libgcc/soft-fp/unorddf2.c:43
800089d0:	7ff6f693          	andi	a3,a3,2047
/Local/xl_ci/toolchain/riscv-gnu-toolchain/riscv-gcc/libgcc/soft-fp/unorddf2.c:44
800089d4:	00a59563          	bne	a1,a0,800089de <__unorddf2+0x2c>
/Local/xl_ci/toolchain/riscv-gnu-toolchain/riscv-gcc/libgcc/soft-fp/unorddf2.c:44 (discriminator 20)
800089d8:	00e86533          	or	a0,a6,a4
800089dc:	e105                	bnez	a0,800089fc <__unorddf2+0x4a>
/Local/xl_ci/toolchain/riscv-gnu-toolchain/riscv-gcc/libgcc/soft-fp/unorddf2.c:44 (discriminator 23)
800089de:	7ff00893          	li	a7,2047
800089e2:	4501                	li	a0,0
800089e4:	05169363          	bne	a3,a7,80008a2a <__unorddf2+0x78>
/Local/xl_ci/toolchain/riscv-gnu-toolchain/riscv-gcc/libgcc/soft-fp/unorddf2.c:44 (discriminator 24)
800089e8:	00c7e8b3          	or	a7,a5,a2
800089ec:	00089363          	bnez	a7,800089f2 <__unorddf2+0x40>
800089f0:	8082                	ret
/Local/xl_ci/toolchain/riscv-gnu-toolchain/riscv-gcc/libgcc/soft-fp/unorddf2.c:44
800089f2:	02d59363          	bne	a1,a3,80008a18 <__unorddf2+0x66>
/Local/xl_ci/toolchain/riscv-gnu-toolchain/riscv-gcc/libgcc/soft-fp/unorddf2.c:44 (discriminator 56)
800089f6:	00e86733          	or	a4,a6,a4
800089fa:	cf01                	beqz	a4,80008a12 <__unorddf2+0x60>
/Local/xl_ci/toolchain/riscv-gnu-toolchain/riscv-gcc/libgcc/soft-fp/unorddf2.c:44 (discriminator 58)
800089fc:	00080737          	lui	a4,0x80
80008a00:	00e87833          	and	a6,a6,a4
80008a04:	00080f63          	beqz	a6,80008a22 <__unorddf2+0x70>
/Local/xl_ci/toolchain/riscv-gnu-toolchain/riscv-gcc/libgcc/soft-fp/unorddf2.c:44 (discriminator 64)
80008a08:	7ff00713          	li	a4,2047
80008a0c:	4505                	li	a0,1
80008a0e:	00e69e63          	bne	a3,a4,80008a2a <__unorddf2+0x78>
/Local/xl_ci/toolchain/riscv-gnu-toolchain/riscv-gcc/libgcc/soft-fp/unorddf2.c:44 (discriminator 65)
80008a12:	8e5d                	or	a2,a2,a5
80008a14:	4505                	li	a0,1
80008a16:	ca11                	beqz	a2,80008a2a <__unorddf2+0x78>
/Local/xl_ci/toolchain/riscv-gnu-toolchain/riscv-gcc/libgcc/soft-fp/unorddf2.c:44 (discriminator 67)
80008a18:	00080737          	lui	a4,0x80
80008a1c:	8ff9                	and	a5,a5,a4
80008a1e:	4505                	li	a0,1
80008a20:	e789                	bnez	a5,80008a2a <__unorddf2+0x78>
/Local/xl_ci/toolchain/riscv-gnu-toolchain/riscv-gcc/libgcc/soft-fp/unorddf2.c:45 (discriminator 1)
80008a22:	00186073          	csrsi	fflags,16
80008a26:	4505                	li	a0,1
80008a28:	8082                	ret
/Local/xl_ci/toolchain/riscv-gnu-toolchain/riscv-gcc/libgcc/soft-fp/unorddf2.c:48
80008a2a:	8082                	ret

80008a2c <__fixdfsi>:
__fixdfsi():
/Local/xl_ci/toolchain/riscv-gnu-toolchain/riscv-gcc/libgcc/soft-fp/fixdfsi.c:36
80008a2c:	882a                	mv	a6,a0
/Local/xl_ci/toolchain/riscv-gnu-toolchain/riscv-gcc/libgcc/soft-fp/fixdfsi.c:41
80008a2e:	002027f3          	frrm	a5
/Local/xl_ci/toolchain/riscv-gnu-toolchain/riscv-gcc/libgcc/soft-fp/fixdfsi.c:42
80008a32:	001007b7          	lui	a5,0x100
80008a36:	0145d693          	srli	a3,a1,0x14
80008a3a:	fff78613          	addi	a2,a5,-1 # fffff <__stack_size+0xff7ff>
80008a3e:	7ff6f693          	andi	a3,a3,2047
/Local/xl_ci/toolchain/riscv-gnu-toolchain/riscv-gcc/libgcc/soft-fp/fixdfsi.c:43
80008a42:	3fe00713          	li	a4,1022
/Local/xl_ci/toolchain/riscv-gnu-toolchain/riscv-gcc/libgcc/soft-fp/fixdfsi.c:42
80008a46:	8e6d                	and	a2,a2,a1
80008a48:	81fd                	srli	a1,a1,0x1f
/Local/xl_ci/toolchain/riscv-gnu-toolchain/riscv-gcc/libgcc/soft-fp/fixdfsi.c:43
80008a4a:	00d74663          	blt	a4,a3,80008a56 <__fixdfsi+0x2a>
/Local/xl_ci/toolchain/riscv-gnu-toolchain/riscv-gcc/libgcc/soft-fp/fixdfsi.c:43 (discriminator 1)
80008a4e:	ead1                	bnez	a3,80008ae2 <__fixdfsi+0xb6>
/Local/xl_ci/toolchain/riscv-gnu-toolchain/riscv-gcc/libgcc/soft-fp/fixdfsi.c:43 (discriminator 3)
80008a50:	8d51                	or	a0,a0,a2
80008a52:	e941                	bnez	a0,80008ae2 <__fixdfsi+0xb6>
80008a54:	8082                	ret
/Local/xl_ci/toolchain/riscv-gnu-toolchain/riscv-gcc/libgcc/soft-fp/fixdfsi.c:43 (discriminator 10)
80008a56:	41d00713          	li	a4,1053
80008a5a:	02d75863          	bge	a4,a3,80008a8a <__fixdfsi+0x5e>
/Local/xl_ci/toolchain/riscv-gnu-toolchain/riscv-gcc/libgcc/soft-fp/fixdfsi.c:43 (discriminator 14)
80008a5e:	80000737          	lui	a4,0x80000
80008a62:	fff74713          	not	a4,a4
80008a66:	00e58533          	add	a0,a1,a4
80008a6a:	cdbd                	beqz	a1,80008ae8 <__fixdfsi+0xbc>
/Local/xl_ci/toolchain/riscv-gnu-toolchain/riscv-gcc/libgcc/soft-fp/fixdfsi.c:43 (discriminator 20)
80008a6c:	41e00793          	li	a5,1054
80008a70:	4741                	li	a4,16
80008a72:	04f69263          	bne	a3,a5,80008ab6 <__fixdfsi+0x8a>
/Local/xl_ci/toolchain/riscv-gnu-toolchain/riscv-gcc/libgcc/soft-fp/fixdfsi.c:43 (discriminator 22)
80008a76:	00b61793          	slli	a5,a2,0xb
80008a7a:	01585613          	srli	a2,a6,0x15
80008a7e:	8fd1                	or	a5,a5,a2
80008a80:	eb9d                	bnez	a5,80008ab6 <__fixdfsi+0x8a>
/Local/xl_ci/toolchain/riscv-gnu-toolchain/riscv-gcc/libgcc/soft-fp/fixdfsi.c:43 (discriminator 25)
80008a82:	00b81713          	slli	a4,a6,0xb
80008a86:	e33d                	bnez	a4,80008aec <__fixdfsi+0xc0>
80008a88:	8082                	ret
/Local/xl_ci/toolchain/riscv-gnu-toolchain/riscv-gcc/libgcc/soft-fp/fixdfsi.c:43 (discriminator 13)
80008a8a:	43300513          	li	a0,1075
80008a8e:	8d15                	sub	a0,a0,a3
80008a90:	477d                	li	a4,31
80008a92:	8fd1                	or	a5,a5,a2
80008a94:	02a74463          	blt	a4,a0,80008abc <__fixdfsi+0x90>
/Local/xl_ci/toolchain/riscv-gnu-toolchain/riscv-gcc/libgcc/soft-fp/fixdfsi.c:43 (discriminator 30)
80008a98:	bed68613          	addi	a2,a3,-1043 # 7feffbed <__stack_size+0x7feff3ed>
80008a9c:	00c816b3          	sll	a3,a6,a2
80008aa0:	00c797b3          	sll	a5,a5,a2
80008aa4:	00a85533          	srl	a0,a6,a0
80008aa8:	00d03733          	snez	a4,a3
80008aac:	8d5d                	or	a0,a0,a5
/Local/xl_ci/toolchain/riscv-gnu-toolchain/riscv-gcc/libgcc/soft-fp/fixdfsi.c:43 (discriminator 43)
80008aae:	c199                	beqz	a1,80008ab4 <__fixdfsi+0x88>
/Local/xl_ci/toolchain/riscv-gnu-toolchain/riscv-gcc/libgcc/soft-fp/fixdfsi.c:43 (discriminator 45)
80008ab0:	40a00533          	neg	a0,a0
/Local/xl_ci/toolchain/riscv-gnu-toolchain/riscv-gcc/libgcc/soft-fp/fixdfsi.c:44 (discriminator 59)
80008ab4:	c319                	beqz	a4,80008aba <__fixdfsi+0x8e>
/Local/xl_ci/toolchain/riscv-gnu-toolchain/riscv-gcc/libgcc/soft-fp/fixdfsi.c:44 (discriminator 1)
80008ab6:	00172073          	csrs	fflags,a4
/Local/xl_ci/toolchain/riscv-gnu-toolchain/riscv-gcc/libgcc/soft-fp/fixdfsi.c:47 (discriminator 3)
80008aba:	8082                	ret
/Local/xl_ci/toolchain/riscv-gnu-toolchain/riscv-gcc/libgcc/soft-fp/fixdfsi.c:43 (discriminator 31)
80008abc:	02000613          	li	a2,32
80008ac0:	4701                	li	a4,0
80008ac2:	00c50663          	beq	a0,a2,80008ace <__fixdfsi+0xa2>
/Local/xl_ci/toolchain/riscv-gnu-toolchain/riscv-gcc/libgcc/soft-fp/fixdfsi.c:43 (discriminator 39)
80008ac6:	c0d68713          	addi	a4,a3,-1011
80008aca:	00e79733          	sll	a4,a5,a4
/Local/xl_ci/toolchain/riscv-gnu-toolchain/riscv-gcc/libgcc/soft-fp/fixdfsi.c:43 (discriminator 42)
80008ace:	41300513          	li	a0,1043
80008ad2:	01076733          	or	a4,a4,a6
80008ad6:	8d15                	sub	a0,a0,a3
80008ad8:	00e03733          	snez	a4,a4
80008adc:	00a7d533          	srl	a0,a5,a0
80008ae0:	b7f9                	j	80008aae <__fixdfsi+0x82>
/Local/xl_ci/toolchain/riscv-gnu-toolchain/riscv-gcc/libgcc/soft-fp/fixdfsi.c:43
80008ae2:	4501                	li	a0,0
80008ae4:	4705                	li	a4,1
80008ae6:	bfc1                	j	80008ab6 <__fixdfsi+0x8a>
80008ae8:	4741                	li	a4,16
80008aea:	b7f1                	j	80008ab6 <__fixdfsi+0x8a>
80008aec:	872e                	mv	a4,a1
80008aee:	b7e1                	j	80008ab6 <__fixdfsi+0x8a>

80008af0 <__floatsidf>:
__floatsidf():
/Local/xl_ci/toolchain/riscv-gnu-toolchain/riscv-gcc/libgcc/soft-fp/floatsidf.c:37
80008af0:	1141                	addi	sp,sp,-16
80008af2:	c606                	sw	ra,12(sp)
80008af4:	c422                	sw	s0,8(sp)
80008af6:	c226                	sw	s1,4(sp)
/Local/xl_ci/toolchain/riscv-gnu-toolchain/riscv-gcc/libgcc/soft-fp/floatsidf.c:41
80008af8:	cd29                	beqz	a0,80008b52 <__floatsidf+0x62>
/Local/xl_ci/toolchain/riscv-gnu-toolchain/riscv-gcc/libgcc/soft-fp/floatsidf.c:41 (discriminator 1)
80008afa:	41f55793          	srai	a5,a0,0x1f
80008afe:	00a7c433          	xor	s0,a5,a0
80008b02:	8c1d                	sub	s0,s0,a5
80008b04:	01f55493          	srli	s1,a0,0x1f
80008b08:	8522                	mv	a0,s0
80008b0a:	9ddfb0ef          	jal	ra,800044e6 <__clzsi2>
80008b0e:	41e00713          	li	a4,1054
80008b12:	47a9                	li	a5,10
80008b14:	8f09                	sub	a4,a4,a0
80008b16:	02a7c863          	blt	a5,a0,80008b46 <__floatsidf+0x56>
/Local/xl_ci/toolchain/riscv-gnu-toolchain/riscv-gcc/libgcc/soft-fp/floatsidf.c:41 (discriminator 23)
80008b1a:	47ad                	li	a5,11
80008b1c:	8f89                	sub	a5,a5,a0
80008b1e:	0555                	addi	a0,a0,21
80008b20:	00f457b3          	srl	a5,s0,a5
80008b24:	00a41433          	sll	s0,s0,a0
80008b28:	8526                	mv	a0,s1
/Local/xl_ci/toolchain/riscv-gnu-toolchain/riscv-gcc/libgcc/soft-fp/floatsidf.c:42 (discriminator 126)
80008b2a:	07b2                	slli	a5,a5,0xc
80008b2c:	0752                	slli	a4,a4,0x14
80008b2e:	83b1                	srli	a5,a5,0xc
80008b30:	057e                	slli	a0,a0,0x1f
80008b32:	8fd9                	or	a5,a5,a4
/Local/xl_ci/toolchain/riscv-gnu-toolchain/riscv-gcc/libgcc/soft-fp/floatsidf.c:45 (discriminator 126)
80008b34:	40b2                	lw	ra,12(sp)
/Local/xl_ci/toolchain/riscv-gnu-toolchain/riscv-gcc/libgcc/soft-fp/floatsidf.c:42 (discriminator 126)
80008b36:	00a7e733          	or	a4,a5,a0
/Local/xl_ci/toolchain/riscv-gnu-toolchain/riscv-gcc/libgcc/soft-fp/floatsidf.c:45 (discriminator 126)
80008b3a:	8522                	mv	a0,s0
80008b3c:	4422                	lw	s0,8(sp)
80008b3e:	4492                	lw	s1,4(sp)
80008b40:	85ba                	mv	a1,a4
80008b42:	0141                	addi	sp,sp,16
80008b44:	8082                	ret
/Local/xl_ci/toolchain/riscv-gnu-toolchain/riscv-gcc/libgcc/soft-fp/floatsidf.c:41 (discriminator 24)
80008b46:	1555                	addi	a0,a0,-11
80008b48:	00a417b3          	sll	a5,s0,a0
80008b4c:	8526                	mv	a0,s1
/Local/xl_ci/toolchain/riscv-gnu-toolchain/riscv-gcc/libgcc/soft-fp/floatsidf.c:41
80008b4e:	4401                	li	s0,0
80008b50:	bfe9                	j	80008b2a <__floatsidf+0x3a>
80008b52:	4701                	li	a4,0
80008b54:	4781                	li	a5,0
80008b56:	bfe5                	j	80008b4e <__floatsidf+0x5e>

80008b58 <__trunctfdf2>:
__trunctfdf2():
/Local/xl_ci/toolchain/riscv-gnu-toolchain/riscv-gcc/libgcc/soft-fp/trunctfdf2.c:37
80008b58:	7179                	addi	sp,sp,-48
80008b5a:	d422                	sw	s0,40(sp)
80008b5c:	d606                	sw	ra,44(sp)
80008b5e:	d226                	sw	s1,36(sp)
80008b60:	d04a                	sw	s2,32(sp)
80008b62:	4114                	lw	a3,0(a0)
80008b64:	4158                	lw	a4,4(a0)
80008b66:	451c                	lw	a5,8(a0)
80008b68:	4540                	lw	s0,12(a0)
/Local/xl_ci/toolchain/riscv-gnu-toolchain/riscv-gcc/libgcc/soft-fp/trunctfdf2.c:43
80008b6a:	002024f3          	frrm	s1
/Local/xl_ci/toolchain/riscv-gnu-toolchain/riscv-gcc/libgcc/soft-fp/trunctfdf2.c:44
80008b6e:	c43e                	sw	a5,8(sp)
80008b70:	cc3e                	sw	a5,24(sp)
80008b72:	01041793          	slli	a5,s0,0x10
80008b76:	83c1                	srli	a5,a5,0x10
80008b78:	00141593          	slli	a1,s0,0x1
80008b7c:	0808                	addi	a0,sp,16
80008b7e:	c622                	sw	s0,12(sp)
80008b80:	ce3e                	sw	a5,28(sp)
80008b82:	c036                	sw	a3,0(sp)
80008b84:	c23a                	sw	a4,4(sp)
80008b86:	c836                	sw	a3,16(sp)
80008b88:	ca3a                	sw	a4,20(sp)
80008b8a:	0115de13          	srli	t3,a1,0x11
80008b8e:	807d                	srli	s0,s0,0x1f
80008b90:	087c                	addi	a5,sp,28
80008b92:	862a                	mv	a2,a0
/Local/xl_ci/toolchain/riscv-gnu-toolchain/riscv-gcc/libgcc/soft-fp/trunctfdf2.c:44 (discriminator 8)
80008b94:	4394                	lw	a3,0(a5)
80008b96:	ffc7a703          	lw	a4,-4(a5)
80008b9a:	17f1                	addi	a5,a5,-4
80008b9c:	068e                	slli	a3,a3,0x3
80008b9e:	8375                	srli	a4,a4,0x1d
80008ba0:	8ed9                	or	a3,a3,a4
80008ba2:	c3d4                	sw	a3,4(a5)
80008ba4:	fef518e3          	bne	a0,a5,80008b94 <__trunctfdf2+0x3c>
/Local/xl_ci/toolchain/riscv-gnu-toolchain/riscv-gcc/libgcc/soft-fp/trunctfdf2.c:44 (discriminator 9)
80008ba8:	47c2                	lw	a5,16(sp)
/Local/xl_ci/toolchain/riscv-gnu-toolchain/riscv-gcc/libgcc/soft-fp/trunctfdf2.c:46 (discriminator 9)
80008baa:	6321                	lui	t1,0x8
80008bac:	001e0713          	addi	a4,t3,1 # 10001 <__stack_size+0xf801>
/Local/xl_ci/toolchain/riscv-gnu-toolchain/riscv-gcc/libgcc/soft-fp/trunctfdf2.c:44 (discriminator 9)
80008bb0:	00379813          	slli	a6,a5,0x3
/Local/xl_ci/toolchain/riscv-gnu-toolchain/riscv-gcc/libgcc/soft-fp/trunctfdf2.c:46 (discriminator 9)
80008bb4:	ffe30793          	addi	a5,t1,-2 # 7ffe <__stack_size+0x77fe>
/Local/xl_ci/toolchain/riscv-gnu-toolchain/riscv-gcc/libgcc/soft-fp/trunctfdf2.c:44 (discriminator 9)
80008bb8:	c842                	sw	a6,16(sp)
/Local/xl_ci/toolchain/riscv-gnu-toolchain/riscv-gcc/libgcc/soft-fp/trunctfdf2.c:46 (discriminator 9)
80008bba:	8f7d                	and	a4,a4,a5
80008bbc:	18070d63          	beqz	a4,80008d56 <__trunctfdf2+0x1fe>
/Local/xl_ci/toolchain/riscv-gnu-toolchain/riscv-gcc/libgcc/soft-fp/trunctfdf2.c:46 (discriminator 1)
80008bc0:	77f1                	lui	a5,0xffffc
80008bc2:	40078793          	addi	a5,a5,1024 # ffffc400 <_sp+0x6ffec400>
80008bc6:	00fe05b3          	add	a1,t3,a5
80008bca:	7fe00793          	li	a5,2046
80008bce:	06b7d063          	bge	a5,a1,80008c2e <__trunctfdf2+0xd6>
/Local/xl_ci/toolchain/riscv-gnu-toolchain/riscv-gcc/libgcc/soft-fp/trunctfdf2.c:46 (discriminator 3)
80008bd2:	24048663          	beqz	s1,80008e1e <__trunctfdf2+0x2c6>
/Local/xl_ci/toolchain/riscv-gnu-toolchain/riscv-gcc/libgcc/soft-fp/trunctfdf2.c:46 (discriminator 6)
80008bd6:	478d                	li	a5,3
80008bd8:	00f49a63          	bne	s1,a5,80008bec <__trunctfdf2+0x94>
/Local/xl_ci/toolchain/riscv-gnu-toolchain/riscv-gcc/libgcc/soft-fp/trunctfdf2.c:46 (discriminator 7)
80008bdc:	24040163          	beqz	s0,80008e1e <__trunctfdf2+0x2c6>
/Local/xl_ci/toolchain/riscv-gnu-toolchain/riscv-gcc/libgcc/soft-fp/trunctfdf2.c:46
80008be0:	7fe00593          	li	a1,2046
80008be4:	57fd                	li	a5,-1
80008be6:	557d                	li	a0,-1
/Local/xl_ci/toolchain/riscv-gnu-toolchain/riscv-gcc/libgcc/soft-fp/trunctfdf2.c:50
80008be8:	4701                	li	a4,0
80008bea:	a819                	j	80008c00 <__trunctfdf2+0xa8>
/Local/xl_ci/toolchain/riscv-gnu-toolchain/riscv-gcc/libgcc/soft-fp/trunctfdf2.c:46 (discriminator 10)
80008bec:	4789                	li	a5,2
80008bee:	fef499e3          	bne	s1,a5,80008be0 <__trunctfdf2+0x88>
/Local/xl_ci/toolchain/riscv-gnu-toolchain/riscv-gcc/libgcc/soft-fp/trunctfdf2.c:46 (discriminator 11)
80008bf2:	22041663          	bnez	s0,80008e1e <__trunctfdf2+0x2c6>
/Local/xl_ci/toolchain/riscv-gnu-toolchain/riscv-gcc/libgcc/soft-fp/trunctfdf2.c:50
80008bf6:	4701                	li	a4,0
/Local/xl_ci/toolchain/riscv-gnu-toolchain/riscv-gcc/libgcc/soft-fp/trunctfdf2.c:46
80008bf8:	7fe00593          	li	a1,2046
80008bfc:	57fd                	li	a5,-1
80008bfe:	557d                	li	a0,-1
80008c00:	4815                	li	a6,5
/Local/xl_ci/toolchain/riscv-gnu-toolchain/riscv-gcc/libgcc/soft-fp/trunctfdf2.c:50 (discriminator 37)
80008c02:	4689                	li	a3,2
80008c04:	00186813          	ori	a6,a6,1
80008c08:	2ad48363          	beq	s1,a3,80008eae <__trunctfdf2+0x356>
/Local/xl_ci/toolchain/riscv-gnu-toolchain/riscv-gcc/libgcc/soft-fp/trunctfdf2.c:50
80008c0c:	468d                	li	a3,3
80008c0e:	28d48c63          	beq	s1,a3,80008ea6 <__trunctfdf2+0x34e>
80008c12:	28049f63          	bnez	s1,80008eb0 <__trunctfdf2+0x358>
/Local/xl_ci/toolchain/riscv-gnu-toolchain/riscv-gcc/libgcc/soft-fp/trunctfdf2.c:50 (discriminator 40)
80008c16:	00f7f693          	andi	a3,a5,15
80008c1a:	4611                	li	a2,4
80008c1c:	28c68a63          	beq	a3,a2,80008eb0 <__trunctfdf2+0x358>
/Local/xl_ci/toolchain/riscv-gnu-toolchain/riscv-gcc/libgcc/soft-fp/trunctfdf2.c:50 (discriminator 44)
80008c20:	00478693          	addi	a3,a5,4
/Local/xl_ci/toolchain/riscv-gnu-toolchain/riscv-gcc/libgcc/soft-fp/trunctfdf2.c:50 (discriminator 55)
80008c24:	00f6b7b3          	sltu	a5,a3,a5
80008c28:	953e                	add	a0,a0,a5
80008c2a:	87b6                	mv	a5,a3
80008c2c:	a451                	j	80008eb0 <__trunctfdf2+0x358>
/Local/xl_ci/toolchain/riscv-gnu-toolchain/riscv-gcc/libgcc/soft-fp/trunctfdf2.c:46 (discriminator 4)
80008c2e:	04b05363          	blez	a1,80008c74 <__trunctfdf2+0x11c>
/Local/xl_ci/toolchain/riscv-gnu-toolchain/riscv-gcc/libgcc/soft-fp/trunctfdf2.c:46
80008c32:	4662                	lw	a2,24(sp)
80008c34:	46f2                	lw	a3,28(sp)
80008c36:	4752                	lw	a4,20(sp)
80008c38:	01c65793          	srli	a5,a2,0x1c
80008c3c:	0692                	slli	a3,a3,0x4
80008c3e:	8edd                	or	a3,a3,a5
80008c40:	00471793          	slli	a5,a4,0x4
80008c44:	0107e7b3          	or	a5,a5,a6
80008c48:	8371                	srli	a4,a4,0x1c
80008c4a:	0612                	slli	a2,a2,0x4
80008c4c:	00f037b3          	snez	a5,a5
80008c50:	8f51                	or	a4,a4,a2
80008c52:	8fd9                	or	a5,a5,a4
80008c54:	ca36                	sw	a3,20(sp)
80008c56:	c83e                	sw	a5,16(sp)
/Local/xl_ci/toolchain/riscv-gnu-toolchain/riscv-gcc/libgcc/soft-fp/trunctfdf2.c:46 (discriminator 59)
80008c58:	47c2                	lw	a5,16(sp)
80008c5a:	4552                	lw	a0,20(sp)
/Local/xl_ci/toolchain/riscv-gnu-toolchain/riscv-gcc/libgcc/soft-fp/trunctfdf2.c:50 (discriminator 59)
80008c5c:	10058b63          	beqz	a1,80008d72 <__trunctfdf2+0x21a>
/Local/xl_ci/toolchain/riscv-gnu-toolchain/riscv-gcc/libgcc/soft-fp/trunctfdf2.c:50
80008c60:	4701                	li	a4,0
/Local/xl_ci/toolchain/riscv-gnu-toolchain/riscv-gcc/libgcc/soft-fp/trunctfdf2.c:38
80008c62:	4801                	li	a6,0
/Local/xl_ci/toolchain/riscv-gnu-toolchain/riscv-gcc/libgcc/soft-fp/trunctfdf2.c:50 (discriminator 36)
80008c64:	0077f693          	andi	a3,a5,7
80008c68:	fec9                	bnez	a3,80008c02 <__trunctfdf2+0xaa>
/Local/xl_ci/toolchain/riscv-gnu-toolchain/riscv-gcc/libgcc/soft-fp/trunctfdf2.c:50 (discriminator 47)
80008c6a:	1a070f63          	beqz	a4,80008e28 <__trunctfdf2+0x2d0>
/Local/xl_ci/toolchain/riscv-gnu-toolchain/riscv-gcc/libgcc/soft-fp/trunctfdf2.c:50 (discriminator 58)
80008c6e:	00187713          	andi	a4,a6,1
80008c72:	ac3d                	j	80008eb0 <__trunctfdf2+0x358>
/Local/xl_ci/toolchain/riscv-gnu-toolchain/riscv-gcc/libgcc/soft-fp/trunctfdf2.c:46 (discriminator 18)
80008c74:	fcc00793          	li	a5,-52
80008c78:	00f5d763          	bge	a1,a5,80008c86 <__trunctfdf2+0x12e>
/Local/xl_ci/toolchain/riscv-gnu-toolchain/riscv-gcc/libgcc/soft-fp/trunctfdf2.c:46 (discriminator 20)
80008c7c:	ca02                	sw	zero,20(sp)
80008c7e:	4785                	li	a5,1
/Local/xl_ci/toolchain/riscv-gnu-toolchain/riscv-gcc/libgcc/soft-fp/trunctfdf2.c:46 (discriminator 37)
80008c80:	c83e                	sw	a5,16(sp)
80008c82:	4581                	li	a1,0
80008c84:	bfd1                	j	80008c58 <__trunctfdf2+0x100>
/Local/xl_ci/toolchain/riscv-gnu-toolchain/riscv-gcc/libgcc/soft-fp/trunctfdf2.c:46 (discriminator 21)
80008c86:	47f2                	lw	a5,28(sp)
80008c88:	00080737          	lui	a4,0x80
80008c8c:	86aa                	mv	a3,a0
80008c8e:	00f768b3          	or	a7,a4,a5
80008c92:	03d00793          	li	a5,61
80008c96:	40b785b3          	sub	a1,a5,a1
80008c9a:	ce46                	sw	a7,28(sp)
80008c9c:	4055d793          	srai	a5,a1,0x5
80008ca0:	4901                	li	s2,0
80008ca2:	4701                	li	a4,0
/Local/xl_ci/toolchain/riscv-gnu-toolchain/riscv-gcc/libgcc/soft-fp/trunctfdf2.c:46 (discriminator 25)
80008ca4:	0006a803          	lw	a6,0(a3)
80008ca8:	0705                	addi	a4,a4,1
80008caa:	0691                	addi	a3,a3,4
80008cac:	01096933          	or	s2,s2,a6
80008cb0:	fee79ae3          	bne	a5,a4,80008ca4 <__trunctfdf2+0x14c>
/Local/xl_ci/toolchain/riscv-gnu-toolchain/riscv-gcc/libgcc/soft-fp/trunctfdf2.c:46 (discriminator 26)
80008cb4:	01f5f713          	andi	a4,a1,31
80008cb8:	00279693          	slli	a3,a5,0x2
80008cbc:	e30d                	bnez	a4,80008cde <__trunctfdf2+0x186>
/Local/xl_ci/toolchain/riscv-gnu-toolchain/riscv-gcc/libgcc/soft-fp/trunctfdf2.c:46
80008cbe:	458d                	li	a1,3
80008cc0:	8d9d                	sub	a1,a1,a5
/Local/xl_ci/toolchain/riscv-gnu-toolchain/riscv-gcc/libgcc/soft-fp/trunctfdf2.c:46 (discriminator 31)
80008cc2:	00d60833          	add	a6,a2,a3
80008cc6:	00082803          	lw	a6,0(a6)
80008cca:	0705                	addi	a4,a4,1
80008ccc:	01062023          	sw	a6,0(a2)
80008cd0:	0611                	addi	a2,a2,4
80008cd2:	fee5d8e3          	bge	a1,a4,80008cc2 <__trunctfdf2+0x16a>
80008cd6:	4711                	li	a4,4
80008cd8:	40f707b3          	sub	a5,a4,a5
80008cdc:	a081                	j	80008d1c <__trunctfdf2+0x1c4>
80008cde:	5e71                	li	t3,-4
80008ce0:	03c78e33          	mul	t3,a5,t3
/Local/xl_ci/toolchain/riscv-gnu-toolchain/riscv-gcc/libgcc/soft-fp/trunctfdf2.c:46 (discriminator 28)
80008ce4:	1010                	addi	a2,sp,32
80008ce6:	9636                	add	a2,a2,a3
80008ce8:	ff062603          	lw	a2,-16(a2)
80008cec:	02000813          	li	a6,32
80008cf0:	40e80833          	sub	a6,a6,a4
80008cf4:	01061633          	sll	a2,a2,a6
80008cf8:	00c96933          	or	s2,s2,a2
80008cfc:	460d                	li	a2,3
80008cfe:	96aa                	add	a3,a3,a0
80008d00:	4301                	li	t1,0
80008d02:	8e1d                	sub	a2,a2,a5
/Local/xl_ci/toolchain/riscv-gnu-toolchain/riscv-gcc/libgcc/soft-fp/trunctfdf2.c:46 (discriminator 32)
80008d04:	02c34963          	blt	t1,a2,80008d36 <__trunctfdf2+0x1de>
/Local/xl_ci/toolchain/riscv-gnu-toolchain/riscv-gcc/libgcc/soft-fp/trunctfdf2.c:46 (discriminator 35)
80008d08:	4691                	li	a3,4
80008d0a:	40f687b3          	sub	a5,a3,a5
80008d0e:	060a                	slli	a2,a2,0x2
80008d10:	1014                	addi	a3,sp,32
80008d12:	9636                	add	a2,a2,a3
80008d14:	00e8d733          	srl	a4,a7,a4
80008d18:	fee62823          	sw	a4,-16(a2)
/Local/xl_ci/toolchain/riscv-gnu-toolchain/riscv-gcc/libgcc/soft-fp/trunctfdf2.c:46 (discriminator 37)
80008d1c:	4611                	li	a2,4
80008d1e:	8e1d                	sub	a2,a2,a5
80008d20:	078a                	slli	a5,a5,0x2
80008d22:	953e                	add	a0,a0,a5
80008d24:	060a                	slli	a2,a2,0x2
80008d26:	4581                	li	a1,0
80008d28:	985fd0ef          	jal	ra,800066ac <memset>
80008d2c:	4742                	lw	a4,16(sp)
80008d2e:	012037b3          	snez	a5,s2
80008d32:	8fd9                	or	a5,a5,a4
80008d34:	b7b1                	j	80008c80 <__trunctfdf2+0x128>
/Local/xl_ci/toolchain/riscv-gnu-toolchain/riscv-gcc/libgcc/soft-fp/trunctfdf2.c:46 (discriminator 34)
80008d36:	428c                	lw	a1,0(a3)
80008d38:	0046ae83          	lw	t4,4(a3)
80008d3c:	01c68f33          	add	t5,a3,t3
80008d40:	00e5d5b3          	srl	a1,a1,a4
80008d44:	010e9eb3          	sll	t4,t4,a6
80008d48:	01d5e5b3          	or	a1,a1,t4
80008d4c:	00bf2023          	sw	a1,0(t5)
80008d50:	0305                	addi	t1,t1,1
80008d52:	0691                	addi	a3,a3,4
80008d54:	bf45                	j	80008d04 <__trunctfdf2+0x1ac>
/Local/xl_ci/toolchain/riscv-gnu-toolchain/riscv-gcc/libgcc/soft-fp/trunctfdf2.c:46 (discriminator 2)
80008d56:	45d2                	lw	a1,20(sp)
80008d58:	4662                	lw	a2,24(sp)
80008d5a:	48f2                	lw	a7,28(sp)
80008d5c:	00b666b3          	or	a3,a2,a1
80008d60:	0116e6b3          	or	a3,a3,a7
80008d64:	0106e533          	or	a0,a3,a6
80008d68:	040e1c63          	bnez	t3,80008dc0 <__trunctfdf2+0x268>
/Local/xl_ci/toolchain/riscv-gnu-toolchain/riscv-gcc/libgcc/soft-fp/trunctfdf2.c:46 (discriminator 65)
80008d6c:	00a037b3          	snez	a5,a0
80008d70:	4501                	li	a0,0
/Local/xl_ci/toolchain/riscv-gnu-toolchain/riscv-gcc/libgcc/soft-fp/trunctfdf2.c:50 (discriminator 1)
80008d72:	00f56733          	or	a4,a0,a5
80008d76:	12070363          	beqz	a4,80008e9c <__trunctfdf2+0x344>
/Local/xl_ci/toolchain/riscv-gnu-toolchain/riscv-gcc/libgcc/soft-fp/trunctfdf2.c:50
80008d7a:	01f7d693          	srli	a3,a5,0x1f
80008d7e:	00151713          	slli	a4,a0,0x1
80008d82:	9736                	add	a4,a4,a3
80008d84:	00179693          	slli	a3,a5,0x1
80008d88:	0076f613          	andi	a2,a3,7
80008d8c:	4801                	li	a6,0
80008d8e:	c21d                	beqz	a2,80008db4 <__trunctfdf2+0x25c>
80008d90:	4609                	li	a2,2
80008d92:	06c48d63          	beq	s1,a2,80008e0c <__trunctfdf2+0x2b4>
80008d96:	460d                	li	a2,3
80008d98:	06c48163          	beq	s1,a2,80008dfa <__trunctfdf2+0x2a2>
80008d9c:	4805                	li	a6,1
80008d9e:	e899                	bnez	s1,80008db4 <__trunctfdf2+0x25c>
/Local/xl_ci/toolchain/riscv-gnu-toolchain/riscv-gcc/libgcc/soft-fp/trunctfdf2.c:50 (discriminator 16)
80008da0:	00f6f613          	andi	a2,a3,15
80008da4:	4591                	li	a1,4
80008da6:	00b60763          	beq	a2,a1,80008db4 <__trunctfdf2+0x25c>
/Local/xl_ci/toolchain/riscv-gnu-toolchain/riscv-gcc/libgcc/soft-fp/trunctfdf2.c:50 (discriminator 20)
80008daa:	ffc6b693          	sltiu	a3,a3,-4
80008dae:	0016c693          	xori	a3,a3,1
80008db2:	9736                	add	a4,a4,a3
/Local/xl_ci/toolchain/riscv-gnu-toolchain/riscv-gcc/libgcc/soft-fp/trunctfdf2.c:50 (discriminator 23)
80008db4:	8361                	srli	a4,a4,0x18
80008db6:	00174713          	xori	a4,a4,1
80008dba:	8b05                	andi	a4,a4,1
80008dbc:	4581                	li	a1,0
80008dbe:	b55d                	j	80008c64 <__trunctfdf2+0x10c>
/Local/xl_ci/toolchain/riscv-gnu-toolchain/riscv-gcc/libgcc/soft-fp/trunctfdf2.c:46 (discriminator 62)
80008dc0:	c969                	beqz	a0,80008e92 <__trunctfdf2+0x33a>
/Local/xl_ci/toolchain/riscv-gnu-toolchain/riscv-gcc/libgcc/soft-fp/trunctfdf2.c:46 (discriminator 88)
80008dc2:	137d                	addi	t1,t1,-1
/Local/xl_ci/toolchain/riscv-gnu-toolchain/riscv-gcc/libgcc/soft-fp/trunctfdf2.c:38 (discriminator 88)
80008dc4:	4801                	li	a6,0
/Local/xl_ci/toolchain/riscv-gnu-toolchain/riscv-gcc/libgcc/soft-fp/trunctfdf2.c:46 (discriminator 88)
80008dc6:	006e1963          	bne	t3,t1,80008dd8 <__trunctfdf2+0x280>
/Local/xl_ci/toolchain/riscv-gnu-toolchain/riscv-gcc/libgcc/soft-fp/trunctfdf2.c:46 (discriminator 92)
80008dca:	00040837          	lui	a6,0x40
80008dce:	0108f833          	and	a6,a7,a6
/Local/xl_ci/toolchain/riscv-gnu-toolchain/riscv-gcc/libgcc/soft-fp/trunctfdf2.c:38 (discriminator 92)
80008dd2:	00183813          	seqz	a6,a6
80008dd6:	0812                	slli	a6,a6,0x4
/Local/xl_ci/toolchain/riscv-gnu-toolchain/riscv-gcc/libgcc/soft-fp/trunctfdf2.c:46 (discriminator 96)
80008dd8:	01c5d793          	srli	a5,a1,0x1c
80008ddc:	0892                	slli	a7,a7,0x4
80008dde:	00461593          	slli	a1,a2,0x4
80008de2:	8271                	srli	a2,a2,0x1c
80008de4:	8fcd                	or	a5,a5,a1
80008de6:	01166633          	or	a2,a2,a7
80008dea:	004006b7          	lui	a3,0x400
80008dee:	9be1                	andi	a5,a5,-8
80008df0:	00d66533          	or	a0,a2,a3
80008df4:	7ff00593          	li	a1,2047
80008df8:	b5b5                	j	80008c64 <__trunctfdf2+0x10c>
/Local/xl_ci/toolchain/riscv-gnu-toolchain/riscv-gcc/libgcc/soft-fp/trunctfdf2.c:50 (discriminator 19)
80008dfa:	8822                	mv	a6,s0
80008dfc:	fc45                	bnez	s0,80008db4 <__trunctfdf2+0x25c>
/Local/xl_ci/toolchain/riscv-gnu-toolchain/riscv-gcc/libgcc/soft-fp/trunctfdf2.c:50 (discriminator 26)
80008dfe:	ff86b693          	sltiu	a3,a3,-8
80008e02:	0016c693          	xori	a3,a3,1
80008e06:	9736                	add	a4,a4,a3
80008e08:	4805                	li	a6,1
80008e0a:	b76d                	j	80008db4 <__trunctfdf2+0x25c>
/Local/xl_ci/toolchain/riscv-gnu-toolchain/riscv-gcc/libgcc/soft-fp/trunctfdf2.c:50 (discriminator 18)
80008e0c:	4805                	li	a6,1
80008e0e:	d05d                	beqz	s0,80008db4 <__trunctfdf2+0x25c>
/Local/xl_ci/toolchain/riscv-gnu-toolchain/riscv-gcc/libgcc/soft-fp/trunctfdf2.c:50 (discriminator 31)
80008e10:	ff86b693          	sltiu	a3,a3,-8
80008e14:	0016c693          	xori	a3,a3,1
80008e18:	9736                	add	a4,a4,a3
80008e1a:	8822                	mv	a6,s0
80008e1c:	bf61                	j	80008db4 <__trunctfdf2+0x25c>
/Local/xl_ci/toolchain/riscv-gnu-toolchain/riscv-gcc/libgcc/soft-fp/trunctfdf2.c:46
80008e1e:	7ff00593          	li	a1,2047
80008e22:	4781                	li	a5,0
80008e24:	4501                	li	a0,0
80008e26:	4815                	li	a6,5
/Local/xl_ci/toolchain/riscv-gnu-toolchain/riscv-gcc/libgcc/soft-fp/trunctfdf2.c:50 (discriminator 62)
80008e28:	00800737          	lui	a4,0x800
80008e2c:	8f69                	and	a4,a4,a0
80008e2e:	cb11                	beqz	a4,80008e42 <__trunctfdf2+0x2ea>
/Local/xl_ci/toolchain/riscv-gnu-toolchain/riscv-gcc/libgcc/soft-fp/trunctfdf2.c:50 (discriminator 63)
80008e30:	0585                	addi	a1,a1,1
80008e32:	7ff00713          	li	a4,2047
80008e36:	08e58163          	beq	a1,a4,80008eb8 <__trunctfdf2+0x360>
/Local/xl_ci/toolchain/riscv-gnu-toolchain/riscv-gcc/libgcc/soft-fp/trunctfdf2.c:50
80008e3a:	ff800737          	lui	a4,0xff800
80008e3e:	177d                	addi	a4,a4,-1
80008e40:	8d79                	and	a0,a0,a4
/Local/xl_ci/toolchain/riscv-gnu-toolchain/riscv-gcc/libgcc/soft-fp/trunctfdf2.c:50 (discriminator 79)
80008e42:	0037d713          	srli	a4,a5,0x3
80008e46:	01d51793          	slli	a5,a0,0x1d
80008e4a:	8fd9                	or	a5,a5,a4
80008e4c:	7ff00713          	li	a4,2047
80008e50:	00355693          	srli	a3,a0,0x3
80008e54:	00e59963          	bne	a1,a4,80008e66 <__trunctfdf2+0x30e>
/Local/xl_ci/toolchain/riscv-gnu-toolchain/riscv-gcc/libgcc/soft-fp/trunctfdf2.c:50 (discriminator 80)
80008e58:	8fd5                	or	a5,a5,a3
80008e5a:	4681                	li	a3,0
80008e5c:	c789                	beqz	a5,80008e66 <__trunctfdf2+0x30e>
/Local/xl_ci/toolchain/riscv-gnu-toolchain/riscv-gcc/libgcc/soft-fp/trunctfdf2.c:50
80008e5e:	000806b7          	lui	a3,0x80
80008e62:	4781                	li	a5,0
80008e64:	4401                	li	s0,0
/Local/xl_ci/toolchain/riscv-gnu-toolchain/riscv-gcc/libgcc/soft-fp/trunctfdf2.c:50 (discriminator 90)
80008e66:	7ff00737          	lui	a4,0x7ff00
80008e6a:	05d2                	slli	a1,a1,0x14
80008e6c:	06b2                	slli	a3,a3,0xc
80008e6e:	8df9                	and	a1,a1,a4
80008e70:	82b1                	srli	a3,a3,0xc
80008e72:	8ecd                	or	a3,a3,a1
80008e74:	047e                	slli	s0,s0,0x1f
80008e76:	0086e733          	or	a4,a3,s0
80008e7a:	853e                	mv	a0,a5
80008e7c:	85ba                	mv	a1,a4
/Local/xl_ci/toolchain/riscv-gnu-toolchain/riscv-gcc/libgcc/soft-fp/trunctfdf2.c:51 (discriminator 90)
80008e7e:	00080463          	beqz	a6,80008e86 <__trunctfdf2+0x32e>
/Local/xl_ci/toolchain/riscv-gnu-toolchain/riscv-gcc/libgcc/soft-fp/trunctfdf2.c:51 (discriminator 1)
80008e82:	00182073          	csrs	fflags,a6
/Local/xl_ci/toolchain/riscv-gnu-toolchain/riscv-gcc/libgcc/soft-fp/trunctfdf2.c:54
80008e86:	50b2                	lw	ra,44(sp)
80008e88:	5422                	lw	s0,40(sp)
80008e8a:	5492                	lw	s1,36(sp)
80008e8c:	5902                	lw	s2,32(sp)
80008e8e:	6145                	addi	sp,sp,48
80008e90:	8082                	ret
/Local/xl_ci/toolchain/riscv-gnu-toolchain/riscv-gcc/libgcc/soft-fp/trunctfdf2.c:46
80008e92:	4781                	li	a5,0
/Local/xl_ci/toolchain/riscv-gnu-toolchain/riscv-gcc/libgcc/soft-fp/trunctfdf2.c:38
80008e94:	4801                	li	a6,0
/Local/xl_ci/toolchain/riscv-gnu-toolchain/riscv-gcc/libgcc/soft-fp/trunctfdf2.c:46
80008e96:	7ff00593          	li	a1,2047
80008e9a:	b779                	j	80008e28 <__trunctfdf2+0x2d0>
80008e9c:	4781                	li	a5,0
80008e9e:	4501                	li	a0,0
80008ea0:	4581                	li	a1,0
80008ea2:	4801                	li	a6,0
80008ea4:	b751                	j	80008e28 <__trunctfdf2+0x2d0>
/Local/xl_ci/toolchain/riscv-gnu-toolchain/riscv-gcc/libgcc/soft-fp/trunctfdf2.c:50 (discriminator 43)
80008ea6:	e409                	bnez	s0,80008eb0 <__trunctfdf2+0x358>
/Local/xl_ci/toolchain/riscv-gnu-toolchain/riscv-gcc/libgcc/soft-fp/trunctfdf2.c:50 (discriminator 55)
80008ea8:	00878693          	addi	a3,a5,8
80008eac:	bba5                	j	80008c24 <__trunctfdf2+0xcc>
/Local/xl_ci/toolchain/riscv-gnu-toolchain/riscv-gcc/libgcc/soft-fp/trunctfdf2.c:50 (discriminator 42)
80008eae:	fc6d                	bnez	s0,80008ea8 <__trunctfdf2+0x350>
/Local/xl_ci/toolchain/riscv-gnu-toolchain/riscv-gcc/libgcc/soft-fp/trunctfdf2.c:50 (discriminator 58)
80008eb0:	df25                	beqz	a4,80008e28 <__trunctfdf2+0x2d0>
/Local/xl_ci/toolchain/riscv-gnu-toolchain/riscv-gcc/libgcc/soft-fp/trunctfdf2.c:50 (discriminator 60)
80008eb2:	00286813          	ori	a6,a6,2
80008eb6:	bf8d                	j	80008e28 <__trunctfdf2+0x2d0>
/Local/xl_ci/toolchain/riscv-gnu-toolchain/riscv-gcc/libgcc/soft-fp/trunctfdf2.c:50 (discriminator 65)
80008eb8:	4781                	li	a5,0
80008eba:	cc89                	beqz	s1,80008ed4 <__trunctfdf2+0x37c>
/Local/xl_ci/toolchain/riscv-gnu-toolchain/riscv-gcc/libgcc/soft-fp/trunctfdf2.c:50 (discriminator 68)
80008ebc:	470d                	li	a4,3
80008ebe:	00e49763          	bne	s1,a4,80008ecc <__trunctfdf2+0x374>
/Local/xl_ci/toolchain/riscv-gnu-toolchain/riscv-gcc/libgcc/soft-fp/trunctfdf2.c:50 (discriminator 69)
80008ec2:	c809                	beqz	s0,80008ed4 <__trunctfdf2+0x37c>
/Local/xl_ci/toolchain/riscv-gnu-toolchain/riscv-gcc/libgcc/soft-fp/trunctfdf2.c:50
80008ec4:	57fd                	li	a5,-1
80008ec6:	7fe00593          	li	a1,2046
80008eca:	a029                	j	80008ed4 <__trunctfdf2+0x37c>
/Local/xl_ci/toolchain/riscv-gnu-toolchain/riscv-gcc/libgcc/soft-fp/trunctfdf2.c:50 (discriminator 72)
80008ecc:	4709                	li	a4,2
80008ece:	fee49be3          	bne	s1,a4,80008ec4 <__trunctfdf2+0x36c>
/Local/xl_ci/toolchain/riscv-gnu-toolchain/riscv-gcc/libgcc/soft-fp/trunctfdf2.c:50 (discriminator 73)
80008ed2:	d86d                	beqz	s0,80008ec4 <__trunctfdf2+0x36c>
/Local/xl_ci/toolchain/riscv-gnu-toolchain/riscv-gcc/libgcc/soft-fp/trunctfdf2.c:50 (discriminator 78)
80008ed4:	00586813          	ori	a6,a6,5
80008ed8:	853e                	mv	a0,a5
80008eda:	b7a5                	j	80008e42 <__trunctfdf2+0x2ea>
