
e203_filter_test.elf:     file format elf32-littleriscv
e203_filter_test.elf
architecture: riscv:rv32, flags 0x00000112:
EXEC_P, HAS_SYMS, D_PAGED
start address 0x80000000

Program Header:
    LOAD off    0x00001000 vaddr 0x80000000 paddr 0x80000000 align 2**12
         filesz 0x000072b4 memsz 0x000072b4 flags rwx
    LOAD off    0x00009000 vaddr 0x90000000 paddr 0x800072b4 align 2**12
         filesz 0x00000244 memsz 0x00000244 flags rw-
    LOAD off    0x00000248 vaddr 0x90000248 paddr 0x90000248 align 2**12
         filesz 0x00000000 memsz 0x00000254 flags rw-
    LOAD off    0x00000800 vaddr 0x9000f800 paddr 0x9000049c align 2**12
         filesz 0x00000000 memsz 0x00000800 flags rw-

Sections:
Idx Name              Size      VMA       LMA       File off  Algn  Flags
  0 .init             000000ba  80000000  80000000  00001000  2**0  CONTENTS, ALLOC, LOAD, READONLY, CODE
  1 .ilalign          00000002  800000ba  800000ba  000010ba  2**0  ALLOC
  2 .text             00006ae8  800000bc  800000bc  000010bc  2**2  CONTENTS, ALLOC, LOAD, READONLY, CODE
  3 .rodata           0000070c  80006ba8  80006ba8  00007ba8  2**3  CONTENTS, ALLOC, LOAD, READONLY, DATA
  4 .lalign           00000000  800072b4  800072b4  00009244  2**0  CONTENTS
  5 .dalign           00000000  90000000  90000000  00009244  2**0  CONTENTS
  6 .data             00000244  90000000  800072b4  00009000  2**3  CONTENTS, ALLOC, LOAD, DATA
  7 .bss              00000254  90000248  90000248  00009248  2**3  ALLOC
  8 .stack            00000800  9000f800  9000049c  00009800  2**0  ALLOC
  9 .debug_info       00007221  00000000  00000000  00009244  2**0  CONTENTS, READONLY, DEBUGGING, OCTETS
 10 .debug_abbrev     00002858  00000000  00000000  00010465  2**0  CONTENTS, READONLY, DEBUGGING, OCTETS
 11 .debug_aranges    000005f0  00000000  00000000  00012cc0  2**3  CONTENTS, READONLY, DEBUGGING, OCTETS
 12 .debug_ranges     00001398  00000000  00000000  000132b0  2**0  CONTENTS, READONLY, DEBUGGING, OCTETS
 13 .debug_line       0000ab2c  00000000  00000000  00014648  2**0  CONTENTS, READONLY, DEBUGGING, OCTETS
 14 .debug_str        00001fe3  00000000  00000000  0001f174  2**0  CONTENTS, READONLY, DEBUGGING, OCTETS
 15 .comment          00000023  00000000  00000000  00021157  2**0  CONTENTS, READONLY
 16 .riscv.attributes 0000002f  00000000  00000000  0002117a  2**0  CONTENTS, READONLY
 17 .debug_frame      00000d94  00000000  00000000  000211ac  2**2  CONTENTS, READONLY, DEBUGGING, OCTETS
 18 .debug_loc        00007bb1  00000000  00000000  00021f40  2**0  CONTENTS, READONLY, DEBUGGING, OCTETS
SYMBOL TABLE:
80000000 l    d  .init	00000000 .init
800000ba l    d  .ilalign	00000000 .ilalign
800000bc l    d  .text	00000000 .text
80006ba8 l    d  .rodata	00000000 .rodata
800072b4 l    d  .lalign	00000000 .lalign
90000000 l    d  .dalign	00000000 .dalign
90000000 l    d  .data	00000000 .data
90000248 l    d  .bss	00000000 .bss
9000f800 l    d  .stack	00000000 .stack
00000000 l    d  .debug_info	00000000 .debug_info
00000000 l    d  .debug_abbrev	00000000 .debug_abbrev
00000000 l    d  .debug_aranges	00000000 .debug_aranges
00000000 l    d  .debug_ranges	00000000 .debug_ranges
00000000 l    d  .debug_line	00000000 .debug_line
00000000 l    d  .debug_str	00000000 .debug_str
00000000 l    d  .comment	00000000 .comment
00000000 l    d  .riscv.attributes	00000000 .riscv.attributes
00000000 l    d  .debug_frame	00000000 .debug_frame
00000000 l    d  .debug_loc	00000000 .debug_loc
00000000 l    df *ABS*	00000000 close.c
00000000 l    df *ABS*	00000000 exit.c
00000000 l    df *ABS*	00000000 fstat.c
00000000 l    df *ABS*	00000000 getpid.c
00000000 l    df *ABS*	00000000 isatty.c
00000000 l    df *ABS*	00000000 kill.c
00000000 l    df *ABS*	00000000 lseek.c
00000000 l    df *ABS*	00000000 read.c
00000000 l    df *ABS*	00000000 sbrk.c
900001d8 l     O .data	00000004 curbrk.0
00000000 l    df *ABS*	00000000 write.c
00000000 l    df *ABS*	00000000 hbirdv2_gpio.c
00000000 l    df *ABS*	00000000 hbirdv2_uart.c
00000000 l    df *ABS*	00000000 hbirdv2_common.c
00000000 l    df *ABS*	00000000 system_hbirdv2.c
90000278 l     O .bss	0000002c SystemExceptionHandlers
900002a4 l     O .bss	00000044 SystemExtInterruptHandlers
900002e8 l     O .bss	00000028 SystemCoreInterruptHandlers
800006ee l     F .text	0000005a system_default_exception_handler
80000748 l     F .text	00000062 system_default_interrupt_handler
800007aa l     F .text	00000040 Exception_Init
800007ea l     F .text	00000070 Interrupt_Init
80000992 l     F .text	00000068 core_exception_handler
00000000 l    df *ABS*	00000000 main.c
90000248 l     O .bss	00000008 start_cycle
90000250 l     O .bss	00000008 end_cycle
90000258 l     O .bss	00000008 cycle
90000260 l     O .bss	00000004 bench_ercd
90000266 l     O .bss	00000001 s_r_i
00000000 l    df *ABS*	00000000 libgcc2.c
00000000 l    df *ABS*	00000000 adddf3.c
00000000 l    df *ABS*	00000000 divdf3.c
00000000 l    df *ABS*	00000000 eqdf2.c
00000000 l    df *ABS*	00000000 ledf2.c
00000000 l    df *ABS*	00000000 muldf3.c
00000000 l    df *ABS*	00000000 subdf3.c
00000000 l    df *ABS*	00000000 unorddf2.c
00000000 l    df *ABS*	00000000 floatsidf.c
00000000 l    df *ABS*	00000000 addsf3.c
00000000 l    df *ABS*	00000000 mulsf3.c
00000000 l    df *ABS*	00000000 subsf3.c
00000000 l    df *ABS*	00000000 extendsfdf2.c
00000000 l    df *ABS*	00000000 libgcc2.c
00000000 l    df *ABS*	00000000 atexit.c
00000000 l    df *ABS*	00000000 fini.c
00000000 l    df *ABS*	00000000 init.c
00000000 l    df *ABS*	00000000 nano-vfprintf_float.c
00000000 l    df *ABS*	00000000 nano-vfprintf_i.c
00000000 l    df *ABS*	00000000 printf.c
00000000 l    df *ABS*	00000000 puts.c
00000000 l    df *ABS*	00000000 strlen.c
00000000 l    df *ABS*	00000000 sysisatty.c
00000000 l    df *ABS*	00000000 wbuf.c
00000000 l    df *ABS*	00000000 wsetup.c
00000000 l    df *ABS*	00000000 __atexit.c
90000410 l     O .bss	0000008c _global_atexit0
00000000 l    df *ABS*	00000000 dtoa.c
800043a6 l     F .text	0000012c quorem
00000000 l    df *ABS*	00000000 fflush.c
00000000 l    df *ABS*	00000000 findfp.c
800052d2 l     F .text	00000068 std
00000000 l    df *ABS*	00000000 fwalk.c
00000000 l    df *ABS*	00000000 localeconv.c
00000000 l    df *ABS*	00000000 makebuf.c
00000000 l    df *ABS*	00000000 malloc.c
00000000 l    df *ABS*	00000000 memchr.c
00000000 l    df *ABS*	00000000 memcpy.c
00000000 l    df *ABS*	00000000 mprec.c
80007140 l     O .rodata	0000000c p05.0
00000000 l    df *ABS*	00000000 nano-mallocr.c
00000000 l    df *ABS*	00000000 nano-mallocr.c
00000000 l    df *ABS*	00000000 nano-mallocr.c
00000000 l    df *ABS*	00000000 nano-vfprintf.c
800061c4 l     F .text	0000002a __sfputc_r
00000000 l    df *ABS*	00000000 sbrkr.c
00000000 l    df *ABS*	00000000 stdio.c
00000000 l    df *ABS*	00000000 writer.c
00000000 l    df *ABS*	00000000 assert.c
00000000 l    df *ABS*	00000000 closer.c
00000000 l    df *ABS*	00000000 fprintf.c
00000000 l    df *ABS*	00000000 fstatr.c
00000000 l    df *ABS*	00000000 isattyr.c
00000000 l    df *ABS*	00000000 lseekr.c
00000000 l    df *ABS*	00000000 mbtowc_r.c
00000000 l    df *ABS*	00000000 mlock.c
00000000 l    df *ABS*	00000000 readr.c
00000000 l    df *ABS*	00000000 wctomb_r.c
00000000 l    df *ABS*	00000000 abort.c
00000000 l    df *ABS*	00000000 signal.c
00000000 l    df *ABS*	00000000 signalr.c
00000000 l    df *ABS*	00000000 gedf2.c
00000000 l    df *ABS*	00000000 fixdfsi.c
00000000 l    df *ABS*	00000000 floatunsidf.c
00000000 l    df *ABS*	00000000 trunctfdf2.c
00000000 l    df *ABS*	00000000 libgcc2.c
00000000 l    df *ABS*	00000000 locale.c
00000000 l    df *ABS*	00000000 ctype_.c
00000000 l    df *ABS*	00000000 impure.c
9000000c l     O .data	00000060 impure_data
00000000 l    df *ABS*	00000000 
800072b4 l       .rodata	00000000 __fini_array_end
800072b4 l       .rodata	00000000 __fini_array_start
800072b4 l       .rodata	00000000 __init_array_end
800072b4 l       .rodata	00000000 __preinit_array_end
800072b4 l       .rodata	00000000 __init_array_start
800072b4 l       .rodata	00000000 __preinit_array_start
90000340 g     O .bss	00000028 filter_res
8000364e g     F .text	000000ec __cvt
8000668a g     F .text	00000028 _isatty_r
8000012a  w    F .text	00000010 _getpid
80004064 g     F .text	000000de _puts_r
800066b2 g     F .text	0000002c _lseek_r
80002056 g     F .text	0000006a .hidden __eqdf2
80001030 g     F .text	00000068 plic_uart0_handler
80000a54 g     F .text	000000de PLIC_Register_IRQ
800067e0 g     F .text	0000002a _kill_r
80004028 g     F .text	0000003c printf
900009d8 g       .data	00000000 __global_pointer$
80006574 g     F .text	00000036 __sseek
8000538a g     F .text	00000066 __sinit
80004160 g     F .text	000000c6 __swbuf_r
80005344 g     F .text	00000046 __sfmoreglue
8000671a g     F .text	00000002 __malloc_unlock
800057a0 g     F .text	000000ac _Balloc
8000044e g     F .text	00000036 uart_disable_paritybit
8000680e g     F .text	000000a6 .hidden __gtdf2
80006660 g     F .text	0000002a _fstat_r
900003e8 g     O .bss	00000028 f
90000268 g     O .bss	00000004 errno
00000800 g       *ABS*	00000000 __stack_size
800031aa g     F .text	00000332 .hidden __subsf3
80000484 g     F .text	00000044 uart_write
800072b4 g       .rodata	00000000 __rt_init_start
800072b4 g       .rodata	00000000 __fsymtab_end
800000bc g       .ilalign	00000000 _ilm_lma
8000561c g     F .text	000000dc memcpy
8000533a g     F .text	0000000a _cleanup_r
80002bfe g     F .text	00000068 .hidden __floatsidf
800020c0 g     F .text	000000a6 .hidden __ltdf2
90000310 g     O .bss	00000030 filter1_pState
80004142 g     F .text	00000008 puts
800072b4 g       .rodata	00000000 __rt_init_end
900001dc g     O .data	00000004 SystemCoreClock
800055f8 g     F .text	0000000a malloc
8000415c g     F .text	00000004 isatty
80006776 g     F .text	00000062 _raise_r
800000ea  w    F .text	00000040 _fstat
800065dc g     F .text	00000036 __assert_func
800006aa g     F .text	00000024 get_cpu_freq
80007078 g     O .rodata	000000c8 __mprec_tens
8000680a g     F .text	00000004 _getpid_r
800054f2 g     F .text	0000000a _localeconv_r
80005a16 g     F .text	00000036 __i2b
800064ce g     F .text	00000028 _sbrk_r
8000671c g     F .text	0000002c _read_r
800072b4 g       .rodata	00000000 _eilm
90000265 g     O .bss	00000001 check_s
800034dc g     F .text	00000096 .hidden __extendsfdf2
8000150c g     F .text	0000060a .hidden __adddf3
9000f800 g       .stack	00000000 _heap_end
8000013a  w    F .text	00000014 _isatty
90000240 g     O .data	00000004 _global_impure_ptr
800035f0 g     F .text	0000005e __libc_init_array
800011ac g     F .text	00000360 .hidden __udivdi3
80007050 g     O .rodata	00000028 __mprec_bigtens
80006768 g     F .text	0000000e abort
80006918 g     F .text	00000050 .hidden __floatunsidf
800001ce  w    F .text	00000078 _sbrk
80005da0 g     F .text	00000036 __mcmp
80000c66 g     F .text	0000000e _init
800035ba g     F .text	00000036 __libc_fini_array
80005966 g     F .text	00000046 __hi0bits
800000bc g       .ilalign	00000000 _ilm
800068b4 g     F .text	00000064 .hidden __fixdfsi
8000056c g     F .text	00000036 uart_enable_rx_th_int
80000b32 g     F .text	00000122 _premain_init
8000663a g     F .text	00000026 fprintf
800020c0 g     F .text	000000a6 .hidden __ledf2
80005bca g     F .text	000000d2 __pow5mult
80006f98 g     O .rodata	00000020 __sf_fake_stderr
8000088c g     F .text	00000106 core_trap_handler
90000267 g     O .bss	00000001 s_i
80003572 g     F .text	0000003c .hidden __clzsi2
800061ee g     F .text	00000042 __sfputs_r
80000384 g     F .text	0000007c uart_init
80005602 g     F .text	0000001a memchr
800037d6  w    F .text	000004d4 _printf_float
80006056 g     F .text	0000009e _free_r
9000026c g     O .bss	00000004 _global_atexit
90010000 g       .stack	00000000 _sp
80000000 g     F .init	00000000 _start
8000016e  w    F .text	0000001c _lseek
80005c9c g     F .text	00000104 __lshift
80004332 g     F .text	00000074 __register_exitproc
80005a4c g     F .text	0000017e __multiply
80005f32 g     F .text	000000ee __d2b
80000c82 g     F .text	0000005c my_uart_init
80006612 g     F .text	00000028 _close_r
80004226 g     F .text	0000010c __swsetup_r
80001b16 g     F .text	00000540 .hidden __divdf3
800053f0 g     F .text	00000098 __sfp
80002166 g     F .text	00000442 .hidden __muldf3
800064f6 g     F .text	00000030 __sread
80006718 g     F .text	00000002 __malloc_lock
8000526e g     F .text	00000064 _fflush_r
80006020 g     F .text	00000036 _calloc_r
80006fb8 g     O .rodata	00000020 __sf_fake_stdin
90000244 g       .bss	00000000 __bss_start
800056f8 g     F .text	000000a8 memset
80000cde g     F .text	00000352 main
800002d0  w      .text	00000000 trap_entry
800065aa g     F .text	00000006 __sclose
800044d2 g     F .text	00000c54 _dtoa_r
800060f4 g     F .text	000000d0 _malloc_r
80006748 g     F .text	00000020 __ascii_wctomb
800072b4 g       .rodata	00000000 __vsymtab_start
80002f8a g     F .text	00000220 .hidden __mulsf3
800006ce g     F .text	00000020 SystemInit
80002056 g     F .text	0000006a .hidden __nedf2
80000c74 g     F .text	0000000e _fini
80004028 g     F .text	0000003c iprintf
80006d74 g     O .rodata	00000100 .hidden __clz_tab
8000373a g     F .text	0000009c __exponent
80000400 g     F .text	0000004e uart_config_stopbit
800035ae g     F .text	0000000c atexit
800065b0 g     F .text	0000002c _write_r
80003caa g     F .text	0000010c _printf_common
900001e8 g     O .data	00000004 _impure_ptr
80005126 g     F .text	00000148 __sflush_r
90000264 g     O .bss	00000001 uart0_finish
800066de g     F .text	0000003a __ascii_mbtowc
90000000 g       .dalign	00000000 _data
80001098 g     F .text	00000114 riscv_iir_lattice_f32
800072b4 g       .rodata	00000000 __vsymtab_end
800005a2 g     F .text	00000108 measure_cpu_freq
800054fc g     F .text	0000005c __swhatbuf_r
900001e0 g     O .data	00000008 filter1_pkCoeffs
80000246  w    F .text	00000088 _write
90000244 g       .bss	00000000 _edata
80000c54 g     F .text	00000012 _postmain_fini
900004a0 g       .bss	00000000 _end
800072b4 g       .lalign	00000000 _data_lma
800004c8 g     F .text	00000044 uart_read
80006526 g     F .text	0000004e __swrite
8000663a g     F .text	00000026 fiprintf
80006230 g     F .text	0000029e _vfiprintf_r
80005488 g     F .text	0000006a _fwalk_reent
80005dd6 g     F .text	0000015c __mdiff
8000014e  w    F .text	00000020 _kill
80006fd8 g     O .rodata	00000020 __sf_fake_stdout
800071b0 g     O .rodata	00000101 _ctype_
800009fa g     F .text	0000005a SystemBannerPrint
8000018a  w    F .text	00000044 _read
80002bc4 g     F .text	0000003a .hidden __unorddf2
800000d8  w    F .text	00000012 _exit
80005558 g     F .text	000000a0 __smakebuf_r
8000414a g     F .text	00000012 strlen
80003db6 g     F .text	00000272 _printf_i
8000680e g     F .text	000000a6 .hidden __gedf2
90000274 g     O .bss	00000004 __malloc_sbrk_start
90000270 g     O .bss	00000004 __malloc_free_list
800072b4 g       .rodata	00000000 __fsymtab_start
800025a8 g     F .text	0000061c .hidden __subdf3
80006230 g     F .text	0000029e _vfprintf_r
8000085a g     F .text	00000032 Interrupt_Register_ExtIRQ
800059ac g     F .text	0000006a __lo0bits
90000000 g     O .data	0000000c filter1_pvCoeffs
80002c66 g     F .text	00000324 .hidden __addsf3
9000006c g     O .data	0000016c __global_locale
80000348 g     F .text	0000003c gpio_iof_config
8000050c g     F .text	00000060 uart_set_rx_th
80006968 g     F .text	0000023c .hidden __trunctfdf2
90000368 g     O .bss	0000007e temp_s
800067d8 g     F .text	00000008 raise
800000bc  w    F .text	0000001c _close
800058ac g     F .text	000000ba __multadd
8000584c g     F .text	00000060 _Bfree



Disassembly of section .init:

80000000 <_start>:
_start():
E:\NucleiStudio_Workspace\e203_filter_test\Debug/../hbird_sdk/SoC/hbirdv2/Common/Source/GCC/startup_hbirdv2.S:40
 * Reset Handler called on controller reset
 */
_start:
    /* ===== Startup Stage 1 ===== */
    /* Disable Global Interrupt */
    csrc CSR_MSTATUS, MSTATUS_MIE
80000000:	30047073          	csrci	mstatus,8
E:\NucleiStudio_Workspace\e203_filter_test\Debug/../hbird_sdk/SoC/hbirdv2/Common/Source/GCC/startup_hbirdv2.S:42
    /* Disable all interrupts controlled by CSR MIE */
    csrw CSR_MIE, 0x0
80000004:	30405073          	csrwi	mie,0
E:\NucleiStudio_Workspace\e203_filter_test\Debug/../hbird_sdk/SoC/hbirdv2/Common/Source/GCC/startup_hbirdv2.S:47

    /* Initialize GP and Stack Pointer SP */
    .option push
    .option norelax
    la gp, __global_pointer$
80000008:	10001197          	auipc	gp,0x10001
8000000c:	9d018193          	addi	gp,gp,-1584 # 900009d8 <__global_pointer$>
E:\NucleiStudio_Workspace\e203_filter_test\Debug/../hbird_sdk/SoC/hbirdv2/Common/Source/GCC/startup_hbirdv2.S:49
    .option pop
    la sp, _sp
80000010:	10010117          	auipc	sp,0x10010
80000014:	ff010113          	addi	sp,sp,-16 # 90010000 <_sp>
E:\NucleiStudio_Workspace\e203_filter_test\Debug/../hbird_sdk/SoC/hbirdv2/Common/Source/GCC/startup_hbirdv2.S:54

    /*
     * Set Trap Entry MTVEC to trap_entry
     */
    la t0, trap_entry
80000018:	00000297          	auipc	t0,0x0
8000001c:	2b828293          	addi	t0,t0,696 # 800002d0 <trap_entry>
E:\NucleiStudio_Workspace\e203_filter_test\Debug/../hbird_sdk/SoC/hbirdv2/Common/Source/GCC/startup_hbirdv2.S:55
    csrw CSR_MTVEC, t0
80000020:	30529073          	csrw	mtvec,t0
E:\NucleiStudio_Workspace\e203_filter_test\Debug/../hbird_sdk/SoC/hbirdv2/Common/Source/GCC/startup_hbirdv2.S:58

    /* Direct Mode: All exceptions set pc to BASE. */
    csrc CSR_MTVEC, 0x3
80000024:	3051f073          	csrci	mtvec,3
E:\NucleiStudio_Workspace\e203_filter_test\Debug/../hbird_sdk/SoC/hbirdv2/Common/Source/GCC/startup_hbirdv2.S:74
    /* ===== Startup Stage 3 ===== */
    /*
     * Load code section frm FLASH to ILM
     * when code LMA is different with VMA
     */
    la a0, _ilm_lma
80000028:	00000517          	auipc	a0,0x0
8000002c:	09450513          	addi	a0,a0,148 # 800000bc <_close>
E:\NucleiStudio_Workspace\e203_filter_test\Debug/../hbird_sdk/SoC/hbirdv2/Common/Source/GCC/startup_hbirdv2.S:75
    la a1, _ilm
80000030:	00000597          	auipc	a1,0x0
80000034:	08c58593          	addi	a1,a1,140 # 800000bc <_close>
E:\NucleiStudio_Workspace\e203_filter_test\Debug/../hbird_sdk/SoC/hbirdv2/Common/Source/GCC/startup_hbirdv2.S:77
    /* If the ILM phy-address same as the logic-address, then quit */
    beq a0, a1, 2f
80000038:	02b50063          	beq	a0,a1,80000058 <_start+0x58>
E:\NucleiStudio_Workspace\e203_filter_test\Debug/../hbird_sdk/SoC/hbirdv2/Common/Source/GCC/startup_hbirdv2.S:78
    la a2, _eilm
8000003c:	00007617          	auipc	a2,0x7
80000040:	27860613          	addi	a2,a2,632 # 800072b4 <__fsymtab_end>
E:\NucleiStudio_Workspace\e203_filter_test\Debug/../hbird_sdk/SoC/hbirdv2/Common/Source/GCC/startup_hbirdv2.S:79
    bgeu a1, a2, 2f
80000044:	00c5fa63          	bgeu	a1,a2,80000058 <_start+0x58>
E:\NucleiStudio_Workspace\e203_filter_test\Debug/../hbird_sdk/SoC/hbirdv2/Common/Source/GCC/startup_hbirdv2.S:83

1:
    /* Load code section if necessary */
    lw t0, (a0)
80000048:	00052283          	lw	t0,0(a0)
E:\NucleiStudio_Workspace\e203_filter_test\Debug/../hbird_sdk/SoC/hbirdv2/Common/Source/GCC/startup_hbirdv2.S:84
    sw t0, (a1)
8000004c:	0055a023          	sw	t0,0(a1)
E:\NucleiStudio_Workspace\e203_filter_test\Debug/../hbird_sdk/SoC/hbirdv2/Common/Source/GCC/startup_hbirdv2.S:85
    addi a0, a0, 4
80000050:	0511                	addi	a0,a0,4
E:\NucleiStudio_Workspace\e203_filter_test\Debug/../hbird_sdk/SoC/hbirdv2/Common/Source/GCC/startup_hbirdv2.S:86
    addi a1, a1, 4
80000052:	0591                	addi	a1,a1,4
E:\NucleiStudio_Workspace\e203_filter_test\Debug/../hbird_sdk/SoC/hbirdv2/Common/Source/GCC/startup_hbirdv2.S:87
    bltu a1, a2, 1b
80000054:	fec5eae3          	bltu	a1,a2,80000048 <_start+0x48>
E:\NucleiStudio_Workspace\e203_filter_test\Debug/../hbird_sdk/SoC/hbirdv2/Common/Source/GCC/startup_hbirdv2.S:90
2:
    /* Load data section */
    la a0, _data_lma
80000058:	00007517          	auipc	a0,0x7
8000005c:	25c50513          	addi	a0,a0,604 # 800072b4 <__fsymtab_end>
E:\NucleiStudio_Workspace\e203_filter_test\Debug/../hbird_sdk/SoC/hbirdv2/Common/Source/GCC/startup_hbirdv2.S:91
    la a1, _data
80000060:	10000597          	auipc	a1,0x10000
80000064:	fa058593          	addi	a1,a1,-96 # 90000000 <filter1_pvCoeffs>
E:\NucleiStudio_Workspace\e203_filter_test\Debug/../hbird_sdk/SoC/hbirdv2/Common/Source/GCC/startup_hbirdv2.S:92
    la a2, _edata
80000068:	86c18613          	addi	a2,gp,-1940 # 90000244 <__bss_start>
E:\NucleiStudio_Workspace\e203_filter_test\Debug/../hbird_sdk/SoC/hbirdv2/Common/Source/GCC/startup_hbirdv2.S:93
    bgeu a1, a2, 2f
8000006c:	00c5fa63          	bgeu	a1,a2,80000080 <_start+0x80>
E:\NucleiStudio_Workspace\e203_filter_test\Debug/../hbird_sdk/SoC/hbirdv2/Common/Source/GCC/startup_hbirdv2.S:95
1:
    lw t0, (a0)
80000070:	00052283          	lw	t0,0(a0)
E:\NucleiStudio_Workspace\e203_filter_test\Debug/../hbird_sdk/SoC/hbirdv2/Common/Source/GCC/startup_hbirdv2.S:96
    sw t0, (a1)
80000074:	0055a023          	sw	t0,0(a1)
E:\NucleiStudio_Workspace\e203_filter_test\Debug/../hbird_sdk/SoC/hbirdv2/Common/Source/GCC/startup_hbirdv2.S:97
    addi a0, a0, 4
80000078:	0511                	addi	a0,a0,4
E:\NucleiStudio_Workspace\e203_filter_test\Debug/../hbird_sdk/SoC/hbirdv2/Common/Source/GCC/startup_hbirdv2.S:98
    addi a1, a1, 4
8000007a:	0591                	addi	a1,a1,4
E:\NucleiStudio_Workspace\e203_filter_test\Debug/../hbird_sdk/SoC/hbirdv2/Common/Source/GCC/startup_hbirdv2.S:99
    bltu a1, a2, 1b
8000007c:	fec5eae3          	bltu	a1,a2,80000070 <_start+0x70>
E:\NucleiStudio_Workspace\e203_filter_test\Debug/../hbird_sdk/SoC/hbirdv2/Common/Source/GCC/startup_hbirdv2.S:102
2:
    /* Clear bss section */
    la a0, __bss_start
80000080:	86c18513          	addi	a0,gp,-1940 # 90000244 <__bss_start>
E:\NucleiStudio_Workspace\e203_filter_test\Debug/../hbird_sdk/SoC/hbirdv2/Common/Source/GCC/startup_hbirdv2.S:103
    la a1, _end
80000084:	ac818593          	addi	a1,gp,-1336 # 900004a0 <_end>
E:\NucleiStudio_Workspace\e203_filter_test\Debug/../hbird_sdk/SoC/hbirdv2/Common/Source/GCC/startup_hbirdv2.S:104
    bgeu a0, a1, 2f
80000088:	00b57763          	bgeu	a0,a1,80000096 <_start+0x96>
E:\NucleiStudio_Workspace\e203_filter_test\Debug/../hbird_sdk/SoC/hbirdv2/Common/Source/GCC/startup_hbirdv2.S:106
1:
    sw zero, (a0)
8000008c:	00052023          	sw	zero,0(a0)
E:\NucleiStudio_Workspace\e203_filter_test\Debug/../hbird_sdk/SoC/hbirdv2/Common/Source/GCC/startup_hbirdv2.S:107
    addi a0, a0, 4
80000090:	0511                	addi	a0,a0,4
E:\NucleiStudio_Workspace\e203_filter_test\Debug/../hbird_sdk/SoC/hbirdv2/Common/Source/GCC/startup_hbirdv2.S:108
    bltu a0, a1, 1b
80000092:	feb56de3          	bltu	a0,a1,8000008c <_start+0x8c>
E:\NucleiStudio_Workspace\e203_filter_test\Debug/../hbird_sdk/SoC/hbirdv2/Common/Source/GCC/startup_hbirdv2.S:115

    /*
     * Call vendor defined SystemInit to
     * initialize the micro-controller system
     */
    call SystemInit
80000096:	2d25                	jal	800006ce <SystemInit>
E:\NucleiStudio_Workspace\e203_filter_test\Debug/../hbird_sdk/SoC/hbirdv2/Common/Source/GCC/startup_hbirdv2.S:118

    /* Call global constructors */
    la a0, __libc_fini_array
80000098:	00003517          	auipc	a0,0x3
8000009c:	52250513          	addi	a0,a0,1314 # 800035ba <__libc_fini_array>
E:\NucleiStudio_Workspace\e203_filter_test\Debug/../hbird_sdk/SoC/hbirdv2/Common/Source/GCC/startup_hbirdv2.S:119
    call atexit
800000a0:	50e030ef          	jal	ra,800035ae <atexit>
E:\NucleiStudio_Workspace\e203_filter_test\Debug/../hbird_sdk/SoC/hbirdv2/Common/Source/GCC/startup_hbirdv2.S:121
    /* Call C/C++ constructor start up code */
    call __libc_init_array
800000a4:	54c030ef          	jal	ra,800035f0 <__libc_init_array>
E:\NucleiStudio_Workspace\e203_filter_test\Debug/../hbird_sdk/SoC/hbirdv2/Common/Source/GCC/startup_hbirdv2.S:124

    /* do pre-init steps before main */
    call _premain_init
800000a8:	28b000ef          	jal	ra,80000b32 <_premain_init>
E:\NucleiStudio_Workspace\e203_filter_test\Debug/../hbird_sdk/SoC/hbirdv2/Common/Source/GCC/startup_hbirdv2.S:127
    /* ===== Call Main Function  ===== */
    /* argc = argv = 0 */
    li a0, 0
800000ac:	4501                	li	a0,0
E:\NucleiStudio_Workspace\e203_filter_test\Debug/../hbird_sdk/SoC/hbirdv2/Common/Source/GCC/startup_hbirdv2.S:128
    li a1, 0
800000ae:	4581                	li	a1,0
E:\NucleiStudio_Workspace\e203_filter_test\Debug/../hbird_sdk/SoC/hbirdv2/Common/Source/GCC/startup_hbirdv2.S:134

#ifdef RTOS_RTTHREAD
    // Call entry function when using RT-Thread
    call entry
#else
    call main
800000b0:	42f000ef          	jal	ra,80000cde <main>
E:\NucleiStudio_Workspace\e203_filter_test\Debug/../hbird_sdk/SoC/hbirdv2/Common/Source/GCC/startup_hbirdv2.S:137
#endif
    /* do post-main steps after main */
    call _postmain_fini
800000b4:	3a1000ef          	jal	ra,80000c54 <_postmain_fini>
E:\NucleiStudio_Workspace\e203_filter_test\Debug/../hbird_sdk/SoC/hbirdv2/Common/Source/GCC/startup_hbirdv2.S:140

1:
    j 1b
800000b8:	a001                	j	800000b8 <_start+0xb8>

Disassembly of section .text:

800000bc <_close>:
_close():
E:\NucleiStudio_Workspace\e203_filter_test\Debug/../hbird_sdk/SoC/hbirdv2/Common/Source/Stubs/close.c:9

#undef errno
extern int errno;

__WEAK int _close(int fd)
{
800000bc:	1101                	addi	sp,sp,-32
800000be:	ce22                	sw	s0,28(sp)
800000c0:	1000                	addi	s0,sp,32
800000c2:	fea42623          	sw	a0,-20(s0)
E:\NucleiStudio_Workspace\e203_filter_test\Debug/../hbird_sdk/SoC/hbirdv2/Common/Source/Stubs/close.c:10
    errno = EBADF;
800000c6:	89018793          	addi	a5,gp,-1904 # 90000268 <errno>
800000ca:	4725                	li	a4,9
800000cc:	c398                	sw	a4,0(a5)
E:\NucleiStudio_Workspace\e203_filter_test\Debug/../hbird_sdk/SoC/hbirdv2/Common/Source/Stubs/close.c:11
    return -1;
800000ce:	57fd                	li	a5,-1
E:\NucleiStudio_Workspace\e203_filter_test\Debug/../hbird_sdk/SoC/hbirdv2/Common/Source/Stubs/close.c:12
}
800000d0:	853e                	mv	a0,a5
800000d2:	4472                	lw	s0,28(sp)
800000d4:	6105                	addi	sp,sp,32
800000d6:	8082                	ret

800000d8 <_exit>:
_exit():
E:\NucleiStudio_Workspace\e203_filter_test\Debug/../hbird_sdk/SoC/hbirdv2/Common/Source/Stubs/exit.c:5
/* See LICENSE of license details. */
#include "hbird_sdk_soc.h"

__WEAK void _exit(int fd)
{
800000d8:	1101                	addi	sp,sp,-32
800000da:	ce22                	sw	s0,28(sp)
800000dc:	1000                	addi	s0,sp,32
800000de:	fea42623          	sw	a0,-20(s0)
__WFI():
E:\NucleiStudio_Workspace\e203_filter_test\hbird_sdk\NMSIS\Core\Include/core_feature_base.h:598 (discriminator 1)
 * the hardware platform that suitable interrupts should
 * preferentially be routed to this hart.
 */
__STATIC_FORCEINLINE void __WFI(void)
{
    __ASM volatile("wfi");
800000e2:	10500073          	wfi
E:\NucleiStudio_Workspace\e203_filter_test\hbird_sdk\NMSIS\Core\Include/core_feature_base.h:599 (discriminator 1)
}
800000e6:	0001                	nop
_exit():
E:\NucleiStudio_Workspace\e203_filter_test\Debug/../hbird_sdk/SoC/hbirdv2/Common/Source/Stubs/exit.c:7 (discriminator 1)
    while(1) {
        __WFI();
800000e8:	bfed                	j	800000e2 <_exit+0xa>

800000ea <_fstat>:
_fstat():
E:\NucleiStudio_Workspace\e203_filter_test\Debug/../hbird_sdk/SoC/hbirdv2/Common/Source/Stubs/fstat.c:11

#undef errno
extern int errno;

__WEAK int _fstat(int file, struct stat *st)
{
800000ea:	1101                	addi	sp,sp,-32
800000ec:	ce22                	sw	s0,28(sp)
800000ee:	1000                	addi	s0,sp,32
800000f0:	fea42623          	sw	a0,-20(s0)
800000f4:	feb42423          	sw	a1,-24(s0)
E:\NucleiStudio_Workspace\e203_filter_test\Debug/../hbird_sdk/SoC/hbirdv2/Common/Source/Stubs/fstat.c:12
    if ((STDOUT_FILENO == file) || (STDERR_FILENO == file)) {
800000f8:	fec42703          	lw	a4,-20(s0)
800000fc:	4785                	li	a5,1
800000fe:	00f70763          	beq	a4,a5,8000010c <_fstat+0x22>
E:\NucleiStudio_Workspace\e203_filter_test\Debug/../hbird_sdk/SoC/hbirdv2/Common/Source/Stubs/fstat.c:12 (discriminator 1)
80000102:	fec42703          	lw	a4,-20(s0)
80000106:	4789                	li	a5,2
80000108:	00f71863          	bne	a4,a5,80000118 <_fstat+0x2e>
E:\NucleiStudio_Workspace\e203_filter_test\Debug/../hbird_sdk/SoC/hbirdv2/Common/Source/Stubs/fstat.c:13
        st->st_mode = S_IFCHR;
8000010c:	fe842783          	lw	a5,-24(s0)
80000110:	6709                	lui	a4,0x2
80000112:	c3d8                	sw	a4,4(a5)
E:\NucleiStudio_Workspace\e203_filter_test\Debug/../hbird_sdk/SoC/hbirdv2/Common/Source/Stubs/fstat.c:14
        return 0;
80000114:	4781                	li	a5,0
80000116:	a031                	j	80000122 <_fstat+0x38>
E:\NucleiStudio_Workspace\e203_filter_test\Debug/../hbird_sdk/SoC/hbirdv2/Common/Source/Stubs/fstat.c:16
    } else {
        errno = EBADF;
80000118:	89018793          	addi	a5,gp,-1904 # 90000268 <errno>
8000011c:	4725                	li	a4,9
8000011e:	c398                	sw	a4,0(a5)
E:\NucleiStudio_Workspace\e203_filter_test\Debug/../hbird_sdk/SoC/hbirdv2/Common/Source/Stubs/fstat.c:17
        return -1;
80000120:	57fd                	li	a5,-1
E:\NucleiStudio_Workspace\e203_filter_test\Debug/../hbird_sdk/SoC/hbirdv2/Common/Source/Stubs/fstat.c:19
    }
}
80000122:	853e                	mv	a0,a5
80000124:	4472                	lw	s0,28(sp)
80000126:	6105                	addi	sp,sp,32
80000128:	8082                	ret

8000012a <_getpid>:
_getpid():
E:\NucleiStudio_Workspace\e203_filter_test\Debug/../hbird_sdk/SoC/hbirdv2/Common/Source/Stubs/getpid.c:6
/* See LICENSE of license details. */
#include "hbird_sdk_soc.h"
#include <errno.h>

__WEAK int _getpid(void)
{
8000012a:	1141                	addi	sp,sp,-16
8000012c:	c622                	sw	s0,12(sp)
8000012e:	0800                	addi	s0,sp,16
E:\NucleiStudio_Workspace\e203_filter_test\Debug/../hbird_sdk/SoC/hbirdv2/Common/Source/Stubs/getpid.c:7
    return 1;
80000130:	4785                	li	a5,1
E:\NucleiStudio_Workspace\e203_filter_test\Debug/../hbird_sdk/SoC/hbirdv2/Common/Source/Stubs/getpid.c:8
}
80000132:	853e                	mv	a0,a5
80000134:	4432                	lw	s0,12(sp)
80000136:	0141                	addi	sp,sp,16
80000138:	8082                	ret

8000013a <_isatty>:
_isatty():
E:\NucleiStudio_Workspace\e203_filter_test\Debug/../hbird_sdk/SoC/hbirdv2/Common/Source/Stubs/isatty.c:6
/* See LICENSE of license details. */
#include "hbird_sdk_soc.h"
#include <unistd.h>

__WEAK int _isatty(int fd)
{
8000013a:	1101                	addi	sp,sp,-32
8000013c:	ce22                	sw	s0,28(sp)
8000013e:	1000                	addi	s0,sp,32
80000140:	fea42623          	sw	a0,-20(s0)
E:\NucleiStudio_Workspace\e203_filter_test\Debug/../hbird_sdk/SoC/hbirdv2/Common/Source/Stubs/isatty.c:7
    return 1;
80000144:	4785                	li	a5,1
E:\NucleiStudio_Workspace\e203_filter_test\Debug/../hbird_sdk/SoC/hbirdv2/Common/Source/Stubs/isatty.c:8
}
80000146:	853e                	mv	a0,a5
80000148:	4472                	lw	s0,28(sp)
8000014a:	6105                	addi	sp,sp,32
8000014c:	8082                	ret

8000014e <_kill>:
_kill():
E:\NucleiStudio_Workspace\e203_filter_test\Debug/../hbird_sdk/SoC/hbirdv2/Common/Source/Stubs/kill.c:8
#include <errno.h>
#undef errno
extern int errno;

__WEAK int _kill(int pid, int sig)
{
8000014e:	1101                	addi	sp,sp,-32
80000150:	ce22                	sw	s0,28(sp)
80000152:	1000                	addi	s0,sp,32
80000154:	fea42623          	sw	a0,-20(s0)
80000158:	feb42423          	sw	a1,-24(s0)
E:\NucleiStudio_Workspace\e203_filter_test\Debug/../hbird_sdk/SoC/hbirdv2/Common/Source/Stubs/kill.c:9
    errno = EINVAL;
8000015c:	89018793          	addi	a5,gp,-1904 # 90000268 <errno>
80000160:	4759                	li	a4,22
80000162:	c398                	sw	a4,0(a5)
E:\NucleiStudio_Workspace\e203_filter_test\Debug/../hbird_sdk/SoC/hbirdv2/Common/Source/Stubs/kill.c:10
    return -1;
80000164:	57fd                	li	a5,-1
E:\NucleiStudio_Workspace\e203_filter_test\Debug/../hbird_sdk/SoC/hbirdv2/Common/Source/Stubs/kill.c:11
}
80000166:	853e                	mv	a0,a5
80000168:	4472                	lw	s0,28(sp)
8000016a:	6105                	addi	sp,sp,32
8000016c:	8082                	ret

8000016e <_lseek>:
_lseek():
E:\NucleiStudio_Workspace\e203_filter_test\Debug/../hbird_sdk/SoC/hbirdv2/Common/Source/Stubs/lseek.c:9

#undef errno
extern int errno;

__WEAK int _lseek(int file, int offset, int whence)
{
8000016e:	1101                	addi	sp,sp,-32
80000170:	ce22                	sw	s0,28(sp)
80000172:	1000                	addi	s0,sp,32
80000174:	fea42623          	sw	a0,-20(s0)
80000178:	feb42423          	sw	a1,-24(s0)
8000017c:	fec42223          	sw	a2,-28(s0)
E:\NucleiStudio_Workspace\e203_filter_test\Debug/../hbird_sdk/SoC/hbirdv2/Common/Source/Stubs/lseek.c:10
    return 0;
80000180:	4781                	li	a5,0
E:\NucleiStudio_Workspace\e203_filter_test\Debug/../hbird_sdk/SoC/hbirdv2/Common/Source/Stubs/lseek.c:11
}
80000182:	853e                	mv	a0,a5
80000184:	4472                	lw	s0,28(sp)
80000186:	6105                	addi	sp,sp,32
80000188:	8082                	ret

8000018a <_read>:
_read():
E:\NucleiStudio_Workspace\e203_filter_test\Debug/../hbird_sdk/SoC/hbirdv2/Common/Source/Stubs/read.c:11
#include "hbird_sdk_hal.h"

// #define UART_AUTO_ECHO

__WEAK ssize_t _read(int fd, void* ptr, size_t len)
{
8000018a:	7179                	addi	sp,sp,-48
8000018c:	d606                	sw	ra,44(sp)
8000018e:	d422                	sw	s0,40(sp)
80000190:	1800                	addi	s0,sp,48
80000192:	fca42e23          	sw	a0,-36(s0)
80000196:	fcb42c23          	sw	a1,-40(s0)
8000019a:	fcc42a23          	sw	a2,-44(s0)
E:\NucleiStudio_Workspace\e203_filter_test\Debug/../hbird_sdk/SoC/hbirdv2/Common/Source/Stubs/read.c:12
    if (fd != STDIN_FILENO) {
8000019e:	fdc42783          	lw	a5,-36(s0)
800001a2:	c399                	beqz	a5,800001a8 <_read+0x1e>
E:\NucleiStudio_Workspace\e203_filter_test\Debug/../hbird_sdk/SoC/hbirdv2/Common/Source/Stubs/read.c:13
        return -1;
800001a4:	57fd                	li	a5,-1
800001a6:	a839                	j	800001c4 <_read+0x3a>
E:\NucleiStudio_Workspace\e203_filter_test\Debug/../hbird_sdk/SoC/hbirdv2/Common/Source/Stubs/read.c:16
    }

    uint8_t *readbuf = (uint8_t *)ptr;
800001a8:	fd842783          	lw	a5,-40(s0)
800001ac:	fef42623          	sw	a5,-20(s0)
E:\NucleiStudio_Workspace\e203_filter_test\Debug/../hbird_sdk/SoC/hbirdv2/Common/Source/Stubs/read.c:17
    readbuf[0] = uart_read(SOC_DEBUG_UART);
800001b0:	10013537          	lui	a0,0x10013
800001b4:	2e11                	jal	800004c8 <uart_read>
800001b6:	87aa                	mv	a5,a0
800001b8:	873e                	mv	a4,a5
800001ba:	fec42783          	lw	a5,-20(s0)
800001be:	00e78023          	sb	a4,0(a5)
E:\NucleiStudio_Workspace\e203_filter_test\Debug/../hbird_sdk/SoC/hbirdv2/Common/Source/Stubs/read.c:21
#ifdef UART_AUTO_ECHO
    uart_write(SOC_DEBUG_UART, readbuf[0]);
#endif
    return 1;
800001c2:	4785                	li	a5,1
E:\NucleiStudio_Workspace\e203_filter_test\Debug/../hbird_sdk/SoC/hbirdv2/Common/Source/Stubs/read.c:22
}
800001c4:	853e                	mv	a0,a5
800001c6:	50b2                	lw	ra,44(sp)
800001c8:	5422                	lw	s0,40(sp)
800001ca:	6145                	addi	sp,sp,48
800001cc:	8082                	ret

800001ce <_sbrk>:
_sbrk():
E:\NucleiStudio_Workspace\e203_filter_test\Debug/../hbird_sdk/SoC/hbirdv2/Common/Source/Stubs/sbrk.c:8
#include <stdint.h>
#include <stddef.h>
#include <unistd.h>

__WEAK void *_sbrk(ptrdiff_t incr)
{
800001ce:	1101                	addi	sp,sp,-32
800001d0:	ce22                	sw	s0,28(sp)
800001d2:	1000                	addi	s0,sp,32
800001d4:	fea42623          	sw	a0,-20(s0)
E:\NucleiStudio_Workspace\e203_filter_test\Debug/../hbird_sdk/SoC/hbirdv2/Common/Source/Stubs/sbrk.c:13
    extern char _end[];
    extern char _heap_end[];
    static char *curbrk = _end;

    if ((curbrk + incr < _end) || (curbrk + incr > _heap_end)) {
800001d8:	10000797          	auipc	a5,0x10000
800001dc:	00078793          	mv	a5,a5
800001e0:	4398                	lw	a4,0(a5)
800001e2:	fec42783          	lw	a5,-20(s0)
800001e6:	973e                	add	a4,a4,a5
800001e8:	ac818793          	addi	a5,gp,-1336 # 900004a0 <_end>
800001ec:	02f76063          	bltu	a4,a5,8000020c <_sbrk+0x3e>
E:\NucleiStudio_Workspace\e203_filter_test\Debug/../hbird_sdk/SoC/hbirdv2/Common/Source/Stubs/sbrk.c:13 (discriminator 1)
800001f0:	10000797          	auipc	a5,0x10000
800001f4:	fe878793          	addi	a5,a5,-24 # 900001d8 <curbrk.0>
800001f8:	4398                	lw	a4,0(a5)
800001fa:	fec42783          	lw	a5,-20(s0)
800001fe:	973e                	add	a4,a4,a5
80000200:	1000f797          	auipc	a5,0x1000f
80000204:	60078793          	addi	a5,a5,1536 # 9000f800 <_heap_end>
80000208:	00e7f463          	bgeu	a5,a4,80000210 <_sbrk+0x42>
E:\NucleiStudio_Workspace\e203_filter_test\Debug/../hbird_sdk/SoC/hbirdv2/Common/Source/Stubs/sbrk.c:14
        return (void *)(-1);
8000020c:	57fd                	li	a5,-1
8000020e:	a805                	j	8000023e <_sbrk+0x70>
E:\NucleiStudio_Workspace\e203_filter_test\Debug/../hbird_sdk/SoC/hbirdv2/Common/Source/Stubs/sbrk.c:17
    }

    curbrk += incr;
80000210:	10000797          	auipc	a5,0x10000
80000214:	fc878793          	addi	a5,a5,-56 # 900001d8 <curbrk.0>
80000218:	4398                	lw	a4,0(a5)
8000021a:	fec42783          	lw	a5,-20(s0)
8000021e:	973e                	add	a4,a4,a5
80000220:	10000797          	auipc	a5,0x10000
80000224:	fb878793          	addi	a5,a5,-72 # 900001d8 <curbrk.0>
80000228:	c398                	sw	a4,0(a5)
E:\NucleiStudio_Workspace\e203_filter_test\Debug/../hbird_sdk/SoC/hbirdv2/Common/Source/Stubs/sbrk.c:18
    return (void *)(curbrk - incr);
8000022a:	10000797          	auipc	a5,0x10000
8000022e:	fae78793          	addi	a5,a5,-82 # 900001d8 <curbrk.0>
80000232:	4398                	lw	a4,0(a5)
80000234:	fec42783          	lw	a5,-20(s0)
80000238:	40f007b3          	neg	a5,a5
8000023c:	97ba                	add	a5,a5,a4
E:\NucleiStudio_Workspace\e203_filter_test\Debug/../hbird_sdk/SoC/hbirdv2/Common/Source/Stubs/sbrk.c:19
}
8000023e:	853e                	mv	a0,a5
80000240:	4472                	lw	s0,28(sp)
80000242:	6105                	addi	sp,sp,32
80000244:	8082                	ret

80000246 <_write>:
_write():
E:\NucleiStudio_Workspace\e203_filter_test\Debug/../hbird_sdk/SoC/hbirdv2/Common/Source/Stubs/write.c:9
#include <unistd.h>
#include <sys/types.h>
#include <hbird_sdk_hal.h>

__WEAK ssize_t _write(int fd, const void* ptr, size_t len)
{
80000246:	7179                	addi	sp,sp,-48
80000248:	d606                	sw	ra,44(sp)
8000024a:	d422                	sw	s0,40(sp)
8000024c:	1800                	addi	s0,sp,48
8000024e:	fca42e23          	sw	a0,-36(s0)
80000252:	fcb42c23          	sw	a1,-40(s0)
80000256:	fcc42a23          	sw	a2,-44(s0)
E:\NucleiStudio_Workspace\e203_filter_test\Debug/../hbird_sdk/SoC/hbirdv2/Common/Source/Stubs/write.c:10
    if (!isatty(fd)) {
8000025a:	fdc42503          	lw	a0,-36(s0)
8000025e:	6ff030ef          	jal	ra,8000415c <isatty>
80000262:	87aa                	mv	a5,a0
80000264:	e399                	bnez	a5,8000026a <_write+0x24>
E:\NucleiStudio_Workspace\e203_filter_test\Debug/../hbird_sdk/SoC/hbirdv2/Common/Source/Stubs/write.c:11
        return -1;
80000266:	57fd                	li	a5,-1
80000268:	a8b1                	j	800002c4 <_write+0x7e>
E:\NucleiStudio_Workspace\e203_filter_test\Debug/../hbird_sdk/SoC/hbirdv2/Common/Source/Stubs/write.c:14
    }

    const uint8_t *writebuf = (const uint8_t *)ptr;
8000026a:	fd842783          	lw	a5,-40(s0)
8000026e:	fef42423          	sw	a5,-24(s0)
E:\NucleiStudio_Workspace\e203_filter_test\Debug/../hbird_sdk/SoC/hbirdv2/Common/Source/Stubs/write.c:15
    for (size_t i = 0; i < len; i++) {
80000272:	fe042623          	sw	zero,-20(s0)
80000276:	a83d                	j	800002b4 <_write+0x6e>
E:\NucleiStudio_Workspace\e203_filter_test\Debug/../hbird_sdk/SoC/hbirdv2/Common/Source/Stubs/write.c:16
        if (writebuf[i] == '\n') {
80000278:	fe842703          	lw	a4,-24(s0)
8000027c:	fec42783          	lw	a5,-20(s0)
80000280:	97ba                	add	a5,a5,a4
80000282:	0007c703          	lbu	a4,0(a5)
80000286:	47a9                	li	a5,10
80000288:	00f71663          	bne	a4,a5,80000294 <_write+0x4e>
E:\NucleiStudio_Workspace\e203_filter_test\Debug/../hbird_sdk/SoC/hbirdv2/Common/Source/Stubs/write.c:17
            uart_write(SOC_DEBUG_UART, '\r');
8000028c:	45b5                	li	a1,13
8000028e:	10013537          	lui	a0,0x10013
80000292:	2acd                	jal	80000484 <uart_write>
E:\NucleiStudio_Workspace\e203_filter_test\Debug/../hbird_sdk/SoC/hbirdv2/Common/Source/Stubs/write.c:19 (discriminator 2)
        }
        uart_write(SOC_DEBUG_UART, writebuf[i]);
80000294:	fe842703          	lw	a4,-24(s0)
80000298:	fec42783          	lw	a5,-20(s0)
8000029c:	97ba                	add	a5,a5,a4
8000029e:	0007c783          	lbu	a5,0(a5)
800002a2:	85be                	mv	a1,a5
800002a4:	10013537          	lui	a0,0x10013
800002a8:	2af1                	jal	80000484 <uart_write>
E:\NucleiStudio_Workspace\e203_filter_test\Debug/../hbird_sdk/SoC/hbirdv2/Common/Source/Stubs/write.c:15 (discriminator 2)
    for (size_t i = 0; i < len; i++) {
800002aa:	fec42783          	lw	a5,-20(s0)
800002ae:	0785                	addi	a5,a5,1
800002b0:	fef42623          	sw	a5,-20(s0)
E:\NucleiStudio_Workspace\e203_filter_test\Debug/../hbird_sdk/SoC/hbirdv2/Common/Source/Stubs/write.c:15 (discriminator 1)
800002b4:	fec42703          	lw	a4,-20(s0)
800002b8:	fd442783          	lw	a5,-44(s0)
800002bc:	faf76ee3          	bltu	a4,a5,80000278 <_write+0x32>
E:\NucleiStudio_Workspace\e203_filter_test\Debug/../hbird_sdk/SoC/hbirdv2/Common/Source/Stubs/write.c:21
    }
    return len;
800002c0:	fd442783          	lw	a5,-44(s0)
E:\NucleiStudio_Workspace\e203_filter_test\Debug/../hbird_sdk/SoC/hbirdv2/Common/Source/Stubs/write.c:22
}
800002c4:	853e                	mv	a0,a5
800002c6:	50b2                	lw	ra,44(sp)
800002c8:	5422                	lw	s0,40(sp)
800002ca:	6145                	addi	sp,sp,48
800002cc:	8082                	ret
	...

800002d0 <trap_entry>:
trap_entry():
E:\NucleiStudio_Workspace\e203_filter_test\Debug/../hbird_sdk/SoC/hbirdv2/Common/Source/GCC/intexc_hbirdv2.S:159
.align 2
.global trap_entry
.weak trap_entry
trap_entry:
    /* Save the caller saving registers (context) */
    SAVE_CONTEXT
800002d0:	715d                	addi	sp,sp,-80
800002d2:	c006                	sw	ra,0(sp)
800002d4:	c212                	sw	tp,4(sp)
800002d6:	c416                	sw	t0,8(sp)
800002d8:	c61a                	sw	t1,12(sp)
800002da:	c81e                	sw	t2,16(sp)
800002dc:	ca2a                	sw	a0,20(sp)
800002de:	cc2e                	sw	a1,24(sp)
800002e0:	ce32                	sw	a2,28(sp)
800002e2:	d036                	sw	a3,32(sp)
800002e4:	d23a                	sw	a4,36(sp)
800002e6:	d43e                	sw	a5,40(sp)
800002e8:	dc42                	sw	a6,56(sp)
800002ea:	de46                	sw	a7,60(sp)
800002ec:	c0f2                	sw	t3,64(sp)
800002ee:	c2f6                	sw	t4,68(sp)
800002f0:	c4fa                	sw	t5,72(sp)
800002f2:	c6fe                	sw	t6,76(sp)
E:\NucleiStudio_Workspace\e203_filter_test\Debug/../hbird_sdk/SoC/hbirdv2/Common/Source/GCC/intexc_hbirdv2.S:161
    /* Save the necessary CSR registers */
    SAVE_CSR_CONTEXT
800002f4:	341022f3          	csrr	t0,mepc
800002f8:	d616                	sw	t0,44(sp)
800002fa:	342022f3          	csrr	t0,mcause
800002fe:	d816                	sw	t0,48(sp)
80000300:	300022f3          	csrr	t0,mstatus
80000304:	da16                	sw	t0,52(sp)
E:\NucleiStudio_Workspace\e203_filter_test\Debug/../hbird_sdk/SoC/hbirdv2/Common/Source/GCC/intexc_hbirdv2.S:168
    /*
     * Set the exception handler function arguments
     * argument 1: mcause value
     * argument 2: current stack point(SP) value
     */
    csrr a0, mcause
80000306:	34202573          	csrr	a0,mcause
E:\NucleiStudio_Workspace\e203_filter_test\Debug/../hbird_sdk/SoC/hbirdv2/Common/Source/GCC/intexc_hbirdv2.S:169
    mv a1, sp
8000030a:	858a                	mv	a1,sp
E:\NucleiStudio_Workspace\e203_filter_test\Debug/../hbird_sdk/SoC/hbirdv2/Common/Source/GCC/intexc_hbirdv2.S:175
    /*
     * TODO: Call the trap handler function
     * By default, the function template is provided in
     * system_Device.c, you can adjust it as you want
     */
    call core_trap_handler
8000030c:	2341                	jal	8000088c <core_trap_handler>
E:\NucleiStudio_Workspace\e203_filter_test\Debug/../hbird_sdk/SoC/hbirdv2/Common/Source/GCC/intexc_hbirdv2.S:178

    /* Restore the necessary CSR registers */
    RESTORE_CSR_CONTEXT
8000030e:	52b2                	lw	t0,44(sp)
80000310:	34129073          	csrw	mepc,t0
80000314:	52c2                	lw	t0,48(sp)
80000316:	34229073          	csrw	mcause,t0
8000031a:	52d2                	lw	t0,52(sp)
8000031c:	30029073          	csrw	mstatus,t0
E:\NucleiStudio_Workspace\e203_filter_test\Debug/../hbird_sdk/SoC/hbirdv2/Common/Source/GCC/intexc_hbirdv2.S:180
    /* Restore the caller saving registers (context) */
    RESTORE_CONTEXT
80000320:	4082                	lw	ra,0(sp)
80000322:	4212                	lw	tp,4(sp)
80000324:	42a2                	lw	t0,8(sp)
80000326:	4332                	lw	t1,12(sp)
80000328:	43c2                	lw	t2,16(sp)
8000032a:	4552                	lw	a0,20(sp)
8000032c:	45e2                	lw	a1,24(sp)
8000032e:	4672                	lw	a2,28(sp)
80000330:	5682                	lw	a3,32(sp)
80000332:	5712                	lw	a4,36(sp)
80000334:	57a2                	lw	a5,40(sp)
80000336:	5862                	lw	a6,56(sp)
80000338:	58f2                	lw	a7,60(sp)
8000033a:	4e06                	lw	t3,64(sp)
8000033c:	4e96                	lw	t4,68(sp)
8000033e:	4f26                	lw	t5,72(sp)
80000340:	4fb6                	lw	t6,76(sp)
80000342:	6161                	addi	sp,sp,80
E:\NucleiStudio_Workspace\e203_filter_test\Debug/../hbird_sdk/SoC/hbirdv2/Common/Source/GCC/intexc_hbirdv2.S:183

    /* Return to regular code */
    mret
80000344:	30200073          	mret

80000348 <gpio_iof_config>:
gpio_iof_config():
E:\NucleiStudio_Workspace\e203_filter_test\Debug/../hbird_sdk/SoC/hbirdv2/Common/Source/Drivers/hbirdv2_gpio.c:5
#include "hbirdv2.h"
#include "hbirdv2_gpio.h"

int32_t gpio_iof_config(GPIO_TypeDef *gpio, uint32_t mask)
{
80000348:	1101                	addi	sp,sp,-32
8000034a:	ce22                	sw	s0,28(sp)
8000034c:	1000                	addi	s0,sp,32
8000034e:	fea42623          	sw	a0,-20(s0)
80000352:	feb42423          	sw	a1,-24(s0)
E:\NucleiStudio_Workspace\e203_filter_test\Debug/../hbird_sdk/SoC/hbirdv2/Common/Source/Drivers/hbirdv2_gpio.c:6
    if (__RARELY(gpio == NULL)) {
80000356:	fec42783          	lw	a5,-20(s0)
8000035a:	0017b793          	seqz	a5,a5
8000035e:	0ff7f793          	zext.b	a5,a5
80000362:	c399                	beqz	a5,80000368 <gpio_iof_config+0x20>
E:\NucleiStudio_Workspace\e203_filter_test\Debug/../hbird_sdk/SoC/hbirdv2/Common/Source/Drivers/hbirdv2_gpio.c:7
        return -1;
80000364:	57fd                	li	a5,-1
80000366:	a819                	j	8000037c <gpio_iof_config+0x34>
E:\NucleiStudio_Workspace\e203_filter_test\Debug/../hbird_sdk/SoC/hbirdv2/Common/Source/Drivers/hbirdv2_gpio.c:9
    }
    gpio->IOFCFG |= mask;
80000368:	fec42783          	lw	a5,-20(s0)
8000036c:	4fd8                	lw	a4,28(a5)
8000036e:	fe842783          	lw	a5,-24(s0)
80000372:	8f5d                	or	a4,a4,a5
80000374:	fec42783          	lw	a5,-20(s0)
80000378:	cfd8                	sw	a4,28(a5)
E:\NucleiStudio_Workspace\e203_filter_test\Debug/../hbird_sdk/SoC/hbirdv2/Common/Source/Drivers/hbirdv2_gpio.c:11

    return 0;
8000037a:	4781                	li	a5,0
E:\NucleiStudio_Workspace\e203_filter_test\Debug/../hbird_sdk/SoC/hbirdv2/Common/Source/Drivers/hbirdv2_gpio.c:12
}
8000037c:	853e                	mv	a0,a5
8000037e:	4472                	lw	s0,28(sp)
80000380:	6105                	addi	sp,sp,32
80000382:	8082                	ret

80000384 <uart_init>:
uart_init():
E:\NucleiStudio_Workspace\e203_filter_test\Debug/../hbird_sdk/SoC/hbirdv2/Common/Source/Drivers/hbirdv2_uart.c:5
#include "hbirdv2.h"
#include "hbirdv2_uart.h"

int32_t uart_init(UART_TypeDef *uart, uint32_t baudrate)
{
80000384:	7179                	addi	sp,sp,-48
80000386:	d622                	sw	s0,44(sp)
80000388:	1800                	addi	s0,sp,48
8000038a:	fca42e23          	sw	a0,-36(s0)
8000038e:	fcb42c23          	sw	a1,-40(s0)
E:\NucleiStudio_Workspace\e203_filter_test\Debug/../hbird_sdk/SoC/hbirdv2/Common/Source/Drivers/hbirdv2_uart.c:6
    if (__RARELY(uart == NULL)) {
80000392:	fdc42783          	lw	a5,-36(s0)
80000396:	0017b793          	seqz	a5,a5
8000039a:	0ff7f793          	zext.b	a5,a5
8000039e:	c399                	beqz	a5,800003a4 <uart_init+0x20>
E:\NucleiStudio_Workspace\e203_filter_test\Debug/../hbird_sdk/SoC/hbirdv2/Common/Source/Drivers/hbirdv2_uart.c:7
        return -1;
800003a0:	57fd                	li	a5,-1
800003a2:	a899                	j	800003f8 <uart_init+0x74>
E:\NucleiStudio_Workspace\e203_filter_test\Debug/../hbird_sdk/SoC/hbirdv2/Common/Source/Drivers/hbirdv2_uart.c:10
    }

    unsigned int uart_div = SystemCoreClock / baudrate - 1;
800003a4:	10000797          	auipc	a5,0x10000
800003a8:	e3878793          	addi	a5,a5,-456 # 900001dc <SystemCoreClock>
800003ac:	4398                	lw	a4,0(a5)
800003ae:	fd842783          	lw	a5,-40(s0)
800003b2:	02f757b3          	divu	a5,a4,a5
800003b6:	17fd                	addi	a5,a5,-1
800003b8:	fef42623          	sw	a5,-20(s0)
E:\NucleiStudio_Workspace\e203_filter_test\Debug/../hbird_sdk/SoC/hbirdv2/Common/Source/Drivers/hbirdv2_uart.c:11
    uart->LCR = 0x80;
800003bc:	fdc42783          	lw	a5,-36(s0)
800003c0:	08000713          	li	a4,128
800003c4:	c7d8                	sw	a4,12(a5)
E:\NucleiStudio_Workspace\e203_filter_test\Debug/../hbird_sdk/SoC/hbirdv2/Common/Source/Drivers/hbirdv2_uart.c:12
    uart->DLM = (uart_div >> 8) & 0xFF;
800003c6:	fec42783          	lw	a5,-20(s0)
800003ca:	83a1                	srli	a5,a5,0x8
800003cc:	0ff7f713          	zext.b	a4,a5
800003d0:	fdc42783          	lw	a5,-36(s0)
800003d4:	c3d8                	sw	a4,4(a5)
E:\NucleiStudio_Workspace\e203_filter_test\Debug/../hbird_sdk/SoC/hbirdv2/Common/Source/Drivers/hbirdv2_uart.c:13
    uart->DLL = uart_div        & 0xFF;
800003d6:	fec42783          	lw	a5,-20(s0)
800003da:	0ff7f713          	zext.b	a4,a5
800003de:	fdc42783          	lw	a5,-36(s0)
800003e2:	c398                	sw	a4,0(a5)
E:\NucleiStudio_Workspace\e203_filter_test\Debug/../hbird_sdk/SoC/hbirdv2/Common/Source/Drivers/hbirdv2_uart.c:14
    uart->FCR = 0xC6;
800003e4:	fdc42783          	lw	a5,-36(s0)
800003e8:	0c600713          	li	a4,198
800003ec:	c798                	sw	a4,8(a5)
E:\NucleiStudio_Workspace\e203_filter_test\Debug/../hbird_sdk/SoC/hbirdv2/Common/Source/Drivers/hbirdv2_uart.c:15
    uart->LCR = 0x03;
800003ee:	fdc42783          	lw	a5,-36(s0)
800003f2:	470d                	li	a4,3
800003f4:	c7d8                	sw	a4,12(a5)
E:\NucleiStudio_Workspace\e203_filter_test\Debug/../hbird_sdk/SoC/hbirdv2/Common/Source/Drivers/hbirdv2_uart.c:17

    return 0;
800003f6:	4781                	li	a5,0
E:\NucleiStudio_Workspace\e203_filter_test\Debug/../hbird_sdk/SoC/hbirdv2/Common/Source/Drivers/hbirdv2_uart.c:18
}
800003f8:	853e                	mv	a0,a5
800003fa:	5432                	lw	s0,44(sp)
800003fc:	6145                	addi	sp,sp,48
800003fe:	8082                	ret

80000400 <uart_config_stopbit>:
uart_config_stopbit():
E:\NucleiStudio_Workspace\e203_filter_test\Debug/../hbird_sdk/SoC/hbirdv2/Common/Source/Drivers/hbirdv2_uart.c:21

int32_t uart_config_stopbit(UART_TypeDef *uart, UART_STOP_BIT stopbit)
{
80000400:	1101                	addi	sp,sp,-32
80000402:	ce22                	sw	s0,28(sp)
80000404:	1000                	addi	s0,sp,32
80000406:	fea42623          	sw	a0,-20(s0)
8000040a:	feb42423          	sw	a1,-24(s0)
E:\NucleiStudio_Workspace\e203_filter_test\Debug/../hbird_sdk/SoC/hbirdv2/Common/Source/Drivers/hbirdv2_uart.c:22
    if (__RARELY(uart == NULL)) {
8000040e:	fec42783          	lw	a5,-20(s0)
80000412:	0017b793          	seqz	a5,a5
80000416:	0ff7f793          	zext.b	a5,a5
8000041a:	c399                	beqz	a5,80000420 <uart_config_stopbit+0x20>
E:\NucleiStudio_Workspace\e203_filter_test\Debug/../hbird_sdk/SoC/hbirdv2/Common/Source/Drivers/hbirdv2_uart.c:23
        return -1;
8000041c:	57fd                	li	a5,-1
8000041e:	a025                	j	80000446 <uart_config_stopbit+0x46>
E:\NucleiStudio_Workspace\e203_filter_test\Debug/../hbird_sdk/SoC/hbirdv2/Common/Source/Drivers/hbirdv2_uart.c:26
    }

    uart->LCR &= 0xFFFFFFFB;
80000420:	fec42783          	lw	a5,-20(s0)
80000424:	47dc                	lw	a5,12(a5)
80000426:	ffb7f713          	andi	a4,a5,-5
8000042a:	fec42783          	lw	a5,-20(s0)
8000042e:	c7d8                	sw	a4,12(a5)
E:\NucleiStudio_Workspace\e203_filter_test\Debug/../hbird_sdk/SoC/hbirdv2/Common/Source/Drivers/hbirdv2_uart.c:27
    uart->LCR |= (stopbit << 2);
80000430:	fec42783          	lw	a5,-20(s0)
80000434:	47d8                	lw	a4,12(a5)
80000436:	fe842783          	lw	a5,-24(s0)
8000043a:	078a                	slli	a5,a5,0x2
8000043c:	8f5d                	or	a4,a4,a5
8000043e:	fec42783          	lw	a5,-20(s0)
80000442:	c7d8                	sw	a4,12(a5)
E:\NucleiStudio_Workspace\e203_filter_test\Debug/../hbird_sdk/SoC/hbirdv2/Common/Source/Drivers/hbirdv2_uart.c:29

    return 0;
80000444:	4781                	li	a5,0
E:\NucleiStudio_Workspace\e203_filter_test\Debug/../hbird_sdk/SoC/hbirdv2/Common/Source/Drivers/hbirdv2_uart.c:30
}
80000446:	853e                	mv	a0,a5
80000448:	4472                	lw	s0,28(sp)
8000044a:	6105                	addi	sp,sp,32
8000044c:	8082                	ret

8000044e <uart_disable_paritybit>:
uart_disable_paritybit():
E:\NucleiStudio_Workspace\e203_filter_test\Debug/../hbird_sdk/SoC/hbirdv2/Common/Source/Drivers/hbirdv2_uart.c:44

    return 0;
}

int32_t uart_disable_paritybit(UART_TypeDef *uart)
{
8000044e:	1101                	addi	sp,sp,-32
80000450:	ce22                	sw	s0,28(sp)
80000452:	1000                	addi	s0,sp,32
80000454:	fea42623          	sw	a0,-20(s0)
E:\NucleiStudio_Workspace\e203_filter_test\Debug/../hbird_sdk/SoC/hbirdv2/Common/Source/Drivers/hbirdv2_uart.c:45
    if (__RARELY(uart == NULL)) {
80000458:	fec42783          	lw	a5,-20(s0)
8000045c:	0017b793          	seqz	a5,a5
80000460:	0ff7f793          	zext.b	a5,a5
80000464:	c399                	beqz	a5,8000046a <uart_disable_paritybit+0x1c>
E:\NucleiStudio_Workspace\e203_filter_test\Debug/../hbird_sdk/SoC/hbirdv2/Common/Source/Drivers/hbirdv2_uart.c:46
        return -1;
80000466:	57fd                	li	a5,-1
80000468:	a811                	j	8000047c <uart_disable_paritybit+0x2e>
E:\NucleiStudio_Workspace\e203_filter_test\Debug/../hbird_sdk/SoC/hbirdv2/Common/Source/Drivers/hbirdv2_uart.c:49
    }

    uart->LCR &= 0xFFFFFFF7;
8000046a:	fec42783          	lw	a5,-20(s0)
8000046e:	47dc                	lw	a5,12(a5)
80000470:	ff77f713          	andi	a4,a5,-9
80000474:	fec42783          	lw	a5,-20(s0)
80000478:	c7d8                	sw	a4,12(a5)
E:\NucleiStudio_Workspace\e203_filter_test\Debug/../hbird_sdk/SoC/hbirdv2/Common/Source/Drivers/hbirdv2_uart.c:51

    return 0;
8000047a:	4781                	li	a5,0
E:\NucleiStudio_Workspace\e203_filter_test\Debug/../hbird_sdk/SoC/hbirdv2/Common/Source/Drivers/hbirdv2_uart.c:52
}
8000047c:	853e                	mv	a0,a5
8000047e:	4472                	lw	s0,28(sp)
80000480:	6105                	addi	sp,sp,32
80000482:	8082                	ret

80000484 <uart_write>:
uart_write():
E:\NucleiStudio_Workspace\e203_filter_test\Debug/../hbird_sdk/SoC/hbirdv2/Common/Source/Drivers/hbirdv2_uart.c:67

    return 0;
}

int32_t uart_write(UART_TypeDef *uart, uint8_t val)
{
80000484:	1101                	addi	sp,sp,-32
80000486:	ce22                	sw	s0,28(sp)
80000488:	1000                	addi	s0,sp,32
8000048a:	fea42623          	sw	a0,-20(s0)
8000048e:	87ae                	mv	a5,a1
80000490:	fef405a3          	sb	a5,-21(s0)
E:\NucleiStudio_Workspace\e203_filter_test\Debug/../hbird_sdk/SoC/hbirdv2/Common/Source/Drivers/hbirdv2_uart.c:68
    if (__RARELY(uart == NULL)) {
80000494:	fec42783          	lw	a5,-20(s0)
80000498:	0017b793          	seqz	a5,a5
8000049c:	0ff7f793          	zext.b	a5,a5
800004a0:	c399                	beqz	a5,800004a6 <uart_write+0x22>
E:\NucleiStudio_Workspace\e203_filter_test\Debug/../hbird_sdk/SoC/hbirdv2/Common/Source/Drivers/hbirdv2_uart.c:69
        return -1;
800004a2:	57fd                	li	a5,-1
800004a4:	a831                	j	800004c0 <uart_write+0x3c>
E:\NucleiStudio_Workspace\e203_filter_test\Debug/../hbird_sdk/SoC/hbirdv2/Common/Source/Drivers/hbirdv2_uart.c:73
    }
#ifndef SIMULATION_SPIKE
#ifndef SIMULATION_XLSPIKE
    while ((uart->LSR & 0x20) == 0);
800004a6:	0001                	nop
E:\NucleiStudio_Workspace\e203_filter_test\Debug/../hbird_sdk/SoC/hbirdv2/Common/Source/Drivers/hbirdv2_uart.c:73 (discriminator 1)
800004a8:	fec42783          	lw	a5,-20(s0)
800004ac:	4bdc                	lw	a5,20(a5)
800004ae:	0207f793          	andi	a5,a5,32
800004b2:	dbfd                	beqz	a5,800004a8 <uart_write+0x24>
E:\NucleiStudio_Workspace\e203_filter_test\Debug/../hbird_sdk/SoC/hbirdv2/Common/Source/Drivers/hbirdv2_uart.c:75
#endif
    uart->THR = val;
800004b4:	feb44703          	lbu	a4,-21(s0)
800004b8:	fec42783          	lw	a5,-20(s0)
800004bc:	c398                	sw	a4,0(a5)
E:\NucleiStudio_Workspace\e203_filter_test\Debug/../hbird_sdk/SoC/hbirdv2/Common/Source/Drivers/hbirdv2_uart.c:80
#else
    extern void htif_putc(char ch);
    htif_putc(val);
#endif
    return 0;
800004be:	4781                	li	a5,0
E:\NucleiStudio_Workspace\e203_filter_test\Debug/../hbird_sdk/SoC/hbirdv2/Common/Source/Drivers/hbirdv2_uart.c:81
}
800004c0:	853e                	mv	a0,a5
800004c2:	4472                	lw	s0,28(sp)
800004c4:	6105                	addi	sp,sp,32
800004c6:	8082                	ret

800004c8 <uart_read>:
uart_read():
E:\NucleiStudio_Workspace\e203_filter_test\Debug/../hbird_sdk/SoC/hbirdv2/Common/Source/Drivers/hbirdv2_uart.c:84

uint8_t uart_read(UART_TypeDef *uart)
{
800004c8:	7179                	addi	sp,sp,-48
800004ca:	d622                	sw	s0,44(sp)
800004cc:	1800                	addi	s0,sp,48
800004ce:	fca42e23          	sw	a0,-36(s0)
E:\NucleiStudio_Workspace\e203_filter_test\Debug/../hbird_sdk/SoC/hbirdv2/Common/Source/Drivers/hbirdv2_uart.c:86
    uint32_t reg;
    if (__RARELY(uart == NULL)) {
800004d2:	fdc42783          	lw	a5,-36(s0)
800004d6:	0017b793          	seqz	a5,a5
800004da:	0ff7f793          	zext.b	a5,a5
800004de:	c781                	beqz	a5,800004e6 <uart_read+0x1e>
E:\NucleiStudio_Workspace\e203_filter_test\Debug/../hbird_sdk/SoC/hbirdv2/Common/Source/Drivers/hbirdv2_uart.c:87
        return -1;
800004e0:	0ff00793          	li	a5,255
800004e4:	a005                	j	80000504 <uart_read+0x3c>
E:\NucleiStudio_Workspace\e203_filter_test\Debug/../hbird_sdk/SoC/hbirdv2/Common/Source/Drivers/hbirdv2_uart.c:90
    }
    
    while ((uart->LSR & 0x1) == 0);
800004e6:	0001                	nop
E:\NucleiStudio_Workspace\e203_filter_test\Debug/../hbird_sdk/SoC/hbirdv2/Common/Source/Drivers/hbirdv2_uart.c:90 (discriminator 1)
800004e8:	fdc42783          	lw	a5,-36(s0)
800004ec:	4bdc                	lw	a5,20(a5)
800004ee:	8b85                	andi	a5,a5,1
800004f0:	dfe5                	beqz	a5,800004e8 <uart_read+0x20>
E:\NucleiStudio_Workspace\e203_filter_test\Debug/../hbird_sdk/SoC/hbirdv2/Common/Source/Drivers/hbirdv2_uart.c:91
    reg = uart->RBR;
800004f2:	fdc42783          	lw	a5,-36(s0)
800004f6:	439c                	lw	a5,0(a5)
800004f8:	fef42623          	sw	a5,-20(s0)
E:\NucleiStudio_Workspace\e203_filter_test\Debug/../hbird_sdk/SoC/hbirdv2/Common/Source/Drivers/hbirdv2_uart.c:93
    
    return (uint8_t)(reg & 0xFF);
800004fc:	fec42783          	lw	a5,-20(s0)
80000500:	0ff7f793          	zext.b	a5,a5
E:\NucleiStudio_Workspace\e203_filter_test\Debug/../hbird_sdk/SoC/hbirdv2/Common/Source/Drivers/hbirdv2_uart.c:94
}
80000504:	853e                	mv	a0,a5
80000506:	5432                	lw	s0,44(sp)
80000508:	6145                	addi	sp,sp,48
8000050a:	8082                	ret

8000050c <uart_set_rx_th>:
uart_set_rx_th():
E:\NucleiStudio_Workspace\e203_filter_test\Debug/../hbird_sdk/SoC/hbirdv2/Common/Source/Drivers/hbirdv2_uart.c:118
    uart->IER &= 0xFFFFFFFD;
    return 0;
}

int32_t uart_set_rx_th(UART_TypeDef *uart, uint8_t th)
{
8000050c:	1101                	addi	sp,sp,-32
8000050e:	ce22                	sw	s0,28(sp)
80000510:	1000                	addi	s0,sp,32
80000512:	fea42623          	sw	a0,-20(s0)
80000516:	87ae                	mv	a5,a1
80000518:	fef405a3          	sb	a5,-21(s0)
E:\NucleiStudio_Workspace\e203_filter_test\Debug/../hbird_sdk/SoC/hbirdv2/Common/Source/Drivers/hbirdv2_uart.c:119
    if (__RARELY(uart == NULL)) {
8000051c:	fec42783          	lw	a5,-20(s0)
80000520:	0017b793          	seqz	a5,a5
80000524:	0ff7f793          	zext.b	a5,a5
80000528:	c399                	beqz	a5,8000052e <uart_set_rx_th+0x22>
E:\NucleiStudio_Workspace\e203_filter_test\Debug/../hbird_sdk/SoC/hbirdv2/Common/Source/Drivers/hbirdv2_uart.c:120
        return -1;
8000052a:	57fd                	li	a5,-1
8000052c:	a825                	j	80000564 <uart_set_rx_th+0x58>
E:\NucleiStudio_Workspace\e203_filter_test\Debug/../hbird_sdk/SoC/hbirdv2/Common/Source/Drivers/hbirdv2_uart.c:123
    }

    if(th > 3) {
8000052e:	feb44703          	lbu	a4,-21(s0)
80000532:	478d                	li	a5,3
80000534:	00e7f563          	bgeu	a5,a4,8000053e <uart_set_rx_th+0x32>
E:\NucleiStudio_Workspace\e203_filter_test\Debug/../hbird_sdk/SoC/hbirdv2/Common/Source/Drivers/hbirdv2_uart.c:124
       th = 3;
80000538:	478d                	li	a5,3
8000053a:	fef405a3          	sb	a5,-21(s0)
E:\NucleiStudio_Workspace\e203_filter_test\Debug/../hbird_sdk/SoC/hbirdv2/Common/Source/Drivers/hbirdv2_uart.c:127
    }

    uart->FCR &= 0xFFFFFF3F;
8000053e:	fec42783          	lw	a5,-20(s0)
80000542:	479c                	lw	a5,8(a5)
80000544:	f3f7f713          	andi	a4,a5,-193
80000548:	fec42783          	lw	a5,-20(s0)
8000054c:	c798                	sw	a4,8(a5)
E:\NucleiStudio_Workspace\e203_filter_test\Debug/../hbird_sdk/SoC/hbirdv2/Common/Source/Drivers/hbirdv2_uart.c:128
    uart->FCR |= (th << 6);
8000054e:	fec42783          	lw	a5,-20(s0)
80000552:	479c                	lw	a5,8(a5)
80000554:	feb44703          	lbu	a4,-21(s0)
80000558:	071a                	slli	a4,a4,0x6
8000055a:	8f5d                	or	a4,a4,a5
8000055c:	fec42783          	lw	a5,-20(s0)
80000560:	c798                	sw	a4,8(a5)
E:\NucleiStudio_Workspace\e203_filter_test\Debug/../hbird_sdk/SoC/hbirdv2/Common/Source/Drivers/hbirdv2_uart.c:129
    return 0;
80000562:	4781                	li	a5,0
E:\NucleiStudio_Workspace\e203_filter_test\Debug/../hbird_sdk/SoC/hbirdv2/Common/Source/Drivers/hbirdv2_uart.c:130
}
80000564:	853e                	mv	a0,a5
80000566:	4472                	lw	s0,28(sp)
80000568:	6105                	addi	sp,sp,32
8000056a:	8082                	ret

8000056c <uart_enable_rx_th_int>:
uart_enable_rx_th_int():
E:\NucleiStudio_Workspace\e203_filter_test\Debug/../hbird_sdk/SoC/hbirdv2/Common/Source/Drivers/hbirdv2_uart.c:133

int32_t uart_enable_rx_th_int(UART_TypeDef *uart)
{
8000056c:	1101                	addi	sp,sp,-32
8000056e:	ce22                	sw	s0,28(sp)
80000570:	1000                	addi	s0,sp,32
80000572:	fea42623          	sw	a0,-20(s0)
E:\NucleiStudio_Workspace\e203_filter_test\Debug/../hbird_sdk/SoC/hbirdv2/Common/Source/Drivers/hbirdv2_uart.c:134
    if (__RARELY(uart == NULL)) {
80000576:	fec42783          	lw	a5,-20(s0)
8000057a:	0017b793          	seqz	a5,a5
8000057e:	0ff7f793          	zext.b	a5,a5
80000582:	c399                	beqz	a5,80000588 <uart_enable_rx_th_int+0x1c>
E:\NucleiStudio_Workspace\e203_filter_test\Debug/../hbird_sdk/SoC/hbirdv2/Common/Source/Drivers/hbirdv2_uart.c:135
        return -1;
80000584:	57fd                	li	a5,-1
80000586:	a811                	j	8000059a <uart_enable_rx_th_int+0x2e>
E:\NucleiStudio_Workspace\e203_filter_test\Debug/../hbird_sdk/SoC/hbirdv2/Common/Source/Drivers/hbirdv2_uart.c:138
    }

    uart->IER |= 0x1;
80000588:	fec42783          	lw	a5,-20(s0)
8000058c:	43dc                	lw	a5,4(a5)
8000058e:	0017e713          	ori	a4,a5,1
80000592:	fec42783          	lw	a5,-20(s0)
80000596:	c3d8                	sw	a4,4(a5)
E:\NucleiStudio_Workspace\e203_filter_test\Debug/../hbird_sdk/SoC/hbirdv2/Common/Source/Drivers/hbirdv2_uart.c:139
    return 0;
80000598:	4781                	li	a5,0
E:\NucleiStudio_Workspace\e203_filter_test\Debug/../hbird_sdk/SoC/hbirdv2/Common/Source/Drivers/hbirdv2_uart.c:140
}
8000059a:	853e                	mv	a0,a5
8000059c:	4472                	lw	s0,28(sp)
8000059e:	6105                	addi	sp,sp,32
800005a0:	8082                	ret

800005a2 <measure_cpu_freq>:
measure_cpu_freq():
E:\NucleiStudio_Workspace\e203_filter_test\Debug/../hbird_sdk/SoC/hbirdv2/Common/Source/hbirdv2_common.c:9
{
    return SOC_TIMER_FREQ;
}

uint32_t measure_cpu_freq(uint32_t n)
{
800005a2:	7139                	addi	sp,sp,-64
800005a4:	de06                	sw	ra,60(sp)
800005a6:	dc22                	sw	s0,56(sp)
800005a8:	da26                	sw	s1,52(sp)
800005aa:	0080                	addi	s0,sp,64
800005ac:	fca42623          	sw	a0,-52(s0)
get_timer_freq():
E:\NucleiStudio_Workspace\e203_filter_test\Debug/../hbird_sdk/SoC/hbirdv2/Common/Source/hbirdv2_common.c:5
    return SOC_TIMER_FREQ;
800005b0:	6621                	lui	a2,0x8
800005b2:	4681                	li	a3,0
measure_cpu_freq():
E:\NucleiStudio_Workspace\e203_filter_test\Debug/../hbird_sdk/SoC/hbirdv2/Common/Source/hbirdv2_common.c:12
    uint32_t start_mcycle, delta_mcycle;
    uint32_t start_mtime, delta_mtime;
    uint64_t mtime_freq = get_timer_freq();
800005b4:	fec42423          	sw	a2,-24(s0)
800005b8:	fed42623          	sw	a3,-20(s0)
SysTimer_GetLoadValue():
E:\NucleiStudio_Workspace\e203_filter_test\hbird_sdk\NMSIS\Core\Include/core_feature_timer.h:106
 * - Load value is 64bits wide.
 * - \ref SysTimer_SetLoadValue
 */
__STATIC_FORCEINLINE uint64_t SysTimer_GetLoadValue(void)
{
    return SysTimer->MTIME;
800005bc:	02000637          	lui	a2,0x2000
800005c0:	66b1                	lui	a3,0xc
800005c2:	96b2                	add	a3,a3,a2
800005c4:	ff86a603          	lw	a2,-8(a3) # bff8 <__stack_size+0xb7f8>
800005c8:	ffc6a683          	lw	a3,-4(a3)
measure_cpu_freq():
E:\NucleiStudio_Workspace\e203_filter_test\Debug/../hbird_sdk/SoC/hbirdv2/Common/Source/hbirdv2_common.c:15

    // Don't start measuruing until we see an mtime tick
    uint32_t tmp = (uint32_t)SysTimer_GetLoadValue();
800005cc:	fec42223          	sw	a2,-28(s0)
SysTimer_GetLoadValue():
E:\NucleiStudio_Workspace\e203_filter_test\hbird_sdk\NMSIS\Core\Include/core_feature_timer.h:106 (discriminator 1)
800005d0:	02000637          	lui	a2,0x2000
800005d4:	66b1                	lui	a3,0xc
800005d6:	96b2                	add	a3,a3,a2
800005d8:	ff86a603          	lw	a2,-8(a3) # bff8 <__stack_size+0xb7f8>
800005dc:	ffc6a683          	lw	a3,-4(a3)
measure_cpu_freq():
E:\NucleiStudio_Workspace\e203_filter_test\Debug/../hbird_sdk/SoC/hbirdv2/Common/Source/hbirdv2_common.c:17 (discriminator 1)
    do {
        start_mtime = (uint32_t)SysTimer_GetLoadValue();
800005e0:	fec42023          	sw	a2,-32(s0)
E:\NucleiStudio_Workspace\e203_filter_test\Debug/../hbird_sdk/SoC/hbirdv2/Common/Source/hbirdv2_common.c:18 (discriminator 1)
        start_mcycle = __RV_CSR_READ(CSR_MCYCLE);
800005e4:	b00026f3          	csrr	a3,mcycle
800005e8:	80b6                	mv	ra,a3
800005ea:	8686                	mv	a3,ra
800005ec:	fcd42e23          	sw	a3,-36(s0)
E:\NucleiStudio_Workspace\e203_filter_test\Debug/../hbird_sdk/SoC/hbirdv2/Common/Source/hbirdv2_common.c:19 (discriminator 1)
    } while (start_mtime == tmp);
800005f0:	fe042603          	lw	a2,-32(s0)
800005f4:	fe442683          	lw	a3,-28(s0)
800005f8:	fcd60ce3          	beq	a2,a3,800005d0 <measure_cpu_freq+0x2e>
SysTimer_GetLoadValue():
E:\NucleiStudio_Workspace\e203_filter_test\hbird_sdk\NMSIS\Core\Include/core_feature_timer.h:106 (discriminator 1)
800005fc:	02000637          	lui	a2,0x2000
80000600:	66b1                	lui	a3,0xc
80000602:	96b2                	add	a3,a3,a2
80000604:	ff86a603          	lw	a2,-8(a3) # bff8 <__stack_size+0xb7f8>
80000608:	ffc6a683          	lw	a3,-4(a3)
measure_cpu_freq():
E:\NucleiStudio_Workspace\e203_filter_test\Debug/../hbird_sdk/SoC/hbirdv2/Common/Source/hbirdv2_common.c:22 (discriminator 1)

    do {
        delta_mtime = (uint32_t)SysTimer_GetLoadValue() - start_mtime;
8000060c:	fe042683          	lw	a3,-32(s0)
80000610:	40d606b3          	sub	a3,a2,a3
80000614:	fcd42c23          	sw	a3,-40(s0)
E:\NucleiStudio_Workspace\e203_filter_test\Debug/../hbird_sdk/SoC/hbirdv2/Common/Source/hbirdv2_common.c:23 (discriminator 1)
        delta_mcycle = __RV_CSR_READ(CSR_MCYCLE) - start_mcycle;
80000618:	b00026f3          	csrr	a3,mcycle
8000061c:	80b6                	mv	ra,a3
8000061e:	8606                	mv	a2,ra
80000620:	fdc42683          	lw	a3,-36(s0)
80000624:	40d606b3          	sub	a3,a2,a3
80000628:	fcd42a23          	sw	a3,-44(s0)
E:\NucleiStudio_Workspace\e203_filter_test\Debug/../hbird_sdk/SoC/hbirdv2/Common/Source/hbirdv2_common.c:24 (discriminator 1)
    } while (delta_mtime < n);
8000062c:	fd842603          	lw	a2,-40(s0)
80000630:	fcc42683          	lw	a3,-52(s0)
80000634:	fcd664e3          	bltu	a2,a3,800005fc <measure_cpu_freq+0x5a>
E:\NucleiStudio_Workspace\e203_filter_test\Debug/../hbird_sdk/SoC/hbirdv2/Common/Source/hbirdv2_common.c:26

    return (delta_mcycle / delta_mtime) * mtime_freq
80000638:	fd442603          	lw	a2,-44(s0)
8000063c:	fd842683          	lw	a3,-40(s0)
80000640:	02d65633          	divu	a2,a2,a3
E:\NucleiStudio_Workspace\e203_filter_test\Debug/../hbird_sdk/SoC/hbirdv2/Common/Source/hbirdv2_common.c:27
           + ((delta_mcycle % delta_mtime) * mtime_freq) / delta_mtime;
80000644:	fe842683          	lw	a3,-24(s0)
80000648:	02d604b3          	mul	s1,a2,a3
8000064c:	fd442603          	lw	a2,-44(s0)
80000650:	fd842683          	lw	a3,-40(s0)
80000654:	02d676b3          	remu	a3,a2,a3
80000658:	8736                	mv	a4,a3
8000065a:	4781                	li	a5,0
8000065c:	fe842683          	lw	a3,-24(s0)
80000660:	02f68633          	mul	a2,a3,a5
80000664:	fec42683          	lw	a3,-20(s0)
80000668:	02e686b3          	mul	a3,a3,a4
8000066c:	9636                	add	a2,a2,a3
8000066e:	fe842683          	lw	a3,-24(s0)
80000672:	02e685b3          	mul	a1,a3,a4
80000676:	02e6b8b3          	mulhu	a7,a3,a4
8000067a:	882e                	mv	a6,a1
8000067c:	011607b3          	add	a5,a2,a7
80000680:	88be                	mv	a7,a5
80000682:	fd842783          	lw	a5,-40(s0)
80000686:	833e                	mv	t1,a5
80000688:	4381                	li	t2,0
8000068a:	861a                	mv	a2,t1
8000068c:	869e                	mv	a3,t2
8000068e:	8542                	mv	a0,a6
80000690:	85c6                	mv	a1,a7
80000692:	31b000ef          	jal	ra,800011ac <__udivdi3>
80000696:	872a                	mv	a4,a0
80000698:	87ae                	mv	a5,a1
8000069a:	87ba                	mv	a5,a4
8000069c:	97a6                	add	a5,a5,s1
E:\NucleiStudio_Workspace\e203_filter_test\Debug/../hbird_sdk/SoC/hbirdv2/Common/Source/hbirdv2_common.c:28
}
8000069e:	853e                	mv	a0,a5
800006a0:	50f2                	lw	ra,60(sp)
800006a2:	5462                	lw	s0,56(sp)
800006a4:	54d2                	lw	s1,52(sp)
800006a6:	6121                	addi	sp,sp,64
800006a8:	8082                	ret

800006aa <get_cpu_freq>:
get_cpu_freq():
E:\NucleiStudio_Workspace\e203_filter_test\Debug/../hbird_sdk/SoC/hbirdv2/Common/Source/hbirdv2_common.c:31

uint32_t get_cpu_freq(void)
{
800006aa:	1101                	addi	sp,sp,-32
800006ac:	ce06                	sw	ra,28(sp)
800006ae:	cc22                	sw	s0,24(sp)
800006b0:	1000                	addi	s0,sp,32
E:\NucleiStudio_Workspace\e203_filter_test\Debug/../hbird_sdk/SoC/hbirdv2/Common/Source/hbirdv2_common.c:35
    uint32_t cpu_freq;

    // warm up
    measure_cpu_freq(1);
800006b2:	4505                	li	a0,1
800006b4:	35fd                	jal	800005a2 <measure_cpu_freq>
E:\NucleiStudio_Workspace\e203_filter_test\Debug/../hbird_sdk/SoC/hbirdv2/Common/Source/hbirdv2_common.c:37
    // measure for real
    cpu_freq = measure_cpu_freq(100);
800006b6:	06400513          	li	a0,100
800006ba:	35e5                	jal	800005a2 <measure_cpu_freq>
800006bc:	fea42623          	sw	a0,-20(s0)
E:\NucleiStudio_Workspace\e203_filter_test\Debug/../hbird_sdk/SoC/hbirdv2/Common/Source/hbirdv2_common.c:39

    return cpu_freq;
800006c0:	fec42783          	lw	a5,-20(s0)
E:\NucleiStudio_Workspace\e203_filter_test\Debug/../hbird_sdk/SoC/hbirdv2/Common/Source/hbirdv2_common.c:40
}
800006c4:	853e                	mv	a0,a5
800006c6:	40f2                	lw	ra,28(sp)
800006c8:	4462                	lw	s0,24(sp)
800006ca:	6105                	addi	sp,sp,32
800006cc:	8082                	ret

800006ce <SystemInit>:
SystemInit():
E:\NucleiStudio_Workspace\e203_filter_test\Debug/../hbird_sdk/SoC/hbirdv2/Common/Source/system_hbirdv2.c:120
 * oscillator (PLL) that is part of the microcontroller device. For systems
 * with a variable clock speed, it updates the variable \ref SystemCoreClock.
 * SystemInit is called from the file <b>startup<i>_device</i></b>.
 */
void SystemInit (void)
{
800006ce:	1141                	addi	sp,sp,-16
800006d0:	c622                	sw	s0,12(sp)
800006d2:	0800                	addi	s0,sp,16
E:\NucleiStudio_Workspace\e203_filter_test\Debug/../hbird_sdk/SoC/hbirdv2/Common/Source/system_hbirdv2.c:125
    /* ToDo: add code to initialize the system
     * Warn: do not use global variables because this function is called before
     * reaching pre-main. RW section maybe overwritten afterwards.
     */
    SystemCoreClock = SYSTEM_CLOCK;
800006d4:	10000797          	auipc	a5,0x10000
800006d8:	b0878793          	addi	a5,a5,-1272 # 900001dc <SystemCoreClock>
800006dc:	04c4b737          	lui	a4,0x4c4b
800006e0:	40070713          	addi	a4,a4,1024 # 4c4b400 <__stack_size+0x4c4ac00>
800006e4:	c398                	sw	a4,0(a5)
E:\NucleiStudio_Workspace\e203_filter_test\Debug/../hbird_sdk/SoC/hbirdv2/Common/Source/system_hbirdv2.c:126
}
800006e6:	0001                	nop
800006e8:	4432                	lw	s0,12(sp)
800006ea:	0141                	addi	sp,sp,16
800006ec:	8082                	ret

800006ee <system_default_exception_handler>:
system_default_exception_handler():
E:\NucleiStudio_Workspace\e203_filter_test\Debug/../hbird_sdk/SoC/hbirdv2/Common/Source/system_hbirdv2.c:168
 * \details
 * This function provided a default exception handling code for all exception ids.
 * By default, It will just print some information for debug, Vendor can customize it according to its requirements.
 */
static void system_default_exception_handler(unsigned long mcause, unsigned long sp)
{
800006ee:	1101                	addi	sp,sp,-32
800006f0:	ce06                	sw	ra,28(sp)
800006f2:	cc22                	sw	s0,24(sp)
800006f4:	1000                	addi	s0,sp,32
800006f6:	fea42623          	sw	a0,-20(s0)
800006fa:	feb42423          	sw	a1,-24(s0)
E:\NucleiStudio_Workspace\e203_filter_test\Debug/../hbird_sdk/SoC/hbirdv2/Common/Source/system_hbirdv2.c:170
    /* TODO: Uncomment this if you have implement printf function */
    printf("Trap in Exception\r\n");
800006fe:	00006517          	auipc	a0,0x6
80000702:	4aa50513          	addi	a0,a0,1194 # 80006ba8 <__trunctfdf2+0x240>
80000706:	23d030ef          	jal	ra,80004142 <puts>
E:\NucleiStudio_Workspace\e203_filter_test\Debug/../hbird_sdk/SoC/hbirdv2/Common/Source/system_hbirdv2.c:171
    printf("MCAUSE: 0x%lx\r\n", mcause);
8000070a:	fec42583          	lw	a1,-20(s0)
8000070e:	00006517          	auipc	a0,0x6
80000712:	4ae50513          	addi	a0,a0,1198 # 80006bbc <__trunctfdf2+0x254>
80000716:	113030ef          	jal	ra,80004028 <iprintf>
E:\NucleiStudio_Workspace\e203_filter_test\Debug/../hbird_sdk/SoC/hbirdv2/Common/Source/system_hbirdv2.c:172
    printf("MEPC  : 0x%lx\r\n", __RV_CSR_READ(CSR_MEPC));
8000071a:	341027f3          	csrr	a5,mepc
8000071e:	80be                	mv	ra,a5
80000720:	8786                	mv	a5,ra
80000722:	85be                	mv	a1,a5
80000724:	00006517          	auipc	a0,0x6
80000728:	4a850513          	addi	a0,a0,1192 # 80006bcc <__trunctfdf2+0x264>
8000072c:	0fd030ef          	jal	ra,80004028 <iprintf>
E:\NucleiStudio_Workspace\e203_filter_test\Debug/../hbird_sdk/SoC/hbirdv2/Common/Source/system_hbirdv2.c:173
    printf("MTVAL : 0x%lx\r\n", __RV_CSR_READ(CSR_MBADADDR));
80000730:	343027f3          	csrr	a5,mtval
80000734:	80be                	mv	ra,a5
80000736:	8786                	mv	a5,ra
80000738:	85be                	mv	a1,a5
8000073a:	00006517          	auipc	a0,0x6
8000073e:	4a250513          	addi	a0,a0,1186 # 80006bdc <__trunctfdf2+0x274>
80000742:	0e7030ef          	jal	ra,80004028 <iprintf>
E:\NucleiStudio_Workspace\e203_filter_test\Debug/../hbird_sdk/SoC/hbirdv2/Common/Source/system_hbirdv2.c:174 (discriminator 1)
    while(1);
80000746:	a001                	j	80000746 <system_default_exception_handler+0x58>

80000748 <system_default_interrupt_handler>:
system_default_interrupt_handler():
E:\NucleiStudio_Workspace\e203_filter_test\Debug/../hbird_sdk/SoC/hbirdv2/Common/Source/system_hbirdv2.c:183
 * \brief      System Default Interrupt Handler
 * \details
 * This function provided a default interrupt handling code for all interrupt ids.
 */
static void system_default_interrupt_handler(unsigned long mcause, unsigned long sp)
{
80000748:	1101                	addi	sp,sp,-32
8000074a:	ce06                	sw	ra,28(sp)
8000074c:	cc22                	sw	s0,24(sp)
8000074e:	1000                	addi	s0,sp,32
80000750:	fea42623          	sw	a0,-20(s0)
80000754:	feb42423          	sw	a1,-24(s0)
E:\NucleiStudio_Workspace\e203_filter_test\Debug/../hbird_sdk/SoC/hbirdv2/Common/Source/system_hbirdv2.c:185
    /* TODO: Uncomment this if you have implement printf function */
    printf("Trap in Interrupt\r\n");
80000758:	00006517          	auipc	a0,0x6
8000075c:	49450513          	addi	a0,a0,1172 # 80006bec <__trunctfdf2+0x284>
80000760:	1e3030ef          	jal	ra,80004142 <puts>
E:\NucleiStudio_Workspace\e203_filter_test\Debug/../hbird_sdk/SoC/hbirdv2/Common/Source/system_hbirdv2.c:186
    printf("MCAUSE: 0x%lx\r\n", mcause);
80000764:	fec42583          	lw	a1,-20(s0)
80000768:	00006517          	auipc	a0,0x6
8000076c:	45450513          	addi	a0,a0,1108 # 80006bbc <__trunctfdf2+0x254>
80000770:	0b9030ef          	jal	ra,80004028 <iprintf>
E:\NucleiStudio_Workspace\e203_filter_test\Debug/../hbird_sdk/SoC/hbirdv2/Common/Source/system_hbirdv2.c:187
    printf("MEPC  : 0x%lx\r\n", __RV_CSR_READ(CSR_MEPC));
80000774:	341027f3          	csrr	a5,mepc
80000778:	80be                	mv	ra,a5
8000077a:	8786                	mv	a5,ra
8000077c:	85be                	mv	a1,a5
8000077e:	00006517          	auipc	a0,0x6
80000782:	44e50513          	addi	a0,a0,1102 # 80006bcc <__trunctfdf2+0x264>
80000786:	0a3030ef          	jal	ra,80004028 <iprintf>
E:\NucleiStudio_Workspace\e203_filter_test\Debug/../hbird_sdk/SoC/hbirdv2/Common/Source/system_hbirdv2.c:188
    printf("MTVAL : 0x%lx\r\n", __RV_CSR_READ(CSR_MBADADDR));
8000078a:	343027f3          	csrr	a5,mtval
8000078e:	80be                	mv	ra,a5
80000790:	8786                	mv	a5,ra
80000792:	85be                	mv	a1,a5
80000794:	00006517          	auipc	a0,0x6
80000798:	44850513          	addi	a0,a0,1096 # 80006bdc <__trunctfdf2+0x274>
8000079c:	08d030ef          	jal	ra,80004028 <iprintf>
E:\NucleiStudio_Workspace\e203_filter_test\Debug/../hbird_sdk/SoC/hbirdv2/Common/Source/system_hbirdv2.c:189
}
800007a0:	0001                	nop
800007a2:	40f2                	lw	ra,28(sp)
800007a4:	4462                	lw	s0,24(sp)
800007a6:	6105                	addi	sp,sp,32
800007a8:	8082                	ret

800007aa <Exception_Init>:
Exception_Init():
E:\NucleiStudio_Workspace\e203_filter_test\Debug/../hbird_sdk/SoC/hbirdv2/Common/Source/system_hbirdv2.c:199
 * The core exception handler for each exception id will be initialized to \ref system_default_exception_handler.
 * \note
 * Called in \ref _init function, used to initialize default exception handlers for all exception IDs
 */
static void Exception_Init(void)
{
800007aa:	1101                	addi	sp,sp,-32
800007ac:	ce22                	sw	s0,28(sp)
800007ae:	1000                	addi	s0,sp,32
E:\NucleiStudio_Workspace\e203_filter_test\Debug/../hbird_sdk/SoC/hbirdv2/Common/Source/system_hbirdv2.c:200
    for (int i = 0; i < MAX_SYSTEM_EXCEPTION_NUM; i++) {
800007b0:	fe042623          	sw	zero,-20(s0)
800007b4:	a00d                	j	800007d6 <Exception_Init+0x2c>
E:\NucleiStudio_Workspace\e203_filter_test\Debug/../hbird_sdk/SoC/hbirdv2/Common/Source/system_hbirdv2.c:201 (discriminator 3)
        SystemExceptionHandlers[i] = (unsigned long)system_default_exception_handler;
800007b6:	00000717          	auipc	a4,0x0
800007ba:	f3870713          	addi	a4,a4,-200 # 800006ee <system_default_exception_handler>
800007be:	8a018693          	addi	a3,gp,-1888 # 90000278 <SystemExceptionHandlers>
800007c2:	fec42783          	lw	a5,-20(s0)
800007c6:	078a                	slli	a5,a5,0x2
800007c8:	97b6                	add	a5,a5,a3
800007ca:	c398                	sw	a4,0(a5)
E:\NucleiStudio_Workspace\e203_filter_test\Debug/../hbird_sdk/SoC/hbirdv2/Common/Source/system_hbirdv2.c:200 (discriminator 3)
    for (int i = 0; i < MAX_SYSTEM_EXCEPTION_NUM; i++) {
800007cc:	fec42783          	lw	a5,-20(s0)
800007d0:	0785                	addi	a5,a5,1
800007d2:	fef42623          	sw	a5,-20(s0)
E:\NucleiStudio_Workspace\e203_filter_test\Debug/../hbird_sdk/SoC/hbirdv2/Common/Source/system_hbirdv2.c:200 (discriminator 1)
800007d6:	fec42703          	lw	a4,-20(s0)
800007da:	47a9                	li	a5,10
800007dc:	fce7dde3          	bge	a5,a4,800007b6 <Exception_Init+0xc>
E:\NucleiStudio_Workspace\e203_filter_test\Debug/../hbird_sdk/SoC/hbirdv2/Common/Source/system_hbirdv2.c:203
    }
}
800007e0:	0001                	nop
800007e2:	0001                	nop
800007e4:	4472                	lw	s0,28(sp)
800007e6:	6105                	addi	sp,sp,32
800007e8:	8082                	ret

800007ea <Interrupt_Init>:
Interrupt_Init():
E:\NucleiStudio_Workspace\e203_filter_test\Debug/../hbird_sdk/SoC/hbirdv2/Common/Source/system_hbirdv2.c:213
 * The interrupt handler for each exception id will be initialized to \ref system_default_interrupt_handler.
 * \note
 * Called in \ref _init function, used to initialize default interrupt handlers for all interrupt IDs
 */
static void Interrupt_Init(void)
{
800007ea:	1101                	addi	sp,sp,-32
800007ec:	ce22                	sw	s0,28(sp)
800007ee:	1000                	addi	s0,sp,32
E:\NucleiStudio_Workspace\e203_filter_test\Debug/../hbird_sdk/SoC/hbirdv2/Common/Source/system_hbirdv2.c:215
    int i;
    for (i = 0; i < __PLIC_INTNUM; i++) {
800007f0:	fe042623          	sw	zero,-20(s0)
800007f4:	a00d                	j	80000816 <Interrupt_Init+0x2c>
E:\NucleiStudio_Workspace\e203_filter_test\Debug/../hbird_sdk/SoC/hbirdv2/Common/Source/system_hbirdv2.c:216 (discriminator 3)
        SystemExtInterruptHandlers[i] = (unsigned long)system_default_interrupt_handler;
800007f6:	00000717          	auipc	a4,0x0
800007fa:	f5270713          	addi	a4,a4,-174 # 80000748 <system_default_interrupt_handler>
800007fe:	8cc18693          	addi	a3,gp,-1844 # 900002a4 <SystemExtInterruptHandlers>
80000802:	fec42783          	lw	a5,-20(s0)
80000806:	078a                	slli	a5,a5,0x2
80000808:	97b6                	add	a5,a5,a3
8000080a:	c398                	sw	a4,0(a5)
E:\NucleiStudio_Workspace\e203_filter_test\Debug/../hbird_sdk/SoC/hbirdv2/Common/Source/system_hbirdv2.c:215 (discriminator 3)
    for (i = 0; i < __PLIC_INTNUM; i++) {
8000080c:	fec42783          	lw	a5,-20(s0)
80000810:	0785                	addi	a5,a5,1
80000812:	fef42623          	sw	a5,-20(s0)
E:\NucleiStudio_Workspace\e203_filter_test\Debug/../hbird_sdk/SoC/hbirdv2/Common/Source/system_hbirdv2.c:215 (discriminator 1)
80000816:	fec42703          	lw	a4,-20(s0)
8000081a:	47c1                	li	a5,16
8000081c:	fce7dde3          	bge	a5,a4,800007f6 <Interrupt_Init+0xc>
E:\NucleiStudio_Workspace\e203_filter_test\Debug/../hbird_sdk/SoC/hbirdv2/Common/Source/system_hbirdv2.c:218
    }
    for (i = 0; i < 10; i++) {
80000820:	fe042623          	sw	zero,-20(s0)
80000824:	a00d                	j	80000846 <Interrupt_Init+0x5c>
E:\NucleiStudio_Workspace\e203_filter_test\Debug/../hbird_sdk/SoC/hbirdv2/Common/Source/system_hbirdv2.c:219 (discriminator 3)
        SystemCoreInterruptHandlers[i] = (unsigned long)system_default_interrupt_handler;
80000826:	00000717          	auipc	a4,0x0
8000082a:	f2270713          	addi	a4,a4,-222 # 80000748 <system_default_interrupt_handler>
8000082e:	91018693          	addi	a3,gp,-1776 # 900002e8 <SystemCoreInterruptHandlers>
80000832:	fec42783          	lw	a5,-20(s0)
80000836:	078a                	slli	a5,a5,0x2
80000838:	97b6                	add	a5,a5,a3
8000083a:	c398                	sw	a4,0(a5)
E:\NucleiStudio_Workspace\e203_filter_test\Debug/../hbird_sdk/SoC/hbirdv2/Common/Source/system_hbirdv2.c:218 (discriminator 3)
    for (i = 0; i < 10; i++) {
8000083c:	fec42783          	lw	a5,-20(s0)
80000840:	0785                	addi	a5,a5,1
80000842:	fef42623          	sw	a5,-20(s0)
E:\NucleiStudio_Workspace\e203_filter_test\Debug/../hbird_sdk/SoC/hbirdv2/Common/Source/system_hbirdv2.c:218 (discriminator 1)
80000846:	fec42703          	lw	a4,-20(s0)
8000084a:	47a5                	li	a5,9
8000084c:	fce7dde3          	bge	a5,a4,80000826 <Interrupt_Init+0x3c>
E:\NucleiStudio_Workspace\e203_filter_test\Debug/../hbird_sdk/SoC/hbirdv2/Common/Source/system_hbirdv2.c:221
    }
}
80000850:	0001                	nop
80000852:	0001                	nop
80000854:	4472                	lw	s0,28(sp)
80000856:	6105                	addi	sp,sp,32
80000858:	8082                	ret

8000085a <Interrupt_Register_ExtIRQ>:
Interrupt_Register_ExtIRQ():
E:\NucleiStudio_Workspace\e203_filter_test\Debug/../hbird_sdk/SoC/hbirdv2/Common/Source/system_hbirdv2.c:259
 * * For irqn <= \ref __PLIC_INTNUM, it will be registered into SystemExtInterruptHandlers[irqn-1].
 * \param   irqn    See \ref IRQn
 * \param   int_handler     The external interrupt handler for this interrupt code irqn
 */
void Interrupt_Register_ExtIRQ(uint32_t irqn, unsigned long int_handler)
{
8000085a:	1101                	addi	sp,sp,-32
8000085c:	ce22                	sw	s0,28(sp)
8000085e:	1000                	addi	s0,sp,32
80000860:	fea42623          	sw	a0,-20(s0)
80000864:	feb42423          	sw	a1,-24(s0)
E:\NucleiStudio_Workspace\e203_filter_test\Debug/../hbird_sdk/SoC/hbirdv2/Common/Source/system_hbirdv2.c:260
    if ((irqn <= __PLIC_INTNUM) && (irqn >= 0)) {
80000868:	fec42703          	lw	a4,-20(s0)
8000086c:	47c5                	li	a5,17
8000086e:	00e7eb63          	bltu	a5,a4,80000884 <Interrupt_Register_ExtIRQ+0x2a>
E:\NucleiStudio_Workspace\e203_filter_test\Debug/../hbird_sdk/SoC/hbirdv2/Common/Source/system_hbirdv2.c:261
        SystemExtInterruptHandlers[irqn] = int_handler;
80000872:	8cc18713          	addi	a4,gp,-1844 # 900002a4 <SystemExtInterruptHandlers>
80000876:	fec42783          	lw	a5,-20(s0)
8000087a:	078a                	slli	a5,a5,0x2
8000087c:	97ba                	add	a5,a5,a4
8000087e:	fe842703          	lw	a4,-24(s0)
80000882:	c398                	sw	a4,0(a5)
E:\NucleiStudio_Workspace\e203_filter_test\Debug/../hbird_sdk/SoC/hbirdv2/Common/Source/system_hbirdv2.c:263
    }
}
80000884:	0001                	nop
80000886:	4472                	lw	s0,28(sp)
80000888:	6105                	addi	sp,sp,32
8000088a:	8082                	ret

8000088c <core_trap_handler>:
core_trap_handler():
E:\NucleiStudio_Workspace\e203_filter_test\Debug/../hbird_sdk/SoC/hbirdv2/Common/Source/system_hbirdv2.c:322
 * - If you want to register core exception handler, please use \ref Exception_Register_EXC
 * - If you want to register core interrupt handler, please use \ref Interrupt_Register_CoreIRQ
 * - If you want to register external interrupt handler, please use \ref Interrupt_Register_ExtIRQ
 */
uint32_t core_trap_handler(unsigned long mcause, unsigned long sp)
{
8000088c:	7139                	addi	sp,sp,-64
8000088e:	de06                	sw	ra,60(sp)
80000890:	dc22                	sw	s0,56(sp)
80000892:	da26                	sw	s1,52(sp)
80000894:	0080                	addi	s0,sp,64
80000896:	fca42623          	sw	a0,-52(s0)
8000089a:	fcb42423          	sw	a1,-56(s0)
E:\NucleiStudio_Workspace\e203_filter_test\Debug/../hbird_sdk/SoC/hbirdv2/Common/Source/system_hbirdv2.c:323
    if (mcause & MCAUSE_INTERRUPT) {
8000089e:	fcc42783          	lw	a5,-52(s0)
800008a2:	0c07dc63          	bgez	a5,8000097a <core_trap_handler+0xee>
E:\NucleiStudio_Workspace\e203_filter_test\Debug/../hbird_sdk/SoC/hbirdv2/Common/Source/system_hbirdv2.c:324
        INT_HANDLER int_handler = NULL;
800008a6:	fe042623          	sw	zero,-20(s0)
E:\NucleiStudio_Workspace\e203_filter_test\Debug/../hbird_sdk/SoC/hbirdv2/Common/Source/system_hbirdv2.c:325
        uint32_t irqn = (uint32_t)(mcause & 0X00000fff);
800008aa:	fcc42703          	lw	a4,-52(s0)
800008ae:	6785                	lui	a5,0x1
800008b0:	17fd                	addi	a5,a5,-1
800008b2:	8ff9                	and	a5,a5,a4
800008b4:	fef42423          	sw	a5,-24(s0)
E:\NucleiStudio_Workspace\e203_filter_test\Debug/../hbird_sdk/SoC/hbirdv2/Common/Source/system_hbirdv2.c:326
        if (irqn == IRQ_M_EXT) {
800008b8:	fe842703          	lw	a4,-24(s0)
800008bc:	47ad                	li	a5,11
800008be:	08f71963          	bne	a4,a5,80000950 <core_trap_handler+0xc4>
PLIC_ClaimInterrupt():
E:\NucleiStudio_Workspace\e203_filter_test\hbird_sdk\NMSIS\Core\Include/core_feature_plic.h:273
 * \sa
 * - \ref PLIC_CompleteInterrupt
 */
__STATIC_FORCEINLINE uint32_t PLIC_ClaimInterrupt(void)
{
    uint32_t hartid = __RV_CSR_READ(CSR_MHARTID);
800008c2:	f14027f3          	csrr	a5,mhartid
800008c6:	84be                	mv	s1,a5
800008c8:	87a6                	mv	a5,s1
800008ca:	fef42223          	sw	a5,-28(s0)
E:\NucleiStudio_Workspace\e203_filter_test\hbird_sdk\NMSIS\Core\Include/core_feature_plic.h:275
    volatile uint32_t *claim_reg = (uint32_t *)((PLIC_BASE) + PLIC_CLAIM_OFFSET + \
                    + (hartid << PLIC_CLAIM_SHIFT_PER_TARGET));
800008ce:	fe442783          	lw	a5,-28(s0)
800008d2:	00c79713          	slli	a4,a5,0xc
E:\NucleiStudio_Workspace\e203_filter_test\hbird_sdk\NMSIS\Core\Include/core_feature_plic.h:274
    volatile uint32_t *claim_reg = (uint32_t *)((PLIC_BASE) + PLIC_CLAIM_OFFSET + \
800008d6:	0c2007b7          	lui	a5,0xc200
800008da:	0791                	addi	a5,a5,4
800008dc:	97ba                	add	a5,a5,a4
800008de:	fef42023          	sw	a5,-32(s0)
E:\NucleiStudio_Workspace\e203_filter_test\hbird_sdk\NMSIS\Core\Include/core_feature_plic.h:277

    return (*claim_reg);
800008e2:	fe042783          	lw	a5,-32(s0)
800008e6:	439c                	lw	a5,0(a5)
core_trap_handler():
E:\NucleiStudio_Workspace\e203_filter_test\Debug/../hbird_sdk/SoC/hbirdv2/Common/Source/system_hbirdv2.c:328
#if defined(__PLIC_PRESENT) && __PLIC_PRESENT == 1
            irqn = PLIC_ClaimInterrupt();
800008e8:	fef42423          	sw	a5,-24(s0)
E:\NucleiStudio_Workspace\e203_filter_test\Debug/../hbird_sdk/SoC/hbirdv2/Common/Source/system_hbirdv2.c:329
            if (irqn < __PLIC_INTNUM) {
800008ec:	fe842703          	lw	a4,-24(s0)
800008f0:	47c1                	li	a5,16
800008f2:	08e7e263          	bltu	a5,a4,80000976 <core_trap_handler+0xea>
E:\NucleiStudio_Workspace\e203_filter_test\Debug/../hbird_sdk/SoC/hbirdv2/Common/Source/system_hbirdv2.c:330
                int_handler = (INT_HANDLER)(SystemExtInterruptHandlers[irqn]);
800008f6:	8cc18713          	addi	a4,gp,-1844 # 900002a4 <SystemExtInterruptHandlers>
800008fa:	fe842783          	lw	a5,-24(s0)
800008fe:	078a                	slli	a5,a5,0x2
80000900:	97ba                	add	a5,a5,a4
80000902:	439c                	lw	a5,0(a5)
80000904:	fef42623          	sw	a5,-20(s0)
E:\NucleiStudio_Workspace\e203_filter_test\Debug/../hbird_sdk/SoC/hbirdv2/Common/Source/system_hbirdv2.c:331
                if (int_handler != NULL) {
80000908:	fec42783          	lw	a5,-20(s0)
8000090c:	cb81                	beqz	a5,8000091c <core_trap_handler+0x90>
E:\NucleiStudio_Workspace\e203_filter_test\Debug/../hbird_sdk/SoC/hbirdv2/Common/Source/system_hbirdv2.c:332
                    int_handler(mcause, sp);
8000090e:	fec42783          	lw	a5,-20(s0)
80000912:	fc842583          	lw	a1,-56(s0)
80000916:	fcc42503          	lw	a0,-52(s0)
8000091a:	9782                	jalr	a5
8000091c:	fe842783          	lw	a5,-24(s0)
80000920:	fcf42e23          	sw	a5,-36(s0)
PLIC_CompleteInterrupt():
E:\NucleiStudio_Workspace\e203_filter_test\hbird_sdk\NMSIS\Core\Include/core_feature_plic.h:298
 * \sa
 * - \ref PLIC_ClaimInterrupt
 */
__STATIC_FORCEINLINE void PLIC_CompleteInterrupt(uint32_t source)
{
    uint32_t hartid = __RV_CSR_READ(CSR_MHARTID);
80000924:	f14027f3          	csrr	a5,mhartid
80000928:	84be                	mv	s1,a5
8000092a:	87a6                	mv	a5,s1
8000092c:	fcf42c23          	sw	a5,-40(s0)
E:\NucleiStudio_Workspace\e203_filter_test\hbird_sdk\NMSIS\Core\Include/core_feature_plic.h:300
    volatile uint32_t *complete_reg = (uint32_t *)((PLIC_BASE) + PLIC_CLAIM_OFFSET + \
                    + (hartid << PLIC_CLAIM_SHIFT_PER_TARGET));
80000930:	fd842783          	lw	a5,-40(s0)
80000934:	00c79713          	slli	a4,a5,0xc
E:\NucleiStudio_Workspace\e203_filter_test\hbird_sdk\NMSIS\Core\Include/core_feature_plic.h:299
    volatile uint32_t *complete_reg = (uint32_t *)((PLIC_BASE) + PLIC_CLAIM_OFFSET + \
80000938:	0c2007b7          	lui	a5,0xc200
8000093c:	0791                	addi	a5,a5,4
8000093e:	97ba                	add	a5,a5,a4
80000940:	fcf42a23          	sw	a5,-44(s0)
E:\NucleiStudio_Workspace\e203_filter_test\hbird_sdk\NMSIS\Core\Include/core_feature_plic.h:302

    *complete_reg = source;
80000944:	fd442783          	lw	a5,-44(s0)
80000948:	fdc42703          	lw	a4,-36(s0)
8000094c:	c398                	sw	a4,0(a5)
E:\NucleiStudio_Workspace\e203_filter_test\hbird_sdk\NMSIS\Core\Include/core_feature_plic.h:303
}
8000094e:	a025                	j	80000976 <core_trap_handler+0xea>
core_trap_handler():
E:\NucleiStudio_Workspace\e203_filter_test\Debug/../hbird_sdk/SoC/hbirdv2/Common/Source/system_hbirdv2.c:338
                }
                PLIC_CompleteInterrupt(irqn);
            }
#endif
        } else {
            int_handler = (INT_HANDLER)(SystemCoreInterruptHandlers[irqn]);
80000950:	91018713          	addi	a4,gp,-1776 # 900002e8 <SystemCoreInterruptHandlers>
80000954:	fe842783          	lw	a5,-24(s0)
80000958:	078a                	slli	a5,a5,0x2
8000095a:	97ba                	add	a5,a5,a4
8000095c:	439c                	lw	a5,0(a5)
8000095e:	fef42623          	sw	a5,-20(s0)
E:\NucleiStudio_Workspace\e203_filter_test\Debug/../hbird_sdk/SoC/hbirdv2/Common/Source/system_hbirdv2.c:339
            if (int_handler != NULL) {
80000962:	fec42783          	lw	a5,-20(s0)
80000966:	cb81                	beqz	a5,80000976 <core_trap_handler+0xea>
E:\NucleiStudio_Workspace\e203_filter_test\Debug/../hbird_sdk/SoC/hbirdv2/Common/Source/system_hbirdv2.c:340
                int_handler(mcause, sp);
80000968:	fec42783          	lw	a5,-20(s0)
8000096c:	fc842583          	lw	a1,-56(s0)
80000970:	fcc42503          	lw	a0,-52(s0)
80000974:	9782                	jalr	a5
E:\NucleiStudio_Workspace\e203_filter_test\Debug/../hbird_sdk/SoC/hbirdv2/Common/Source/system_hbirdv2.c:343
            }
        }
        return 0;
80000976:	4781                	li	a5,0
80000978:	a039                	j	80000986 <core_trap_handler+0xfa>
E:\NucleiStudio_Workspace\e203_filter_test\Debug/../hbird_sdk/SoC/hbirdv2/Common/Source/system_hbirdv2.c:345
    } else {
        return core_exception_handler(mcause, sp);
8000097a:	fc842583          	lw	a1,-56(s0)
8000097e:	fcc42503          	lw	a0,-52(s0)
80000982:	2801                	jal	80000992 <core_exception_handler>
80000984:	87aa                	mv	a5,a0
E:\NucleiStudio_Workspace\e203_filter_test\Debug/../hbird_sdk/SoC/hbirdv2/Common/Source/system_hbirdv2.c:347
    }
}
80000986:	853e                	mv	a0,a5
80000988:	50f2                	lw	ra,60(sp)
8000098a:	5462                	lw	s0,56(sp)
8000098c:	54d2                	lw	s1,52(sp)
8000098e:	6121                	addi	sp,sp,64
80000990:	8082                	ret

80000992 <core_exception_handler>:
core_exception_handler():
E:\NucleiStudio_Workspace\e203_filter_test\Debug/../hbird_sdk/SoC/hbirdv2/Common/Source/system_hbirdv2.c:361
 *   for exception entry function, Silicon Vendor could modify the implementation.
 * - For the core_exception_handler template, we provided exception register function \ref Exception_Register_EXC
 *   which can help developer to register your exception handler for specific exception number.
 */
static uint32_t core_exception_handler(unsigned long mcause, unsigned long sp)
{
80000992:	7179                	addi	sp,sp,-48
80000994:	d606                	sw	ra,44(sp)
80000996:	d422                	sw	s0,40(sp)
80000998:	1800                	addi	s0,sp,48
8000099a:	fca42e23          	sw	a0,-36(s0)
8000099e:	fcb42c23          	sw	a1,-40(s0)
E:\NucleiStudio_Workspace\e203_filter_test\Debug/../hbird_sdk/SoC/hbirdv2/Common/Source/system_hbirdv2.c:362
    uint32_t EXCn = (uint32_t)(mcause & 0X00000fff);
800009a2:	fdc42703          	lw	a4,-36(s0)
800009a6:	6785                	lui	a5,0x1
800009a8:	17fd                	addi	a5,a5,-1
800009aa:	8ff9                	and	a5,a5,a4
800009ac:	fef42423          	sw	a5,-24(s0)
E:\NucleiStudio_Workspace\e203_filter_test\Debug/../hbird_sdk/SoC/hbirdv2/Common/Source/system_hbirdv2.c:365
    EXC_HANDLER exc_handler;

    if ((EXCn < MAX_SYSTEM_EXCEPTION_NUM) && (EXCn >= 0)) {
800009b0:	fe842703          	lw	a4,-24(s0)
800009b4:	47a9                	li	a5,10
800009b6:	00e7ec63          	bltu	a5,a4,800009ce <core_exception_handler+0x3c>
E:\NucleiStudio_Workspace\e203_filter_test\Debug/../hbird_sdk/SoC/hbirdv2/Common/Source/system_hbirdv2.c:366
        exc_handler = (EXC_HANDLER)SystemExceptionHandlers[EXCn];
800009ba:	8a018713          	addi	a4,gp,-1888 # 90000278 <SystemExceptionHandlers>
800009be:	fe842783          	lw	a5,-24(s0)
800009c2:	078a                	slli	a5,a5,0x2
800009c4:	97ba                	add	a5,a5,a4
800009c6:	439c                	lw	a5,0(a5)
800009c8:	fef42623          	sw	a5,-20(s0)
800009cc:	a039                	j	800009da <core_exception_handler+0x48>
E:\NucleiStudio_Workspace\e203_filter_test\Debug/../hbird_sdk/SoC/hbirdv2/Common/Source/system_hbirdv2.c:368
    } else {
        exc_handler = (EXC_HANDLER)system_default_exception_handler;
800009ce:	00000797          	auipc	a5,0x0
800009d2:	d2078793          	addi	a5,a5,-736 # 800006ee <system_default_exception_handler>
800009d6:	fef42623          	sw	a5,-20(s0)
E:\NucleiStudio_Workspace\e203_filter_test\Debug/../hbird_sdk/SoC/hbirdv2/Common/Source/system_hbirdv2.c:370
    }
    if (exc_handler != NULL) {
800009da:	fec42783          	lw	a5,-20(s0)
800009de:	cb81                	beqz	a5,800009ee <core_exception_handler+0x5c>
E:\NucleiStudio_Workspace\e203_filter_test\Debug/../hbird_sdk/SoC/hbirdv2/Common/Source/system_hbirdv2.c:371
        exc_handler(mcause, sp);
800009e0:	fec42783          	lw	a5,-20(s0)
800009e4:	fd842583          	lw	a1,-40(s0)
800009e8:	fdc42503          	lw	a0,-36(s0)
800009ec:	9782                	jalr	a5
E:\NucleiStudio_Workspace\e203_filter_test\Debug/../hbird_sdk/SoC/hbirdv2/Common/Source/system_hbirdv2.c:373
    }
    return 0;
800009ee:	4781                	li	a5,0
E:\NucleiStudio_Workspace\e203_filter_test\Debug/../hbird_sdk/SoC/hbirdv2/Common/Source/system_hbirdv2.c:374
}
800009f0:	853e                	mv	a0,a5
800009f2:	50b2                	lw	ra,44(sp)
800009f4:	5422                	lw	s0,40(sp)
800009f6:	6145                	addi	sp,sp,48
800009f8:	8082                	ret

800009fa <SystemBannerPrint>:
SystemBannerPrint():
E:\NucleiStudio_Workspace\e203_filter_test\Debug/../hbird_sdk/SoC/hbirdv2/Common/Source/system_hbirdv2.c:379
/** @} */ /* End of Doxygen Group NMSIS_Core_ExceptionAndNMI */

/** Banner Print for HummingBird SDK */
void SystemBannerPrint(void)
{
800009fa:	1141                	addi	sp,sp,-16
800009fc:	c606                	sw	ra,12(sp)
800009fe:	c422                	sw	s0,8(sp)
80000a00:	0800                	addi	s0,sp,16
E:\NucleiStudio_Workspace\e203_filter_test\Debug/../hbird_sdk/SoC/hbirdv2/Common/Source/system_hbirdv2.c:381
#if defined(HBIRD_BANNER) && (HBIRD_BANNER == 1)
    printf("HummingBird SDK Build Time: %s, %s\r\n", __DATE__, __TIME__);
80000a02:	00006617          	auipc	a2,0x6
80000a06:	1fe60613          	addi	a2,a2,510 # 80006c00 <__trunctfdf2+0x298>
80000a0a:	00006597          	auipc	a1,0x6
80000a0e:	20258593          	addi	a1,a1,514 # 80006c0c <__trunctfdf2+0x2a4>
80000a12:	00006517          	auipc	a0,0x6
80000a16:	20650513          	addi	a0,a0,518 # 80006c18 <__trunctfdf2+0x2b0>
80000a1a:	60e030ef          	jal	ra,80004028 <iprintf>
E:\NucleiStudio_Workspace\e203_filter_test\Debug/../hbird_sdk/SoC/hbirdv2/Common/Source/system_hbirdv2.c:383
#ifdef DOWNLOAD_MODE_STRING
    printf("Download Mode: %s\r\n", DOWNLOAD_MODE_STRING);
80000a1e:	00006597          	auipc	a1,0x6
80000a22:	22258593          	addi	a1,a1,546 # 80006c40 <__trunctfdf2+0x2d8>
80000a26:	00006517          	auipc	a0,0x6
80000a2a:	21e50513          	addi	a0,a0,542 # 80006c44 <__trunctfdf2+0x2dc>
80000a2e:	5fa030ef          	jal	ra,80004028 <iprintf>
E:\NucleiStudio_Workspace\e203_filter_test\Debug/../hbird_sdk/SoC/hbirdv2/Common/Source/system_hbirdv2.c:385
#endif
    printf("CPU Frequency %lu Hz\r\n", SystemCoreClock);
80000a32:	0ffff797          	auipc	a5,0xffff
80000a36:	7aa78793          	addi	a5,a5,1962 # 900001dc <SystemCoreClock>
80000a3a:	439c                	lw	a5,0(a5)
80000a3c:	85be                	mv	a1,a5
80000a3e:	00006517          	auipc	a0,0x6
80000a42:	21a50513          	addi	a0,a0,538 # 80006c58 <__trunctfdf2+0x2f0>
80000a46:	5e2030ef          	jal	ra,80004028 <iprintf>
E:\NucleiStudio_Workspace\e203_filter_test\Debug/../hbird_sdk/SoC/hbirdv2/Common/Source/system_hbirdv2.c:387
#endif
}
80000a4a:	0001                	nop
80000a4c:	40b2                	lw	ra,12(sp)
80000a4e:	4422                	lw	s0,8(sp)
80000a50:	0141                	addi	sp,sp,16
80000a52:	8082                	ret

80000a54 <PLIC_Register_IRQ>:
PLIC_Register_IRQ():
E:\NucleiStudio_Workspace\e203_filter_test\Debug/../hbird_sdk/SoC/hbirdv2/Common/Source/system_hbirdv2.c:436
 * \return       -1 means invalid input parameter. 0 means successful.
 * \remarks
 * - This function use to configure specific plic interrupt and register its interrupt handler and enable its interrupt.
 */
int32_t PLIC_Register_IRQ(uint32_t source, uint8_t priority, void *handler)
{
80000a54:	7139                	addi	sp,sp,-64
80000a56:	de06                	sw	ra,60(sp)
80000a58:	dc22                	sw	s0,56(sp)
80000a5a:	da26                	sw	s1,52(sp)
80000a5c:	0080                	addi	s0,sp,64
80000a5e:	fca42623          	sw	a0,-52(s0)
80000a62:	87ae                	mv	a5,a1
80000a64:	fcc42223          	sw	a2,-60(s0)
80000a68:	fcf405a3          	sb	a5,-53(s0)
E:\NucleiStudio_Workspace\e203_filter_test\Debug/../hbird_sdk/SoC/hbirdv2/Common/Source/system_hbirdv2.c:437
    if ((source >= __PLIC_INTNUM)) {
80000a6c:	fcc42703          	lw	a4,-52(s0)
80000a70:	47c1                	li	a5,16
80000a72:	00e7f463          	bgeu	a5,a4,80000a7a <PLIC_Register_IRQ+0x26>
E:\NucleiStudio_Workspace\e203_filter_test\Debug/../hbird_sdk/SoC/hbirdv2/Common/Source/system_hbirdv2.c:438
        return -1;
80000a76:	57fd                	li	a5,-1
80000a78:	a07d                	j	80000b26 <PLIC_Register_IRQ+0xd2>
E:\NucleiStudio_Workspace\e203_filter_test\Debug/../hbird_sdk/SoC/hbirdv2/Common/Source/system_hbirdv2.c:442
    }

    /* set interrupt priority */
    PLIC_SetPriority(source, priority);
80000a7a:	fcb44783          	lbu	a5,-53(s0)
80000a7e:	fcc42703          	lw	a4,-52(s0)
80000a82:	fee42623          	sw	a4,-20(s0)
80000a86:	fef42423          	sw	a5,-24(s0)
PLIC_SetPriority():
E:\NucleiStudio_Workspace\e203_filter_test\hbird_sdk\NMSIS\Core\Include/core_feature_plic.h:235
                    + (source << PLIC_PRIORITY_SHIFT_PER_SOURCE));
80000a8a:	fec42783          	lw	a5,-20(s0)
80000a8e:	00279713          	slli	a4,a5,0x2
E:\NucleiStudio_Workspace\e203_filter_test\hbird_sdk\NMSIS\Core\Include/core_feature_plic.h:234
    volatile uint32_t *priority_reg = (uint32_t *)((PLIC_BASE) + PLIC_PRIORITY_OFFSET + \
80000a92:	0c0007b7          	lui	a5,0xc000
80000a96:	97ba                	add	a5,a5,a4
80000a98:	fef42223          	sw	a5,-28(s0)
E:\NucleiStudio_Workspace\e203_filter_test\hbird_sdk\NMSIS\Core\Include/core_feature_plic.h:237
    *priority_reg = priority;
80000a9c:	fe442783          	lw	a5,-28(s0)
80000aa0:	fe842703          	lw	a4,-24(s0)
80000aa4:	c398                	sw	a4,0(a5)
E:\NucleiStudio_Workspace\e203_filter_test\hbird_sdk\NMSIS\Core\Include/core_feature_plic.h:238
}
80000aa6:	0001                	nop
PLIC_Register_IRQ():
E:\NucleiStudio_Workspace\e203_filter_test\Debug/../hbird_sdk/SoC/hbirdv2/Common/Source/system_hbirdv2.c:443
    if (handler != NULL) {
80000aa8:	fc442783          	lw	a5,-60(s0)
80000aac:	c799                	beqz	a5,80000aba <PLIC_Register_IRQ+0x66>
E:\NucleiStudio_Workspace\e203_filter_test\Debug/../hbird_sdk/SoC/hbirdv2/Common/Source/system_hbirdv2.c:445
        /* register interrupt handler entry to external handlers */
        Interrupt_Register_ExtIRQ(source, (unsigned long)handler);
80000aae:	fc442783          	lw	a5,-60(s0)
80000ab2:	85be                	mv	a1,a5
80000ab4:	fcc42503          	lw	a0,-52(s0)
80000ab8:	334d                	jal	8000085a <Interrupt_Register_ExtIRQ>
80000aba:	fcc42783          	lw	a5,-52(s0)
80000abe:	fef42023          	sw	a5,-32(s0)
PLIC_EnableInterrupt():
E:\NucleiStudio_Workspace\e203_filter_test\hbird_sdk\NMSIS\Core\Include/core_feature_plic.h:171
    uint32_t hartid = __RV_CSR_READ(CSR_MHARTID);
80000ac2:	f14027f3          	csrr	a5,mhartid
80000ac6:	84be                	mv	s1,a5
80000ac8:	87a6                	mv	a5,s1
80000aca:	fcf42e23          	sw	a5,-36(s0)
E:\NucleiStudio_Workspace\e203_filter_test\hbird_sdk\NMSIS\Core\Include/core_feature_plic.h:173
                    (hartid << PLIC_ENABLE_SHIFT_PER_TARGET) + (source >> 5) * 4);
80000ace:	fdc42783          	lw	a5,-36(s0)
80000ad2:	00779713          	slli	a4,a5,0x7
80000ad6:	fe042783          	lw	a5,-32(s0)
80000ada:	8395                	srli	a5,a5,0x5
80000adc:	078a                	slli	a5,a5,0x2
80000ade:	973e                	add	a4,a4,a5
80000ae0:	0c0027b7          	lui	a5,0xc002
80000ae4:	97ba                	add	a5,a5,a4
E:\NucleiStudio_Workspace\e203_filter_test\hbird_sdk\NMSIS\Core\Include/core_feature_plic.h:172
    volatile uint32_t *enable_reg = (uint32_t *)((PLIC_BASE) + PLIC_ENABLE_OFFSET + \
80000ae6:	fcf42c23          	sw	a5,-40(s0)
E:\NucleiStudio_Workspace\e203_filter_test\hbird_sdk\NMSIS\Core\Include/core_feature_plic.h:175
    uint32_t current = *enable_reg;
80000aea:	fd842783          	lw	a5,-40(s0)
80000aee:	439c                	lw	a5,0(a5)
80000af0:	fcf42a23          	sw	a5,-44(s0)
E:\NucleiStudio_Workspace\e203_filter_test\hbird_sdk\NMSIS\Core\Include/core_feature_plic.h:176
    current = current | (1<<(source&0x1F));
80000af4:	fe042783          	lw	a5,-32(s0)
80000af8:	8bfd                	andi	a5,a5,31
80000afa:	4705                	li	a4,1
80000afc:	00f717b3          	sll	a5,a4,a5
80000b00:	873e                	mv	a4,a5
80000b02:	fd442783          	lw	a5,-44(s0)
80000b06:	8fd9                	or	a5,a5,a4
80000b08:	fcf42a23          	sw	a5,-44(s0)
E:\NucleiStudio_Workspace\e203_filter_test\hbird_sdk\NMSIS\Core\Include/core_feature_plic.h:177
    *enable_reg = current;
80000b0c:	fd842783          	lw	a5,-40(s0)
80000b10:	fd442703          	lw	a4,-44(s0)
80000b14:	c398                	sw	a4,0(a5)
E:\NucleiStudio_Workspace\e203_filter_test\hbird_sdk\NMSIS\Core\Include/core_feature_plic.h:178
}
80000b16:	0001                	nop
__enable_ext_irq():
E:\NucleiStudio_Workspace\e203_filter_test\hbird_sdk\NMSIS\Core\Include/core_feature_base.h:377
    __RV_CSR_SET(CSR_MIE, MIE_MEIE);
80000b18:	6785                	lui	a5,0x1
80000b1a:	80078493          	addi	s1,a5,-2048 # 800 <__stack_size>
80000b1e:	3044a073          	csrs	mie,s1
E:\NucleiStudio_Workspace\e203_filter_test\hbird_sdk\NMSIS\Core\Include/core_feature_base.h:378
}
80000b22:	0001                	nop
PLIC_Register_IRQ():
E:\NucleiStudio_Workspace\e203_filter_test\Debug/../hbird_sdk/SoC/hbirdv2/Common/Source/system_hbirdv2.c:450
    }
    /* enable interrupt */
    PLIC_EnableInterrupt(source);
    __enable_ext_irq();
    return 0;
80000b24:	4781                	li	a5,0
E:\NucleiStudio_Workspace\e203_filter_test\Debug/../hbird_sdk/SoC/hbirdv2/Common/Source/system_hbirdv2.c:451
}
80000b26:	853e                	mv	a0,a5
80000b28:	50f2                	lw	ra,60(sp)
80000b2a:	5462                	lw	s0,56(sp)
80000b2c:	54d2                	lw	s1,52(sp)
80000b2e:	6121                	addi	sp,sp,64
80000b30:	8082                	ret

80000b32 <_premain_init>:
_premain_init():
E:\NucleiStudio_Workspace\e203_filter_test\Debug/../hbird_sdk/SoC/hbirdv2/Common/Source/system_hbirdv2.c:464
 * For RISC-V gnu toolchain, _init function might not be called
 * by __libc_init_array function, so we defined a new function
 * to do initialization
 */
void _premain_init(void)
{
80000b32:	7139                	addi	sp,sp,-64
80000b34:	de06                	sw	ra,60(sp)
80000b36:	dc22                	sw	s0,56(sp)
80000b38:	da26                	sw	s1,52(sp)
80000b3a:	0080                	addi	s0,sp,64
E:\NucleiStudio_Workspace\e203_filter_test\Debug/../hbird_sdk/SoC/hbirdv2/Common/Source/system_hbirdv2.c:466
    /* TODO: Add your own initialization code here, called before main */
    SystemCoreClock = get_cpu_freq();
80000b3c:	36bd                	jal	800006aa <get_cpu_freq>
80000b3e:	872a                	mv	a4,a0
80000b40:	0ffff797          	auipc	a5,0xffff
80000b44:	69c78793          	addi	a5,a5,1692 # 900001dc <SystemCoreClock>
80000b48:	c398                	sw	a4,0(a5)
E:\NucleiStudio_Workspace\e203_filter_test\Debug/../hbird_sdk/SoC/hbirdv2/Common/Source/system_hbirdv2.c:468
#if ! defined(SIMULATION_SPIKE) && ! defined(SIMULATION_XLSPIKE)
    gpio_iof_config(GPIOA, IOF_UART_MASK);
80000b4a:	000305b7          	lui	a1,0x30
80000b4e:	10012537          	lui	a0,0x10012
80000b52:	ff6ff0ef          	jal	ra,80000348 <gpio_iof_config>
E:\NucleiStudio_Workspace\e203_filter_test\Debug/../hbird_sdk/SoC/hbirdv2/Common/Source/system_hbirdv2.c:469
    uart_init(SOC_DEBUG_UART, 115200);
80000b56:	67f1                	lui	a5,0x1c
80000b58:	20078593          	addi	a1,a5,512 # 1c200 <__stack_size+0x1ba00>
80000b5c:	10013537          	lui	a0,0x10013
80000b60:	825ff0ef          	jal	ra,80000384 <uart_init>
E:\NucleiStudio_Workspace\e203_filter_test\Debug/../hbird_sdk/SoC/hbirdv2/Common/Source/system_hbirdv2.c:472
#endif
    /* Display banner after UART initialized */
    SystemBannerPrint();
80000b64:	3d59                	jal	800009fa <SystemBannerPrint>
E:\NucleiStudio_Workspace\e203_filter_test\Debug/../hbird_sdk/SoC/hbirdv2/Common/Source/system_hbirdv2.c:474
    /* Initialize exception default handlers */
    Exception_Init();
80000b66:	3191                	jal	800007aa <Exception_Init>
E:\NucleiStudio_Workspace\e203_filter_test\Debug/../hbird_sdk/SoC/hbirdv2/Common/Source/system_hbirdv2.c:476
    /* Initialize Interrupt default handlers */
    Interrupt_Init();
80000b68:	3149                	jal	800007ea <Interrupt_Init>
80000b6a:	47c5                	li	a5,17
80000b6c:	fef42623          	sw	a5,-20(s0)
PLIC_Init():
E:\NucleiStudio_Workspace\e203_filter_test\hbird_sdk\NMSIS\Core\Include/core_feature_plic.h:318
 */
__STATIC_FORCEINLINE void PLIC_Init(uint32_t num_sources)
{
    uint32_t i;

    for (i = 0; i < num_sources; i ++) {
80000b70:	fe042423          	sw	zero,-24(s0)
80000b74:	a861                	j	80000c0c <_premain_init+0xda>
80000b76:	fe842783          	lw	a5,-24(s0)
80000b7a:	fef42223          	sw	a5,-28(s0)
PLIC_DisableInterrupt():
E:\NucleiStudio_Workspace\e203_filter_test\hbird_sdk\NMSIS\Core\Include/core_feature_plic.h:191
    uint32_t hartid = __RV_CSR_READ(CSR_MHARTID);
80000b7e:	f14027f3          	csrr	a5,mhartid
80000b82:	84be                	mv	s1,a5
80000b84:	87a6                	mv	a5,s1
80000b86:	fef42023          	sw	a5,-32(s0)
E:\NucleiStudio_Workspace\e203_filter_test\hbird_sdk\NMSIS\Core\Include/core_feature_plic.h:193
                    (hartid << PLIC_ENABLE_SHIFT_PER_TARGET) + (source >> 5) * 4);
80000b8a:	fe042783          	lw	a5,-32(s0)
80000b8e:	00779713          	slli	a4,a5,0x7
80000b92:	fe442783          	lw	a5,-28(s0)
80000b96:	8395                	srli	a5,a5,0x5
80000b98:	078a                	slli	a5,a5,0x2
80000b9a:	973e                	add	a4,a4,a5
80000b9c:	0c0027b7          	lui	a5,0xc002
80000ba0:	97ba                	add	a5,a5,a4
E:\NucleiStudio_Workspace\e203_filter_test\hbird_sdk\NMSIS\Core\Include/core_feature_plic.h:192
    volatile uint32_t *enable_reg = (uint32_t *)((PLIC_BASE) + PLIC_ENABLE_OFFSET + \
80000ba2:	fcf42e23          	sw	a5,-36(s0)
E:\NucleiStudio_Workspace\e203_filter_test\hbird_sdk\NMSIS\Core\Include/core_feature_plic.h:195
    uint32_t current = *enable_reg;
80000ba6:	fdc42783          	lw	a5,-36(s0)
80000baa:	439c                	lw	a5,0(a5)
80000bac:	fcf42c23          	sw	a5,-40(s0)
E:\NucleiStudio_Workspace\e203_filter_test\hbird_sdk\NMSIS\Core\Include/core_feature_plic.h:196
    current = current & (~(1<<(source&0x1F)));
80000bb0:	fe442783          	lw	a5,-28(s0)
80000bb4:	8bfd                	andi	a5,a5,31
80000bb6:	4705                	li	a4,1
80000bb8:	00f717b3          	sll	a5,a4,a5
80000bbc:	fff7c793          	not	a5,a5
80000bc0:	873e                	mv	a4,a5
80000bc2:	fd842783          	lw	a5,-40(s0)
80000bc6:	8ff9                	and	a5,a5,a4
80000bc8:	fcf42c23          	sw	a5,-40(s0)
E:\NucleiStudio_Workspace\e203_filter_test\hbird_sdk\NMSIS\Core\Include/core_feature_plic.h:197
    *enable_reg = current;
80000bcc:	fdc42783          	lw	a5,-36(s0)
80000bd0:	fd842703          	lw	a4,-40(s0)
80000bd4:	c398                	sw	a4,0(a5)
E:\NucleiStudio_Workspace\e203_filter_test\hbird_sdk\NMSIS\Core\Include/core_feature_plic.h:198
}
80000bd6:	0001                	nop
80000bd8:	fe842783          	lw	a5,-24(s0)
80000bdc:	fcf42a23          	sw	a5,-44(s0)
80000be0:	fc042823          	sw	zero,-48(s0)
PLIC_SetPriority():
E:\NucleiStudio_Workspace\e203_filter_test\hbird_sdk\NMSIS\Core\Include/core_feature_plic.h:235
                    + (source << PLIC_PRIORITY_SHIFT_PER_SOURCE));
80000be4:	fd442783          	lw	a5,-44(s0)
80000be8:	00279713          	slli	a4,a5,0x2
E:\NucleiStudio_Workspace\e203_filter_test\hbird_sdk\NMSIS\Core\Include/core_feature_plic.h:234
    volatile uint32_t *priority_reg = (uint32_t *)((PLIC_BASE) + PLIC_PRIORITY_OFFSET + \
80000bec:	0c0007b7          	lui	a5,0xc000
80000bf0:	97ba                	add	a5,a5,a4
80000bf2:	fcf42623          	sw	a5,-52(s0)
E:\NucleiStudio_Workspace\e203_filter_test\hbird_sdk\NMSIS\Core\Include/core_feature_plic.h:237
    *priority_reg = priority;
80000bf6:	fcc42783          	lw	a5,-52(s0)
80000bfa:	fd042703          	lw	a4,-48(s0)
80000bfe:	c398                	sw	a4,0(a5)
E:\NucleiStudio_Workspace\e203_filter_test\hbird_sdk\NMSIS\Core\Include/core_feature_plic.h:238
}
80000c00:	0001                	nop
PLIC_Init():
E:\NucleiStudio_Workspace\e203_filter_test\hbird_sdk\NMSIS\Core\Include/core_feature_plic.h:318
    for (i = 0; i < num_sources; i ++) {
80000c02:	fe842783          	lw	a5,-24(s0)
80000c06:	0785                	addi	a5,a5,1
80000c08:	fef42423          	sw	a5,-24(s0)
80000c0c:	fec42703          	lw	a4,-20(s0)
80000c10:	fe842783          	lw	a5,-24(s0)
80000c14:	f6e7e1e3          	bltu	a5,a4,80000b76 <_premain_init+0x44>
80000c18:	fc042423          	sw	zero,-56(s0)
PLIC_SetThreshold():
E:\NucleiStudio_Workspace\e203_filter_test\hbird_sdk\NMSIS\Core\Include/core_feature_plic.h:135
    uint32_t hartid = __RV_CSR_READ(CSR_MHARTID);
80000c1c:	f14027f3          	csrr	a5,mhartid
80000c20:	84be                	mv	s1,a5
80000c22:	87a6                	mv	a5,s1
80000c24:	fcf42223          	sw	a5,-60(s0)
E:\NucleiStudio_Workspace\e203_filter_test\hbird_sdk\NMSIS\Core\Include/core_feature_plic.h:137
                    PLIC_THRESHOLD_OFFSET + (hartid << PLIC_THRESHOLD_SHIFT_PER_TARGET));
80000c28:	fc442783          	lw	a5,-60(s0)
80000c2c:	00c79713          	slli	a4,a5,0xc
80000c30:	0c2007b7          	lui	a5,0xc200
80000c34:	97ba                	add	a5,a5,a4
E:\NucleiStudio_Workspace\e203_filter_test\hbird_sdk\NMSIS\Core\Include/core_feature_plic.h:136
    volatile uint32_t *thresh_reg = (uint32_t *)((PLIC_BASE) + \
80000c36:	fcf42023          	sw	a5,-64(s0)
E:\NucleiStudio_Workspace\e203_filter_test\hbird_sdk\NMSIS\Core\Include/core_feature_plic.h:139
    *thresh_reg = thresh;
80000c3a:	fc042783          	lw	a5,-64(s0)
80000c3e:	fc842703          	lw	a4,-56(s0)
80000c42:	c398                	sw	a4,0(a5)
E:\NucleiStudio_Workspace\e203_filter_test\hbird_sdk\NMSIS\Core\Include/core_feature_plic.h:140
}
80000c44:	0001                	nop
PLIC_Init():
E:\NucleiStudio_Workspace\e203_filter_test\hbird_sdk\NMSIS\Core\Include/core_feature_plic.h:323
        PLIC_DisableInterrupt(i);
        PLIC_SetPriority(i, 0);
    }
    PLIC_SetThreshold(0);
}
80000c46:	0001                	nop
_premain_init():
E:\NucleiStudio_Workspace\e203_filter_test\Debug/../hbird_sdk/SoC/hbirdv2/Common/Source/system_hbirdv2.c:481
#if defined(__PLIC_PRESENT) && __PLIC_PRESENT == 1
    /* PLIC initilization */
    PLIC_Init(__PLIC_INTNUM);
#endif
}
80000c48:	0001                	nop
80000c4a:	50f2                	lw	ra,60(sp)
80000c4c:	5462                	lw	s0,56(sp)
80000c4e:	54d2                	lw	s1,52(sp)
80000c50:	6121                	addi	sp,sp,64
80000c52:	8082                	ret

80000c54 <_postmain_fini>:
_postmain_fini():
E:\NucleiStudio_Workspace\e203_filter_test\Debug/../hbird_sdk/SoC/hbirdv2/Common/Source/system_hbirdv2.c:492
 * For RISC-V gnu toolchain, _fini function might not be called
 * by __libc_fini_array function, so we defined a new function
 * to do initialization
 */
void _postmain_fini(int status)
{
80000c54:	1101                	addi	sp,sp,-32
80000c56:	ce22                	sw	s0,28(sp)
80000c58:	1000                	addi	s0,sp,32
80000c5a:	fea42623          	sw	a0,-20(s0)
E:\NucleiStudio_Workspace\e203_filter_test\Debug/../hbird_sdk/SoC/hbirdv2/Common/Source/system_hbirdv2.c:507
#ifdef SIMULATION_RTL
extern void rtlsim_exit(int status);
    rtlsim_exit(status);
#endif

}
80000c5e:	0001                	nop
80000c60:	4472                	lw	s0,28(sp)
80000c62:	6105                	addi	sp,sp,32
80000c64:	8082                	ret

80000c66 <_init>:
_init():
E:\NucleiStudio_Workspace\e203_filter_test\Debug/../hbird_sdk/SoC/hbirdv2/Common/Source/system_hbirdv2.c:519
 * error init.c:(.text.__libc_init_array+0x26): undefined reference to `_init'
 * \note
 * Please use \ref _premain_init function now
 */
void _init(void)
{
80000c66:	1141                	addi	sp,sp,-16
80000c68:	c622                	sw	s0,12(sp)
80000c6a:	0800                	addi	s0,sp,16
E:\NucleiStudio_Workspace\e203_filter_test\Debug/../hbird_sdk/SoC/hbirdv2/Common/Source/system_hbirdv2.c:521
    /* Don't put any code here, please use _premain_init now */
}
80000c6c:	0001                	nop
80000c6e:	4432                	lw	s0,12(sp)
80000c70:	0141                	addi	sp,sp,16
80000c72:	8082                	ret

80000c74 <_fini>:
_fini():
E:\NucleiStudio_Workspace\e203_filter_test\Debug/../hbird_sdk/SoC/hbirdv2/Common/Source/system_hbirdv2.c:533
 * error fini.c:(.text.__libc_fini_array+0x28): undefined reference to `_fini'
 * \note
 * Please use \ref _postmain_fini function now
 */
void _fini(void)
{
80000c74:	1141                	addi	sp,sp,-16
80000c76:	c622                	sw	s0,12(sp)
80000c78:	0800                	addi	s0,sp,16
E:\NucleiStudio_Workspace\e203_filter_test\Debug/../hbird_sdk/SoC/hbirdv2/Common/Source/system_hbirdv2.c:536
    /* Don't put any code here, please use _postmain_fini now */

}
80000c7a:	0001                	nop
80000c7c:	4432                	lw	s0,12(sp)
80000c7e:	0141                	addi	sp,sp,16
80000c80:	8082                	ret

80000c82 <my_uart_init>:
my_uart_init():
E:\NucleiStudio_Workspace\e203_filter_test\Debug/../application/main.c:73
float temp_f;

void plic_uart0_handler();

void my_uart_init()
{
80000c82:	1141                	addi	sp,sp,-16
80000c84:	c606                	sw	ra,12(sp)
80000c86:	c422                	sw	s0,8(sp)
80000c88:	c226                	sw	s1,4(sp)
80000c8a:	0800                	addi	s0,sp,16
E:\NucleiStudio_Workspace\e203_filter_test\Debug/../application/main.c:74
	uart_init(UART0,115200);//
80000c8c:	67f1                	lui	a5,0x1c
80000c8e:	20078593          	addi	a1,a5,512 # 1c200 <__stack_size+0x1ba00>
80000c92:	10013537          	lui	a0,0x10013
80000c96:	eeeff0ef          	jal	ra,80000384 <uart_init>
E:\NucleiStudio_Workspace\e203_filter_test\Debug/../application/main.c:75
	uart_config_stopbit(UART0,UART_STOP_BIT_2);//
80000c9a:	4585                	li	a1,1
80000c9c:	10013537          	lui	a0,0x10013
80000ca0:	f60ff0ef          	jal	ra,80000400 <uart_config_stopbit>
E:\NucleiStudio_Workspace\e203_filter_test\Debug/../application/main.c:76
	uart_disable_paritybit(UART0);//
80000ca4:	10013537          	lui	a0,0x10013
80000ca8:	fa6ff0ef          	jal	ra,8000044e <uart_disable_paritybit>
E:\NucleiStudio_Workspace\e203_filter_test\Debug/../application/main.c:77
	PLIC_Register_IRQ(PLIC_UART0_IRQn,1,plic_uart0_handler);
80000cac:	00000617          	auipc	a2,0x0
80000cb0:	38460613          	addi	a2,a2,900 # 80001030 <plic_uart0_handler>
80000cb4:	4585                	li	a1,1
80000cb6:	450d                	li	a0,3
80000cb8:	3b71                	jal	80000a54 <PLIC_Register_IRQ>
E:\NucleiStudio_Workspace\e203_filter_test\Debug/../application/main.c:78
	uart_enable_rx_th_int(UART0);//
80000cba:	10013537          	lui	a0,0x10013
80000cbe:	307d                	jal	8000056c <uart_enable_rx_th_int>
E:\NucleiStudio_Workspace\e203_filter_test\Debug/../application/main.c:79
	uart_set_rx_th(UART0,0);//rx
80000cc0:	4581                	li	a1,0
80000cc2:	10013537          	lui	a0,0x10013
80000cc6:	847ff0ef          	jal	ra,8000050c <uart_set_rx_th>
__enable_irq():
E:\NucleiStudio_Workspace\e203_filter_test\hbird_sdk\NMSIS\Core\Include/core_feature_base.h:355
    __RV_CSR_SET(CSR_MSTATUS, MSTATUS_MIE);
80000cca:	44a1                	li	s1,8
80000ccc:	3004a073          	csrs	mstatus,s1
E:\NucleiStudio_Workspace\e203_filter_test\hbird_sdk\NMSIS\Core\Include/core_feature_base.h:356
}
80000cd0:	0001                	nop
my_uart_init():
E:\NucleiStudio_Workspace\e203_filter_test\Debug/../application/main.c:81
	__enable_irq();
}
80000cd2:	0001                	nop
80000cd4:	40b2                	lw	ra,12(sp)
80000cd6:	4422                	lw	s0,8(sp)
80000cd8:	4492                	lw	s1,4(sp)
80000cda:	0141                	addi	sp,sp,16
80000cdc:	8082                	ret

80000cde <main>:
main():
E:\NucleiStudio_Workspace\e203_filter_test\Debug/../application/main.c:85
/***************************************************/

int main(void)
{
80000cde:	7135                	addi	sp,sp,-160
80000ce0:	cf06                	sw	ra,156(sp)
80000ce2:	cd22                	sw	s0,152(sp)
80000ce4:	cb4a                	sw	s2,148(sp)
80000ce6:	c94e                	sw	s3,144(sp)
80000ce8:	c752                	sw	s4,140(sp)
80000cea:	c556                	sw	s5,136(sp)
80000cec:	c35a                	sw	s6,132(sp)
80000cee:	c15e                	sw	s7,128(sp)
80000cf0:	dee2                	sw	s8,124(sp)
80000cf2:	dce6                	sw	s9,120(sp)
80000cf4:	daea                	sw	s10,116(sp)
80000cf6:	d8ee                	sw	s11,112(sp)
80000cf8:	1100                	addi	s0,sp,160
E:\NucleiStudio_Workspace\e203_filter_test\Debug/../application/main.c:88
	uint8_t t1,t2,t3,t4,t;
	uint32_t tt1,tt2,tt3,tt4,tt;
	my_uart_init();
80000cfa:	3761                	jal	80000c82 <my_uart_init>
E:\NucleiStudio_Workspace\e203_filter_test\Debug/../application/main.c:93


	//1
	riscv_iir_lattice_instance_f32 filter1;
	filter1.numStages = filter1_stage;	// 
80000cfc:	4789                	li	a5,2
80000cfe:	f8f41623          	sh	a5,-116(s0)
E:\NucleiStudio_Workspace\e203_filter_test\Debug/../application/main.c:94
	filter1.pState = filter1_pState;
80000d02:	93818793          	addi	a5,gp,-1736 # 90000310 <filter1_pState>
80000d06:	f8f42823          	sw	a5,-112(s0)
E:\NucleiStudio_Workspace\e203_filter_test\Debug/../application/main.c:95
	filter1.pkCoeffs = filter1_pkCoeffs;
80000d0a:	0ffff797          	auipc	a5,0xffff
80000d0e:	4d678793          	addi	a5,a5,1238 # 900001e0 <filter1_pkCoeffs>
80000d12:	f8f42a23          	sw	a5,-108(s0)
E:\NucleiStudio_Workspace\e203_filter_test\Debug/../application/main.c:96
	filter1.pvCoeffs = filter1_pvCoeffs;
80000d16:	0ffff797          	auipc	a5,0xffff
80000d1a:	2ea78793          	addi	a5,a5,746 # 90000000 <filter1_pvCoeffs>
80000d1e:	f8f42c23          	sw	a5,-104(s0)
E:\NucleiStudio_Workspace\e203_filter_test\Debug/../application/main.c:99

	while(1){
		if(check_s){
80000d22:	88d18793          	addi	a5,gp,-1907 # 90000265 <check_s>
80000d26:	0007c783          	lbu	a5,0(a5)
80000d2a:	10078763          	beqz	a5,80000e38 <main+0x15a>
E:\NucleiStudio_Workspace\e203_filter_test\Debug/../application/main.c:101
//			printf("check_s = %d\r\n",check_s);
			s_i = s_r_i;
80000d2e:	88e18793          	addi	a5,gp,-1906 # 90000266 <s_r_i>
80000d32:	0007c703          	lbu	a4,0(a5)
80000d36:	88f18793          	addi	a5,gp,-1905 # 90000267 <s_i>
80000d3a:	00e78023          	sb	a4,0(a5)
E:\NucleiStudio_Workspace\e203_filter_test\Debug/../application/main.c:102
			for(int i=f_len;i>0;i--){
80000d3e:	47a9                	li	a5,10
80000d40:	fcf42623          	sw	a5,-52(s0)
80000d44:	a8e9                	j	80000e1e <main+0x140>
E:\NucleiStudio_Workspace\e203_filter_test\Debug/../application/main.c:103 (discriminator 3)
				t1 = temp_s[s_r_i-1];
80000d46:	88e18793          	addi	a5,gp,-1906 # 90000266 <s_r_i>
80000d4a:	0007c783          	lbu	a5,0(a5)
80000d4e:	17fd                	addi	a5,a5,-1
80000d50:	99018713          	addi	a4,gp,-1648 # 90000368 <temp_s>
80000d54:	97ba                	add	a5,a5,a4
80000d56:	0007c783          	lbu	a5,0(a5)
80000d5a:	fcf401a3          	sb	a5,-61(s0)
E:\NucleiStudio_Workspace\e203_filter_test\Debug/../application/main.c:104 (discriminator 3)
				t2 = temp_s[s_r_i-2];
80000d5e:	88e18793          	addi	a5,gp,-1906 # 90000266 <s_r_i>
80000d62:	0007c783          	lbu	a5,0(a5)
80000d66:	17f9                	addi	a5,a5,-2
80000d68:	99018713          	addi	a4,gp,-1648 # 90000368 <temp_s>
80000d6c:	97ba                	add	a5,a5,a4
80000d6e:	0007c783          	lbu	a5,0(a5)
80000d72:	fcf40123          	sb	a5,-62(s0)
E:\NucleiStudio_Workspace\e203_filter_test\Debug/../application/main.c:105 (discriminator 3)
				t3 = temp_s[s_r_i-3];
80000d76:	88e18793          	addi	a5,gp,-1906 # 90000266 <s_r_i>
80000d7a:	0007c783          	lbu	a5,0(a5)
80000d7e:	17f5                	addi	a5,a5,-3
80000d80:	99018713          	addi	a4,gp,-1648 # 90000368 <temp_s>
80000d84:	97ba                	add	a5,a5,a4
80000d86:	0007c783          	lbu	a5,0(a5)
80000d8a:	fcf400a3          	sb	a5,-63(s0)
E:\NucleiStudio_Workspace\e203_filter_test\Debug/../application/main.c:106 (discriminator 3)
				t4 = temp_s[s_r_i-4];
80000d8e:	88e18793          	addi	a5,gp,-1906 # 90000266 <s_r_i>
80000d92:	0007c783          	lbu	a5,0(a5)
80000d96:	17f1                	addi	a5,a5,-4
80000d98:	99018713          	addi	a4,gp,-1648 # 90000368 <temp_s>
80000d9c:	97ba                	add	a5,a5,a4
80000d9e:	0007c783          	lbu	a5,0(a5)
80000da2:	fcf40023          	sb	a5,-64(s0)
E:\NucleiStudio_Workspace\e203_filter_test\Debug/../application/main.c:107 (discriminator 3)
				tt1 = 0x0000ffff & t1;
80000da6:	fc344783          	lbu	a5,-61(s0)
80000daa:	faf42e23          	sw	a5,-68(s0)
E:\NucleiStudio_Workspace\e203_filter_test\Debug/../application/main.c:108 (discriminator 3)
				tt2 = 0x0000ffff & t2;
80000dae:	fc244783          	lbu	a5,-62(s0)
80000db2:	faf42c23          	sw	a5,-72(s0)
E:\NucleiStudio_Workspace\e203_filter_test\Debug/../application/main.c:109 (discriminator 3)
				tt3 = 0x0000ffff & t3;
80000db6:	fc144783          	lbu	a5,-63(s0)
80000dba:	faf42a23          	sw	a5,-76(s0)
E:\NucleiStudio_Workspace\e203_filter_test\Debug/../application/main.c:110 (discriminator 3)
				tt4 = 0x0000ffff & t4;
80000dbe:	fc044783          	lbu	a5,-64(s0)
80000dc2:	faf42823          	sw	a5,-80(s0)
E:\NucleiStudio_Workspace\e203_filter_test\Debug/../application/main.c:111 (discriminator 3)
				tt = (tt4)|(tt3<<8)|(tt2<<16)|(tt1<<24);
80000dc6:	fb442783          	lw	a5,-76(s0)
80000dca:	00879713          	slli	a4,a5,0x8
80000dce:	fb042783          	lw	a5,-80(s0)
80000dd2:	8f5d                	or	a4,a4,a5
80000dd4:	fb842783          	lw	a5,-72(s0)
80000dd8:	07c2                	slli	a5,a5,0x10
80000dda:	8f5d                	or	a4,a4,a5
80000ddc:	fbc42783          	lw	a5,-68(s0)
80000de0:	07e2                	slli	a5,a5,0x18
80000de2:	8fd9                	or	a5,a5,a4
80000de4:	f8f42e23          	sw	a5,-100(s0)
E:\NucleiStudio_Workspace\e203_filter_test\Debug/../application/main.c:113 (discriminator 3)
//				printf("tt = %x\r\n",tt);
				f[i-1] = *(float*)&tt;
80000de8:	f9c40713          	addi	a4,s0,-100
80000dec:	fcc42783          	lw	a5,-52(s0)
80000df0:	17fd                	addi	a5,a5,-1
80000df2:	4318                	lw	a4,0(a4)
80000df4:	a1018693          	addi	a3,gp,-1520 # 900003e8 <f>
80000df8:	078a                	slli	a5,a5,0x2
80000dfa:	97b6                	add	a5,a5,a3
80000dfc:	c398                	sw	a4,0(a5)
E:\NucleiStudio_Workspace\e203_filter_test\Debug/../application/main.c:114 (discriminator 3)
				s_r_i=s_r_i-4;
80000dfe:	88e18793          	addi	a5,gp,-1906 # 90000266 <s_r_i>
80000e02:	0007c783          	lbu	a5,0(a5)
80000e06:	17f1                	addi	a5,a5,-4
80000e08:	0ff7f713          	zext.b	a4,a5
80000e0c:	88e18793          	addi	a5,gp,-1906 # 90000266 <s_r_i>
80000e10:	00e78023          	sb	a4,0(a5)
E:\NucleiStudio_Workspace\e203_filter_test\Debug/../application/main.c:102 (discriminator 3)
			for(int i=f_len;i>0;i--){
80000e14:	fcc42783          	lw	a5,-52(s0)
80000e18:	17fd                	addi	a5,a5,-1
80000e1a:	fcf42623          	sw	a5,-52(s0)
E:\NucleiStudio_Workspace\e203_filter_test\Debug/../application/main.c:102 (discriminator 1)
80000e1e:	fcc42783          	lw	a5,-52(s0)
80000e22:	f2f042e3          	bgtz	a5,80000d46 <main+0x68>
E:\NucleiStudio_Workspace\e203_filter_test\Debug/../application/main.c:116
			}
			uart0_finish = 1;
80000e26:	88c18793          	addi	a5,gp,-1908 # 90000264 <uart0_finish>
80000e2a:	4705                	li	a4,1
80000e2c:	00e78023          	sb	a4,0(a5)
E:\NucleiStudio_Workspace\e203_filter_test\Debug/../application/main.c:117
			check_s = 0;
80000e30:	88d18793          	addi	a5,gp,-1907 # 90000265 <check_s>
80000e34:	00078023          	sb	zero,0(a5)
E:\NucleiStudio_Workspace\e203_filter_test\Debug/../application/main.c:120
		}

		if(uart0_finish){
80000e38:	88c18793          	addi	a5,gp,-1908 # 90000264 <uart0_finish>
80000e3c:	0007c783          	lbu	a5,0(a5)
80000e40:	ee0781e3          	beqz	a5,80000d22 <main+0x44>
E:\NucleiStudio_Workspace\e203_filter_test\Debug/../application/main.c:121
			for(int i=0;i<s_len/4;i++){
80000e44:	fc042423          	sw	zero,-56(s0)
80000e48:	a825                	j	80000e80 <main+0x1a2>
E:\NucleiStudio_Workspace\e203_filter_test\Debug/../application/main.c:122 (discriminator 3)
				printf("f[%d] = %f\r\n",i,f[i]);
80000e4a:	a1018713          	addi	a4,gp,-1520 # 900003e8 <f>
80000e4e:	fc842783          	lw	a5,-56(s0)
80000e52:	078a                	slli	a5,a5,0x2
80000e54:	97ba                	add	a5,a5,a4
80000e56:	439c                	lw	a5,0(a5)
80000e58:	853e                	mv	a0,a5
80000e5a:	682020ef          	jal	ra,800034dc <__extendsfdf2>
80000e5e:	872a                	mv	a4,a0
80000e60:	87ae                	mv	a5,a1
80000e62:	863a                	mv	a2,a4
80000e64:	86be                	mv	a3,a5
80000e66:	fc842583          	lw	a1,-56(s0)
80000e6a:	00006517          	auipc	a0,0x6
80000e6e:	e0650513          	addi	a0,a0,-506 # 80006c70 <__trunctfdf2+0x308>
80000e72:	1b6030ef          	jal	ra,80004028 <iprintf>
E:\NucleiStudio_Workspace\e203_filter_test\Debug/../application/main.c:121 (discriminator 3)
			for(int i=0;i<s_len/4;i++){
80000e76:	fc842783          	lw	a5,-56(s0)
80000e7a:	0785                	addi	a5,a5,1
80000e7c:	fcf42423          	sw	a5,-56(s0)
E:\NucleiStudio_Workspace\e203_filter_test\Debug/../application/main.c:121 (discriminator 1)
80000e80:	fc842703          	lw	a4,-56(s0)
80000e84:	47a5                	li	a5,9
80000e86:	fce7d2e3          	bge	a5,a4,80000e4a <main+0x16c>
__get_rv_cycle():
E:\NucleiStudio_Workspace\e203_filter_test\hbird_sdk\NMSIS\Core\Include/core_feature_base.h:492
    high0 = __RV_CSR_READ(CSR_MCYCLEH);
80000e8a:	b80027f3          	csrr	a5,mcycleh
80000e8e:	80be                	mv	ra,a5
80000e90:	8786                	mv	a5,ra
80000e92:	f8f42423          	sw	a5,-120(s0)
E:\NucleiStudio_Workspace\e203_filter_test\hbird_sdk\NMSIS\Core\Include/core_feature_base.h:493
    low = __RV_CSR_READ(CSR_MCYCLE);
80000e96:	b00027f3          	csrr	a5,mcycle
80000e9a:	80be                	mv	ra,a5
80000e9c:	8786                	mv	a5,ra
80000e9e:	f8f42223          	sw	a5,-124(s0)
E:\NucleiStudio_Workspace\e203_filter_test\hbird_sdk\NMSIS\Core\Include/core_feature_base.h:494
    high = __RV_CSR_READ(CSR_MCYCLEH);
80000ea2:	b80027f3          	csrr	a5,mcycleh
80000ea6:	80be                	mv	ra,a5
80000ea8:	8786                	mv	a5,ra
80000eaa:	f8f42023          	sw	a5,-128(s0)
E:\NucleiStudio_Workspace\e203_filter_test\hbird_sdk\NMSIS\Core\Include/core_feature_base.h:495
    if (high0 != high) {
80000eae:	f8842703          	lw	a4,-120(s0)
80000eb2:	f8042783          	lw	a5,-128(s0)
80000eb6:	00f70863          	beq	a4,a5,80000ec6 <main+0x1e8>
E:\NucleiStudio_Workspace\e203_filter_test\hbird_sdk\NMSIS\Core\Include/core_feature_base.h:496
        low = __RV_CSR_READ(CSR_MCYCLE);
80000eba:	b00027f3          	csrr	a5,mcycle
80000ebe:	80be                	mv	ra,a5
80000ec0:	8786                	mv	a5,ra
80000ec2:	f8f42223          	sw	a5,-124(s0)
E:\NucleiStudio_Workspace\e203_filter_test\hbird_sdk\NMSIS\Core\Include/core_feature_base.h:498
    full = (((uint64_t)high) << 32) | low;
80000ec6:	f8042783          	lw	a5,-128(s0)
80000eca:	f6f42423          	sw	a5,-152(s0)
80000ece:	f6042623          	sw	zero,-148(s0)
80000ed2:	f6842783          	lw	a5,-152(s0)
80000ed6:	00079a93          	slli	s5,a5,0x0
80000eda:	4a01                	li	s4,0
80000edc:	f8442783          	lw	a5,-124(s0)
80000ee0:	8c3e                	mv	s8,a5
80000ee2:	4c81                	li	s9,0
80000ee4:	018a67b3          	or	a5,s4,s8
80000ee8:	faf42023          	sw	a5,-96(s0)
80000eec:	019ae7b3          	or	a5,s5,s9
80000ef0:	faf42223          	sw	a5,-92(s0)
E:\NucleiStudio_Workspace\e203_filter_test\hbird_sdk\NMSIS\Core\Include/core_feature_base.h:499
    return full;
80000ef4:	fa042703          	lw	a4,-96(s0)
80000ef8:	fa442783          	lw	a5,-92(s0)
main():
E:\NucleiStudio_Workspace\e203_filter_test\Debug/../application/main.c:125
			}
			// 
			BENCH_START(riscv_iir_lattice_f32);
80000efc:	87018693          	addi	a3,gp,-1936 # 90000248 <start_cycle>
80000f00:	c298                	sw	a4,0(a3)
80000f02:	c2dc                	sw	a5,4(a3)
80000f04:	88818793          	addi	a5,gp,-1912 # 90000260 <bench_ercd>
80000f08:	0007a023          	sw	zero,0(a5)
E:\NucleiStudio_Workspace\e203_filter_test\Debug/../application/main.c:126
			riscv_iir_lattice_f32(&filter1,f,filter_res,block_size);
80000f0c:	f8c40793          	addi	a5,s0,-116
80000f10:	46a9                	li	a3,10
80000f12:	96818613          	addi	a2,gp,-1688 # 90000340 <filter_res>
80000f16:	a1018593          	addi	a1,gp,-1520 # 900003e8 <f>
80000f1a:	853e                	mv	a0,a5
80000f1c:	2ab5                	jal	80001098 <riscv_iir_lattice_f32>
__get_rv_cycle():
E:\NucleiStudio_Workspace\e203_filter_test\hbird_sdk\NMSIS\Core\Include/core_feature_base.h:492
    high0 = __RV_CSR_READ(CSR_MCYCLEH);
80000f1e:	b80027f3          	csrr	a5,mcycleh
80000f22:	80be                	mv	ra,a5
80000f24:	8786                	mv	a5,ra
80000f26:	f6f42e23          	sw	a5,-132(s0)
E:\NucleiStudio_Workspace\e203_filter_test\hbird_sdk\NMSIS\Core\Include/core_feature_base.h:493
    low = __RV_CSR_READ(CSR_MCYCLE);
80000f2a:	b00027f3          	csrr	a5,mcycle
80000f2e:	80be                	mv	ra,a5
80000f30:	8786                	mv	a5,ra
80000f32:	f6f42c23          	sw	a5,-136(s0)
E:\NucleiStudio_Workspace\e203_filter_test\hbird_sdk\NMSIS\Core\Include/core_feature_base.h:494
    high = __RV_CSR_READ(CSR_MCYCLEH);
80000f36:	b80027f3          	csrr	a5,mcycleh
80000f3a:	80be                	mv	ra,a5
80000f3c:	8786                	mv	a5,ra
80000f3e:	f6f42a23          	sw	a5,-140(s0)
E:\NucleiStudio_Workspace\e203_filter_test\hbird_sdk\NMSIS\Core\Include/core_feature_base.h:495
    if (high0 != high) {
80000f42:	f7c42703          	lw	a4,-132(s0)
80000f46:	f7442783          	lw	a5,-140(s0)
80000f4a:	00f70863          	beq	a4,a5,80000f5a <main+0x27c>
E:\NucleiStudio_Workspace\e203_filter_test\hbird_sdk\NMSIS\Core\Include/core_feature_base.h:496
        low = __RV_CSR_READ(CSR_MCYCLE);
80000f4e:	b00027f3          	csrr	a5,mcycle
80000f52:	80be                	mv	ra,a5
80000f54:	8786                	mv	a5,ra
80000f56:	f6f42c23          	sw	a5,-136(s0)
E:\NucleiStudio_Workspace\e203_filter_test\hbird_sdk\NMSIS\Core\Include/core_feature_base.h:498
    full = (((uint64_t)high) << 32) | low;
80000f5a:	f7442783          	lw	a5,-140(s0)
80000f5e:	8d3e                	mv	s10,a5
80000f60:	4d81                	li	s11,0
80000f62:	000d1993          	slli	s3,s10,0x0
80000f66:	4901                	li	s2,0
80000f68:	f7842783          	lw	a5,-136(s0)
80000f6c:	8b3e                	mv	s6,a5
80000f6e:	4b81                	li	s7,0
80000f70:	016967b3          	or	a5,s2,s6
80000f74:	faf42423          	sw	a5,-88(s0)
80000f78:	0179e7b3          	or	a5,s3,s7
80000f7c:	faf42623          	sw	a5,-84(s0)
E:\NucleiStudio_Workspace\e203_filter_test\hbird_sdk\NMSIS\Core\Include/core_feature_base.h:499
    return full;
80000f80:	fa842703          	lw	a4,-88(s0)
80000f84:	fac42783          	lw	a5,-84(s0)
main():
E:\NucleiStudio_Workspace\e203_filter_test\Debug/../application/main.c:127
			BENCH_END(riscv_iir_lattice_f32);
80000f88:	87818693          	addi	a3,gp,-1928 # 90000250 <end_cycle>
80000f8c:	c298                	sw	a4,0(a3)
80000f8e:	c2dc                	sw	a5,4(a3)
80000f90:	87818793          	addi	a5,gp,-1928 # 90000250 <end_cycle>
80000f94:	4398                	lw	a4,0(a5)
80000f96:	43dc                	lw	a5,4(a5)
80000f98:	87018693          	addi	a3,gp,-1936 # 90000248 <start_cycle>
80000f9c:	4288                	lw	a0,0(a3)
80000f9e:	42cc                	lw	a1,4(a3)
80000fa0:	40a70633          	sub	a2,a4,a0
80000fa4:	8832                	mv	a6,a2
80000fa6:	01073833          	sltu	a6,a4,a6
80000faa:	40b786b3          	sub	a3,a5,a1
80000fae:	410687b3          	sub	a5,a3,a6
80000fb2:	86be                	mv	a3,a5
80000fb4:	8732                	mv	a4,a2
80000fb6:	87b6                	mv	a5,a3
80000fb8:	88018693          	addi	a3,gp,-1920 # 90000258 <cycle>
80000fbc:	c298                	sw	a4,0(a3)
80000fbe:	c2dc                	sw	a5,4(a3)
80000fc0:	88018793          	addi	a5,gp,-1920 # 90000258 <cycle>
80000fc4:	4398                	lw	a4,0(a5)
80000fc6:	43dc                	lw	a5,4(a5)
80000fc8:	863a                	mv	a2,a4
80000fca:	86be                	mv	a3,a5
80000fcc:	00006597          	auipc	a1,0x6
80000fd0:	cb458593          	addi	a1,a1,-844 # 80006c80 <__trunctfdf2+0x318>
80000fd4:	00006517          	auipc	a0,0x6
80000fd8:	cc450513          	addi	a0,a0,-828 # 80006c98 <__trunctfdf2+0x330>
80000fdc:	04c030ef          	jal	ra,80004028 <iprintf>
E:\NucleiStudio_Workspace\e203_filter_test\Debug/../application/main.c:128
			for(int i=0;i<s_len/4;i++){
80000fe0:	fc042223          	sw	zero,-60(s0)
80000fe4:	a825                	j	8000101c <main+0x33e>
E:\NucleiStudio_Workspace\e203_filter_test\Debug/../application/main.c:130 (discriminator 3)
//				printf("%f\r\n",filter_res[i]);
				printf("filter_res[%d] = %f\r\n",i,filter_res[i]);
80000fe6:	96818713          	addi	a4,gp,-1688 # 90000340 <filter_res>
80000fea:	fc442783          	lw	a5,-60(s0)
80000fee:	078a                	slli	a5,a5,0x2
80000ff0:	97ba                	add	a5,a5,a4
80000ff2:	439c                	lw	a5,0(a5)
80000ff4:	853e                	mv	a0,a5
80000ff6:	4e6020ef          	jal	ra,800034dc <__extendsfdf2>
80000ffa:	872a                	mv	a4,a0
80000ffc:	87ae                	mv	a5,a1
80000ffe:	863a                	mv	a2,a4
80001000:	86be                	mv	a3,a5
80001002:	fc442583          	lw	a1,-60(s0)
80001006:	00006517          	auipc	a0,0x6
8000100a:	ca250513          	addi	a0,a0,-862 # 80006ca8 <__trunctfdf2+0x340>
8000100e:	01a030ef          	jal	ra,80004028 <iprintf>
E:\NucleiStudio_Workspace\e203_filter_test\Debug/../application/main.c:128 (discriminator 3)
			for(int i=0;i<s_len/4;i++){
80001012:	fc442783          	lw	a5,-60(s0)
80001016:	0785                	addi	a5,a5,1
80001018:	fcf42223          	sw	a5,-60(s0)
E:\NucleiStudio_Workspace\e203_filter_test\Debug/../application/main.c:128 (discriminator 1)
8000101c:	fc442703          	lw	a4,-60(s0)
80001020:	47a5                	li	a5,9
80001022:	fce7d2e3          	bge	a5,a4,80000fe6 <main+0x308>
E:\NucleiStudio_Workspace\e203_filter_test\Debug/../application/main.c:132
			}
			uart0_finish = 0;
80001026:	88c18793          	addi	a5,gp,-1908 # 90000264 <uart0_finish>
8000102a:	00078023          	sb	zero,0(a5)
E:\NucleiStudio_Workspace\e203_filter_test\Debug/../application/main.c:99
		if(check_s){
8000102e:	b9d5                	j	80000d22 <main+0x44>

80001030 <plic_uart0_handler>:
plic_uart0_handler():
E:\NucleiStudio_Workspace\e203_filter_test\Debug/../application/main.c:142

// 
// 
// 
void plic_uart0_handler()
{
80001030:	1101                	addi	sp,sp,-32
80001032:	ce06                	sw	ra,28(sp)
80001034:	cc22                	sw	s0,24(sp)
80001036:	1000                	addi	s0,sp,32
E:\NucleiStudio_Workspace\e203_filter_test\Debug/../application/main.c:146
	uint8_t c;
	static uint8_t count = 0;

	c = uart_read(UART0);
80001038:	10013537          	lui	a0,0x10013
8000103c:	c8cff0ef          	jal	ra,800004c8 <uart_read>
80001040:	87aa                	mv	a5,a0
80001042:	fef407a3          	sb	a5,-17(s0)
E:\NucleiStudio_Workspace\e203_filter_test\Debug/../application/main.c:149
//	printf("c = %d \r\n",c);

	temp_s[s_r_i] = c;
80001046:	88e18793          	addi	a5,gp,-1906 # 90000266 <s_r_i>
8000104a:	0007c783          	lbu	a5,0(a5)
8000104e:	873e                	mv	a4,a5
80001050:	99018793          	addi	a5,gp,-1648 # 90000368 <temp_s>
80001054:	97ba                	add	a5,a5,a4
80001056:	fef44703          	lbu	a4,-17(s0)
8000105a:	00e78023          	sb	a4,0(a5)
E:\NucleiStudio_Workspace\e203_filter_test\Debug/../application/main.c:151
//	printf("temp_s[%d] = %d\r\n",s_r_i,temp_s[s_r_i]);
	s_r_i++;
8000105e:	88e18793          	addi	a5,gp,-1906 # 90000266 <s_r_i>
80001062:	0007c783          	lbu	a5,0(a5)
80001066:	0785                	addi	a5,a5,1
80001068:	0ff7f713          	zext.b	a4,a5
8000106c:	88e18793          	addi	a5,gp,-1906 # 90000266 <s_r_i>
80001070:	00e78023          	sb	a4,0(a5)
E:\NucleiStudio_Workspace\e203_filter_test\Debug/../application/main.c:155
//	printf("s_r_i = %d \r\n",s_r_i);

	//s_lenuint8f
	if(s_r_i == s_len)
80001074:	88e18793          	addi	a5,gp,-1906 # 90000266 <s_r_i>
80001078:	0007c703          	lbu	a4,0(a5)
8000107c:	02800793          	li	a5,40
80001080:	00f71763          	bne	a4,a5,8000108e <plic_uart0_handler+0x5e>
E:\NucleiStudio_Workspace\e203_filter_test\Debug/../application/main.c:156
		check_s = 1;
80001084:	88d18793          	addi	a5,gp,-1907 # 90000265 <check_s>
80001088:	4705                	li	a4,1
8000108a:	00e78023          	sb	a4,0(a5)
E:\NucleiStudio_Workspace\e203_filter_test\Debug/../application/main.c:157
}
8000108e:	0001                	nop
80001090:	40f2                	lw	ra,28(sp)
80001092:	4462                	lw	s0,24(sp)
80001094:	6105                	addi	sp,sp,32
80001096:	8082                	ret

80001098 <riscv_iir_lattice_f32>:
riscv_iir_lattice_f32():
80001098:	711d                	addi	sp,sp,-96
8000109a:	c8ca                	sw	s2,80(sp)
8000109c:	c0da                	sw	s6,64(sp)
8000109e:	ce86                	sw	ra,92(sp)
800010a0:	cca2                	sw	s0,88(sp)
800010a2:	caa6                	sw	s1,84(sp)
800010a4:	c6ce                	sw	s3,76(sp)
800010a6:	c4d2                	sw	s4,72(sp)
800010a8:	c2d6                	sw	s5,68(sp)
800010aa:	de5e                	sw	s7,60(sp)
800010ac:	dc62                	sw	s8,56(sp)
800010ae:	da66                	sw	s9,52(sp)
800010b0:	d86a                	sw	s10,48(sp)
800010b2:	d66e                	sw	s11,44(sp)
800010b4:	ce36                	sw	a3,28(sp)
800010b6:	c22e                	sw	a1,4(sp)
800010b8:	00452b03          	lw	s6,4(a0) # 10013004 <__stack_size+0x10012804>
800010bc:	00055903          	lhu	s2,0(a0)
800010c0:	c6cd                	beqz	a3,8000116a <riscv_iir_lattice_f32+0xd2>
800010c2:	87b6                	mv	a5,a3
800010c4:	4514                	lw	a3,8(a0)
800010c6:	4558                	lw	a4,12(a0)
800010c8:	8ab2                	mv	s5,a2
800010ca:	cc36                	sw	a3,24(sp)
800010cc:	00291693          	slli	a3,s2,0x2
800010d0:	c63a                	sw	a4,12(sp)
800010d2:	9736                	add	a4,a4,a3
800010d4:	c836                	sw	a3,16(sp)
800010d6:	ca3a                	sw	a4,20(sp)
800010d8:	c43e                	sw	a5,8(sp)
800010da:	89da                	mv	s3,s6
800010dc:	4792                	lw	a5,4(sp)
800010de:	0791                	addi	a5,a5,4
800010e0:	c23e                	sw	a5,4(sp)
800010e2:	ffc7ad03          	lw	s10,-4(a5)
800010e6:	0a090e63          	beqz	s2,800011a2 <riscv_iir_lattice_f32+0x10a>
800010ea:	4432                	lw	s0,12(sp)
800010ec:	4c62                	lw	s8,24(sp)
800010ee:	84ca                	mv	s1,s2
800010f0:	8cce                	mv	s9,s3
800010f2:	00000d93          	li	s11,0
800010f6:	000cab83          	lw	s7,0(s9)
800010fa:	000c2a03          	lw	s4,0(s8)
800010fe:	0411                	addi	s0,s0,4
80001100:	85de                	mv	a1,s7
80001102:	8552                	mv	a0,s4
80001104:	687010ef          	jal	ra,80002f8a <__mulsf3>
80001108:	85aa                	mv	a1,a0
8000110a:	856a                	mv	a0,s10
8000110c:	09e020ef          	jal	ra,800031aa <__subsf3>
80001110:	85aa                	mv	a1,a0
80001112:	8d2a                	mv	s10,a0
80001114:	8552                	mv	a0,s4
80001116:	675010ef          	jal	ra,80002f8a <__mulsf3>
8000111a:	85de                	mv	a1,s7
8000111c:	34b010ef          	jal	ra,80002c66 <__addsf3>
80001120:	ffc42583          	lw	a1,-4(s0)
80001124:	8baa                	mv	s7,a0
80001126:	14fd                	addi	s1,s1,-1
80001128:	663010ef          	jal	ra,80002f8a <__mulsf3>
8000112c:	85aa                	mv	a1,a0
8000112e:	856e                	mv	a0,s11
80001130:	337010ef          	jal	ra,80002c66 <__addsf3>
80001134:	017ca023          	sw	s7,0(s9)
80001138:	0c11                	addi	s8,s8,4
8000113a:	0c91                	addi	s9,s9,4
8000113c:	8daa                	mv	s11,a0
8000113e:	fcc5                	bnez	s1,800010f6 <riscv_iir_lattice_f32+0x5e>
80001140:	47c2                	lw	a5,16(sp)
80001142:	46d2                	lw	a3,20(sp)
80001144:	00f98433          	add	s0,s3,a5
80001148:	428c                	lw	a1,0(a3)
8000114a:	856a                	mv	a0,s10
8000114c:	0a91                	addi	s5,s5,4
8000114e:	63d010ef          	jal	ra,80002f8a <__mulsf3>
80001152:	85ee                	mv	a1,s11
80001154:	313010ef          	jal	ra,80002c66 <__addsf3>
80001158:	47a2                	lw	a5,8(sp)
8000115a:	01a42023          	sw	s10,0(s0)
8000115e:	feaaae23          	sw	a0,-4(s5)
80001162:	17fd                	addi	a5,a5,-1
80001164:	c43e                	sw	a5,8(sp)
80001166:	0991                	addi	s3,s3,4
80001168:	fbb5                	bnez	a5,800010dc <riscv_iir_lattice_f32+0x44>
8000116a:	47f2                	lw	a5,28(sp)
8000116c:	078a                	slli	a5,a5,0x2
8000116e:	97da                	add	a5,a5,s6
80001170:	00090a63          	beqz	s2,80001184 <riscv_iir_lattice_f32+0xec>
80001174:	4398                	lw	a4,0(a5)
80001176:	197d                	addi	s2,s2,-1
80001178:	0791                	addi	a5,a5,4
8000117a:	00eb2023          	sw	a4,0(s6)
8000117e:	0b11                	addi	s6,s6,4
80001180:	fe091ae3          	bnez	s2,80001174 <riscv_iir_lattice_f32+0xdc>
80001184:	40f6                	lw	ra,92(sp)
80001186:	4466                	lw	s0,88(sp)
80001188:	44d6                	lw	s1,84(sp)
8000118a:	4946                	lw	s2,80(sp)
8000118c:	49b6                	lw	s3,76(sp)
8000118e:	4a26                	lw	s4,72(sp)
80001190:	4a96                	lw	s5,68(sp)
80001192:	4b06                	lw	s6,64(sp)
80001194:	5bf2                	lw	s7,60(sp)
80001196:	5c62                	lw	s8,56(sp)
80001198:	5cd2                	lw	s9,52(sp)
8000119a:	5d42                	lw	s10,48(sp)
8000119c:	5db2                	lw	s11,44(sp)
8000119e:	6125                	addi	sp,sp,96
800011a0:	8082                	ret
800011a2:	46b2                	lw	a3,12(sp)
800011a4:	844e                	mv	s0,s3
800011a6:	00000d93          	li	s11,0
800011aa:	bf79                	j	80001148 <riscv_iir_lattice_f32+0xb0>

800011ac <__udivdi3>:
__udivdi3():
/Local/xl_ci/toolchain/riscv-gnu-toolchain/riscv-gcc/libgcc/libgcc2.c:1319
800011ac:	88aa                	mv	a7,a0
800011ae:	87ae                	mv	a5,a1
__udivmoddi4():
/Local/xl_ci/toolchain/riscv-gnu-toolchain/riscv-gcc/libgcc/libgcc2.c:1024
800011b0:	8832                	mv	a6,a2
/Local/xl_ci/toolchain/riscv-gnu-toolchain/riscv-gcc/libgcc/libgcc2.c:1025
800011b2:	8536                	mv	a0,a3
/Local/xl_ci/toolchain/riscv-gnu-toolchain/riscv-gcc/libgcc/libgcc2.c:1026
800011b4:	8346                	mv	t1,a7
/Local/xl_ci/toolchain/riscv-gnu-toolchain/riscv-gcc/libgcc/libgcc2.c:1064
800011b6:	20069663          	bnez	a3,800013c2 <__udivdi3+0x216>
/Local/xl_ci/toolchain/riscv-gnu-toolchain/riscv-gcc/libgcc/libgcc2.c:1066
800011ba:	00006697          	auipc	a3,0x6
800011be:	bba68693          	addi	a3,a3,-1094 # 80006d74 <__clz_tab>
800011c2:	0ac5ff63          	bgeu	a1,a2,80001280 <__udivdi3+0xd4>
/Local/xl_ci/toolchain/riscv-gnu-toolchain/riscv-gcc/libgcc/libgcc2.c:1070
800011c6:	6741                	lui	a4,0x10
800011c8:	0ae67563          	bgeu	a2,a4,80001272 <__udivdi3+0xc6>
800011cc:	0ff00713          	li	a4,255
800011d0:	00c73733          	sltu	a4,a4,a2
800011d4:	070e                	slli	a4,a4,0x3
800011d6:	00e65533          	srl	a0,a2,a4
800011da:	96aa                	add	a3,a3,a0
800011dc:	0006c683          	lbu	a3,0(a3)
800011e0:	02000513          	li	a0,32
800011e4:	9736                	add	a4,a4,a3
800011e6:	40e506b3          	sub	a3,a0,a4
/Local/xl_ci/toolchain/riscv-gnu-toolchain/riscv-gcc/libgcc/libgcc2.c:1072
800011ea:	00e50b63          	beq	a0,a4,80001200 <__udivdi3+0x54>
/Local/xl_ci/toolchain/riscv-gnu-toolchain/riscv-gcc/libgcc/libgcc2.c:1078
800011ee:	00d795b3          	sll	a1,a5,a3
800011f2:	00e8d733          	srl	a4,a7,a4
/Local/xl_ci/toolchain/riscv-gnu-toolchain/riscv-gcc/libgcc/libgcc2.c:1077
800011f6:	00d61833          	sll	a6,a2,a3
/Local/xl_ci/toolchain/riscv-gnu-toolchain/riscv-gcc/libgcc/libgcc2.c:1078
800011fa:	8dd9                	or	a1,a1,a4
/Local/xl_ci/toolchain/riscv-gnu-toolchain/riscv-gcc/libgcc/libgcc2.c:1079
800011fc:	00d89333          	sll	t1,a7,a3
/Local/xl_ci/toolchain/riscv-gnu-toolchain/riscv-gcc/libgcc/libgcc2.c:1082
80001200:	01085893          	srli	a7,a6,0x10
80001204:	0315d6b3          	divu	a3,a1,a7
80001208:	01081613          	slli	a2,a6,0x10
8000120c:	8241                	srli	a2,a2,0x10
8000120e:	01035793          	srli	a5,t1,0x10
80001212:	0315f733          	remu	a4,a1,a7
80001216:	8536                	mv	a0,a3
80001218:	02d605b3          	mul	a1,a2,a3
8000121c:	0742                	slli	a4,a4,0x10
8000121e:	8fd9                	or	a5,a5,a4
80001220:	00b7fc63          	bgeu	a5,a1,80001238 <__udivdi3+0x8c>
80001224:	97c2                	add	a5,a5,a6
80001226:	fff68513          	addi	a0,a3,-1
8000122a:	0107e763          	bltu	a5,a6,80001238 <__udivdi3+0x8c>
8000122e:	00b7f563          	bgeu	a5,a1,80001238 <__udivdi3+0x8c>
80001232:	ffe68513          	addi	a0,a3,-2
80001236:	97c2                	add	a5,a5,a6
80001238:	8f8d                	sub	a5,a5,a1
8000123a:	0317f733          	remu	a4,a5,a7
8000123e:	0342                	slli	t1,t1,0x10
80001240:	01035313          	srli	t1,t1,0x10
80001244:	0317d7b3          	divu	a5,a5,a7
80001248:	0742                	slli	a4,a4,0x10
8000124a:	00676333          	or	t1,a4,t1
8000124e:	02f606b3          	mul	a3,a2,a5
80001252:	863e                	mv	a2,a5
80001254:	00d37b63          	bgeu	t1,a3,8000126a <__udivdi3+0xbe>
80001258:	9342                	add	t1,t1,a6
8000125a:	fff78613          	addi	a2,a5,-1
8000125e:	01036663          	bltu	t1,a6,8000126a <__udivdi3+0xbe>
80001262:	00d37463          	bgeu	t1,a3,8000126a <__udivdi3+0xbe>
80001266:	ffe78613          	addi	a2,a5,-2
8000126a:	0542                	slli	a0,a0,0x10
8000126c:	8d51                	or	a0,a0,a2
/Local/xl_ci/toolchain/riscv-gnu-toolchain/riscv-gcc/libgcc/libgcc2.c:1209
8000126e:	4581                	li	a1,0
80001270:	a85d                	j	80001326 <__udivdi3+0x17a>
/Local/xl_ci/toolchain/riscv-gnu-toolchain/riscv-gcc/libgcc/libgcc2.c:1070
80001272:	01000537          	lui	a0,0x1000
80001276:	4741                	li	a4,16
80001278:	f4a66fe3          	bltu	a2,a0,800011d6 <__udivdi3+0x2a>
8000127c:	4761                	li	a4,24
8000127e:	bfa1                	j	800011d6 <__udivdi3+0x2a>
/Local/xl_ci/toolchain/riscv-gnu-toolchain/riscv-gcc/libgcc/libgcc2.c:1091
80001280:	e601                	bnez	a2,80001288 <__udivdi3+0xdc>
/Local/xl_ci/toolchain/riscv-gnu-toolchain/riscv-gcc/libgcc/libgcc2.c:1092
80001282:	4705                	li	a4,1
80001284:	02c75833          	divu	a6,a4,a2
/Local/xl_ci/toolchain/riscv-gnu-toolchain/riscv-gcc/libgcc/libgcc2.c:1094
80001288:	6741                	lui	a4,0x10
8000128a:	08e87f63          	bgeu	a6,a4,80001328 <__udivdi3+0x17c>
8000128e:	0ff00713          	li	a4,255
80001292:	01077363          	bgeu	a4,a6,80001298 <__udivdi3+0xec>
80001296:	4521                	li	a0,8
80001298:	00a85733          	srl	a4,a6,a0
8000129c:	96ba                	add	a3,a3,a4
8000129e:	0006c703          	lbu	a4,0(a3)
800012a2:	02000613          	li	a2,32
800012a6:	972a                	add	a4,a4,a0
800012a8:	40e606b3          	sub	a3,a2,a4
/Local/xl_ci/toolchain/riscv-gnu-toolchain/riscv-gcc/libgcc/libgcc2.c:1096
800012ac:	08e61563          	bne	a2,a4,80001336 <__udivdi3+0x18a>
/Local/xl_ci/toolchain/riscv-gnu-toolchain/riscv-gcc/libgcc/libgcc2.c:1105
800012b0:	410787b3          	sub	a5,a5,a6
/Local/xl_ci/toolchain/riscv-gnu-toolchain/riscv-gcc/libgcc/libgcc2.c:1106
800012b4:	4585                	li	a1,1
/Local/xl_ci/toolchain/riscv-gnu-toolchain/riscv-gcc/libgcc/libgcc2.c:1124
800012b6:	01085893          	srli	a7,a6,0x10
800012ba:	01081613          	slli	a2,a6,0x10
800012be:	8241                	srli	a2,a2,0x10
800012c0:	01035713          	srli	a4,t1,0x10
800012c4:	0317f6b3          	remu	a3,a5,a7
800012c8:	0317d7b3          	divu	a5,a5,a7
800012cc:	06c2                	slli	a3,a3,0x10
800012ce:	8f55                	or	a4,a4,a3
800012d0:	02f60e33          	mul	t3,a2,a5
800012d4:	853e                	mv	a0,a5
800012d6:	01c77c63          	bgeu	a4,t3,800012ee <__udivdi3+0x142>
800012da:	9742                	add	a4,a4,a6
800012dc:	fff78513          	addi	a0,a5,-1
800012e0:	01076763          	bltu	a4,a6,800012ee <__udivdi3+0x142>
800012e4:	01c77563          	bgeu	a4,t3,800012ee <__udivdi3+0x142>
800012e8:	ffe78513          	addi	a0,a5,-2
800012ec:	9742                	add	a4,a4,a6
800012ee:	41c70733          	sub	a4,a4,t3
800012f2:	031777b3          	remu	a5,a4,a7
800012f6:	0342                	slli	t1,t1,0x10
800012f8:	01035313          	srli	t1,t1,0x10
800012fc:	03175733          	divu	a4,a4,a7
80001300:	07c2                	slli	a5,a5,0x10
80001302:	0067e333          	or	t1,a5,t1
80001306:	02e606b3          	mul	a3,a2,a4
8000130a:	863a                	mv	a2,a4
8000130c:	00d37b63          	bgeu	t1,a3,80001322 <__udivdi3+0x176>
80001310:	9342                	add	t1,t1,a6
80001312:	fff70613          	addi	a2,a4,-1 # ffff <__stack_size+0xf7ff>
80001316:	01036663          	bltu	t1,a6,80001322 <__udivdi3+0x176>
8000131a:	00d37463          	bgeu	t1,a3,80001322 <__udivdi3+0x176>
8000131e:	ffe70613          	addi	a2,a4,-2
80001322:	0542                	slli	a0,a0,0x10
80001324:	8d51                	or	a0,a0,a2
__udivdi3():
/Local/xl_ci/toolchain/riscv-gnu-toolchain/riscv-gcc/libgcc/libgcc2.c:1321
80001326:	8082                	ret
__udivmoddi4():
/Local/xl_ci/toolchain/riscv-gnu-toolchain/riscv-gcc/libgcc/libgcc2.c:1094
80001328:	01000737          	lui	a4,0x1000
8000132c:	4541                	li	a0,16
8000132e:	f6e865e3          	bltu	a6,a4,80001298 <__udivdi3+0xec>
80001332:	4561                	li	a0,24
80001334:	b795                	j	80001298 <__udivdi3+0xec>
/Local/xl_ci/toolchain/riscv-gnu-toolchain/riscv-gcc/libgcc/libgcc2.c:1114
80001336:	00d81833          	sll	a6,a6,a3
/Local/xl_ci/toolchain/riscv-gnu-toolchain/riscv-gcc/libgcc/libgcc2.c:1115
8000133a:	00e7d533          	srl	a0,a5,a4
/Local/xl_ci/toolchain/riscv-gnu-toolchain/riscv-gcc/libgcc/libgcc2.c:1117
8000133e:	00d89333          	sll	t1,a7,a3
/Local/xl_ci/toolchain/riscv-gnu-toolchain/riscv-gcc/libgcc/libgcc2.c:1116
80001342:	00d797b3          	sll	a5,a5,a3
80001346:	00e8d733          	srl	a4,a7,a4
/Local/xl_ci/toolchain/riscv-gnu-toolchain/riscv-gcc/libgcc/libgcc2.c:1119
8000134a:	01085893          	srli	a7,a6,0x10
/Local/xl_ci/toolchain/riscv-gnu-toolchain/riscv-gcc/libgcc/libgcc2.c:1116
8000134e:	00f76633          	or	a2,a4,a5
/Local/xl_ci/toolchain/riscv-gnu-toolchain/riscv-gcc/libgcc/libgcc2.c:1119
80001352:	03157733          	remu	a4,a0,a7
80001356:	01081793          	slli	a5,a6,0x10
8000135a:	83c1                	srli	a5,a5,0x10
8000135c:	01065593          	srli	a1,a2,0x10
80001360:	03155533          	divu	a0,a0,a7
80001364:	0742                	slli	a4,a4,0x10
80001366:	8f4d                	or	a4,a4,a1
80001368:	02a786b3          	mul	a3,a5,a0
8000136c:	85aa                	mv	a1,a0
8000136e:	00d77c63          	bgeu	a4,a3,80001386 <__udivdi3+0x1da>
80001372:	9742                	add	a4,a4,a6
80001374:	fff50593          	addi	a1,a0,-1 # ffffff <__stack_size+0xfff7ff>
80001378:	01076763          	bltu	a4,a6,80001386 <__udivdi3+0x1da>
8000137c:	00d77563          	bgeu	a4,a3,80001386 <__udivdi3+0x1da>
80001380:	ffe50593          	addi	a1,a0,-2
80001384:	9742                	add	a4,a4,a6
80001386:	40d706b3          	sub	a3,a4,a3
8000138a:	0316f733          	remu	a4,a3,a7
8000138e:	0642                	slli	a2,a2,0x10
80001390:	8241                	srli	a2,a2,0x10
80001392:	0316d6b3          	divu	a3,a3,a7
80001396:	0742                	slli	a4,a4,0x10
80001398:	02d78533          	mul	a0,a5,a3
8000139c:	00c767b3          	or	a5,a4,a2
800013a0:	8736                	mv	a4,a3
800013a2:	00a7fc63          	bgeu	a5,a0,800013ba <__udivdi3+0x20e>
800013a6:	97c2                	add	a5,a5,a6
800013a8:	fff68713          	addi	a4,a3,-1
800013ac:	0107e763          	bltu	a5,a6,800013ba <__udivdi3+0x20e>
800013b0:	00a7f563          	bgeu	a5,a0,800013ba <__udivdi3+0x20e>
800013b4:	ffe68713          	addi	a4,a3,-2
800013b8:	97c2                	add	a5,a5,a6
800013ba:	05c2                	slli	a1,a1,0x10
800013bc:	8f89                	sub	a5,a5,a0
800013be:	8dd9                	or	a1,a1,a4
800013c0:	bddd                	j	800012b6 <__udivdi3+0x10a>
/Local/xl_ci/toolchain/riscv-gnu-toolchain/riscv-gcc/libgcc/libgcc2.c:1140
800013c2:	14d5e263          	bltu	a1,a3,80001506 <__udivdi3+0x35a>
/Local/xl_ci/toolchain/riscv-gnu-toolchain/riscv-gcc/libgcc/libgcc2.c:1159
800013c6:	6741                	lui	a4,0x10
800013c8:	02e6ff63          	bgeu	a3,a4,80001406 <__udivdi3+0x25a>
800013cc:	0ff00713          	li	a4,255
800013d0:	00d735b3          	sltu	a1,a4,a3
800013d4:	058e                	slli	a1,a1,0x3
800013d6:	00b6d533          	srl	a0,a3,a1
800013da:	00006717          	auipc	a4,0x6
800013de:	99a70713          	addi	a4,a4,-1638 # 80006d74 <__clz_tab>
800013e2:	972a                	add	a4,a4,a0
800013e4:	00074703          	lbu	a4,0(a4)
800013e8:	02000513          	li	a0,32
800013ec:	972e                	add	a4,a4,a1
800013ee:	40e505b3          	sub	a1,a0,a4
/Local/xl_ci/toolchain/riscv-gnu-toolchain/riscv-gcc/libgcc/libgcc2.c:1160
800013f2:	02e51163          	bne	a0,a4,80001414 <__udivdi3+0x268>
/Local/xl_ci/toolchain/riscv-gnu-toolchain/riscv-gcc/libgcc/libgcc2.c:1172
800013f6:	4505                	li	a0,1
/Local/xl_ci/toolchain/riscv-gnu-toolchain/riscv-gcc/libgcc/libgcc2.c:1170
800013f8:	f2f6e7e3          	bltu	a3,a5,80001326 <__udivdi3+0x17a>
800013fc:	00c8b533          	sltu	a0,a7,a2
80001400:	00154513          	xori	a0,a0,1
80001404:	b70d                	j	80001326 <__udivdi3+0x17a>
/Local/xl_ci/toolchain/riscv-gnu-toolchain/riscv-gcc/libgcc/libgcc2.c:1159
80001406:	01000737          	lui	a4,0x1000
8000140a:	45c1                	li	a1,16
8000140c:	fce6e5e3          	bltu	a3,a4,800013d6 <__udivdi3+0x22a>
80001410:	45e1                	li	a1,24
80001412:	b7d1                	j	800013d6 <__udivdi3+0x22a>
/Local/xl_ci/toolchain/riscv-gnu-toolchain/riscv-gcc/libgcc/libgcc2.c:1194
80001414:	00e65833          	srl	a6,a2,a4
80001418:	00b696b3          	sll	a3,a3,a1
8000141c:	00d86833          	or	a6,a6,a3
/Local/xl_ci/toolchain/riscv-gnu-toolchain/riscv-gcc/libgcc/libgcc2.c:1196
80001420:	00e7d333          	srl	t1,a5,a4
/Local/xl_ci/toolchain/riscv-gnu-toolchain/riscv-gcc/libgcc/libgcc2.c:1200
80001424:	01085e93          	srli	t4,a6,0x10
80001428:	03d376b3          	remu	a3,t1,t4
/Local/xl_ci/toolchain/riscv-gnu-toolchain/riscv-gcc/libgcc/libgcc2.c:1197
8000142c:	00b797b3          	sll	a5,a5,a1
80001430:	00e8d733          	srl	a4,a7,a4
/Local/xl_ci/toolchain/riscv-gnu-toolchain/riscv-gcc/libgcc/libgcc2.c:1195
80001434:	00b61e33          	sll	t3,a2,a1
/Local/xl_ci/toolchain/riscv-gnu-toolchain/riscv-gcc/libgcc/libgcc2.c:1197
80001438:	00f76633          	or	a2,a4,a5
/Local/xl_ci/toolchain/riscv-gnu-toolchain/riscv-gcc/libgcc/libgcc2.c:1200
8000143c:	01081793          	slli	a5,a6,0x10
80001440:	83c1                	srli	a5,a5,0x10
80001442:	01065713          	srli	a4,a2,0x10
80001446:	03d35333          	divu	t1,t1,t4
8000144a:	06c2                	slli	a3,a3,0x10
8000144c:	8f55                	or	a4,a4,a3
8000144e:	02678f33          	mul	t5,a5,t1
80001452:	851a                	mv	a0,t1
80001454:	01e77c63          	bgeu	a4,t5,8000146c <__udivdi3+0x2c0>
80001458:	9742                	add	a4,a4,a6
8000145a:	fff30513          	addi	a0,t1,-1
8000145e:	01076763          	bltu	a4,a6,8000146c <__udivdi3+0x2c0>
80001462:	01e77563          	bgeu	a4,t5,8000146c <__udivdi3+0x2c0>
80001466:	ffe30513          	addi	a0,t1,-2
8000146a:	9742                	add	a4,a4,a6
8000146c:	41e70733          	sub	a4,a4,t5
80001470:	03d776b3          	remu	a3,a4,t4
80001474:	03d75733          	divu	a4,a4,t4
80001478:	06c2                	slli	a3,a3,0x10
8000147a:	02e78333          	mul	t1,a5,a4
8000147e:	01061793          	slli	a5,a2,0x10
80001482:	83c1                	srli	a5,a5,0x10
80001484:	8fd5                	or	a5,a5,a3
80001486:	863a                	mv	a2,a4
80001488:	0067fc63          	bgeu	a5,t1,800014a0 <__udivdi3+0x2f4>
8000148c:	97c2                	add	a5,a5,a6
8000148e:	fff70613          	addi	a2,a4,-1 # ffffff <__stack_size+0xfff7ff>
80001492:	0107e763          	bltu	a5,a6,800014a0 <__udivdi3+0x2f4>
80001496:	0067f563          	bgeu	a5,t1,800014a0 <__udivdi3+0x2f4>
8000149a:	ffe70613          	addi	a2,a4,-2
8000149e:	97c2                	add	a5,a5,a6
800014a0:	0542                	slli	a0,a0,0x10
/Local/xl_ci/toolchain/riscv-gnu-toolchain/riscv-gcc/libgcc/libgcc2.c:1201
800014a2:	6ec1                	lui	t4,0x10
/Local/xl_ci/toolchain/riscv-gnu-toolchain/riscv-gcc/libgcc/libgcc2.c:1200
800014a4:	8d51                	or	a0,a0,a2
/Local/xl_ci/toolchain/riscv-gnu-toolchain/riscv-gcc/libgcc/libgcc2.c:1201
800014a6:	fffe8693          	addi	a3,t4,-1 # ffff <__stack_size+0xf7ff>
800014aa:	010e5613          	srli	a2,t3,0x10
800014ae:	01055813          	srli	a6,a0,0x10
/Local/xl_ci/toolchain/riscv-gnu-toolchain/riscv-gcc/libgcc/libgcc2.c:1200
800014b2:	406787b3          	sub	a5,a5,t1
/Local/xl_ci/toolchain/riscv-gnu-toolchain/riscv-gcc/libgcc/libgcc2.c:1201
800014b6:	00d57333          	and	t1,a0,a3
800014ba:	00de76b3          	and	a3,t3,a3
800014be:	02d30e33          	mul	t3,t1,a3
800014c2:	02d806b3          	mul	a3,a6,a3
800014c6:	010e5713          	srli	a4,t3,0x10
800014ca:	02c30333          	mul	t1,t1,a2
800014ce:	9336                	add	t1,t1,a3
800014d0:	971a                	add	a4,a4,t1
800014d2:	02c80833          	mul	a6,a6,a2
800014d6:	00d77363          	bgeu	a4,a3,800014dc <__udivdi3+0x330>
800014da:	9876                	add	a6,a6,t4
800014dc:	01075693          	srli	a3,a4,0x10
800014e0:	9836                	add	a6,a6,a3
/Local/xl_ci/toolchain/riscv-gnu-toolchain/riscv-gcc/libgcc/libgcc2.c:1203
800014e2:	0307e063          	bltu	a5,a6,80001502 <__udivdi3+0x356>
800014e6:	d90794e3          	bne	a5,a6,8000126e <__udivdi3+0xc2>
/Local/xl_ci/toolchain/riscv-gnu-toolchain/riscv-gcc/libgcc/libgcc2.c:1201
800014ea:	67c1                	lui	a5,0x10
800014ec:	17fd                	addi	a5,a5,-1
800014ee:	8f7d                	and	a4,a4,a5
800014f0:	0742                	slli	a4,a4,0x10
800014f2:	00fe7e33          	and	t3,t3,a5
/Local/xl_ci/toolchain/riscv-gnu-toolchain/riscv-gcc/libgcc/libgcc2.c:1198
800014f6:	00b898b3          	sll	a7,a7,a1
/Local/xl_ci/toolchain/riscv-gnu-toolchain/riscv-gcc/libgcc/libgcc2.c:1201
800014fa:	9772                	add	a4,a4,t3
/Local/xl_ci/toolchain/riscv-gnu-toolchain/riscv-gcc/libgcc/libgcc2.c:1209
800014fc:	4581                	li	a1,0
/Local/xl_ci/toolchain/riscv-gnu-toolchain/riscv-gcc/libgcc/libgcc2.c:1203
800014fe:	e2e8f4e3          	bgeu	a7,a4,80001326 <__udivdi3+0x17a>
/Local/xl_ci/toolchain/riscv-gnu-toolchain/riscv-gcc/libgcc/libgcc2.c:1205
80001502:	157d                	addi	a0,a0,-1
__udivdi3():
/Local/xl_ci/toolchain/riscv-gnu-toolchain/riscv-gcc/libgcc/libgcc2.c:1206
80001504:	b3ad                	j	8000126e <__udivdi3+0xc2>
__udivmoddi4():
/Local/xl_ci/toolchain/riscv-gnu-toolchain/riscv-gcc/libgcc/libgcc2.c:1145
80001506:	4581                	li	a1,0
/Local/xl_ci/toolchain/riscv-gnu-toolchain/riscv-gcc/libgcc/libgcc2.c:1144
80001508:	4501                	li	a0,0
8000150a:	bd31                	j	80001326 <__udivdi3+0x17a>

8000150c <__adddf3>:
__adddf3():
/Local/xl_ci/toolchain/riscv-gnu-toolchain/riscv-gcc/libgcc/soft-fp/adddf3.c:44
8000150c:	00100837          	lui	a6,0x100
80001510:	187d                	addi	a6,a6,-1
/Local/xl_ci/toolchain/riscv-gnu-toolchain/riscv-gcc/libgcc/soft-fp/adddf3.c:36
80001512:	1101                	addi	sp,sp,-32
/Local/xl_ci/toolchain/riscv-gnu-toolchain/riscv-gcc/libgcc/soft-fp/adddf3.c:44
80001514:	00b877b3          	and	a5,a6,a1
80001518:	0145d713          	srli	a4,a1,0x14
/Local/xl_ci/toolchain/riscv-gnu-toolchain/riscv-gcc/libgcc/soft-fp/adddf3.c:45
8000151c:	00d87833          	and	a6,a6,a3
80001520:	0146d313          	srli	t1,a3,0x14
/Local/xl_ci/toolchain/riscv-gnu-toolchain/riscv-gcc/libgcc/soft-fp/adddf3.c:36
80001524:	cc22                	sw	s0,24(sp)
/Local/xl_ci/toolchain/riscv-gnu-toolchain/riscv-gcc/libgcc/soft-fp/adddf3.c:44
80001526:	078e                	slli	a5,a5,0x3
80001528:	7ff77413          	andi	s0,a4,2047
8000152c:	01d55713          	srli	a4,a0,0x1d
/Local/xl_ci/toolchain/riscv-gnu-toolchain/riscv-gcc/libgcc/soft-fp/adddf3.c:45
80001530:	080e                	slli	a6,a6,0x3
/Local/xl_ci/toolchain/riscv-gnu-toolchain/riscv-gcc/libgcc/soft-fp/adddf3.c:36
80001532:	ca26                	sw	s1,20(sp)
/Local/xl_ci/toolchain/riscv-gnu-toolchain/riscv-gcc/libgcc/soft-fp/adddf3.c:44
80001534:	8fd9                	or	a5,a5,a4
80001536:	01f5d493          	srli	s1,a1,0x1f
/Local/xl_ci/toolchain/riscv-gnu-toolchain/riscv-gcc/libgcc/soft-fp/adddf3.c:45
8000153a:	01d65713          	srli	a4,a2,0x1d
8000153e:	7ff37313          	andi	t1,t1,2047
/Local/xl_ci/toolchain/riscv-gnu-toolchain/riscv-gcc/libgcc/soft-fp/adddf3.c:36
80001542:	ce06                	sw	ra,28(sp)
80001544:	c84a                	sw	s2,16(sp)
80001546:	c64e                	sw	s3,12(sp)
/Local/xl_ci/toolchain/riscv-gnu-toolchain/riscv-gcc/libgcc/soft-fp/adddf3.c:45
80001548:	82fd                	srli	a3,a3,0x1f
8000154a:	01076733          	or	a4,a4,a6
/Local/xl_ci/toolchain/riscv-gnu-toolchain/riscv-gcc/libgcc/soft-fp/adddf3.c:44
8000154e:	00351593          	slli	a1,a0,0x3
/Local/xl_ci/toolchain/riscv-gnu-toolchain/riscv-gcc/libgcc/soft-fp/adddf3.c:45
80001552:	060e                	slli	a2,a2,0x3
/Local/xl_ci/toolchain/riscv-gnu-toolchain/riscv-gcc/libgcc/soft-fp/adddf3.c:46
80001554:	40640833          	sub	a6,s0,t1
80001558:	22d49863          	bne	s1,a3,80001788 <__adddf3+0x27c>
/Local/xl_ci/toolchain/riscv-gnu-toolchain/riscv-gcc/libgcc/soft-fp/adddf3.c:46 (discriminator 7)
8000155c:	0f005363          	blez	a6,80001642 <__adddf3+0x136>
/Local/xl_ci/toolchain/riscv-gnu-toolchain/riscv-gcc/libgcc/soft-fp/adddf3.c:46 (discriminator 9)
80001560:	02031863          	bnez	t1,80001590 <__adddf3+0x84>
/Local/xl_ci/toolchain/riscv-gnu-toolchain/riscv-gcc/libgcc/soft-fp/adddf3.c:46 (discriminator 11)
80001564:	00c766b3          	or	a3,a4,a2
80001568:	58068363          	beqz	a3,80001aee <__adddf3+0x5e2>
/Local/xl_ci/toolchain/riscv-gnu-toolchain/riscv-gcc/libgcc/soft-fp/adddf3.c:46 (discriminator 14)
8000156c:	fff80513          	addi	a0,a6,-1 # fffff <__stack_size+0xff7ff>
80001570:	e909                	bnez	a0,80001582 <__adddf3+0x76>
/Local/xl_ci/toolchain/riscv-gnu-toolchain/riscv-gcc/libgcc/soft-fp/adddf3.c:46 (discriminator 23)
80001572:	962e                	add	a2,a2,a1
80001574:	00b63533          	sltu	a0,a2,a1
80001578:	97ba                	add	a5,a5,a4
8000157a:	97aa                	add	a5,a5,a0
8000157c:	85b2                	mv	a1,a2
/Local/xl_ci/toolchain/riscv-gnu-toolchain/riscv-gcc/libgcc/soft-fp/adddf3.c:45 (discriminator 80)
8000157e:	4405                	li	s0,1
/Local/xl_ci/toolchain/riscv-gnu-toolchain/riscv-gcc/libgcc/soft-fp/adddf3.c:46 (discriminator 80)
80001580:	a8b9                	j	800015de <__adddf3+0xd2>
/Local/xl_ci/toolchain/riscv-gnu-toolchain/riscv-gcc/libgcc/soft-fp/adddf3.c:46 (discriminator 24)
80001582:	7ff00693          	li	a3,2047
80001586:	00d81d63          	bne	a6,a3,800015a0 <__adddf3+0x94>
/Local/xl_ci/toolchain/riscv-gnu-toolchain/riscv-gcc/libgcc/soft-fp/adddf3.c:46
8000158a:	7ff00413          	li	s0,2047
8000158e:	a24d                	j	80001730 <__adddf3+0x224>
/Local/xl_ci/toolchain/riscv-gnu-toolchain/riscv-gcc/libgcc/soft-fp/adddf3.c:46 (discriminator 12)
80001590:	7ff00693          	li	a3,2047
80001594:	18d40e63          	beq	s0,a3,80001730 <__adddf3+0x224>
/Local/xl_ci/toolchain/riscv-gnu-toolchain/riscv-gcc/libgcc/soft-fp/adddf3.c:46 (discriminator 38)
80001598:	008006b7          	lui	a3,0x800
8000159c:	8f55                	or	a4,a4,a3
8000159e:	8542                	mv	a0,a6
/Local/xl_ci/toolchain/riscv-gnu-toolchain/riscv-gcc/libgcc/soft-fp/adddf3.c:46 (discriminator 47)
800015a0:	03800693          	li	a3,56
800015a4:	08a6cb63          	blt	a3,a0,8000163a <__adddf3+0x12e>
/Local/xl_ci/toolchain/riscv-gnu-toolchain/riscv-gcc/libgcc/soft-fp/adddf3.c:46 (discriminator 48)
800015a8:	46fd                	li	a3,31
800015aa:	06a6c263          	blt	a3,a0,8000160e <__adddf3+0x102>
/Local/xl_ci/toolchain/riscv-gnu-toolchain/riscv-gcc/libgcc/soft-fp/adddf3.c:46 (discriminator 50)
800015ae:	02000813          	li	a6,32
800015b2:	40a80833          	sub	a6,a6,a0
800015b6:	010716b3          	sll	a3,a4,a6
800015ba:	00a658b3          	srl	a7,a2,a0
800015be:	01061633          	sll	a2,a2,a6
800015c2:	0116e6b3          	or	a3,a3,a7
800015c6:	00c03633          	snez	a2,a2
800015ca:	8e55                	or	a2,a2,a3
800015cc:	00a75733          	srl	a4,a4,a0
/Local/xl_ci/toolchain/riscv-gnu-toolchain/riscv-gcc/libgcc/soft-fp/adddf3.c:46 (discriminator 64)
800015d0:	962e                	add	a2,a2,a1
800015d2:	00b63533          	sltu	a0,a2,a1
800015d6:	973e                	add	a4,a4,a5
800015d8:	00a707b3          	add	a5,a4,a0
800015dc:	85b2                	mv	a1,a2
/Local/xl_ci/toolchain/riscv-gnu-toolchain/riscv-gcc/libgcc/soft-fp/adddf3.c:46 (discriminator 122)
800015de:	00800737          	lui	a4,0x800
800015e2:	8f7d                	and	a4,a4,a5
800015e4:	14070663          	beqz	a4,80001730 <__adddf3+0x224>
/Local/xl_ci/toolchain/riscv-gnu-toolchain/riscv-gcc/libgcc/soft-fp/adddf3.c:46 (discriminator 182)
800015e8:	0405                	addi	s0,s0,1
800015ea:	7ff00713          	li	a4,2047
800015ee:	48e40d63          	beq	s0,a4,80001a88 <__adddf3+0x57c>
/Local/xl_ci/toolchain/riscv-gnu-toolchain/riscv-gcc/libgcc/soft-fp/adddf3.c:46
800015f2:	ff800737          	lui	a4,0xff800
800015f6:	177d                	addi	a4,a4,-1
800015f8:	8ff9                	and	a5,a5,a4
800015fa:	0015f513          	andi	a0,a1,1
800015fe:	0015d713          	srli	a4,a1,0x1
80001602:	8d59                	or	a0,a0,a4
80001604:	01f79593          	slli	a1,a5,0x1f
80001608:	8dc9                	or	a1,a1,a0
8000160a:	8385                	srli	a5,a5,0x1
8000160c:	a215                	j	80001730 <__adddf3+0x224>
/Local/xl_ci/toolchain/riscv-gnu-toolchain/riscv-gcc/libgcc/soft-fp/adddf3.c:46 (discriminator 51)
8000160e:	fe050693          	addi	a3,a0,-32
80001612:	02000893          	li	a7,32
80001616:	00d756b3          	srl	a3,a4,a3
8000161a:	4801                	li	a6,0
8000161c:	01150863          	beq	a0,a7,8000162c <__adddf3+0x120>
/Local/xl_ci/toolchain/riscv-gnu-toolchain/riscv-gcc/libgcc/soft-fp/adddf3.c:46 (discriminator 58)
80001620:	04000813          	li	a6,64
80001624:	40a80533          	sub	a0,a6,a0
80001628:	00a71833          	sll	a6,a4,a0
/Local/xl_ci/toolchain/riscv-gnu-toolchain/riscv-gcc/libgcc/soft-fp/adddf3.c:46 (discriminator 61)
8000162c:	00c86633          	or	a2,a6,a2
80001630:	00c03633          	snez	a2,a2
80001634:	8e55                	or	a2,a2,a3
/Local/xl_ci/toolchain/riscv-gnu-toolchain/riscv-gcc/libgcc/soft-fp/adddf3.c:46 (discriminator 49)
80001636:	4701                	li	a4,0
80001638:	bf61                	j	800015d0 <__adddf3+0xc4>
8000163a:	8e59                	or	a2,a2,a4
8000163c:	00c03633          	snez	a2,a2
80001640:	bfdd                	j	80001636 <__adddf3+0x12a>
/Local/xl_ci/toolchain/riscv-gnu-toolchain/riscv-gcc/libgcc/soft-fp/adddf3.c:46 (discriminator 10)
80001642:	0a080b63          	beqz	a6,800016f8 <__adddf3+0x1ec>
/Local/xl_ci/toolchain/riscv-gnu-toolchain/riscv-gcc/libgcc/soft-fp/adddf3.c:46 (discriminator 66)
80001646:	40830533          	sub	a0,t1,s0
8000164a:	e40d                	bnez	s0,80001674 <__adddf3+0x168>
/Local/xl_ci/toolchain/riscv-gnu-toolchain/riscv-gcc/libgcc/soft-fp/adddf3.c:46 (discriminator 68)
8000164c:	00b7e6b3          	or	a3,a5,a1
80001650:	42068363          	beqz	a3,80001a76 <__adddf3+0x56a>
/Local/xl_ci/toolchain/riscv-gnu-toolchain/riscv-gcc/libgcc/soft-fp/adddf3.c:46 (discriminator 71)
80001654:	fff50693          	addi	a3,a0,-1
80001658:	e699                	bnez	a3,80001666 <__adddf3+0x15a>
/Local/xl_ci/toolchain/riscv-gnu-toolchain/riscv-gcc/libgcc/soft-fp/adddf3.c:46 (discriminator 80)
8000165a:	95b2                	add	a1,a1,a2
8000165c:	97ba                	add	a5,a5,a4
8000165e:	00c5b633          	sltu	a2,a1,a2
80001662:	97b2                	add	a5,a5,a2
80001664:	bf29                	j	8000157e <__adddf3+0x72>
/Local/xl_ci/toolchain/riscv-gnu-toolchain/riscv-gcc/libgcc/soft-fp/adddf3.c:46 (discriminator 81)
80001666:	7ff00813          	li	a6,2047
8000166a:	01051d63          	bne	a0,a6,80001684 <__adddf3+0x178>
/Local/xl_ci/toolchain/riscv-gnu-toolchain/riscv-gcc/libgcc/soft-fp/adddf3.c:45
8000166e:	87ba                	mv	a5,a4
80001670:	85b2                	mv	a1,a2
80001672:	bf21                	j	8000158a <__adddf3+0x7e>
/Local/xl_ci/toolchain/riscv-gnu-toolchain/riscv-gcc/libgcc/soft-fp/adddf3.c:46 (discriminator 69)
80001674:	7ff00693          	li	a3,2047
80001678:	fed30be3          	beq	t1,a3,8000166e <__adddf3+0x162>
/Local/xl_ci/toolchain/riscv-gnu-toolchain/riscv-gcc/libgcc/soft-fp/adddf3.c:46 (discriminator 95)
8000167c:	008006b7          	lui	a3,0x800
80001680:	8fd5                	or	a5,a5,a3
80001682:	86aa                	mv	a3,a0
/Local/xl_ci/toolchain/riscv-gnu-toolchain/riscv-gcc/libgcc/soft-fp/adddf3.c:46 (discriminator 104)
80001684:	03800513          	li	a0,56
80001688:	06d54363          	blt	a0,a3,800016ee <__adddf3+0x1e2>
/Local/xl_ci/toolchain/riscv-gnu-toolchain/riscv-gcc/libgcc/soft-fp/adddf3.c:46 (discriminator 105)
8000168c:	457d                	li	a0,31
8000168e:	02d54b63          	blt	a0,a3,800016c4 <__adddf3+0x1b8>
/Local/xl_ci/toolchain/riscv-gnu-toolchain/riscv-gcc/libgcc/soft-fp/adddf3.c:46 (discriminator 107)
80001692:	02000813          	li	a6,32
80001696:	40d80833          	sub	a6,a6,a3
8000169a:	01079533          	sll	a0,a5,a6
8000169e:	00d5d8b3          	srl	a7,a1,a3
800016a2:	010595b3          	sll	a1,a1,a6
800016a6:	01156533          	or	a0,a0,a7
800016aa:	00b035b3          	snez	a1,a1
800016ae:	8d4d                	or	a0,a0,a1
800016b0:	00d7d7b3          	srl	a5,a5,a3
/Local/xl_ci/toolchain/riscv-gnu-toolchain/riscv-gcc/libgcc/soft-fp/adddf3.c:46 (discriminator 121)
800016b4:	00c505b3          	add	a1,a0,a2
800016b8:	97ba                	add	a5,a5,a4
800016ba:	00c5b633          	sltu	a2,a1,a2
800016be:	97b2                	add	a5,a5,a2
/Local/xl_ci/toolchain/riscv-gnu-toolchain/riscv-gcc/libgcc/soft-fp/adddf3.c:45 (discriminator 121)
800016c0:	841a                	mv	s0,t1
800016c2:	bf31                	j	800015de <__adddf3+0xd2>
/Local/xl_ci/toolchain/riscv-gnu-toolchain/riscv-gcc/libgcc/soft-fp/adddf3.c:46 (discriminator 108)
800016c4:	fe068513          	addi	a0,a3,-32 # 7fffe0 <__stack_size+0x7ff7e0>
800016c8:	02000893          	li	a7,32
800016cc:	00a7d833          	srl	a6,a5,a0
800016d0:	4501                	li	a0,0
800016d2:	01168763          	beq	a3,a7,800016e0 <__adddf3+0x1d4>
/Local/xl_ci/toolchain/riscv-gnu-toolchain/riscv-gcc/libgcc/soft-fp/adddf3.c:46 (discriminator 115)
800016d6:	04000513          	li	a0,64
800016da:	8d15                	sub	a0,a0,a3
800016dc:	00a79533          	sll	a0,a5,a0
/Local/xl_ci/toolchain/riscv-gnu-toolchain/riscv-gcc/libgcc/soft-fp/adddf3.c:46 (discriminator 118)
800016e0:	8d4d                	or	a0,a0,a1
800016e2:	00a03533          	snez	a0,a0
800016e6:	00a86533          	or	a0,a6,a0
/Local/xl_ci/toolchain/riscv-gnu-toolchain/riscv-gcc/libgcc/soft-fp/adddf3.c:46 (discriminator 106)
800016ea:	4781                	li	a5,0
800016ec:	b7e1                	j	800016b4 <__adddf3+0x1a8>
800016ee:	00b7e533          	or	a0,a5,a1
800016f2:	00a03533          	snez	a0,a0
800016f6:	bfd5                	j	800016ea <__adddf3+0x1de>
/Local/xl_ci/toolchain/riscv-gnu-toolchain/riscv-gcc/libgcc/soft-fp/adddf3.c:46 (discriminator 67)
800016f8:	00140693          	addi	a3,s0,1
800016fc:	7fe6f513          	andi	a0,a3,2046
80001700:	e13d                	bnez	a0,80001766 <__adddf3+0x25a>
/Local/xl_ci/toolchain/riscv-gnu-toolchain/riscv-gcc/libgcc/soft-fp/adddf3.c:46 (discriminator 123)
80001702:	00b7e6b3          	or	a3,a5,a1
80001706:	e429                	bnez	s0,80001750 <__adddf3+0x244>
/Local/xl_ci/toolchain/riscv-gnu-toolchain/riscv-gcc/libgcc/soft-fp/adddf3.c:46 (discriminator 125)
80001708:	36068b63          	beqz	a3,80001a7e <__adddf3+0x572>
/Local/xl_ci/toolchain/riscv-gnu-toolchain/riscv-gcc/libgcc/soft-fp/adddf3.c:46 (discriminator 128)
8000170c:	00c766b3          	or	a3,a4,a2
80001710:	c285                	beqz	a3,80001730 <__adddf3+0x224>
/Local/xl_ci/toolchain/riscv-gnu-toolchain/riscv-gcc/libgcc/soft-fp/adddf3.c:46 (discriminator 134)
80001712:	962e                	add	a2,a2,a1
80001714:	97ba                	add	a5,a5,a4
80001716:	00b63533          	sltu	a0,a2,a1
8000171a:	97aa                	add	a5,a5,a0
8000171c:	00800737          	lui	a4,0x800
80001720:	8f7d                	and	a4,a4,a5
80001722:	85b2                	mv	a1,a2
80001724:	c711                	beqz	a4,80001730 <__adddf3+0x224>
/Local/xl_ci/toolchain/riscv-gnu-toolchain/riscv-gcc/libgcc/soft-fp/adddf3.c:46 (discriminator 136)
80001726:	ff800737          	lui	a4,0xff800
8000172a:	177d                	addi	a4,a4,-1
8000172c:	8ff9                	and	a5,a5,a4
8000172e:	4405                	li	s0,1
/Local/xl_ci/toolchain/riscv-gnu-toolchain/riscv-gcc/libgcc/soft-fp/adddf3.c:47 (discriminator 421)
80001730:	0075f713          	andi	a4,a1,7
80001734:	34070c63          	beqz	a4,80001a8c <__adddf3+0x580>
/Local/xl_ci/toolchain/riscv-gnu-toolchain/riscv-gcc/libgcc/soft-fp/adddf3.c:47 (discriminator 37)
80001738:	00f5f713          	andi	a4,a1,15
8000173c:	4691                	li	a3,4
8000173e:	34d70763          	beq	a4,a3,80001a8c <__adddf3+0x580>
/Local/xl_ci/toolchain/riscv-gnu-toolchain/riscv-gcc/libgcc/soft-fp/adddf3.c:47 (discriminator 44)
80001742:	00458713          	addi	a4,a1,4
80001746:	00b73533          	sltu	a0,a4,a1
8000174a:	97aa                	add	a5,a5,a0
8000174c:	85ba                	mv	a1,a4
8000174e:	ae3d                	j	80001a8c <__adddf3+0x580>
/Local/xl_ci/toolchain/riscv-gnu-toolchain/riscv-gcc/libgcc/soft-fp/adddf3.c:46 (discriminator 153)
80001750:	de99                	beqz	a3,8000166e <__adddf3+0x162>
/Local/xl_ci/toolchain/riscv-gnu-toolchain/riscv-gcc/libgcc/soft-fp/adddf3.c:46 (discriminator 155)
80001752:	8e59                	or	a2,a2,a4
80001754:	e2060be3          	beqz	a2,8000158a <__adddf3+0x7e>
/Local/xl_ci/toolchain/riscv-gnu-toolchain/riscv-gcc/libgcc/soft-fp/adddf3.c:46
80001758:	4481                	li	s1,0
8000175a:	004007b7          	lui	a5,0x400
8000175e:	4581                	li	a1,0
80001760:	7ff00413          	li	s0,2047
80001764:	a625                	j	80001a8c <__adddf3+0x580>
/Local/xl_ci/toolchain/riscv-gnu-toolchain/riscv-gcc/libgcc/soft-fp/adddf3.c:46 (discriminator 124)
80001766:	7ff00513          	li	a0,2047
8000176a:	30a68d63          	beq	a3,a0,80001a84 <__adddf3+0x578>
/Local/xl_ci/toolchain/riscv-gnu-toolchain/riscv-gcc/libgcc/soft-fp/adddf3.c:46
8000176e:	962e                	add	a2,a2,a1
80001770:	00b63533          	sltu	a0,a2,a1
80001774:	97ba                	add	a5,a5,a4
80001776:	97aa                	add	a5,a5,a0
80001778:	01f79513          	slli	a0,a5,0x1f
8000177c:	8205                	srli	a2,a2,0x1
8000177e:	00c565b3          	or	a1,a0,a2
80001782:	8385                	srli	a5,a5,0x1
80001784:	8436                	mv	s0,a3
80001786:	b76d                	j	80001730 <__adddf3+0x224>
/Local/xl_ci/toolchain/riscv-gnu-toolchain/riscv-gcc/libgcc/soft-fp/adddf3.c:46 (discriminator 8)
80001788:	0d005663          	blez	a6,80001854 <__adddf3+0x348>
/Local/xl_ci/toolchain/riscv-gnu-toolchain/riscv-gcc/libgcc/soft-fp/adddf3.c:46 (discriminator 200)
8000178c:	08031163          	bnez	t1,8000180e <__adddf3+0x302>
/Local/xl_ci/toolchain/riscv-gnu-toolchain/riscv-gcc/libgcc/soft-fp/adddf3.c:46 (discriminator 202)
80001790:	00c766b3          	or	a3,a4,a2
80001794:	34068d63          	beqz	a3,80001aee <__adddf3+0x5e2>
/Local/xl_ci/toolchain/riscv-gnu-toolchain/riscv-gcc/libgcc/soft-fp/adddf3.c:46 (discriminator 205)
80001798:	fff80513          	addi	a0,a6,-1
8000179c:	e911                	bnez	a0,800017b0 <__adddf3+0x2a4>
/Local/xl_ci/toolchain/riscv-gnu-toolchain/riscv-gcc/libgcc/soft-fp/adddf3.c:46 (discriminator 214)
8000179e:	40c58633          	sub	a2,a1,a2
800017a2:	00c5b533          	sltu	a0,a1,a2
800017a6:	8f99                	sub	a5,a5,a4
800017a8:	8f89                	sub	a5,a5,a0
800017aa:	85b2                	mv	a1,a2
/Local/xl_ci/toolchain/riscv-gnu-toolchain/riscv-gcc/libgcc/soft-fp/adddf3.c:45 (discriminator 271)
800017ac:	4405                	li	s0,1
/Local/xl_ci/toolchain/riscv-gnu-toolchain/riscv-gcc/libgcc/soft-fp/adddf3.c:46 (discriminator 271)
800017ae:	a0b1                	j	800017fa <__adddf3+0x2ee>
/Local/xl_ci/toolchain/riscv-gnu-toolchain/riscv-gcc/libgcc/soft-fp/adddf3.c:46 (discriminator 215)
800017b0:	7ff00693          	li	a3,2047
800017b4:	dcd80be3          	beq	a6,a3,8000158a <__adddf3+0x7e>
/Local/xl_ci/toolchain/riscv-gnu-toolchain/riscv-gcc/libgcc/soft-fp/adddf3.c:46 (discriminator 238)
800017b8:	03800693          	li	a3,56
800017bc:	08a6c863          	blt	a3,a0,8000184c <__adddf3+0x340>
/Local/xl_ci/toolchain/riscv-gnu-toolchain/riscv-gcc/libgcc/soft-fp/adddf3.c:46 (discriminator 239)
800017c0:	46fd                	li	a3,31
800017c2:	04a6cf63          	blt	a3,a0,80001820 <__adddf3+0x314>
/Local/xl_ci/toolchain/riscv-gnu-toolchain/riscv-gcc/libgcc/soft-fp/adddf3.c:46 (discriminator 241)
800017c6:	02000813          	li	a6,32
800017ca:	40a80833          	sub	a6,a6,a0
800017ce:	010716b3          	sll	a3,a4,a6
800017d2:	00a658b3          	srl	a7,a2,a0
800017d6:	01061633          	sll	a2,a2,a6
800017da:	0116e6b3          	or	a3,a3,a7
800017de:	00c03633          	snez	a2,a2
800017e2:	8e55                	or	a2,a2,a3
800017e4:	00a75733          	srl	a4,a4,a0
/Local/xl_ci/toolchain/riscv-gnu-toolchain/riscv-gcc/libgcc/soft-fp/adddf3.c:46 (discriminator 255)
800017e8:	40c58633          	sub	a2,a1,a2
800017ec:	00c5b533          	sltu	a0,a1,a2
800017f0:	40e78733          	sub	a4,a5,a4
800017f4:	40a707b3          	sub	a5,a4,a0
800017f8:	85b2                	mv	a1,a2
/Local/xl_ci/toolchain/riscv-gnu-toolchain/riscv-gcc/libgcc/soft-fp/adddf3.c:46 (discriminator 313)
800017fa:	00800937          	lui	s2,0x800
800017fe:	0127f733          	and	a4,a5,s2
80001802:	d71d                	beqz	a4,80001730 <__adddf3+0x224>
/Local/xl_ci/toolchain/riscv-gnu-toolchain/riscv-gcc/libgcc/soft-fp/adddf3.c:46 (discriminator 373)
80001804:	197d                	addi	s2,s2,-1
80001806:	0127f933          	and	s2,a5,s2
8000180a:	89ae                	mv	s3,a1
8000180c:	aa5d                	j	800019c2 <__adddf3+0x4b6>
/Local/xl_ci/toolchain/riscv-gnu-toolchain/riscv-gcc/libgcc/soft-fp/adddf3.c:46 (discriminator 203)
8000180e:	7ff00693          	li	a3,2047
80001812:	f0d40fe3          	beq	s0,a3,80001730 <__adddf3+0x224>
/Local/xl_ci/toolchain/riscv-gnu-toolchain/riscv-gcc/libgcc/soft-fp/adddf3.c:46 (discriminator 229)
80001816:	008006b7          	lui	a3,0x800
8000181a:	8f55                	or	a4,a4,a3
8000181c:	8542                	mv	a0,a6
8000181e:	bf69                	j	800017b8 <__adddf3+0x2ac>
/Local/xl_ci/toolchain/riscv-gnu-toolchain/riscv-gcc/libgcc/soft-fp/adddf3.c:46 (discriminator 242)
80001820:	fe050693          	addi	a3,a0,-32
80001824:	02000893          	li	a7,32
80001828:	00d756b3          	srl	a3,a4,a3
8000182c:	4801                	li	a6,0
8000182e:	01150863          	beq	a0,a7,8000183e <__adddf3+0x332>
/Local/xl_ci/toolchain/riscv-gnu-toolchain/riscv-gcc/libgcc/soft-fp/adddf3.c:46 (discriminator 249)
80001832:	04000813          	li	a6,64
80001836:	40a80533          	sub	a0,a6,a0
8000183a:	00a71833          	sll	a6,a4,a0
/Local/xl_ci/toolchain/riscv-gnu-toolchain/riscv-gcc/libgcc/soft-fp/adddf3.c:46 (discriminator 252)
8000183e:	00c86633          	or	a2,a6,a2
80001842:	00c03633          	snez	a2,a2
80001846:	8e55                	or	a2,a2,a3
/Local/xl_ci/toolchain/riscv-gnu-toolchain/riscv-gcc/libgcc/soft-fp/adddf3.c:46 (discriminator 240)
80001848:	4701                	li	a4,0
8000184a:	bf79                	j	800017e8 <__adddf3+0x2dc>
8000184c:	8e59                	or	a2,a2,a4
8000184e:	00c03633          	snez	a2,a2
80001852:	bfdd                	j	80001848 <__adddf3+0x33c>
/Local/xl_ci/toolchain/riscv-gnu-toolchain/riscv-gcc/libgcc/soft-fp/adddf3.c:46 (discriminator 201)
80001854:	0c080563          	beqz	a6,8000191e <__adddf3+0x412>
/Local/xl_ci/toolchain/riscv-gnu-toolchain/riscv-gcc/libgcc/soft-fp/adddf3.c:46 (discriminator 257)
80001858:	40830533          	sub	a0,t1,s0
8000185c:	e81d                	bnez	s0,80001892 <__adddf3+0x386>
/Local/xl_ci/toolchain/riscv-gnu-toolchain/riscv-gcc/libgcc/soft-fp/adddf3.c:46 (discriminator 259)
8000185e:	00b7e833          	or	a6,a5,a1
80001862:	28080863          	beqz	a6,80001af2 <__adddf3+0x5e6>
/Local/xl_ci/toolchain/riscv-gnu-toolchain/riscv-gcc/libgcc/soft-fp/adddf3.c:46 (discriminator 262)
80001866:	fff50813          	addi	a6,a0,-1
8000186a:	00081b63          	bnez	a6,80001880 <__adddf3+0x374>
/Local/xl_ci/toolchain/riscv-gnu-toolchain/riscv-gcc/libgcc/soft-fp/adddf3.c:46 (discriminator 271)
8000186e:	40b605b3          	sub	a1,a2,a1
80001872:	40f707b3          	sub	a5,a4,a5
80001876:	00b63633          	sltu	a2,a2,a1
8000187a:	8f91                	sub	a5,a5,a2
8000187c:	84b6                	mv	s1,a3
8000187e:	b73d                	j	800017ac <__adddf3+0x2a0>
/Local/xl_ci/toolchain/riscv-gnu-toolchain/riscv-gcc/libgcc/soft-fp/adddf3.c:46 (discriminator 272)
80001880:	7ff00893          	li	a7,2047
80001884:	03151063          	bne	a0,a7,800018a4 <__adddf3+0x398>
/Local/xl_ci/toolchain/riscv-gnu-toolchain/riscv-gcc/libgcc/soft-fp/adddf3.c:45
80001888:	87ba                	mv	a5,a4
8000188a:	85b2                	mv	a1,a2
/Local/xl_ci/toolchain/riscv-gnu-toolchain/riscv-gcc/libgcc/soft-fp/adddf3.c:46
8000188c:	7ff00413          	li	s0,2047
80001890:	a07d                	j	8000193e <__adddf3+0x432>
/Local/xl_ci/toolchain/riscv-gnu-toolchain/riscv-gcc/libgcc/soft-fp/adddf3.c:46 (discriminator 260)
80001892:	7ff00813          	li	a6,2047
80001896:	ff0309e3          	beq	t1,a6,80001888 <__adddf3+0x37c>
/Local/xl_ci/toolchain/riscv-gnu-toolchain/riscv-gcc/libgcc/soft-fp/adddf3.c:46 (discriminator 286)
8000189a:	00800837          	lui	a6,0x800
8000189e:	0107e7b3          	or	a5,a5,a6
800018a2:	882a                	mv	a6,a0
/Local/xl_ci/toolchain/riscv-gnu-toolchain/riscv-gcc/libgcc/soft-fp/adddf3.c:46 (discriminator 295)
800018a4:	03800513          	li	a0,56
800018a8:	07054663          	blt	a0,a6,80001914 <__adddf3+0x408>
/Local/xl_ci/toolchain/riscv-gnu-toolchain/riscv-gcc/libgcc/soft-fp/adddf3.c:46 (discriminator 296)
800018ac:	457d                	li	a0,31
800018ae:	03054d63          	blt	a0,a6,800018e8 <__adddf3+0x3dc>
/Local/xl_ci/toolchain/riscv-gnu-toolchain/riscv-gcc/libgcc/soft-fp/adddf3.c:46 (discriminator 298)
800018b2:	02000893          	li	a7,32
800018b6:	410888b3          	sub	a7,a7,a6
800018ba:	01179533          	sll	a0,a5,a7
800018be:	0105de33          	srl	t3,a1,a6
800018c2:	011595b3          	sll	a1,a1,a7
800018c6:	01c56533          	or	a0,a0,t3
800018ca:	00b035b3          	snez	a1,a1
800018ce:	8d4d                	or	a0,a0,a1
800018d0:	0107d7b3          	srl	a5,a5,a6
/Local/xl_ci/toolchain/riscv-gnu-toolchain/riscv-gcc/libgcc/soft-fp/adddf3.c:46 (discriminator 312)
800018d4:	40a605b3          	sub	a1,a2,a0
800018d8:	40f707b3          	sub	a5,a4,a5
800018dc:	00b63633          	sltu	a2,a2,a1
800018e0:	8f91                	sub	a5,a5,a2
/Local/xl_ci/toolchain/riscv-gnu-toolchain/riscv-gcc/libgcc/soft-fp/adddf3.c:45 (discriminator 312)
800018e2:	841a                	mv	s0,t1
800018e4:	84b6                	mv	s1,a3
800018e6:	bf11                	j	800017fa <__adddf3+0x2ee>
/Local/xl_ci/toolchain/riscv-gnu-toolchain/riscv-gcc/libgcc/soft-fp/adddf3.c:46 (discriminator 299)
800018e8:	fe080513          	addi	a0,a6,-32 # 7fffe0 <__stack_size+0x7ff7e0>
800018ec:	02000e13          	li	t3,32
800018f0:	00a7d8b3          	srl	a7,a5,a0
800018f4:	4501                	li	a0,0
800018f6:	01c80863          	beq	a6,t3,80001906 <__adddf3+0x3fa>
/Local/xl_ci/toolchain/riscv-gnu-toolchain/riscv-gcc/libgcc/soft-fp/adddf3.c:46 (discriminator 306)
800018fa:	04000513          	li	a0,64
800018fe:	41050533          	sub	a0,a0,a6
80001902:	00a79533          	sll	a0,a5,a0
/Local/xl_ci/toolchain/riscv-gnu-toolchain/riscv-gcc/libgcc/soft-fp/adddf3.c:46 (discriminator 309)
80001906:	8d4d                	or	a0,a0,a1
80001908:	00a03533          	snez	a0,a0
8000190c:	00a8e533          	or	a0,a7,a0
/Local/xl_ci/toolchain/riscv-gnu-toolchain/riscv-gcc/libgcc/soft-fp/adddf3.c:46 (discriminator 297)
80001910:	4781                	li	a5,0
80001912:	b7c9                	j	800018d4 <__adddf3+0x3c8>
80001914:	00b7e533          	or	a0,a5,a1
80001918:	00a03533          	snez	a0,a0
8000191c:	bfd5                	j	80001910 <__adddf3+0x404>
/Local/xl_ci/toolchain/riscv-gnu-toolchain/riscv-gcc/libgcc/soft-fp/adddf3.c:46 (discriminator 258)
8000191e:	00140513          	addi	a0,s0,1
80001922:	7fe57513          	andi	a0,a0,2046
80001926:	e925                	bnez	a0,80001996 <__adddf3+0x48a>
/Local/xl_ci/toolchain/riscv-gnu-toolchain/riscv-gcc/libgcc/soft-fp/adddf3.c:46 (discriminator 314)
80001928:	00b7e833          	or	a6,a5,a1
8000192c:	00c76533          	or	a0,a4,a2
80001930:	e821                	bnez	s0,80001980 <__adddf3+0x474>
/Local/xl_ci/toolchain/riscv-gnu-toolchain/riscv-gcc/libgcc/soft-fp/adddf3.c:46 (discriminator 316)
80001932:	00081863          	bnez	a6,80001942 <__adddf3+0x436>
/Local/xl_ci/toolchain/riscv-gnu-toolchain/riscv-gcc/libgcc/soft-fp/adddf3.c:46 (discriminator 318)
80001936:	1c050263          	beqz	a0,80001afa <__adddf3+0x5ee>
/Local/xl_ci/toolchain/riscv-gnu-toolchain/riscv-gcc/libgcc/soft-fp/adddf3.c:45
8000193a:	87ba                	mv	a5,a4
8000193c:	85b2                	mv	a1,a2
8000193e:	84b6                	mv	s1,a3
80001940:	bbc5                	j	80001730 <__adddf3+0x224>
/Local/xl_ci/toolchain/riscv-gnu-toolchain/riscv-gcc/libgcc/soft-fp/adddf3.c:46 (discriminator 319)
80001942:	de0507e3          	beqz	a0,80001730 <__adddf3+0x224>
/Local/xl_ci/toolchain/riscv-gnu-toolchain/riscv-gcc/libgcc/soft-fp/adddf3.c:46 (discriminator 326)
80001946:	40c58833          	sub	a6,a1,a2
8000194a:	0105b8b3          	sltu	a7,a1,a6
8000194e:	40e78533          	sub	a0,a5,a4
80001952:	41150533          	sub	a0,a0,a7
80001956:	008008b7          	lui	a7,0x800
8000195a:	011578b3          	and	a7,a0,a7
8000195e:	00088a63          	beqz	a7,80001972 <__adddf3+0x466>
/Local/xl_ci/toolchain/riscv-gnu-toolchain/riscv-gcc/libgcc/soft-fp/adddf3.c:46 (discriminator 328)
80001962:	40b605b3          	sub	a1,a2,a1
80001966:	40f707b3          	sub	a5,a4,a5
8000196a:	00b63633          	sltu	a2,a2,a1
8000196e:	8f91                	sub	a5,a5,a2
80001970:	b7f9                	j	8000193e <__adddf3+0x432>
/Local/xl_ci/toolchain/riscv-gnu-toolchain/riscv-gcc/libgcc/soft-fp/adddf3.c:46 (discriminator 329)
80001972:	00a865b3          	or	a1,a6,a0
80001976:	18058663          	beqz	a1,80001b02 <__adddf3+0x5f6>
/Local/xl_ci/toolchain/riscv-gnu-toolchain/riscv-gcc/libgcc/soft-fp/adddf3.c:46
8000197a:	87aa                	mv	a5,a0
8000197c:	85c2                	mv	a1,a6
8000197e:	bb4d                	j	80001730 <__adddf3+0x224>
/Local/xl_ci/toolchain/riscv-gnu-toolchain/riscv-gcc/libgcc/soft-fp/adddf3.c:46 (discriminator 348)
80001980:	00081863          	bnez	a6,80001990 <__adddf3+0x484>
/Local/xl_ci/toolchain/riscv-gnu-toolchain/riscv-gcc/libgcc/soft-fp/adddf3.c:46 (discriminator 349)
80001984:	18050163          	beqz	a0,80001b06 <__adddf3+0x5fa>
/Local/xl_ci/toolchain/riscv-gnu-toolchain/riscv-gcc/libgcc/soft-fp/adddf3.c:45
80001988:	87ba                	mv	a5,a4
8000198a:	85b2                	mv	a1,a2
/Local/xl_ci/toolchain/riscv-gnu-toolchain/riscv-gcc/libgcc/soft-fp/adddf3.c:46
8000198c:	84b6                	mv	s1,a3
8000198e:	bef5                	j	8000158a <__adddf3+0x7e>
/Local/xl_ci/toolchain/riscv-gnu-toolchain/riscv-gcc/libgcc/soft-fp/adddf3.c:46 (discriminator 350)
80001990:	be050de3          	beqz	a0,8000158a <__adddf3+0x7e>
80001994:	b3d1                	j	80001758 <__adddf3+0x24c>
/Local/xl_ci/toolchain/riscv-gnu-toolchain/riscv-gcc/libgcc/soft-fp/adddf3.c:46 (discriminator 315)
80001996:	40c589b3          	sub	s3,a1,a2
8000199a:	0135b533          	sltu	a0,a1,s3
8000199e:	40e78933          	sub	s2,a5,a4
800019a2:	40a90933          	sub	s2,s2,a0
800019a6:	00800537          	lui	a0,0x800
800019aa:	00a97533          	and	a0,s2,a0
800019ae:	c925                	beqz	a0,80001a1e <__adddf3+0x512>
/Local/xl_ci/toolchain/riscv-gnu-toolchain/riscv-gcc/libgcc/soft-fp/adddf3.c:46 (discriminator 366)
800019b0:	40b609b3          	sub	s3,a2,a1
800019b4:	40f707b3          	sub	a5,a4,a5
800019b8:	01363633          	sltu	a2,a2,s3
800019bc:	40c78933          	sub	s2,a5,a2
800019c0:	84b6                	mv	s1,a3
/Local/xl_ci/toolchain/riscv-gnu-toolchain/riscv-gcc/libgcc/soft-fp/adddf3.c:46 (discriminator 375)
800019c2:	06090463          	beqz	s2,80001a2a <__adddf3+0x51e>
/Local/xl_ci/toolchain/riscv-gnu-toolchain/riscv-gcc/libgcc/soft-fp/adddf3.c:46 (discriminator 378)
800019c6:	854a                	mv	a0,s2
800019c8:	3ab010ef          	jal	ra,80003572 <__clzsi2>
/Local/xl_ci/toolchain/riscv-gnu-toolchain/riscv-gcc/libgcc/soft-fp/adddf3.c:46 (discriminator 392)
800019cc:	ff850713          	addi	a4,a0,-8 # 7ffff8 <__stack_size+0x7ff7f8>
800019d0:	47fd                	li	a5,31
800019d2:	06e7c263          	blt	a5,a4,80001a36 <__adddf3+0x52a>
/Local/xl_ci/toolchain/riscv-gnu-toolchain/riscv-gcc/libgcc/soft-fp/adddf3.c:46 (discriminator 398)
800019d6:	02000793          	li	a5,32
800019da:	8f99                	sub	a5,a5,a4
800019dc:	00e91933          	sll	s2,s2,a4
800019e0:	00f9d7b3          	srl	a5,s3,a5
800019e4:	0127e7b3          	or	a5,a5,s2
800019e8:	00e995b3          	sll	a1,s3,a4
/Local/xl_ci/toolchain/riscv-gnu-toolchain/riscv-gcc/libgcc/soft-fp/adddf3.c:46 (discriminator 402)
800019ec:	06874f63          	blt	a4,s0,80001a6a <__adddf3+0x55e>
/Local/xl_ci/toolchain/riscv-gnu-toolchain/riscv-gcc/libgcc/soft-fp/adddf3.c:46 (discriminator 403)
800019f0:	8f01                	sub	a4,a4,s0
800019f2:	00170693          	addi	a3,a4,1 # ff800001 <_sp+0x6f7f0001>
800019f6:	467d                	li	a2,31
800019f8:	04d64563          	blt	a2,a3,80001a42 <__adddf3+0x536>
/Local/xl_ci/toolchain/riscv-gnu-toolchain/riscv-gcc/libgcc/soft-fp/adddf3.c:46 (discriminator 405)
800019fc:	02000713          	li	a4,32
80001a00:	8f15                	sub	a4,a4,a3
80001a02:	00e79633          	sll	a2,a5,a4
80001a06:	00d5d533          	srl	a0,a1,a3
80001a0a:	00e595b3          	sll	a1,a1,a4
80001a0e:	8e49                	or	a2,a2,a0
80001a10:	00b035b3          	snez	a1,a1
80001a14:	8dd1                	or	a1,a1,a2
80001a16:	00d7d7b3          	srl	a5,a5,a3
/Local/xl_ci/toolchain/riscv-gnu-toolchain/riscv-gcc/libgcc/soft-fp/adddf3.c:46 (discriminator 417)
80001a1a:	4401                	li	s0,0
80001a1c:	bb11                	j	80001730 <__adddf3+0x224>
/Local/xl_ci/toolchain/riscv-gnu-toolchain/riscv-gcc/libgcc/soft-fp/adddf3.c:46 (discriminator 367)
80001a1e:	0129e5b3          	or	a1,s3,s2
80001a22:	f1c5                	bnez	a1,800019c2 <__adddf3+0x4b6>
80001a24:	4781                	li	a5,0
/Local/xl_ci/toolchain/riscv-gnu-toolchain/riscv-gcc/libgcc/soft-fp/adddf3.c:46
80001a26:	4401                	li	s0,0
80001a28:	a8d9                	j	80001afe <__adddf3+0x5f2>
/Local/xl_ci/toolchain/riscv-gnu-toolchain/riscv-gcc/libgcc/soft-fp/adddf3.c:46 (discriminator 385)
80001a2a:	854e                	mv	a0,s3
80001a2c:	347010ef          	jal	ra,80003572 <__clzsi2>
80001a30:	02050513          	addi	a0,a0,32
80001a34:	bf61                	j	800019cc <__adddf3+0x4c0>
/Local/xl_ci/toolchain/riscv-gnu-toolchain/riscv-gcc/libgcc/soft-fp/adddf3.c:46 (discriminator 394)
80001a36:	fd850793          	addi	a5,a0,-40
80001a3a:	00f997b3          	sll	a5,s3,a5
80001a3e:	4581                	li	a1,0
80001a40:	b775                	j	800019ec <__adddf3+0x4e0>
/Local/xl_ci/toolchain/riscv-gnu-toolchain/riscv-gcc/libgcc/soft-fp/adddf3.c:46 (discriminator 406)
80001a42:	1705                	addi	a4,a4,-31
80001a44:	02000613          	li	a2,32
80001a48:	00e7d733          	srl	a4,a5,a4
80001a4c:	4501                	li	a0,0
80001a4e:	00c68763          	beq	a3,a2,80001a5c <__adddf3+0x550>
/Local/xl_ci/toolchain/riscv-gnu-toolchain/riscv-gcc/libgcc/soft-fp/adddf3.c:46 (discriminator 414)
80001a52:	04000513          	li	a0,64
80001a56:	8d15                	sub	a0,a0,a3
80001a58:	00a79533          	sll	a0,a5,a0
/Local/xl_ci/toolchain/riscv-gnu-toolchain/riscv-gcc/libgcc/soft-fp/adddf3.c:46 (discriminator 417)
80001a5c:	8d4d                	or	a0,a0,a1
80001a5e:	00a03533          	snez	a0,a0
80001a62:	00a765b3          	or	a1,a4,a0
80001a66:	4781                	li	a5,0
80001a68:	bf4d                	j	80001a1a <__adddf3+0x50e>
/Local/xl_ci/toolchain/riscv-gnu-toolchain/riscv-gcc/libgcc/soft-fp/adddf3.c:46 (discriminator 404)
80001a6a:	8c19                	sub	s0,s0,a4
80001a6c:	ff800737          	lui	a4,0xff800
80001a70:	177d                	addi	a4,a4,-1
80001a72:	8ff9                	and	a5,a5,a4
80001a74:	b975                	j	80001730 <__adddf3+0x224>
/Local/xl_ci/toolchain/riscv-gnu-toolchain/riscv-gcc/libgcc/soft-fp/adddf3.c:45
80001a76:	87ba                	mv	a5,a4
80001a78:	85b2                	mv	a1,a2
/Local/xl_ci/toolchain/riscv-gnu-toolchain/riscv-gcc/libgcc/soft-fp/adddf3.c:46
80001a7a:	842a                	mv	s0,a0
80001a7c:	b955                	j	80001730 <__adddf3+0x224>
/Local/xl_ci/toolchain/riscv-gnu-toolchain/riscv-gcc/libgcc/soft-fp/adddf3.c:45
80001a7e:	87ba                	mv	a5,a4
80001a80:	85b2                	mv	a1,a2
80001a82:	b17d                	j	80001730 <__adddf3+0x224>
80001a84:	7ff00413          	li	s0,2047
80001a88:	4781                	li	a5,0
80001a8a:	4581                	li	a1,0
/Local/xl_ci/toolchain/riscv-gnu-toolchain/riscv-gcc/libgcc/soft-fp/adddf3.c:47 (discriminator 47)
80001a8c:	00800737          	lui	a4,0x800
80001a90:	8f7d                	and	a4,a4,a5
80001a92:	cb11                	beqz	a4,80001aa6 <__adddf3+0x59a>
/Local/xl_ci/toolchain/riscv-gnu-toolchain/riscv-gcc/libgcc/soft-fp/adddf3.c:47 (discriminator 63)
80001a94:	0405                	addi	s0,s0,1
80001a96:	7ff00713          	li	a4,2047
80001a9a:	06e40b63          	beq	s0,a4,80001b10 <__adddf3+0x604>
/Local/xl_ci/toolchain/riscv-gnu-toolchain/riscv-gcc/libgcc/soft-fp/adddf3.c:47
80001a9e:	ff800737          	lui	a4,0xff800
80001aa2:	177d                	addi	a4,a4,-1
80001aa4:	8ff9                	and	a5,a5,a4
/Local/xl_ci/toolchain/riscv-gnu-toolchain/riscv-gcc/libgcc/soft-fp/adddf3.c:47 (discriminator 79)
80001aa6:	01d79713          	slli	a4,a5,0x1d
80001aaa:	0035d513          	srli	a0,a1,0x3
80001aae:	8d59                	or	a0,a0,a4
80001ab0:	7ff00713          	li	a4,2047
80001ab4:	838d                	srli	a5,a5,0x3
80001ab6:	00e41963          	bne	s0,a4,80001ac8 <__adddf3+0x5bc>
/Local/xl_ci/toolchain/riscv-gnu-toolchain/riscv-gcc/libgcc/soft-fp/adddf3.c:47 (discriminator 80)
80001aba:	8d5d                	or	a0,a0,a5
80001abc:	4781                	li	a5,0
80001abe:	c509                	beqz	a0,80001ac8 <__adddf3+0x5bc>
/Local/xl_ci/toolchain/riscv-gnu-toolchain/riscv-gcc/libgcc/soft-fp/adddf3.c:47
80001ac0:	000807b7          	lui	a5,0x80
80001ac4:	4501                	li	a0,0
80001ac6:	4481                	li	s1,0
/Local/xl_ci/toolchain/riscv-gnu-toolchain/riscv-gcc/libgcc/soft-fp/adddf3.c:47 (discriminator 90)
80001ac8:	01441713          	slli	a4,s0,0x14
80001acc:	7ff006b7          	lui	a3,0x7ff00
80001ad0:	07b2                	slli	a5,a5,0xc
/Local/xl_ci/toolchain/riscv-gnu-toolchain/riscv-gcc/libgcc/soft-fp/adddf3.c:51 (discriminator 90)
80001ad2:	40f2                	lw	ra,28(sp)
80001ad4:	4462                	lw	s0,24(sp)
/Local/xl_ci/toolchain/riscv-gnu-toolchain/riscv-gcc/libgcc/soft-fp/adddf3.c:47 (discriminator 90)
80001ad6:	8f75                	and	a4,a4,a3
80001ad8:	83b1                	srli	a5,a5,0xc
80001ada:	04fe                	slli	s1,s1,0x1f
80001adc:	8fd9                	or	a5,a5,a4
80001ade:	0097e733          	or	a4,a5,s1
/Local/xl_ci/toolchain/riscv-gnu-toolchain/riscv-gcc/libgcc/soft-fp/adddf3.c:51 (discriminator 90)
80001ae2:	4942                	lw	s2,16(sp)
80001ae4:	44d2                	lw	s1,20(sp)
80001ae6:	49b2                	lw	s3,12(sp)
80001ae8:	85ba                	mv	a1,a4
80001aea:	6105                	addi	sp,sp,32
80001aec:	8082                	ret
80001aee:	8442                	mv	s0,a6
80001af0:	b181                	j	80001730 <__adddf3+0x224>
/Local/xl_ci/toolchain/riscv-gnu-toolchain/riscv-gcc/libgcc/soft-fp/adddf3.c:45
80001af2:	87ba                	mv	a5,a4
80001af4:	85b2                	mv	a1,a2
/Local/xl_ci/toolchain/riscv-gnu-toolchain/riscv-gcc/libgcc/soft-fp/adddf3.c:46
80001af6:	842a                	mv	s0,a0
80001af8:	b599                	j	8000193e <__adddf3+0x432>
80001afa:	4781                	li	a5,0
80001afc:	4581                	li	a1,0
80001afe:	4481                	li	s1,0
80001b00:	b771                	j	80001a8c <__adddf3+0x580>
80001b02:	4781                	li	a5,0
80001b04:	bfed                	j	80001afe <__adddf3+0x5f2>
80001b06:	4581                	li	a1,0
80001b08:	4481                	li	s1,0
80001b0a:	004007b7          	lui	a5,0x400
80001b0e:	b989                	j	80001760 <__adddf3+0x254>
80001b10:	4781                	li	a5,0
80001b12:	4581                	li	a1,0
80001b14:	bf49                	j	80001aa6 <__adddf3+0x59a>

80001b16 <__divdf3>:
__divdf3():
/Local/xl_ci/toolchain/riscv-gnu-toolchain/riscv-gcc/libgcc/soft-fp/divdf3.c:36
80001b16:	7179                	addi	sp,sp,-48
80001b18:	d04a                	sw	s2,32(sp)
/Local/xl_ci/toolchain/riscv-gnu-toolchain/riscv-gcc/libgcc/soft-fp/divdf3.c:44
80001b1a:	0145d913          	srli	s2,a1,0x14
/Local/xl_ci/toolchain/riscv-gnu-toolchain/riscv-gcc/libgcc/soft-fp/divdf3.c:36
80001b1e:	d226                	sw	s1,36(sp)
80001b20:	ce4e                	sw	s3,28(sp)
80001b22:	cc52                	sw	s4,24(sp)
80001b24:	c85a                	sw	s6,16(sp)
80001b26:	c462                	sw	s8,8(sp)
/Local/xl_ci/toolchain/riscv-gnu-toolchain/riscv-gcc/libgcc/soft-fp/divdf3.c:44
80001b28:	00c59493          	slli	s1,a1,0xc
/Local/xl_ci/toolchain/riscv-gnu-toolchain/riscv-gcc/libgcc/soft-fp/divdf3.c:36
80001b2c:	d606                	sw	ra,44(sp)
80001b2e:	d422                	sw	s0,40(sp)
80001b30:	ca56                	sw	s5,20(sp)
80001b32:	c65e                	sw	s7,12(sp)
/Local/xl_ci/toolchain/riscv-gnu-toolchain/riscv-gcc/libgcc/soft-fp/divdf3.c:44
80001b34:	7ff97913          	andi	s2,s2,2047
/Local/xl_ci/toolchain/riscv-gnu-toolchain/riscv-gcc/libgcc/soft-fp/divdf3.c:36
80001b38:	8a2a                	mv	s4,a0
80001b3a:	8b32                	mv	s6,a2
80001b3c:	8c36                	mv	s8,a3
/Local/xl_ci/toolchain/riscv-gnu-toolchain/riscv-gcc/libgcc/soft-fp/divdf3.c:44
80001b3e:	80b1                	srli	s1,s1,0xc
80001b40:	01f5d993          	srli	s3,a1,0x1f
80001b44:	08090463          	beqz	s2,80001bcc <__divdf3+0xb6>
80001b48:	7ff00793          	li	a5,2047
80001b4c:	0cf90a63          	beq	s2,a5,80001c20 <__divdf3+0x10a>
/Local/xl_ci/toolchain/riscv-gnu-toolchain/riscv-gcc/libgcc/soft-fp/divdf3.c:44 (discriminator 1)
80001b50:	01d55a93          	srli	s5,a0,0x1d
80001b54:	048e                	slli	s1,s1,0x3
80001b56:	009ae4b3          	or	s1,s5,s1
80001b5a:	00800ab7          	lui	s5,0x800
80001b5e:	0154eab3          	or	s5,s1,s5
80001b62:	00351413          	slli	s0,a0,0x3
80001b66:	c0190913          	addi	s2,s2,-1023 # 7ffc01 <__stack_size+0x7ff401>
/Local/xl_ci/toolchain/riscv-gnu-toolchain/riscv-gcc/libgcc/soft-fp/divdf3.c:44 (discriminator 41)
80001b6a:	4b81                	li	s7,0
/Local/xl_ci/toolchain/riscv-gnu-toolchain/riscv-gcc/libgcc/soft-fp/divdf3.c:45 (discriminator 8)
80001b6c:	00cc1513          	slli	a0,s8,0xc
80001b70:	00c55493          	srli	s1,a0,0xc
80001b74:	014c5513          	srli	a0,s8,0x14
80001b78:	7ff57593          	andi	a1,a0,2047
80001b7c:	01fc5c13          	srli	s8,s8,0x1f
80001b80:	c1f9                	beqz	a1,80001c46 <__divdf3+0x130>
/Local/xl_ci/toolchain/riscv-gnu-toolchain/riscv-gcc/libgcc/soft-fp/divdf3.c:45
80001b82:	7ff00793          	li	a5,2047
80001b86:	10f58b63          	beq	a1,a5,80001c9c <__divdf3+0x186>
/Local/xl_ci/toolchain/riscv-gnu-toolchain/riscv-gcc/libgcc/soft-fp/divdf3.c:45 (discriminator 1)
80001b8a:	00349513          	slli	a0,s1,0x3
80001b8e:	01db5793          	srli	a5,s6,0x1d
80001b92:	8d5d                	or	a0,a0,a5
80001b94:	008004b7          	lui	s1,0x800
80001b98:	8cc9                	or	s1,s1,a0
80001b9a:	003b1f93          	slli	t6,s6,0x3
80001b9e:	c0158513          	addi	a0,a1,-1023
/Local/xl_ci/toolchain/riscv-gnu-toolchain/riscv-gcc/libgcc/soft-fp/divdf3.c:45 (discriminator 41)
80001ba2:	4781                	li	a5,0
/Local/xl_ci/toolchain/riscv-gnu-toolchain/riscv-gcc/libgcc/soft-fp/divdf3.c:46 (discriminator 8)
80001ba4:	002b9713          	slli	a4,s7,0x2
80001ba8:	8f5d                	or	a4,a4,a5
80001baa:	177d                	addi	a4,a4,-1
80001bac:	4639                	li	a2,14
80001bae:	0189c6b3          	xor	a3,s3,s8
80001bb2:	40a905b3          	sub	a1,s2,a0
80001bb6:	10e66563          	bltu	a2,a4,80001cc0 <__divdf3+0x1aa>
80001bba:	00005617          	auipc	a2,0x5
80001bbe:	10660613          	addi	a2,a2,262 # 80006cc0 <__trunctfdf2+0x358>
80001bc2:	070a                	slli	a4,a4,0x2
80001bc4:	9732                	add	a4,a4,a2
80001bc6:	4318                	lw	a4,0(a4)
80001bc8:	9732                	add	a4,a4,a2
80001bca:	8702                	jr	a4
/Local/xl_ci/toolchain/riscv-gnu-toolchain/riscv-gcc/libgcc/soft-fp/divdf3.c:44 (discriminator 2)
80001bcc:	00a4eab3          	or	s5,s1,a0
80001bd0:	060a8263          	beqz	s5,80001c34 <__divdf3+0x11e>
/Local/xl_ci/toolchain/riscv-gnu-toolchain/riscv-gcc/libgcc/soft-fp/divdf3.c:44 (discriminator 13)
80001bd4:	c89d                	beqz	s1,80001c0a <__divdf3+0xf4>
/Local/xl_ci/toolchain/riscv-gnu-toolchain/riscv-gcc/libgcc/soft-fp/divdf3.c:44 (discriminator 17)
80001bd6:	8526                	mv	a0,s1
80001bd8:	19b010ef          	jal	ra,80003572 <__clzsi2>
/Local/xl_ci/toolchain/riscv-gnu-toolchain/riscv-gcc/libgcc/soft-fp/divdf3.c:44 (discriminator 31)
80001bdc:	ff550793          	addi	a5,a0,-11
80001be0:	4771                	li	a4,28
80001be2:	02f74963          	blt	a4,a5,80001c14 <__divdf3+0xfe>
/Local/xl_ci/toolchain/riscv-gnu-toolchain/riscv-gcc/libgcc/soft-fp/divdf3.c:44 (discriminator 32)
80001be6:	4af5                	li	s5,29
80001be8:	ff850413          	addi	s0,a0,-8
80001bec:	40fa8ab3          	sub	s5,s5,a5
80001bf0:	008494b3          	sll	s1,s1,s0
80001bf4:	015a5ab3          	srl	s5,s4,s5
80001bf8:	009aeab3          	or	s5,s5,s1
80001bfc:	008a1433          	sll	s0,s4,s0
/Local/xl_ci/toolchain/riscv-gnu-toolchain/riscv-gcc/libgcc/soft-fp/divdf3.c:44 (discriminator 41)
80001c00:	c0d00593          	li	a1,-1011
80001c04:	40a58933          	sub	s2,a1,a0
80001c08:	b78d                	j	80001b6a <__divdf3+0x54>
/Local/xl_ci/toolchain/riscv-gnu-toolchain/riscv-gcc/libgcc/soft-fp/divdf3.c:44 (discriminator 24)
80001c0a:	169010ef          	jal	ra,80003572 <__clzsi2>
80001c0e:	02050513          	addi	a0,a0,32
80001c12:	b7e9                	j	80001bdc <__divdf3+0xc6>
/Local/xl_ci/toolchain/riscv-gnu-toolchain/riscv-gcc/libgcc/soft-fp/divdf3.c:44 (discriminator 33)
80001c14:	fd850493          	addi	s1,a0,-40
80001c18:	009a1ab3          	sll	s5,s4,s1
80001c1c:	4401                	li	s0,0
80001c1e:	b7cd                	j	80001c00 <__divdf3+0xea>
/Local/xl_ci/toolchain/riscv-gnu-toolchain/riscv-gcc/libgcc/soft-fp/divdf3.c:44 (discriminator 3)
80001c20:	00a4eab3          	or	s5,s1,a0
80001c24:	000a8c63          	beqz	s5,80001c3c <__divdf3+0x126>
80001c28:	842a                	mv	s0,a0
/Local/xl_ci/toolchain/riscv-gnu-toolchain/riscv-gcc/libgcc/soft-fp/divdf3.c:44
80001c2a:	8aa6                	mv	s5,s1
80001c2c:	7ff00913          	li	s2,2047
80001c30:	4b8d                	li	s7,3
80001c32:	bf2d                	j	80001b6c <__divdf3+0x56>
80001c34:	4401                	li	s0,0
80001c36:	4901                	li	s2,0
80001c38:	4b85                	li	s7,1
80001c3a:	bf0d                	j	80001b6c <__divdf3+0x56>
80001c3c:	4401                	li	s0,0
80001c3e:	7ff00913          	li	s2,2047
80001c42:	4b89                	li	s7,2
80001c44:	b725                	j	80001b6c <__divdf3+0x56>
/Local/xl_ci/toolchain/riscv-gnu-toolchain/riscv-gcc/libgcc/soft-fp/divdf3.c:45 (discriminator 2)
80001c46:	0164efb3          	or	t6,s1,s6
80001c4a:	060f8263          	beqz	t6,80001cae <__divdf3+0x198>
/Local/xl_ci/toolchain/riscv-gnu-toolchain/riscv-gcc/libgcc/soft-fp/divdf3.c:45 (discriminator 13)
80001c4e:	c89d                	beqz	s1,80001c84 <__divdf3+0x16e>
/Local/xl_ci/toolchain/riscv-gnu-toolchain/riscv-gcc/libgcc/soft-fp/divdf3.c:45 (discriminator 17)
80001c50:	8526                	mv	a0,s1
80001c52:	121010ef          	jal	ra,80003572 <__clzsi2>
80001c56:	85aa                	mv	a1,a0
/Local/xl_ci/toolchain/riscv-gnu-toolchain/riscv-gcc/libgcc/soft-fp/divdf3.c:45 (discriminator 31)
80001c58:	ff558793          	addi	a5,a1,-11
80001c5c:	4771                	li	a4,28
80001c5e:	02f74963          	blt	a4,a5,80001c90 <__divdf3+0x17a>
/Local/xl_ci/toolchain/riscv-gnu-toolchain/riscv-gcc/libgcc/soft-fp/divdf3.c:45 (discriminator 32)
80001c62:	46f5                	li	a3,29
80001c64:	ff858f93          	addi	t6,a1,-8
80001c68:	8e9d                	sub	a3,a3,a5
80001c6a:	01f49533          	sll	a0,s1,t6
80001c6e:	00db56b3          	srl	a3,s6,a3
80001c72:	00a6e4b3          	or	s1,a3,a0
80001c76:	01fb1fb3          	sll	t6,s6,t6
/Local/xl_ci/toolchain/riscv-gnu-toolchain/riscv-gcc/libgcc/soft-fp/divdf3.c:45 (discriminator 41)
80001c7a:	c0d00693          	li	a3,-1011
80001c7e:	40b68533          	sub	a0,a3,a1
80001c82:	b705                	j	80001ba2 <__divdf3+0x8c>
/Local/xl_ci/toolchain/riscv-gnu-toolchain/riscv-gcc/libgcc/soft-fp/divdf3.c:45 (discriminator 24)
80001c84:	855a                	mv	a0,s6
80001c86:	0ed010ef          	jal	ra,80003572 <__clzsi2>
80001c8a:	02050593          	addi	a1,a0,32
80001c8e:	b7e9                	j	80001c58 <__divdf3+0x142>
/Local/xl_ci/toolchain/riscv-gnu-toolchain/riscv-gcc/libgcc/soft-fp/divdf3.c:45 (discriminator 33)
80001c90:	fd858513          	addi	a0,a1,-40
80001c94:	00ab14b3          	sll	s1,s6,a0
80001c98:	4f81                	li	t6,0
80001c9a:	b7c5                	j	80001c7a <__divdf3+0x164>
/Local/xl_ci/toolchain/riscv-gnu-toolchain/riscv-gcc/libgcc/soft-fp/divdf3.c:45 (discriminator 3)
80001c9c:	0164efb3          	or	t6,s1,s6
80001ca0:	000f8b63          	beqz	t6,80001cb6 <__divdf3+0x1a0>
/Local/xl_ci/toolchain/riscv-gnu-toolchain/riscv-gcc/libgcc/soft-fp/divdf3.c:45
80001ca4:	8fda                	mv	t6,s6
80001ca6:	7ff00513          	li	a0,2047
80001caa:	478d                	li	a5,3
80001cac:	bde5                	j	80001ba4 <__divdf3+0x8e>
80001cae:	4481                	li	s1,0
80001cb0:	4501                	li	a0,0
80001cb2:	4785                	li	a5,1
80001cb4:	bdc5                	j	80001ba4 <__divdf3+0x8e>
80001cb6:	4481                	li	s1,0
80001cb8:	7ff00513          	li	a0,2047
80001cbc:	4789                	li	a5,2
80001cbe:	b5dd                	j	80001ba4 <__divdf3+0x8e>
/Local/xl_ci/toolchain/riscv-gnu-toolchain/riscv-gcc/libgcc/soft-fp/divdf3.c:46 (discriminator 2)
80001cc0:	0154e663          	bltu	s1,s5,80001ccc <__divdf3+0x1b6>
/Local/xl_ci/toolchain/riscv-gnu-toolchain/riscv-gcc/libgcc/soft-fp/divdf3.c:46 (discriminator 11)
80001cc4:	2a9a9663          	bne	s5,s1,80001f70 <__divdf3+0x45a>
/Local/xl_ci/toolchain/riscv-gnu-toolchain/riscv-gcc/libgcc/soft-fp/divdf3.c:46 (discriminator 12)
80001cc8:	2bf46463          	bltu	s0,t6,80001f70 <__divdf3+0x45a>
/Local/xl_ci/toolchain/riscv-gnu-toolchain/riscv-gcc/libgcc/soft-fp/divdf3.c:46 (discriminator 14)
80001ccc:	01fa9613          	slli	a2,s5,0x1f
80001cd0:	00145713          	srli	a4,s0,0x1
80001cd4:	01f41793          	slli	a5,s0,0x1f
80001cd8:	001ada93          	srli	s5,s5,0x1
80001cdc:	00e66433          	or	s0,a2,a4
/Local/xl_ci/toolchain/riscv-gnu-toolchain/riscv-gcc/libgcc/soft-fp/divdf3.c:46 (discriminator 19)
80001ce0:	00849513          	slli	a0,s1,0x8
80001ce4:	018fd893          	srli	a7,t6,0x18
80001ce8:	00a8e8b3          	or	a7,a7,a0
80001cec:	8141                	srli	a0,a0,0x10
80001cee:	02aade33          	divu	t3,s5,a0
80001cf2:	01089e93          	slli	t4,a7,0x10
80001cf6:	010ede93          	srli	t4,t4,0x10
80001cfa:	01045713          	srli	a4,s0,0x10
80001cfe:	008f9313          	slli	t1,t6,0x8
80001d02:	02aafab3          	remu	s5,s5,a0
80001d06:	8672                	mv	a2,t3
80001d08:	03ce8833          	mul	a6,t4,t3
80001d0c:	0ac2                	slli	s5,s5,0x10
80001d0e:	01576733          	or	a4,a4,s5
80001d12:	01077c63          	bgeu	a4,a6,80001d2a <__divdf3+0x214>
/Local/xl_ci/toolchain/riscv-gnu-toolchain/riscv-gcc/libgcc/soft-fp/divdf3.c:46 (discriminator 22)
80001d16:	9746                	add	a4,a4,a7
80001d18:	fffe0613          	addi	a2,t3,-1
80001d1c:	01176763          	bltu	a4,a7,80001d2a <__divdf3+0x214>
/Local/xl_ci/toolchain/riscv-gnu-toolchain/riscv-gcc/libgcc/soft-fp/divdf3.c:46 (discriminator 24)
80001d20:	01077563          	bgeu	a4,a6,80001d2a <__divdf3+0x214>
/Local/xl_ci/toolchain/riscv-gnu-toolchain/riscv-gcc/libgcc/soft-fp/divdf3.c:46 (discriminator 26)
80001d24:	ffee0613          	addi	a2,t3,-2
80001d28:	9746                	add	a4,a4,a7
/Local/xl_ci/toolchain/riscv-gnu-toolchain/riscv-gcc/libgcc/soft-fp/divdf3.c:46 (discriminator 28)
80001d2a:	41070733          	sub	a4,a4,a6
80001d2e:	02a75e33          	divu	t3,a4,a0
80001d32:	0442                	slli	s0,s0,0x10
80001d34:	8041                	srli	s0,s0,0x10
80001d36:	02a77733          	remu	a4,a4,a0
80001d3a:	82f2                	mv	t0,t3
80001d3c:	03ce8833          	mul	a6,t4,t3
80001d40:	0742                	slli	a4,a4,0x10
80001d42:	8f41                	or	a4,a4,s0
80001d44:	01077c63          	bgeu	a4,a6,80001d5c <__divdf3+0x246>
/Local/xl_ci/toolchain/riscv-gnu-toolchain/riscv-gcc/libgcc/soft-fp/divdf3.c:46 (discriminator 29)
80001d48:	9746                	add	a4,a4,a7
80001d4a:	fffe0293          	addi	t0,t3,-1
80001d4e:	01176763          	bltu	a4,a7,80001d5c <__divdf3+0x246>
/Local/xl_ci/toolchain/riscv-gnu-toolchain/riscv-gcc/libgcc/soft-fp/divdf3.c:46 (discriminator 31)
80001d52:	01077563          	bgeu	a4,a6,80001d5c <__divdf3+0x246>
/Local/xl_ci/toolchain/riscv-gnu-toolchain/riscv-gcc/libgcc/soft-fp/divdf3.c:46 (discriminator 33)
80001d56:	ffee0293          	addi	t0,t3,-2
80001d5a:	9746                	add	a4,a4,a7
/Local/xl_ci/toolchain/riscv-gnu-toolchain/riscv-gcc/libgcc/soft-fp/divdf3.c:46 (discriminator 35)
80001d5c:	41070433          	sub	s0,a4,a6
80001d60:	0642                	slli	a2,a2,0x10
80001d62:	6841                	lui	a6,0x10
80001d64:	005662b3          	or	t0,a2,t0
80001d68:	fff80e13          	addi	t3,a6,-1 # ffff <__stack_size+0xf7ff>
80001d6c:	0102d613          	srli	a2,t0,0x10
80001d70:	01c2f733          	and	a4,t0,t3
80001d74:	01035f13          	srli	t5,t1,0x10
80001d78:	01c37e33          	and	t3,t1,t3
80001d7c:	02ee03b3          	mul	t2,t3,a4
80001d80:	03c604b3          	mul	s1,a2,t3
80001d84:	02ef0733          	mul	a4,t5,a4
80001d88:	03e60fb3          	mul	t6,a2,t5
80001d8c:	00970633          	add	a2,a4,s1
80001d90:	0103d713          	srli	a4,t2,0x10
80001d94:	9732                	add	a4,a4,a2
80001d96:	00977363          	bgeu	a4,s1,80001d9c <__divdf3+0x286>
/Local/xl_ci/toolchain/riscv-gnu-toolchain/riscv-gcc/libgcc/soft-fp/divdf3.c:46 (discriminator 36)
80001d9a:	9fc2                	add	t6,t6,a6
/Local/xl_ci/toolchain/riscv-gnu-toolchain/riscv-gcc/libgcc/soft-fp/divdf3.c:46 (discriminator 38)
80001d9c:	01075613          	srli	a2,a4,0x10
80001da0:	967e                	add	a2,a2,t6
80001da2:	6fc1                	lui	t6,0x10
80001da4:	1ffd                	addi	t6,t6,-1
80001da6:	01f77833          	and	a6,a4,t6
80001daa:	0842                	slli	a6,a6,0x10
80001dac:	01f3f3b3          	and	t2,t2,t6
80001db0:	981e                	add	a6,a6,t2
80001db2:	00c46763          	bltu	s0,a2,80001dc0 <__divdf3+0x2aa>
/Local/xl_ci/toolchain/riscv-gnu-toolchain/riscv-gcc/libgcc/soft-fp/divdf3.c:46 (discriminator 40)
80001db6:	8496                	mv	s1,t0
80001db8:	02c41e63          	bne	s0,a2,80001df4 <__divdf3+0x2de>
/Local/xl_ci/toolchain/riscv-gnu-toolchain/riscv-gcc/libgcc/soft-fp/divdf3.c:46 (discriminator 41)
80001dbc:	0307fc63          	bgeu	a5,a6,80001df4 <__divdf3+0x2de>
/Local/xl_ci/toolchain/riscv-gnu-toolchain/riscv-gcc/libgcc/soft-fp/divdf3.c:46 (discriminator 43)
80001dc0:	979a                	add	a5,a5,t1
80001dc2:	0067b733          	sltu	a4,a5,t1
80001dc6:	9746                	add	a4,a4,a7
80001dc8:	943a                	add	s0,s0,a4
80001dca:	fff28493          	addi	s1,t0,-1
80001dce:	0088e663          	bltu	a7,s0,80001dda <__divdf3+0x2c4>
/Local/xl_ci/toolchain/riscv-gnu-toolchain/riscv-gcc/libgcc/soft-fp/divdf3.c:46 (discriminator 46)
80001dd2:	02889163          	bne	a7,s0,80001df4 <__divdf3+0x2de>
/Local/xl_ci/toolchain/riscv-gnu-toolchain/riscv-gcc/libgcc/soft-fp/divdf3.c:46 (discriminator 47)
80001dd6:	0067ef63          	bltu	a5,t1,80001df4 <__divdf3+0x2de>
/Local/xl_ci/toolchain/riscv-gnu-toolchain/riscv-gcc/libgcc/soft-fp/divdf3.c:46 (discriminator 49)
80001dda:	00c46663          	bltu	s0,a2,80001de6 <__divdf3+0x2d0>
/Local/xl_ci/toolchain/riscv-gnu-toolchain/riscv-gcc/libgcc/soft-fp/divdf3.c:46 (discriminator 52)
80001dde:	00861b63          	bne	a2,s0,80001df4 <__divdf3+0x2de>
/Local/xl_ci/toolchain/riscv-gnu-toolchain/riscv-gcc/libgcc/soft-fp/divdf3.c:46 (discriminator 53)
80001de2:	0107f963          	bgeu	a5,a6,80001df4 <__divdf3+0x2de>
/Local/xl_ci/toolchain/riscv-gnu-toolchain/riscv-gcc/libgcc/soft-fp/divdf3.c:46 (discriminator 55)
80001de6:	979a                	add	a5,a5,t1
80001de8:	0067b733          	sltu	a4,a5,t1
80001dec:	9746                	add	a4,a4,a7
80001dee:	ffe28493          	addi	s1,t0,-2
80001df2:	943a                	add	s0,s0,a4
/Local/xl_ci/toolchain/riscv-gnu-toolchain/riscv-gcc/libgcc/soft-fp/divdf3.c:46 (discriminator 57)
80001df4:	41078833          	sub	a6,a5,a6
80001df8:	8c11                	sub	s0,s0,a2
80001dfa:	0107b7b3          	sltu	a5,a5,a6
80001dfe:	8c1d                	sub	s0,s0,a5
80001e00:	5ffd                	li	t6,-1
80001e02:	0e888763          	beq	a7,s0,80001ef0 <__divdf3+0x3da>
/Local/xl_ci/toolchain/riscv-gnu-toolchain/riscv-gcc/libgcc/soft-fp/divdf3.c:46 (discriminator 59)
80001e06:	02a45fb3          	divu	t6,s0,a0
80001e0a:	01085713          	srli	a4,a6,0x10
80001e0e:	02a47433          	remu	s0,s0,a0
80001e12:	867e                	mv	a2,t6
80001e14:	03fe87b3          	mul	a5,t4,t6
80001e18:	0442                	slli	s0,s0,0x10
80001e1a:	8c59                	or	s0,s0,a4
80001e1c:	00f47c63          	bgeu	s0,a5,80001e34 <__divdf3+0x31e>
/Local/xl_ci/toolchain/riscv-gnu-toolchain/riscv-gcc/libgcc/soft-fp/divdf3.c:46 (discriminator 61)
80001e20:	9446                	add	s0,s0,a7
80001e22:	ffff8613          	addi	a2,t6,-1 # ffff <__stack_size+0xf7ff>
80001e26:	01146763          	bltu	s0,a7,80001e34 <__divdf3+0x31e>
/Local/xl_ci/toolchain/riscv-gnu-toolchain/riscv-gcc/libgcc/soft-fp/divdf3.c:46 (discriminator 63)
80001e2a:	00f47563          	bgeu	s0,a5,80001e34 <__divdf3+0x31e>
/Local/xl_ci/toolchain/riscv-gnu-toolchain/riscv-gcc/libgcc/soft-fp/divdf3.c:46 (discriminator 65)
80001e2e:	ffef8613          	addi	a2,t6,-2
80001e32:	9446                	add	s0,s0,a7
/Local/xl_ci/toolchain/riscv-gnu-toolchain/riscv-gcc/libgcc/soft-fp/divdf3.c:46 (discriminator 67)
80001e34:	8c1d                	sub	s0,s0,a5
80001e36:	02a45733          	divu	a4,s0,a0
80001e3a:	0842                	slli	a6,a6,0x10
80001e3c:	01085813          	srli	a6,a6,0x10
80001e40:	02a47433          	remu	s0,s0,a0
80001e44:	87ba                	mv	a5,a4
80001e46:	02ee8eb3          	mul	t4,t4,a4
80001e4a:	0442                	slli	s0,s0,0x10
80001e4c:	00886433          	or	s0,a6,s0
80001e50:	01d47c63          	bgeu	s0,t4,80001e68 <__divdf3+0x352>
/Local/xl_ci/toolchain/riscv-gnu-toolchain/riscv-gcc/libgcc/soft-fp/divdf3.c:46 (discriminator 68)
80001e54:	9446                	add	s0,s0,a7
80001e56:	fff70793          	addi	a5,a4,-1 # ff7fffff <_sp+0x6f7effff>
80001e5a:	01146763          	bltu	s0,a7,80001e68 <__divdf3+0x352>
/Local/xl_ci/toolchain/riscv-gnu-toolchain/riscv-gcc/libgcc/soft-fp/divdf3.c:46 (discriminator 70)
80001e5e:	01d47563          	bgeu	s0,t4,80001e68 <__divdf3+0x352>
/Local/xl_ci/toolchain/riscv-gnu-toolchain/riscv-gcc/libgcc/soft-fp/divdf3.c:46 (discriminator 72)
80001e62:	ffe70793          	addi	a5,a4,-2
80001e66:	9446                	add	s0,s0,a7
/Local/xl_ci/toolchain/riscv-gnu-toolchain/riscv-gcc/libgcc/soft-fp/divdf3.c:46 (discriminator 74)
80001e68:	0642                	slli	a2,a2,0x10
80001e6a:	8e5d                	or	a2,a2,a5
80001e6c:	01061793          	slli	a5,a2,0x10
80001e70:	83c1                	srli	a5,a5,0x10
80001e72:	01065713          	srli	a4,a2,0x10
80001e76:	02ef0833          	mul	a6,t5,a4
80001e7a:	41d40433          	sub	s0,s0,t4
80001e7e:	02ff0f33          	mul	t5,t5,a5
80001e82:	03c78eb3          	mul	t4,a5,t3
80001e86:	03c70e33          	mul	t3,a4,t3
80001e8a:	010ed793          	srli	a5,t4,0x10
80001e8e:	9f72                	add	t5,t5,t3
80001e90:	97fa                	add	a5,a5,t5
80001e92:	01c7f463          	bgeu	a5,t3,80001e9a <__divdf3+0x384>
/Local/xl_ci/toolchain/riscv-gnu-toolchain/riscv-gcc/libgcc/soft-fp/divdf3.c:46 (discriminator 75)
80001e96:	6741                	lui	a4,0x10
80001e98:	983a                	add	a6,a6,a4
/Local/xl_ci/toolchain/riscv-gnu-toolchain/riscv-gcc/libgcc/soft-fp/divdf3.c:46 (discriminator 77)
80001e9a:	0107d713          	srli	a4,a5,0x10
80001e9e:	9742                	add	a4,a4,a6
80001ea0:	6841                	lui	a6,0x10
80001ea2:	187d                	addi	a6,a6,-1
80001ea4:	0107f533          	and	a0,a5,a6
80001ea8:	0542                	slli	a0,a0,0x10
80001eaa:	010efeb3          	and	t4,t4,a6
80001eae:	9576                	add	a0,a0,t4
80001eb0:	00e46663          	bltu	s0,a4,80001ebc <__divdf3+0x3a6>
/Local/xl_ci/toolchain/riscv-gnu-toolchain/riscv-gcc/libgcc/soft-fp/divdf3.c:46 (discriminator 79)
80001eb4:	18e41f63          	bne	s0,a4,80002052 <__divdf3+0x53c>
/Local/xl_ci/toolchain/riscv-gnu-toolchain/riscv-gcc/libgcc/soft-fp/divdf3.c:46 (discriminator 80)
80001eb8:	8fb2                	mv	t6,a2
80001eba:	c91d                	beqz	a0,80001ef0 <__divdf3+0x3da>
/Local/xl_ci/toolchain/riscv-gnu-toolchain/riscv-gcc/libgcc/soft-fp/divdf3.c:46 (discriminator 82)
80001ebc:	9446                	add	s0,s0,a7
80001ebe:	fff60f93          	addi	t6,a2,-1
80001ec2:	03146163          	bltu	s0,a7,80001ee4 <__divdf3+0x3ce>
/Local/xl_ci/toolchain/riscv-gnu-toolchain/riscv-gcc/libgcc/soft-fp/divdf3.c:46 (discriminator 88)
80001ec6:	00e46663          	bltu	s0,a4,80001ed2 <__divdf3+0x3bc>
/Local/xl_ci/toolchain/riscv-gnu-toolchain/riscv-gcc/libgcc/soft-fp/divdf3.c:46 (discriminator 91)
80001eca:	18e41363          	bne	s0,a4,80002050 <__divdf3+0x53a>
/Local/xl_ci/toolchain/riscv-gnu-toolchain/riscv-gcc/libgcc/soft-fp/divdf3.c:46 (discriminator 92)
80001ece:	00a37d63          	bgeu	t1,a0,80001ee8 <__divdf3+0x3d2>
/Local/xl_ci/toolchain/riscv-gnu-toolchain/riscv-gcc/libgcc/soft-fp/divdf3.c:46 (discriminator 94)
80001ed2:	00131793          	slli	a5,t1,0x1
80001ed6:	0067b333          	sltu	t1,a5,t1
80001eda:	989a                	add	a7,a7,t1
80001edc:	ffe60f93          	addi	t6,a2,-2
80001ee0:	9446                	add	s0,s0,a7
80001ee2:	833e                	mv	t1,a5
/Local/xl_ci/toolchain/riscv-gnu-toolchain/riscv-gcc/libgcc/soft-fp/divdf3.c:46 (discriminator 96)
80001ee4:	00e41463          	bne	s0,a4,80001eec <__divdf3+0x3d6>
/Local/xl_ci/toolchain/riscv-gnu-toolchain/riscv-gcc/libgcc/soft-fp/divdf3.c:46 (discriminator 98)
80001ee8:	00650463          	beq	a0,t1,80001ef0 <__divdf3+0x3da>
/Local/xl_ci/toolchain/riscv-gnu-toolchain/riscv-gcc/libgcc/soft-fp/divdf3.c:46 (discriminator 99)
80001eec:	001fef93          	ori	t6,t6,1
/Local/xl_ci/toolchain/riscv-gnu-toolchain/riscv-gcc/libgcc/soft-fp/divdf3.c:47 (discriminator 2)
80001ef0:	3ff58793          	addi	a5,a1,1023
80001ef4:	0af05b63          	blez	a5,80001faa <__divdf3+0x494>
/Local/xl_ci/toolchain/riscv-gnu-toolchain/riscv-gcc/libgcc/soft-fp/divdf3.c:47 (discriminator 6)
80001ef8:	007ff713          	andi	a4,t6,7
80001efc:	cf01                	beqz	a4,80001f14 <__divdf3+0x3fe>
/Local/xl_ci/toolchain/riscv-gnu-toolchain/riscv-gcc/libgcc/soft-fp/divdf3.c:47 (discriminator 8)
80001efe:	00fff713          	andi	a4,t6,15
80001f02:	4611                	li	a2,4
80001f04:	00c70863          	beq	a4,a2,80001f14 <__divdf3+0x3fe>
/Local/xl_ci/toolchain/riscv-gnu-toolchain/riscv-gcc/libgcc/soft-fp/divdf3.c:47 (discriminator 10)
80001f08:	004f8613          	addi	a2,t6,4
80001f0c:	01f63fb3          	sltu	t6,a2,t6
80001f10:	94fe                	add	s1,s1,t6
80001f12:	8fb2                	mv	t6,a2
/Local/xl_ci/toolchain/riscv-gnu-toolchain/riscv-gcc/libgcc/soft-fp/divdf3.c:47 (discriminator 9)
80001f14:	01000737          	lui	a4,0x1000
80001f18:	8f65                	and	a4,a4,s1
80001f1a:	c719                	beqz	a4,80001f28 <__divdf3+0x412>
/Local/xl_ci/toolchain/riscv-gnu-toolchain/riscv-gcc/libgcc/soft-fp/divdf3.c:47 (discriminator 24)
80001f1c:	ff0007b7          	lui	a5,0xff000
80001f20:	17fd                	addi	a5,a5,-1
80001f22:	8cfd                	and	s1,s1,a5
80001f24:	40058793          	addi	a5,a1,1024
/Local/xl_ci/toolchain/riscv-gnu-toolchain/riscv-gcc/libgcc/soft-fp/divdf3.c:47 (discriminator 26)
80001f28:	7fe00713          	li	a4,2046
80001f2c:	06f74263          	blt	a4,a5,80001f90 <__divdf3+0x47a>
/Local/xl_ci/toolchain/riscv-gnu-toolchain/riscv-gcc/libgcc/soft-fp/divdf3.c:47
80001f30:	003fdf93          	srli	t6,t6,0x3
80001f34:	01d49713          	slli	a4,s1,0x1d
80001f38:	01f76733          	or	a4,a4,t6
80001f3c:	0034d513          	srli	a0,s1,0x3
/Local/xl_ci/toolchain/riscv-gnu-toolchain/riscv-gcc/libgcc/soft-fp/divdf3.c:47 (discriminator 119)
80001f40:	07d2                	slli	a5,a5,0x14
80001f42:	7ff00637          	lui	a2,0x7ff00
80001f46:	0532                	slli	a0,a0,0xc
/Local/xl_ci/toolchain/riscv-gnu-toolchain/riscv-gcc/libgcc/soft-fp/divdf3.c:51 (discriminator 119)
80001f48:	50b2                	lw	ra,44(sp)
80001f4a:	5422                	lw	s0,40(sp)
/Local/xl_ci/toolchain/riscv-gnu-toolchain/riscv-gcc/libgcc/soft-fp/divdf3.c:47 (discriminator 119)
80001f4c:	8ff1                	and	a5,a5,a2
80001f4e:	8131                	srli	a0,a0,0xc
80001f50:	8d5d                	or	a0,a0,a5
80001f52:	06fe                	slli	a3,a3,0x1f
80001f54:	00d567b3          	or	a5,a0,a3
/Local/xl_ci/toolchain/riscv-gnu-toolchain/riscv-gcc/libgcc/soft-fp/divdf3.c:51 (discriminator 119)
80001f58:	5492                	lw	s1,36(sp)
80001f5a:	5902                	lw	s2,32(sp)
80001f5c:	49f2                	lw	s3,28(sp)
80001f5e:	4a62                	lw	s4,24(sp)
80001f60:	4ad2                	lw	s5,20(sp)
80001f62:	4b42                	lw	s6,16(sp)
80001f64:	4bb2                	lw	s7,12(sp)
80001f66:	4c22                	lw	s8,8(sp)
80001f68:	853a                	mv	a0,a4
80001f6a:	85be                	mv	a1,a5
80001f6c:	6145                	addi	sp,sp,48
80001f6e:	8082                	ret
/Local/xl_ci/toolchain/riscv-gnu-toolchain/riscv-gcc/libgcc/soft-fp/divdf3.c:46 (discriminator 15)
80001f70:	15fd                	addi	a1,a1,-1
80001f72:	4781                	li	a5,0
80001f74:	b3b5                	j	80001ce0 <__divdf3+0x1ca>
/Local/xl_ci/toolchain/riscv-gnu-toolchain/riscv-gcc/libgcc/soft-fp/divdf3.c:44 (discriminator 8)
80001f76:	86ce                	mv	a3,s3
/Local/xl_ci/toolchain/riscv-gnu-toolchain/riscv-gcc/libgcc/soft-fp/divdf3.c:46 (discriminator 8)
80001f78:	84d6                	mv	s1,s5
80001f7a:	8fa2                	mv	t6,s0
80001f7c:	87de                	mv	a5,s7
/Local/xl_ci/toolchain/riscv-gnu-toolchain/riscv-gcc/libgcc/soft-fp/divdf3.c:47 (discriminator 108)
80001f7e:	470d                	li	a4,3
80001f80:	0ae78a63          	beq	a5,a4,80002034 <__divdf3+0x51e>
/Local/xl_ci/toolchain/riscv-gnu-toolchain/riscv-gcc/libgcc/soft-fp/divdf3.c:47
80001f84:	4705                	li	a4,1
80001f86:	0ae78e63          	beq	a5,a4,80002042 <__divdf3+0x52c>
80001f8a:	4709                	li	a4,2
80001f8c:	f6e792e3          	bne	a5,a4,80001ef0 <__divdf3+0x3da>
80001f90:	4501                	li	a0,0
80001f92:	4701                	li	a4,0
80001f94:	7ff00793          	li	a5,2047
80001f98:	b765                	j	80001f40 <__divdf3+0x42a>
/Local/xl_ci/toolchain/riscv-gnu-toolchain/riscv-gcc/libgcc/soft-fp/divdf3.c:45 (discriminator 5)
80001f9a:	86e2                	mv	a3,s8
/Local/xl_ci/toolchain/riscv-gnu-toolchain/riscv-gcc/libgcc/soft-fp/divdf3.c:46 (discriminator 5)
80001f9c:	b7cd                	j	80001f7e <__divdf3+0x468>
/Local/xl_ci/toolchain/riscv-gnu-toolchain/riscv-gcc/libgcc/soft-fp/divdf3.c:46
80001f9e:	000804b7          	lui	s1,0x80
80001fa2:	4f81                	li	t6,0
80001fa4:	4681                	li	a3,0
80001fa6:	478d                	li	a5,3
80001fa8:	bfd9                	j	80001f7e <__divdf3+0x468>
/Local/xl_ci/toolchain/riscv-gnu-toolchain/riscv-gcc/libgcc/soft-fp/divdf3.c:47 (discriminator 59)
80001faa:	4505                	li	a0,1
80001fac:	8d1d                	sub	a0,a0,a5
80001fae:	03800713          	li	a4,56
80001fb2:	08a74863          	blt	a4,a0,80002042 <__divdf3+0x52c>
/Local/xl_ci/toolchain/riscv-gnu-toolchain/riscv-gcc/libgcc/soft-fp/divdf3.c:47 (discriminator 60)
80001fb6:	477d                	li	a4,31
80001fb8:	04a74963          	blt	a4,a0,8000200a <__divdf3+0x4f4>
/Local/xl_ci/toolchain/riscv-gnu-toolchain/riscv-gcc/libgcc/soft-fp/divdf3.c:47 (discriminator 62)
80001fbc:	41e58593          	addi	a1,a1,1054
80001fc0:	00b497b3          	sll	a5,s1,a1
80001fc4:	00afd733          	srl	a4,t6,a0
80001fc8:	00bf95b3          	sll	a1,t6,a1
80001fcc:	8fd9                	or	a5,a5,a4
80001fce:	00b035b3          	snez	a1,a1
80001fd2:	8fcd                	or	a5,a5,a1
80001fd4:	00a4d533          	srl	a0,s1,a0
/Local/xl_ci/toolchain/riscv-gnu-toolchain/riscv-gcc/libgcc/soft-fp/divdf3.c:47 (discriminator 75)
80001fd8:	0077f713          	andi	a4,a5,7
80001fdc:	cf01                	beqz	a4,80001ff4 <__divdf3+0x4de>
/Local/xl_ci/toolchain/riscv-gnu-toolchain/riscv-gcc/libgcc/soft-fp/divdf3.c:47 (discriminator 76)
80001fde:	00f7f713          	andi	a4,a5,15
80001fe2:	4611                	li	a2,4
80001fe4:	00c70863          	beq	a4,a2,80001ff4 <__divdf3+0x4de>
/Local/xl_ci/toolchain/riscv-gnu-toolchain/riscv-gcc/libgcc/soft-fp/divdf3.c:47 (discriminator 78)
80001fe8:	00478713          	addi	a4,a5,4 # ff000004 <_sp+0x6eff0004>
80001fec:	00f737b3          	sltu	a5,a4,a5
80001ff0:	953e                	add	a0,a0,a5
80001ff2:	87ba                	mv	a5,a4
/Local/xl_ci/toolchain/riscv-gnu-toolchain/riscv-gcc/libgcc/soft-fp/divdf3.c:47 (discriminator 77)
80001ff4:	00800737          	lui	a4,0x800
80001ff8:	8f69                	and	a4,a4,a0
80001ffa:	e739                	bnez	a4,80002048 <__divdf3+0x532>
/Local/xl_ci/toolchain/riscv-gnu-toolchain/riscv-gcc/libgcc/soft-fp/divdf3.c:47 (discriminator 93)
80001ffc:	01d51713          	slli	a4,a0,0x1d
80002000:	838d                	srli	a5,a5,0x3
80002002:	8f5d                	or	a4,a4,a5
80002004:	810d                	srli	a0,a0,0x3
/Local/xl_ci/toolchain/riscv-gnu-toolchain/riscv-gcc/libgcc/soft-fp/divdf3.c:47
80002006:	4781                	li	a5,0
80002008:	bf25                	j	80001f40 <__divdf3+0x42a>
/Local/xl_ci/toolchain/riscv-gnu-toolchain/riscv-gcc/libgcc/soft-fp/divdf3.c:47 (discriminator 63)
8000200a:	5705                	li	a4,-31
8000200c:	40f707b3          	sub	a5,a4,a5
80002010:	02000613          	li	a2,32
80002014:	00f4d7b3          	srl	a5,s1,a5
80002018:	4701                	li	a4,0
8000201a:	00c50663          	beq	a0,a2,80002026 <__divdf3+0x510>
/Local/xl_ci/toolchain/riscv-gnu-toolchain/riscv-gcc/libgcc/soft-fp/divdf3.c:47 (discriminator 71)
8000201e:	43e58713          	addi	a4,a1,1086
80002022:	00e49733          	sll	a4,s1,a4
/Local/xl_ci/toolchain/riscv-gnu-toolchain/riscv-gcc/libgcc/soft-fp/divdf3.c:47 (discriminator 74)
80002026:	01f76733          	or	a4,a4,t6
8000202a:	00e03733          	snez	a4,a4
8000202e:	8fd9                	or	a5,a5,a4
80002030:	4501                	li	a0,0
80002032:	b75d                	j	80001fd8 <__divdf3+0x4c2>
/Local/xl_ci/toolchain/riscv-gnu-toolchain/riscv-gcc/libgcc/soft-fp/divdf3.c:47
80002034:	00080537          	lui	a0,0x80
80002038:	4701                	li	a4,0
8000203a:	7ff00793          	li	a5,2047
8000203e:	4681                	li	a3,0
80002040:	b701                	j	80001f40 <__divdf3+0x42a>
80002042:	4501                	li	a0,0
80002044:	4701                	li	a4,0
80002046:	b7c1                	j	80002006 <__divdf3+0x4f0>
80002048:	4501                	li	a0,0
8000204a:	4701                	li	a4,0
8000204c:	4785                	li	a5,1
8000204e:	bdcd                	j	80001f40 <__divdf3+0x42a>
/Local/xl_ci/toolchain/riscv-gnu-toolchain/riscv-gcc/libgcc/soft-fp/divdf3.c:46
80002050:	867e                	mv	a2,t6
80002052:	8fb2                	mv	t6,a2
80002054:	bd61                	j	80001eec <__divdf3+0x3d6>

80002056 <__eqdf2>:
__eqdf2():
/Local/xl_ci/toolchain/riscv-gnu-toolchain/riscv-gcc/libgcc/soft-fp/eqdf2.c:43
80002056:	0145d713          	srli	a4,a1,0x14
8000205a:	001007b7          	lui	a5,0x100
8000205e:	17fd                	addi	a5,a5,-1
/Local/xl_ci/toolchain/riscv-gnu-toolchain/riscv-gcc/libgcc/soft-fp/eqdf2.c:44
80002060:	0146d813          	srli	a6,a3,0x14
/Local/xl_ci/toolchain/riscv-gnu-toolchain/riscv-gcc/libgcc/soft-fp/eqdf2.c:36
80002064:	832a                	mv	t1,a0
80002066:	8eaa                	mv	t4,a0
/Local/xl_ci/toolchain/riscv-gnu-toolchain/riscv-gcc/libgcc/soft-fp/eqdf2.c:43
80002068:	7ff77713          	andi	a4,a4,2047
/Local/xl_ci/toolchain/riscv-gnu-toolchain/riscv-gcc/libgcc/soft-fp/eqdf2.c:45
8000206c:	7ff00513          	li	a0,2047
/Local/xl_ci/toolchain/riscv-gnu-toolchain/riscv-gcc/libgcc/soft-fp/eqdf2.c:43
80002070:	00b7f8b3          	and	a7,a5,a1
80002074:	8f32                	mv	t5,a2
/Local/xl_ci/toolchain/riscv-gnu-toolchain/riscv-gcc/libgcc/soft-fp/eqdf2.c:44
80002076:	8ff5                	and	a5,a5,a3
/Local/xl_ci/toolchain/riscv-gnu-toolchain/riscv-gcc/libgcc/soft-fp/eqdf2.c:43
80002078:	81fd                	srli	a1,a1,0x1f
/Local/xl_ci/toolchain/riscv-gnu-toolchain/riscv-gcc/libgcc/soft-fp/eqdf2.c:44
8000207a:	7ff87813          	andi	a6,a6,2047
8000207e:	82fd                	srli	a3,a3,0x1f
/Local/xl_ci/toolchain/riscv-gnu-toolchain/riscv-gcc/libgcc/soft-fp/eqdf2.c:45
80002080:	00a71a63          	bne	a4,a0,80002094 <__eqdf2+0x3e>
/Local/xl_ci/toolchain/riscv-gnu-toolchain/riscv-gcc/libgcc/soft-fp/eqdf2.c:45 (discriminator 20)
80002084:	0068ee33          	or	t3,a7,t1
80002088:	4505                	li	a0,1
8000208a:	000e1463          	bnez	t3,80002092 <__eqdf2+0x3c>
/Local/xl_ci/toolchain/riscv-gnu-toolchain/riscv-gcc/libgcc/soft-fp/eqdf2.c:45
8000208e:	00e80563          	beq	a6,a4,80002098 <__eqdf2+0x42>
/Local/xl_ci/toolchain/riscv-gnu-toolchain/riscv-gcc/libgcc/soft-fp/eqdf2.c:49
80002092:	8082                	ret
/Local/xl_ci/toolchain/riscv-gnu-toolchain/riscv-gcc/libgcc/soft-fp/eqdf2.c:45 (discriminator 23)
80002094:	00a81563          	bne	a6,a0,8000209e <__eqdf2+0x48>
/Local/xl_ci/toolchain/riscv-gnu-toolchain/riscv-gcc/libgcc/soft-fp/eqdf2.c:45 (discriminator 24)
80002098:	8e5d                	or	a2,a2,a5
8000209a:	4505                	li	a0,1
8000209c:	fa7d                	bnez	a2,80002092 <__eqdf2+0x3c>
/Local/xl_ci/toolchain/riscv-gnu-toolchain/riscv-gcc/libgcc/soft-fp/eqdf2.c:45 (discriminator 78)
8000209e:	4505                	li	a0,1
800020a0:	ff0719e3          	bne	a4,a6,80002092 <__eqdf2+0x3c>
/Local/xl_ci/toolchain/riscv-gnu-toolchain/riscv-gcc/libgcc/soft-fp/eqdf2.c:45 (discriminator 80)
800020a4:	fef897e3          	bne	a7,a5,80002092 <__eqdf2+0x3c>
/Local/xl_ci/toolchain/riscv-gnu-toolchain/riscv-gcc/libgcc/soft-fp/eqdf2.c:45 (discriminator 82)
800020a8:	ffee95e3          	bne	t4,t5,80002092 <__eqdf2+0x3c>
/Local/xl_ci/toolchain/riscv-gnu-toolchain/riscv-gcc/libgcc/soft-fp/eqdf2.c:45 (discriminator 84)
800020ac:	00d58863          	beq	a1,a3,800020bc <__eqdf2+0x66>
/Local/xl_ci/toolchain/riscv-gnu-toolchain/riscv-gcc/libgcc/soft-fp/eqdf2.c:45 (discriminator 85)
800020b0:	f36d                	bnez	a4,80002092 <__eqdf2+0x3c>
/Local/xl_ci/toolchain/riscv-gnu-toolchain/riscv-gcc/libgcc/soft-fp/eqdf2.c:45 (discriminator 88)
800020b2:	0068e533          	or	a0,a7,t1
800020b6:	00a03533          	snez	a0,a0
800020ba:	8082                	ret
/Local/xl_ci/toolchain/riscv-gnu-toolchain/riscv-gcc/libgcc/soft-fp/eqdf2.c:45
800020bc:	4501                	li	a0,0
800020be:	8082                	ret

800020c0 <__ledf2>:
__ledf2():
/Local/xl_ci/toolchain/riscv-gnu-toolchain/riscv-gcc/libgcc/soft-fp/ledf2.c:43
800020c0:	00100737          	lui	a4,0x100
800020c4:	177d                	addi	a4,a4,-1
800020c6:	0145d813          	srli	a6,a1,0x14
800020ca:	00b778b3          	and	a7,a4,a1
/Local/xl_ci/toolchain/riscv-gnu-toolchain/riscv-gcc/libgcc/soft-fp/ledf2.c:36
800020ce:	87aa                	mv	a5,a0
800020d0:	832a                	mv	t1,a0
/Local/xl_ci/toolchain/riscv-gnu-toolchain/riscv-gcc/libgcc/soft-fp/ledf2.c:43
800020d2:	7ff87813          	andi	a6,a6,2047
800020d6:	01f5d513          	srli	a0,a1,0x1f
/Local/xl_ci/toolchain/riscv-gnu-toolchain/riscv-gcc/libgcc/soft-fp/ledf2.c:45
800020da:	7ff00e93          	li	t4,2047
/Local/xl_ci/toolchain/riscv-gnu-toolchain/riscv-gcc/libgcc/soft-fp/ledf2.c:44
800020de:	0146d593          	srli	a1,a3,0x14
800020e2:	8f75                	and	a4,a4,a3
800020e4:	8e32                	mv	t3,a2
800020e6:	7ff5f593          	andi	a1,a1,2047
800020ea:	82fd                	srli	a3,a3,0x1f
/Local/xl_ci/toolchain/riscv-gnu-toolchain/riscv-gcc/libgcc/soft-fp/ledf2.c:45
800020ec:	01d81863          	bne	a6,t4,800020fc <__ledf2+0x3c>
/Local/xl_ci/toolchain/riscv-gnu-toolchain/riscv-gcc/libgcc/soft-fp/ledf2.c:45 (discriminator 20)
800020f0:	00f8eeb3          	or	t4,a7,a5
800020f4:	060e8463          	beqz	t4,8000215c <__ledf2+0x9c>
/Local/xl_ci/toolchain/riscv-gnu-toolchain/riscv-gcc/libgcc/soft-fp/ledf2.c:45
800020f8:	4509                	li	a0,2
800020fa:	8082                	ret
/Local/xl_ci/toolchain/riscv-gnu-toolchain/riscv-gcc/libgcc/soft-fp/ledf2.c:45 (discriminator 23)
800020fc:	01d59663          	bne	a1,t4,80002108 <__ledf2+0x48>
/Local/xl_ci/toolchain/riscv-gnu-toolchain/riscv-gcc/libgcc/soft-fp/ledf2.c:45 (discriminator 24)
80002100:	00c76eb3          	or	t4,a4,a2
80002104:	fe0e9ae3          	bnez	t4,800020f8 <__ledf2+0x38>
/Local/xl_ci/toolchain/riscv-gnu-toolchain/riscv-gcc/libgcc/soft-fp/ledf2.c:45 (discriminator 62)
80002108:	04081c63          	bnez	a6,80002160 <__ledf2+0xa0>
/Local/xl_ci/toolchain/riscv-gnu-toolchain/riscv-gcc/libgcc/soft-fp/ledf2.c:45 (discriminator 63)
8000210c:	00f8e7b3          	or	a5,a7,a5
80002110:	0017b793          	seqz	a5,a5
80002114:	e199                	bnez	a1,8000211a <__ledf2+0x5a>
/Local/xl_ci/toolchain/riscv-gnu-toolchain/riscv-gcc/libgcc/soft-fp/ledf2.c:45 (discriminator 69)
80002116:	8e59                	or	a2,a2,a4
80002118:	ce0d                	beqz	a2,80002152 <__ledf2+0x92>
/Local/xl_ci/toolchain/riscv-gnu-toolchain/riscv-gcc/libgcc/soft-fp/ledf2.c:45
8000211a:	eb81                	bnez	a5,8000212a <__ledf2+0x6a>
8000211c:	00d51463          	bne	a0,a3,80002124 <__ledf2+0x64>
/Local/xl_ci/toolchain/riscv-gnu-toolchain/riscv-gcc/libgcc/soft-fp/ledf2.c:45 (discriminator 95)
80002120:	0105d963          	bge	a1,a6,80002132 <__ledf2+0x72>
/Local/xl_ci/toolchain/riscv-gnu-toolchain/riscv-gcc/libgcc/soft-fp/ledf2.c:45 (discriminator 119)
80002124:	c50d                	beqz	a0,8000214e <__ledf2+0x8e>
/Local/xl_ci/toolchain/riscv-gnu-toolchain/riscv-gcc/libgcc/soft-fp/ledf2.c:45
80002126:	557d                	li	a0,-1
80002128:	8082                	ret
/Local/xl_ci/toolchain/riscv-gnu-toolchain/riscv-gcc/libgcc/soft-fp/ledf2.c:45 (discriminator 80)
8000212a:	557d                	li	a0,-1
8000212c:	c691                	beqz	a3,80002138 <__ledf2+0x78>
/Local/xl_ci/toolchain/riscv-gnu-toolchain/riscv-gcc/libgcc/soft-fp/ledf2.c:45
8000212e:	8536                	mv	a0,a3
80002130:	8082                	ret
/Local/xl_ci/toolchain/riscv-gnu-toolchain/riscv-gcc/libgcc/soft-fp/ledf2.c:45 (discriminator 102)
80002132:	00b85463          	bge	a6,a1,8000213a <__ledf2+0x7a>
/Local/xl_ci/toolchain/riscv-gnu-toolchain/riscv-gcc/libgcc/soft-fp/ledf2.c:45 (discriminator 130)
80002136:	d965                	beqz	a0,80002126 <__ledf2+0x66>
/Local/xl_ci/toolchain/riscv-gnu-toolchain/riscv-gcc/libgcc/soft-fp/ledf2.c:49
80002138:	8082                	ret
/Local/xl_ci/toolchain/riscv-gnu-toolchain/riscv-gcc/libgcc/soft-fp/ledf2.c:45 (discriminator 109)
8000213a:	ff1765e3          	bltu	a4,a7,80002124 <__ledf2+0x64>
/Local/xl_ci/toolchain/riscv-gnu-toolchain/riscv-gcc/libgcc/soft-fp/ledf2.c:45 (discriminator 116)
8000213e:	00e89c63          	bne	a7,a4,80002156 <__ledf2+0x96>
/Local/xl_ci/toolchain/riscv-gnu-toolchain/riscv-gcc/libgcc/soft-fp/ledf2.c:45 (discriminator 117)
80002142:	fe6e61e3          	bltu	t3,t1,80002124 <__ledf2+0x64>
/Local/xl_ci/toolchain/riscv-gnu-toolchain/riscv-gcc/libgcc/soft-fp/ledf2.c:45 (discriminator 128)
80002146:	ffc368e3          	bltu	t1,t3,80002136 <__ledf2+0x76>
/Local/xl_ci/toolchain/riscv-gnu-toolchain/riscv-gcc/libgcc/soft-fp/ledf2.c:45
8000214a:	4501                	li	a0,0
8000214c:	8082                	ret
8000214e:	4505                	li	a0,1
80002150:	8082                	ret
80002152:	ffe5                	bnez	a5,8000214a <__ledf2+0x8a>
80002154:	bfc1                	j	80002124 <__ledf2+0x64>
80002156:	fee8e0e3          	bltu	a7,a4,80002136 <__ledf2+0x76>
8000215a:	bfc5                	j	8000214a <__ledf2+0x8a>
8000215c:	fb0582e3          	beq	a1,a6,80002100 <__ledf2+0x40>
80002160:	fdd5                	bnez	a1,8000211c <__ledf2+0x5c>
80002162:	4781                	li	a5,0
80002164:	bf4d                	j	80002116 <__ledf2+0x56>

80002166 <__muldf3>:
__muldf3():
/Local/xl_ci/toolchain/riscv-gnu-toolchain/riscv-gcc/libgcc/soft-fp/muldf3.c:36
80002166:	7179                	addi	sp,sp,-48
80002168:	ce4e                	sw	s3,28(sp)
/Local/xl_ci/toolchain/riscv-gnu-toolchain/riscv-gcc/libgcc/soft-fp/muldf3.c:44
8000216a:	0145d993          	srli	s3,a1,0x14
/Local/xl_ci/toolchain/riscv-gnu-toolchain/riscv-gcc/libgcc/soft-fp/muldf3.c:36
8000216e:	d422                	sw	s0,40(sp)
80002170:	d226                	sw	s1,36(sp)
80002172:	cc52                	sw	s4,24(sp)
80002174:	ca56                	sw	s5,20(sp)
80002176:	c65e                	sw	s7,12(sp)
/Local/xl_ci/toolchain/riscv-gnu-toolchain/riscv-gcc/libgcc/soft-fp/muldf3.c:44
80002178:	00c59493          	slli	s1,a1,0xc
/Local/xl_ci/toolchain/riscv-gnu-toolchain/riscv-gcc/libgcc/soft-fp/muldf3.c:36
8000217c:	d606                	sw	ra,44(sp)
8000217e:	d04a                	sw	s2,32(sp)
80002180:	c85a                	sw	s6,16(sp)
/Local/xl_ci/toolchain/riscv-gnu-toolchain/riscv-gcc/libgcc/soft-fp/muldf3.c:44
80002182:	7ff9f993          	andi	s3,s3,2047
/Local/xl_ci/toolchain/riscv-gnu-toolchain/riscv-gcc/libgcc/soft-fp/muldf3.c:36
80002186:	842a                	mv	s0,a0
80002188:	8bb2                	mv	s7,a2
8000218a:	8ab6                	mv	s5,a3
/Local/xl_ci/toolchain/riscv-gnu-toolchain/riscv-gcc/libgcc/soft-fp/muldf3.c:44
8000218c:	80b1                	srli	s1,s1,0xc
8000218e:	01f5da13          	srli	s4,a1,0x1f
80002192:	08098163          	beqz	s3,80002214 <__muldf3+0xae>
80002196:	7ff00793          	li	a5,2047
8000219a:	0cf98563          	beq	s3,a5,80002264 <__muldf3+0xfe>
/Local/xl_ci/toolchain/riscv-gnu-toolchain/riscv-gcc/libgcc/soft-fp/muldf3.c:44 (discriminator 1)
8000219e:	01d55793          	srli	a5,a0,0x1d
800021a2:	048e                	slli	s1,s1,0x3
800021a4:	8cdd                	or	s1,s1,a5
800021a6:	008007b7          	lui	a5,0x800
800021aa:	8cdd                	or	s1,s1,a5
800021ac:	00351913          	slli	s2,a0,0x3
800021b0:	c0198993          	addi	s3,s3,-1023
/Local/xl_ci/toolchain/riscv-gnu-toolchain/riscv-gcc/libgcc/soft-fp/muldf3.c:44 (discriminator 41)
800021b4:	4b01                	li	s6,0
/Local/xl_ci/toolchain/riscv-gnu-toolchain/riscv-gcc/libgcc/soft-fp/muldf3.c:45 (discriminator 8)
800021b6:	014ad513          	srli	a0,s5,0x14
800021ba:	00ca9413          	slli	s0,s5,0xc
800021be:	7ff57513          	andi	a0,a0,2047
800021c2:	8031                	srli	s0,s0,0xc
800021c4:	01fada93          	srli	s5,s5,0x1f
800021c8:	c161                	beqz	a0,80002288 <__muldf3+0x122>
/Local/xl_ci/toolchain/riscv-gnu-toolchain/riscv-gcc/libgcc/soft-fp/muldf3.c:45
800021ca:	7ff00793          	li	a5,2047
800021ce:	10f50563          	beq	a0,a5,800022d8 <__muldf3+0x172>
/Local/xl_ci/toolchain/riscv-gnu-toolchain/riscv-gcc/libgcc/soft-fp/muldf3.c:45 (discriminator 1)
800021d2:	01dbd793          	srli	a5,s7,0x1d
800021d6:	040e                	slli	s0,s0,0x3
800021d8:	8c5d                	or	s0,s0,a5
800021da:	008007b7          	lui	a5,0x800
800021de:	8c5d                	or	s0,s0,a5
800021e0:	c0150513          	addi	a0,a0,-1023 # 7fc01 <__stack_size+0x7f401>
800021e4:	003b9793          	slli	a5,s7,0x3
/Local/xl_ci/toolchain/riscv-gnu-toolchain/riscv-gcc/libgcc/soft-fp/muldf3.c:45 (discriminator 41)
800021e8:	4701                	li	a4,0
/Local/xl_ci/toolchain/riscv-gnu-toolchain/riscv-gcc/libgcc/soft-fp/muldf3.c:46 (discriminator 8)
800021ea:	002b1693          	slli	a3,s6,0x2
800021ee:	8ed9                	or	a3,a3,a4
800021f0:	954e                	add	a0,a0,s3
800021f2:	16fd                	addi	a3,a3,-1
800021f4:	4839                	li	a6,14
800021f6:	015a4633          	xor	a2,s4,s5
800021fa:	00150593          	addi	a1,a0,1
800021fe:	0ed86e63          	bltu	a6,a3,800022fa <__muldf3+0x194>
80002202:	00005517          	auipc	a0,0x5
80002206:	afa50513          	addi	a0,a0,-1286 # 80006cfc <__trunctfdf2+0x394>
8000220a:	068a                	slli	a3,a3,0x2
8000220c:	96aa                	add	a3,a3,a0
8000220e:	4294                	lw	a3,0(a3)
80002210:	96aa                	add	a3,a3,a0
80002212:	8682                	jr	a3
/Local/xl_ci/toolchain/riscv-gnu-toolchain/riscv-gcc/libgcc/soft-fp/muldf3.c:44 (discriminator 2)
80002214:	00a4e933          	or	s2,s1,a0
80002218:	04090f63          	beqz	s2,80002276 <__muldf3+0x110>
/Local/xl_ci/toolchain/riscv-gnu-toolchain/riscv-gcc/libgcc/soft-fp/muldf3.c:44 (discriminator 13)
8000221c:	c88d                	beqz	s1,8000224e <__muldf3+0xe8>
/Local/xl_ci/toolchain/riscv-gnu-toolchain/riscv-gcc/libgcc/soft-fp/muldf3.c:44 (discriminator 17)
8000221e:	8526                	mv	a0,s1
80002220:	352010ef          	jal	ra,80003572 <__clzsi2>
/Local/xl_ci/toolchain/riscv-gnu-toolchain/riscv-gcc/libgcc/soft-fp/muldf3.c:44 (discriminator 31)
80002224:	ff550713          	addi	a4,a0,-11
80002228:	47f1                	li	a5,28
8000222a:	02e7c763          	blt	a5,a4,80002258 <__muldf3+0xf2>
/Local/xl_ci/toolchain/riscv-gnu-toolchain/riscv-gcc/libgcc/soft-fp/muldf3.c:44 (discriminator 32)
8000222e:	47f5                	li	a5,29
80002230:	ff850913          	addi	s2,a0,-8
80002234:	8f99                	sub	a5,a5,a4
80002236:	012494b3          	sll	s1,s1,s2
8000223a:	00f457b3          	srl	a5,s0,a5
8000223e:	8cdd                	or	s1,s1,a5
80002240:	01241933          	sll	s2,s0,s2
/Local/xl_ci/toolchain/riscv-gnu-toolchain/riscv-gcc/libgcc/soft-fp/muldf3.c:44 (discriminator 41)
80002244:	c0d00993          	li	s3,-1011
80002248:	40a989b3          	sub	s3,s3,a0
8000224c:	b7a5                	j	800021b4 <__muldf3+0x4e>
/Local/xl_ci/toolchain/riscv-gnu-toolchain/riscv-gcc/libgcc/soft-fp/muldf3.c:44 (discriminator 24)
8000224e:	324010ef          	jal	ra,80003572 <__clzsi2>
80002252:	02050513          	addi	a0,a0,32
80002256:	b7f9                	j	80002224 <__muldf3+0xbe>
/Local/xl_ci/toolchain/riscv-gnu-toolchain/riscv-gcc/libgcc/soft-fp/muldf3.c:44 (discriminator 33)
80002258:	fd850493          	addi	s1,a0,-40
8000225c:	009414b3          	sll	s1,s0,s1
80002260:	4901                	li	s2,0
80002262:	b7cd                	j	80002244 <__muldf3+0xde>
/Local/xl_ci/toolchain/riscv-gnu-toolchain/riscv-gcc/libgcc/soft-fp/muldf3.c:44 (discriminator 3)
80002264:	00a4e933          	or	s2,s1,a0
80002268:	00090b63          	beqz	s2,8000227e <__muldf3+0x118>
/Local/xl_ci/toolchain/riscv-gnu-toolchain/riscv-gcc/libgcc/soft-fp/muldf3.c:44
8000226c:	892a                	mv	s2,a0
8000226e:	7ff00993          	li	s3,2047
80002272:	4b0d                	li	s6,3
80002274:	b789                	j	800021b6 <__muldf3+0x50>
80002276:	4481                	li	s1,0
80002278:	4981                	li	s3,0
8000227a:	4b05                	li	s6,1
8000227c:	bf2d                	j	800021b6 <__muldf3+0x50>
8000227e:	4481                	li	s1,0
80002280:	7ff00993          	li	s3,2047
80002284:	4b09                	li	s6,2
80002286:	bf05                	j	800021b6 <__muldf3+0x50>
/Local/xl_ci/toolchain/riscv-gnu-toolchain/riscv-gcc/libgcc/soft-fp/muldf3.c:45 (discriminator 2)
80002288:	017467b3          	or	a5,s0,s7
8000228c:	cfb1                	beqz	a5,800022e8 <__muldf3+0x182>
/Local/xl_ci/toolchain/riscv-gnu-toolchain/riscv-gcc/libgcc/soft-fp/muldf3.c:45 (discriminator 13)
8000228e:	c80d                	beqz	s0,800022c0 <__muldf3+0x15a>
/Local/xl_ci/toolchain/riscv-gnu-toolchain/riscv-gcc/libgcc/soft-fp/muldf3.c:45 (discriminator 17)
80002290:	8522                	mv	a0,s0
80002292:	2e0010ef          	jal	ra,80003572 <__clzsi2>
/Local/xl_ci/toolchain/riscv-gnu-toolchain/riscv-gcc/libgcc/soft-fp/muldf3.c:45 (discriminator 31)
80002296:	ff550693          	addi	a3,a0,-11
8000229a:	47f1                	li	a5,28
8000229c:	02d7c863          	blt	a5,a3,800022cc <__muldf3+0x166>
/Local/xl_ci/toolchain/riscv-gnu-toolchain/riscv-gcc/libgcc/soft-fp/muldf3.c:45 (discriminator 32)
800022a0:	4775                	li	a4,29
800022a2:	ff850793          	addi	a5,a0,-8
800022a6:	8f15                	sub	a4,a4,a3
800022a8:	00f41433          	sll	s0,s0,a5
800022ac:	00ebd733          	srl	a4,s7,a4
800022b0:	8c59                	or	s0,s0,a4
800022b2:	00fb97b3          	sll	a5,s7,a5
/Local/xl_ci/toolchain/riscv-gnu-toolchain/riscv-gcc/libgcc/soft-fp/muldf3.c:45 (discriminator 41)
800022b6:	c0d00713          	li	a4,-1011
800022ba:	40a70533          	sub	a0,a4,a0
800022be:	b72d                	j	800021e8 <__muldf3+0x82>
/Local/xl_ci/toolchain/riscv-gnu-toolchain/riscv-gcc/libgcc/soft-fp/muldf3.c:45 (discriminator 24)
800022c0:	855e                	mv	a0,s7
800022c2:	2b0010ef          	jal	ra,80003572 <__clzsi2>
800022c6:	02050513          	addi	a0,a0,32
800022ca:	b7f1                	j	80002296 <__muldf3+0x130>
/Local/xl_ci/toolchain/riscv-gnu-toolchain/riscv-gcc/libgcc/soft-fp/muldf3.c:45 (discriminator 33)
800022cc:	fd850413          	addi	s0,a0,-40
800022d0:	008b9433          	sll	s0,s7,s0
800022d4:	4781                	li	a5,0
800022d6:	b7c5                	j	800022b6 <__muldf3+0x150>
/Local/xl_ci/toolchain/riscv-gnu-toolchain/riscv-gcc/libgcc/soft-fp/muldf3.c:45 (discriminator 3)
800022d8:	017467b3          	or	a5,s0,s7
800022dc:	cb91                	beqz	a5,800022f0 <__muldf3+0x18a>
/Local/xl_ci/toolchain/riscv-gnu-toolchain/riscv-gcc/libgcc/soft-fp/muldf3.c:45
800022de:	87de                	mv	a5,s7
800022e0:	7ff00513          	li	a0,2047
800022e4:	470d                	li	a4,3
800022e6:	b711                	j	800021ea <__muldf3+0x84>
800022e8:	4401                	li	s0,0
800022ea:	4501                	li	a0,0
800022ec:	4705                	li	a4,1
800022ee:	bdf5                	j	800021ea <__muldf3+0x84>
800022f0:	4401                	li	s0,0
800022f2:	7ff00513          	li	a0,2047
800022f6:	4709                	li	a4,2
800022f8:	bdcd                	j	800021ea <__muldf3+0x84>
/Local/xl_ci/toolchain/riscv-gnu-toolchain/riscv-gcc/libgcc/soft-fp/muldf3.c:46 (discriminator 2)
800022fa:	6f41                	lui	t5,0x10
800022fc:	ffff0e93          	addi	t4,t5,-1 # ffff <__stack_size+0xf7ff>
80002300:	01095713          	srli	a4,s2,0x10
80002304:	0107d893          	srli	a7,a5,0x10
80002308:	01d97933          	and	s2,s2,t4
8000230c:	01d7f7b3          	and	a5,a5,t4
80002310:	03288833          	mul	a6,a7,s2
80002314:	02f906b3          	mul	a3,s2,a5
80002318:	02f70fb3          	mul	t6,a4,a5
8000231c:	01f80333          	add	t1,a6,t6
80002320:	0106d813          	srli	a6,a3,0x10
80002324:	981a                	add	a6,a6,t1
80002326:	03170e33          	mul	t3,a4,a7
8000232a:	01f87363          	bgeu	a6,t6,80002330 <__muldf3+0x1ca>
/Local/xl_ci/toolchain/riscv-gnu-toolchain/riscv-gcc/libgcc/soft-fp/muldf3.c:46 (discriminator 9)
8000232e:	9e7a                	add	t3,t3,t5
/Local/xl_ci/toolchain/riscv-gnu-toolchain/riscv-gcc/libgcc/soft-fp/muldf3.c:46 (discriminator 11)
80002330:	01085393          	srli	t2,a6,0x10
80002334:	01d87833          	and	a6,a6,t4
80002338:	01d6f6b3          	and	a3,a3,t4
8000233c:	01045f13          	srli	t5,s0,0x10
80002340:	01d472b3          	and	t0,s0,t4
80002344:	0842                	slli	a6,a6,0x10
80002346:	9836                	add	a6,a6,a3
80002348:	02570eb3          	mul	t4,a4,t0
8000234c:	025906b3          	mul	a3,s2,t0
80002350:	032f0933          	mul	s2,t5,s2
80002354:	01d90333          	add	t1,s2,t4
80002358:	0106d913          	srli	s2,a3,0x10
8000235c:	991a                	add	s2,s2,t1
8000235e:	03e70733          	mul	a4,a4,t5
80002362:	01d97463          	bgeu	s2,t4,8000236a <__muldf3+0x204>
/Local/xl_ci/toolchain/riscv-gnu-toolchain/riscv-gcc/libgcc/soft-fp/muldf3.c:46 (discriminator 12)
80002366:	6341                	lui	t1,0x10
80002368:	971a                	add	a4,a4,t1
/Local/xl_ci/toolchain/riscv-gnu-toolchain/riscv-gcc/libgcc/soft-fp/muldf3.c:46 (discriminator 14)
8000236a:	01095e93          	srli	t4,s2,0x10
8000236e:	69c1                	lui	s3,0x10
80002370:	9eba                	add	t4,t4,a4
80002372:	fff98713          	addi	a4,s3,-1 # ffff <__stack_size+0xf7ff>
80002376:	00e97933          	and	s2,s2,a4
8000237a:	8ef9                	and	a3,a3,a4
8000237c:	0104d413          	srli	s0,s1,0x10
80002380:	0942                	slli	s2,s2,0x10
80002382:	8cf9                	and	s1,s1,a4
80002384:	02978733          	mul	a4,a5,s1
80002388:	9936                	add	s2,s2,a3
8000238a:	93ca                	add	t2,t2,s2
8000238c:	02f40333          	mul	t1,s0,a5
80002390:	029886b3          	mul	a3,a7,s1
80002394:	028887b3          	mul	a5,a7,s0
80002398:	006688b3          	add	a7,a3,t1
8000239c:	01075693          	srli	a3,a4,0x10
800023a0:	96c6                	add	a3,a3,a7
800023a2:	0066f363          	bgeu	a3,t1,800023a8 <__muldf3+0x242>
/Local/xl_ci/toolchain/riscv-gnu-toolchain/riscv-gcc/libgcc/soft-fp/muldf3.c:46 (discriminator 15)
800023a6:	97ce                	add	a5,a5,s3
/Local/xl_ci/toolchain/riscv-gnu-toolchain/riscv-gcc/libgcc/soft-fp/muldf3.c:46 (discriminator 17)
800023a8:	0106d893          	srli	a7,a3,0x10
800023ac:	69c1                	lui	s3,0x10
800023ae:	00f88fb3          	add	t6,a7,a5
800023b2:	fff98793          	addi	a5,s3,-1 # ffff <__stack_size+0xf7ff>
800023b6:	029288b3          	mul	a7,t0,s1
800023ba:	8efd                	and	a3,a3,a5
800023bc:	8f7d                	and	a4,a4,a5
800023be:	06c2                	slli	a3,a3,0x10
800023c0:	96ba                	add	a3,a3,a4
800023c2:	025407b3          	mul	a5,s0,t0
800023c6:	029f04b3          	mul	s1,t5,s1
800023ca:	028f0333          	mul	t1,t5,s0
800023ce:	94be                	add	s1,s1,a5
800023d0:	0108d413          	srli	s0,a7,0x10
800023d4:	94a2                	add	s1,s1,s0
800023d6:	00f4f363          	bgeu	s1,a5,800023dc <__muldf3+0x276>
/Local/xl_ci/toolchain/riscv-gnu-toolchain/riscv-gcc/libgcc/soft-fp/muldf3.c:46 (discriminator 18)
800023da:	934e                	add	t1,t1,s3
/Local/xl_ci/toolchain/riscv-gnu-toolchain/riscv-gcc/libgcc/soft-fp/muldf3.c:46 (discriminator 20)
800023dc:	67c1                	lui	a5,0x10
800023de:	17fd                	addi	a5,a5,-1
800023e0:	00f4f733          	and	a4,s1,a5
800023e4:	00f8f8b3          	and	a7,a7,a5
800023e8:	0742                	slli	a4,a4,0x10
800023ea:	9e1e                	add	t3,t3,t2
800023ec:	9746                	add	a4,a4,a7
800023ee:	012e3933          	sltu	s2,t3,s2
800023f2:	9776                	add	a4,a4,t4
800023f4:	01270433          	add	s0,a4,s2
800023f8:	9e36                	add	t3,t3,a3
800023fa:	00de36b3          	sltu	a3,t3,a3
800023fe:	01f408b3          	add	a7,s0,t6
80002402:	00d88f33          	add	t5,a7,a3
80002406:	01d73733          	sltu	a4,a4,t4
8000240a:	01243433          	sltu	s0,s0,s2
8000240e:	8c59                	or	s0,s0,a4
80002410:	80c1                	srli	s1,s1,0x10
80002412:	01f8b8b3          	sltu	a7,a7,t6
80002416:	00df36b3          	sltu	a3,t5,a3
8000241a:	9426                	add	s0,s0,s1
8000241c:	00d8e6b3          	or	a3,a7,a3
80002420:	9436                	add	s0,s0,a3
80002422:	941a                	add	s0,s0,t1
80002424:	017f5793          	srli	a5,t5,0x17
80002428:	0426                	slli	s0,s0,0x9
8000242a:	8c5d                	or	s0,s0,a5
8000242c:	009e1793          	slli	a5,t3,0x9
80002430:	0107e7b3          	or	a5,a5,a6
80002434:	00f037b3          	snez	a5,a5
80002438:	017e5e13          	srli	t3,t3,0x17
8000243c:	009f1713          	slli	a4,t5,0x9
80002440:	01c7e7b3          	or	a5,a5,t3
80002444:	8fd9                	or	a5,a5,a4
80002446:	01000737          	lui	a4,0x1000
8000244a:	8f61                	and	a4,a4,s0
8000244c:	cb4d                	beqz	a4,800024fe <__muldf3+0x398>
/Local/xl_ci/toolchain/riscv-gnu-toolchain/riscv-gcc/libgcc/soft-fp/muldf3.c:46 (discriminator 38)
8000244e:	0017d713          	srli	a4,a5,0x1
80002452:	8b85                	andi	a5,a5,1
80002454:	8fd9                	or	a5,a5,a4
80002456:	01f41713          	slli	a4,s0,0x1f
8000245a:	8fd9                	or	a5,a5,a4
8000245c:	8005                	srli	s0,s0,0x1
/Local/xl_ci/toolchain/riscv-gnu-toolchain/riscv-gcc/libgcc/soft-fp/muldf3.c:47 (discriminator 2)
8000245e:	3ff58693          	addi	a3,a1,1023
80002462:	0ad05063          	blez	a3,80002502 <__muldf3+0x39c>
/Local/xl_ci/toolchain/riscv-gnu-toolchain/riscv-gcc/libgcc/soft-fp/muldf3.c:47 (discriminator 6)
80002466:	0077f713          	andi	a4,a5,7
8000246a:	cf01                	beqz	a4,80002482 <__muldf3+0x31c>
/Local/xl_ci/toolchain/riscv-gnu-toolchain/riscv-gcc/libgcc/soft-fp/muldf3.c:47 (discriminator 8)
8000246c:	00f7f713          	andi	a4,a5,15
80002470:	4511                	li	a0,4
80002472:	00a70863          	beq	a4,a0,80002482 <__muldf3+0x31c>
/Local/xl_ci/toolchain/riscv-gnu-toolchain/riscv-gcc/libgcc/soft-fp/muldf3.c:47 (discriminator 10)
80002476:	00478713          	addi	a4,a5,4 # 10004 <__stack_size+0xf804>
8000247a:	00f737b3          	sltu	a5,a4,a5
8000247e:	943e                	add	s0,s0,a5
80002480:	87ba                	mv	a5,a4
/Local/xl_ci/toolchain/riscv-gnu-toolchain/riscv-gcc/libgcc/soft-fp/muldf3.c:47 (discriminator 9)
80002482:	01000737          	lui	a4,0x1000
80002486:	8f61                	and	a4,a4,s0
80002488:	c719                	beqz	a4,80002496 <__muldf3+0x330>
/Local/xl_ci/toolchain/riscv-gnu-toolchain/riscv-gcc/libgcc/soft-fp/muldf3.c:47 (discriminator 24)
8000248a:	ff000737          	lui	a4,0xff000
8000248e:	177d                	addi	a4,a4,-1
80002490:	8c79                	and	s0,s0,a4
80002492:	40058693          	addi	a3,a1,1024
/Local/xl_ci/toolchain/riscv-gnu-toolchain/riscv-gcc/libgcc/soft-fp/muldf3.c:47 (discriminator 26)
80002496:	7fe00713          	li	a4,2046
8000249a:	0ed74e63          	blt	a4,a3,80002596 <__muldf3+0x430>
/Local/xl_ci/toolchain/riscv-gnu-toolchain/riscv-gcc/libgcc/soft-fp/muldf3.c:47
8000249e:	0037d713          	srli	a4,a5,0x3
800024a2:	01d41793          	slli	a5,s0,0x1d
800024a6:	8fd9                	or	a5,a5,a4
800024a8:	800d                	srli	s0,s0,0x3
/Local/xl_ci/toolchain/riscv-gnu-toolchain/riscv-gcc/libgcc/soft-fp/muldf3.c:47 (discriminator 119)
800024aa:	01469713          	slli	a4,a3,0x14
800024ae:	0432                	slli	s0,s0,0xc
800024b0:	7ff006b7          	lui	a3,0x7ff00
800024b4:	8f75                	and	a4,a4,a3
800024b6:	8031                	srli	s0,s0,0xc
800024b8:	8c59                	or	s0,s0,a4
800024ba:	067e                	slli	a2,a2,0x1f
/Local/xl_ci/toolchain/riscv-gnu-toolchain/riscv-gcc/libgcc/soft-fp/muldf3.c:51 (discriminator 119)
800024bc:	50b2                	lw	ra,44(sp)
/Local/xl_ci/toolchain/riscv-gnu-toolchain/riscv-gcc/libgcc/soft-fp/muldf3.c:47 (discriminator 119)
800024be:	00c46733          	or	a4,s0,a2
/Local/xl_ci/toolchain/riscv-gnu-toolchain/riscv-gcc/libgcc/soft-fp/muldf3.c:51 (discriminator 119)
800024c2:	5422                	lw	s0,40(sp)
800024c4:	5492                	lw	s1,36(sp)
800024c6:	5902                	lw	s2,32(sp)
800024c8:	49f2                	lw	s3,28(sp)
800024ca:	4a62                	lw	s4,24(sp)
800024cc:	4ad2                	lw	s5,20(sp)
800024ce:	4b42                	lw	s6,16(sp)
800024d0:	4bb2                	lw	s7,12(sp)
800024d2:	853e                	mv	a0,a5
800024d4:	85ba                	mv	a1,a4
800024d6:	6145                	addi	sp,sp,48
800024d8:	8082                	ret
/Local/xl_ci/toolchain/riscv-gnu-toolchain/riscv-gcc/libgcc/soft-fp/muldf3.c:44 (discriminator 7)
800024da:	8652                	mv	a2,s4
/Local/xl_ci/toolchain/riscv-gnu-toolchain/riscv-gcc/libgcc/soft-fp/muldf3.c:46 (discriminator 7)
800024dc:	8426                	mv	s0,s1
800024de:	87ca                	mv	a5,s2
800024e0:	875a                	mv	a4,s6
/Local/xl_ci/toolchain/riscv-gnu-toolchain/riscv-gcc/libgcc/soft-fp/muldf3.c:47 (discriminator 47)
800024e2:	4689                	li	a3,2
800024e4:	0ad70963          	beq	a4,a3,80002596 <__muldf3+0x430>
/Local/xl_ci/toolchain/riscv-gnu-toolchain/riscv-gcc/libgcc/soft-fp/muldf3.c:47
800024e8:	468d                	li	a3,3
800024ea:	08d70f63          	beq	a4,a3,80002588 <__muldf3+0x422>
800024ee:	4685                	li	a3,1
800024f0:	f6d717e3          	bne	a4,a3,8000245e <__muldf3+0x2f8>
800024f4:	4401                	li	s0,0
800024f6:	4781                	li	a5,0
800024f8:	a09d                	j	8000255e <__muldf3+0x3f8>
/Local/xl_ci/toolchain/riscv-gnu-toolchain/riscv-gcc/libgcc/soft-fp/muldf3.c:45 (discriminator 4)
800024fa:	8656                	mv	a2,s5
/Local/xl_ci/toolchain/riscv-gnu-toolchain/riscv-gcc/libgcc/soft-fp/muldf3.c:46 (discriminator 4)
800024fc:	b7dd                	j	800024e2 <__muldf3+0x37c>
/Local/xl_ci/toolchain/riscv-gnu-toolchain/riscv-gcc/libgcc/soft-fp/muldf3.c:46
800024fe:	85aa                	mv	a1,a0
80002500:	bfb9                	j	8000245e <__muldf3+0x2f8>
/Local/xl_ci/toolchain/riscv-gnu-toolchain/riscv-gcc/libgcc/soft-fp/muldf3.c:47 (discriminator 59)
80002502:	4505                	li	a0,1
80002504:	8d15                	sub	a0,a0,a3
80002506:	03800713          	li	a4,56
8000250a:	fea745e3          	blt	a4,a0,800024f4 <__muldf3+0x38e>
/Local/xl_ci/toolchain/riscv-gnu-toolchain/riscv-gcc/libgcc/soft-fp/muldf3.c:47 (discriminator 60)
8000250e:	477d                	li	a4,31
80002510:	04a74963          	blt	a4,a0,80002562 <__muldf3+0x3fc>
/Local/xl_ci/toolchain/riscv-gnu-toolchain/riscv-gcc/libgcc/soft-fp/muldf3.c:47 (discriminator 62)
80002514:	41e58593          	addi	a1,a1,1054
80002518:	00b41733          	sll	a4,s0,a1
8000251c:	00a7d6b3          	srl	a3,a5,a0
80002520:	00b797b3          	sll	a5,a5,a1
80002524:	8f55                	or	a4,a4,a3
80002526:	00f037b3          	snez	a5,a5
8000252a:	8fd9                	or	a5,a5,a4
8000252c:	00a45433          	srl	s0,s0,a0
/Local/xl_ci/toolchain/riscv-gnu-toolchain/riscv-gcc/libgcc/soft-fp/muldf3.c:47 (discriminator 75)
80002530:	0077f713          	andi	a4,a5,7
80002534:	cf01                	beqz	a4,8000254c <__muldf3+0x3e6>
/Local/xl_ci/toolchain/riscv-gnu-toolchain/riscv-gcc/libgcc/soft-fp/muldf3.c:47 (discriminator 76)
80002536:	00f7f713          	andi	a4,a5,15
8000253a:	4691                	li	a3,4
8000253c:	00d70863          	beq	a4,a3,8000254c <__muldf3+0x3e6>
/Local/xl_ci/toolchain/riscv-gnu-toolchain/riscv-gcc/libgcc/soft-fp/muldf3.c:47 (discriminator 78)
80002540:	00478713          	addi	a4,a5,4
80002544:	00f737b3          	sltu	a5,a4,a5
80002548:	943e                	add	s0,s0,a5
8000254a:	87ba                	mv	a5,a4
/Local/xl_ci/toolchain/riscv-gnu-toolchain/riscv-gcc/libgcc/soft-fp/muldf3.c:47 (discriminator 77)
8000254c:	00800737          	lui	a4,0x800
80002550:	8f61                	and	a4,a4,s0
80002552:	e739                	bnez	a4,800025a0 <__muldf3+0x43a>
/Local/xl_ci/toolchain/riscv-gnu-toolchain/riscv-gcc/libgcc/soft-fp/muldf3.c:47 (discriminator 93)
80002554:	01d41713          	slli	a4,s0,0x1d
80002558:	838d                	srli	a5,a5,0x3
8000255a:	8fd9                	or	a5,a5,a4
8000255c:	800d                	srli	s0,s0,0x3
/Local/xl_ci/toolchain/riscv-gnu-toolchain/riscv-gcc/libgcc/soft-fp/muldf3.c:47
8000255e:	4681                	li	a3,0
80002560:	b7a9                	j	800024aa <__muldf3+0x344>
/Local/xl_ci/toolchain/riscv-gnu-toolchain/riscv-gcc/libgcc/soft-fp/muldf3.c:47 (discriminator 63)
80002562:	5705                	li	a4,-31
80002564:	8f15                	sub	a4,a4,a3
80002566:	02000813          	li	a6,32
8000256a:	00e45733          	srl	a4,s0,a4
8000256e:	4681                	li	a3,0
80002570:	01050663          	beq	a0,a6,8000257c <__muldf3+0x416>
/Local/xl_ci/toolchain/riscv-gnu-toolchain/riscv-gcc/libgcc/soft-fp/muldf3.c:47 (discriminator 71)
80002574:	43e58593          	addi	a1,a1,1086
80002578:	00b416b3          	sll	a3,s0,a1
/Local/xl_ci/toolchain/riscv-gnu-toolchain/riscv-gcc/libgcc/soft-fp/muldf3.c:47 (discriminator 74)
8000257c:	8fd5                	or	a5,a5,a3
8000257e:	00f037b3          	snez	a5,a5
80002582:	8fd9                	or	a5,a5,a4
80002584:	4401                	li	s0,0
80002586:	b76d                	j	80002530 <__muldf3+0x3ca>
/Local/xl_ci/toolchain/riscv-gnu-toolchain/riscv-gcc/libgcc/soft-fp/muldf3.c:47
80002588:	00080437          	lui	s0,0x80
8000258c:	4781                	li	a5,0
8000258e:	7ff00693          	li	a3,2047
80002592:	4601                	li	a2,0
80002594:	bf19                	j	800024aa <__muldf3+0x344>
80002596:	4401                	li	s0,0
80002598:	4781                	li	a5,0
8000259a:	7ff00693          	li	a3,2047
8000259e:	b731                	j	800024aa <__muldf3+0x344>
800025a0:	4401                	li	s0,0
800025a2:	4781                	li	a5,0
800025a4:	4685                	li	a3,1
800025a6:	b711                	j	800024aa <__muldf3+0x344>

800025a8 <__subdf3>:
__subdf3():
/Local/xl_ci/toolchain/riscv-gnu-toolchain/riscv-gcc/libgcc/soft-fp/subdf3.c:44
800025a8:	00100837          	lui	a6,0x100
800025ac:	187d                	addi	a6,a6,-1
/Local/xl_ci/toolchain/riscv-gnu-toolchain/riscv-gcc/libgcc/soft-fp/subdf3.c:36
800025ae:	1101                	addi	sp,sp,-32
/Local/xl_ci/toolchain/riscv-gnu-toolchain/riscv-gcc/libgcc/soft-fp/subdf3.c:44
800025b0:	00b877b3          	and	a5,a6,a1
800025b4:	0145d713          	srli	a4,a1,0x14
/Local/xl_ci/toolchain/riscv-gnu-toolchain/riscv-gcc/libgcc/soft-fp/subdf3.c:45
800025b8:	00d87833          	and	a6,a6,a3
800025bc:	0146d313          	srli	t1,a3,0x14
/Local/xl_ci/toolchain/riscv-gnu-toolchain/riscv-gcc/libgcc/soft-fp/subdf3.c:36
800025c0:	cc22                	sw	s0,24(sp)
/Local/xl_ci/toolchain/riscv-gnu-toolchain/riscv-gcc/libgcc/soft-fp/subdf3.c:44
800025c2:	078e                	slli	a5,a5,0x3
800025c4:	7ff77413          	andi	s0,a4,2047
800025c8:	01d55713          	srli	a4,a0,0x1d
/Local/xl_ci/toolchain/riscv-gnu-toolchain/riscv-gcc/libgcc/soft-fp/subdf3.c:36
800025cc:	ca26                	sw	s1,20(sp)
/Local/xl_ci/toolchain/riscv-gnu-toolchain/riscv-gcc/libgcc/soft-fp/subdf3.c:44
800025ce:	8fd9                	or	a5,a5,a4
800025d0:	01f5d493          	srli	s1,a1,0x1f
/Local/xl_ci/toolchain/riscv-gnu-toolchain/riscv-gcc/libgcc/soft-fp/subdf3.c:45
800025d4:	01d65713          	srli	a4,a2,0x1d
/Local/xl_ci/toolchain/riscv-gnu-toolchain/riscv-gcc/libgcc/soft-fp/subdf3.c:44
800025d8:	00351593          	slli	a1,a0,0x3
/Local/xl_ci/toolchain/riscv-gnu-toolchain/riscv-gcc/libgcc/soft-fp/subdf3.c:45
800025dc:	080e                	slli	a6,a6,0x3
/Local/xl_ci/toolchain/riscv-gnu-toolchain/riscv-gcc/libgcc/soft-fp/subdf3.c:36
800025de:	ce06                	sw	ra,28(sp)
800025e0:	c84a                	sw	s2,16(sp)
800025e2:	c64e                	sw	s3,12(sp)
/Local/xl_ci/toolchain/riscv-gnu-toolchain/riscv-gcc/libgcc/soft-fp/subdf3.c:45
800025e4:	7ff37313          	andi	t1,t1,2047
/Local/xl_ci/toolchain/riscv-gnu-toolchain/riscv-gcc/libgcc/soft-fp/subdf3.c:46
800025e8:	7ff00513          	li	a0,2047
/Local/xl_ci/toolchain/riscv-gnu-toolchain/riscv-gcc/libgcc/soft-fp/subdf3.c:45
800025ec:	82fd                	srli	a3,a3,0x1f
800025ee:	01076733          	or	a4,a4,a6
800025f2:	060e                	slli	a2,a2,0x3
/Local/xl_ci/toolchain/riscv-gnu-toolchain/riscv-gcc/libgcc/soft-fp/subdf3.c:46
800025f4:	00a31563          	bne	t1,a0,800025fe <__subdf3+0x56>
/Local/xl_ci/toolchain/riscv-gnu-toolchain/riscv-gcc/libgcc/soft-fp/subdf3.c:46 (discriminator 2)
800025f8:	00c76533          	or	a0,a4,a2
800025fc:	e119                	bnez	a0,80002602 <__subdf3+0x5a>
/Local/xl_ci/toolchain/riscv-gnu-toolchain/riscv-gcc/libgcc/soft-fp/subdf3.c:46 (discriminator 3)
800025fe:	0016c693          	xori	a3,a3,1
/Local/xl_ci/toolchain/riscv-gnu-toolchain/riscv-gcc/libgcc/soft-fp/subdf3.c:46 (discriminator 11)
80002602:	40640833          	sub	a6,s0,t1
80002606:	22969863          	bne	a3,s1,80002836 <__subdf3+0x28e>
/Local/xl_ci/toolchain/riscv-gnu-toolchain/riscv-gcc/libgcc/soft-fp/subdf3.c:46 (discriminator 12)
8000260a:	0f005363          	blez	a6,800026f0 <__subdf3+0x148>
/Local/xl_ci/toolchain/riscv-gnu-toolchain/riscv-gcc/libgcc/soft-fp/subdf3.c:46 (discriminator 14)
8000260e:	02031863          	bnez	t1,8000263e <__subdf3+0x96>
/Local/xl_ci/toolchain/riscv-gnu-toolchain/riscv-gcc/libgcc/soft-fp/subdf3.c:46 (discriminator 16)
80002612:	00c766b3          	or	a3,a4,a2
80002616:	58068363          	beqz	a3,80002b9c <__subdf3+0x5f4>
/Local/xl_ci/toolchain/riscv-gnu-toolchain/riscv-gcc/libgcc/soft-fp/subdf3.c:46 (discriminator 19)
8000261a:	fff80513          	addi	a0,a6,-1 # fffff <__stack_size+0xff7ff>
8000261e:	e909                	bnez	a0,80002630 <__subdf3+0x88>
/Local/xl_ci/toolchain/riscv-gnu-toolchain/riscv-gcc/libgcc/soft-fp/subdf3.c:46 (discriminator 28)
80002620:	962e                	add	a2,a2,a1
80002622:	00b63533          	sltu	a0,a2,a1
80002626:	97ba                	add	a5,a5,a4
80002628:	97aa                	add	a5,a5,a0
8000262a:	85b2                	mv	a1,a2
/Local/xl_ci/toolchain/riscv-gnu-toolchain/riscv-gcc/libgcc/soft-fp/subdf3.c:45 (discriminator 85)
8000262c:	4405                	li	s0,1
/Local/xl_ci/toolchain/riscv-gnu-toolchain/riscv-gcc/libgcc/soft-fp/subdf3.c:46 (discriminator 85)
8000262e:	a8b9                	j	8000268c <__subdf3+0xe4>
/Local/xl_ci/toolchain/riscv-gnu-toolchain/riscv-gcc/libgcc/soft-fp/subdf3.c:46 (discriminator 29)
80002630:	7ff00693          	li	a3,2047
80002634:	00d81d63          	bne	a6,a3,8000264e <__subdf3+0xa6>
/Local/xl_ci/toolchain/riscv-gnu-toolchain/riscv-gcc/libgcc/soft-fp/subdf3.c:46
80002638:	7ff00413          	li	s0,2047
8000263c:	a24d                	j	800027de <__subdf3+0x236>
/Local/xl_ci/toolchain/riscv-gnu-toolchain/riscv-gcc/libgcc/soft-fp/subdf3.c:46 (discriminator 17)
8000263e:	7ff00693          	li	a3,2047
80002642:	18d40e63          	beq	s0,a3,800027de <__subdf3+0x236>
/Local/xl_ci/toolchain/riscv-gnu-toolchain/riscv-gcc/libgcc/soft-fp/subdf3.c:46 (discriminator 43)
80002646:	008006b7          	lui	a3,0x800
8000264a:	8f55                	or	a4,a4,a3
8000264c:	8542                	mv	a0,a6
/Local/xl_ci/toolchain/riscv-gnu-toolchain/riscv-gcc/libgcc/soft-fp/subdf3.c:46 (discriminator 52)
8000264e:	03800693          	li	a3,56
80002652:	08a6cb63          	blt	a3,a0,800026e8 <__subdf3+0x140>
/Local/xl_ci/toolchain/riscv-gnu-toolchain/riscv-gcc/libgcc/soft-fp/subdf3.c:46 (discriminator 53)
80002656:	46fd                	li	a3,31
80002658:	06a6c263          	blt	a3,a0,800026bc <__subdf3+0x114>
/Local/xl_ci/toolchain/riscv-gnu-toolchain/riscv-gcc/libgcc/soft-fp/subdf3.c:46 (discriminator 55)
8000265c:	02000813          	li	a6,32
80002660:	40a80833          	sub	a6,a6,a0
80002664:	010716b3          	sll	a3,a4,a6
80002668:	00a658b3          	srl	a7,a2,a0
8000266c:	01061633          	sll	a2,a2,a6
80002670:	0116e6b3          	or	a3,a3,a7
80002674:	00c03633          	snez	a2,a2
80002678:	8e55                	or	a2,a2,a3
8000267a:	00a75733          	srl	a4,a4,a0
/Local/xl_ci/toolchain/riscv-gnu-toolchain/riscv-gcc/libgcc/soft-fp/subdf3.c:46 (discriminator 69)
8000267e:	962e                	add	a2,a2,a1
80002680:	00b63533          	sltu	a0,a2,a1
80002684:	973e                	add	a4,a4,a5
80002686:	00a707b3          	add	a5,a4,a0
8000268a:	85b2                	mv	a1,a2
/Local/xl_ci/toolchain/riscv-gnu-toolchain/riscv-gcc/libgcc/soft-fp/subdf3.c:46 (discriminator 127)
8000268c:	00800737          	lui	a4,0x800
80002690:	8f7d                	and	a4,a4,a5
80002692:	14070663          	beqz	a4,800027de <__subdf3+0x236>
/Local/xl_ci/toolchain/riscv-gnu-toolchain/riscv-gcc/libgcc/soft-fp/subdf3.c:46 (discriminator 187)
80002696:	0405                	addi	s0,s0,1
80002698:	7ff00713          	li	a4,2047
8000269c:	48e40d63          	beq	s0,a4,80002b36 <__subdf3+0x58e>
/Local/xl_ci/toolchain/riscv-gnu-toolchain/riscv-gcc/libgcc/soft-fp/subdf3.c:46
800026a0:	ff800737          	lui	a4,0xff800
800026a4:	177d                	addi	a4,a4,-1
800026a6:	8ff9                	and	a5,a5,a4
800026a8:	0015f513          	andi	a0,a1,1
800026ac:	0015d713          	srli	a4,a1,0x1
800026b0:	8d59                	or	a0,a0,a4
800026b2:	01f79593          	slli	a1,a5,0x1f
800026b6:	8dc9                	or	a1,a1,a0
800026b8:	8385                	srli	a5,a5,0x1
800026ba:	a215                	j	800027de <__subdf3+0x236>
/Local/xl_ci/toolchain/riscv-gnu-toolchain/riscv-gcc/libgcc/soft-fp/subdf3.c:46 (discriminator 56)
800026bc:	fe050693          	addi	a3,a0,-32
800026c0:	02000893          	li	a7,32
800026c4:	00d756b3          	srl	a3,a4,a3
800026c8:	4801                	li	a6,0
800026ca:	01150863          	beq	a0,a7,800026da <__subdf3+0x132>
/Local/xl_ci/toolchain/riscv-gnu-toolchain/riscv-gcc/libgcc/soft-fp/subdf3.c:46 (discriminator 63)
800026ce:	04000813          	li	a6,64
800026d2:	40a80533          	sub	a0,a6,a0
800026d6:	00a71833          	sll	a6,a4,a0
/Local/xl_ci/toolchain/riscv-gnu-toolchain/riscv-gcc/libgcc/soft-fp/subdf3.c:46 (discriminator 66)
800026da:	00c86633          	or	a2,a6,a2
800026de:	00c03633          	snez	a2,a2
800026e2:	8e55                	or	a2,a2,a3
/Local/xl_ci/toolchain/riscv-gnu-toolchain/riscv-gcc/libgcc/soft-fp/subdf3.c:46 (discriminator 54)
800026e4:	4701                	li	a4,0
800026e6:	bf61                	j	8000267e <__subdf3+0xd6>
800026e8:	8e59                	or	a2,a2,a4
800026ea:	00c03633          	snez	a2,a2
800026ee:	bfdd                	j	800026e4 <__subdf3+0x13c>
/Local/xl_ci/toolchain/riscv-gnu-toolchain/riscv-gcc/libgcc/soft-fp/subdf3.c:46 (discriminator 15)
800026f0:	0a080b63          	beqz	a6,800027a6 <__subdf3+0x1fe>
/Local/xl_ci/toolchain/riscv-gnu-toolchain/riscv-gcc/libgcc/soft-fp/subdf3.c:46 (discriminator 71)
800026f4:	40830533          	sub	a0,t1,s0
800026f8:	e40d                	bnez	s0,80002722 <__subdf3+0x17a>
/Local/xl_ci/toolchain/riscv-gnu-toolchain/riscv-gcc/libgcc/soft-fp/subdf3.c:46 (discriminator 73)
800026fa:	00b7e6b3          	or	a3,a5,a1
800026fe:	42068363          	beqz	a3,80002b24 <__subdf3+0x57c>
/Local/xl_ci/toolchain/riscv-gnu-toolchain/riscv-gcc/libgcc/soft-fp/subdf3.c:46 (discriminator 76)
80002702:	fff50693          	addi	a3,a0,-1
80002706:	e699                	bnez	a3,80002714 <__subdf3+0x16c>
/Local/xl_ci/toolchain/riscv-gnu-toolchain/riscv-gcc/libgcc/soft-fp/subdf3.c:46 (discriminator 85)
80002708:	95b2                	add	a1,a1,a2
8000270a:	97ba                	add	a5,a5,a4
8000270c:	00c5b633          	sltu	a2,a1,a2
80002710:	97b2                	add	a5,a5,a2
80002712:	bf29                	j	8000262c <__subdf3+0x84>
/Local/xl_ci/toolchain/riscv-gnu-toolchain/riscv-gcc/libgcc/soft-fp/subdf3.c:46 (discriminator 86)
80002714:	7ff00813          	li	a6,2047
80002718:	01051d63          	bne	a0,a6,80002732 <__subdf3+0x18a>
/Local/xl_ci/toolchain/riscv-gnu-toolchain/riscv-gcc/libgcc/soft-fp/subdf3.c:45
8000271c:	87ba                	mv	a5,a4
8000271e:	85b2                	mv	a1,a2
80002720:	bf21                	j	80002638 <__subdf3+0x90>
/Local/xl_ci/toolchain/riscv-gnu-toolchain/riscv-gcc/libgcc/soft-fp/subdf3.c:46 (discriminator 74)
80002722:	7ff00693          	li	a3,2047
80002726:	fed30be3          	beq	t1,a3,8000271c <__subdf3+0x174>
/Local/xl_ci/toolchain/riscv-gnu-toolchain/riscv-gcc/libgcc/soft-fp/subdf3.c:46 (discriminator 100)
8000272a:	008006b7          	lui	a3,0x800
8000272e:	8fd5                	or	a5,a5,a3
80002730:	86aa                	mv	a3,a0
/Local/xl_ci/toolchain/riscv-gnu-toolchain/riscv-gcc/libgcc/soft-fp/subdf3.c:46 (discriminator 109)
80002732:	03800513          	li	a0,56
80002736:	06d54363          	blt	a0,a3,8000279c <__subdf3+0x1f4>
/Local/xl_ci/toolchain/riscv-gnu-toolchain/riscv-gcc/libgcc/soft-fp/subdf3.c:46 (discriminator 110)
8000273a:	457d                	li	a0,31
8000273c:	02d54b63          	blt	a0,a3,80002772 <__subdf3+0x1ca>
/Local/xl_ci/toolchain/riscv-gnu-toolchain/riscv-gcc/libgcc/soft-fp/subdf3.c:46 (discriminator 112)
80002740:	02000813          	li	a6,32
80002744:	40d80833          	sub	a6,a6,a3
80002748:	01079533          	sll	a0,a5,a6
8000274c:	00d5d8b3          	srl	a7,a1,a3
80002750:	010595b3          	sll	a1,a1,a6
80002754:	01156533          	or	a0,a0,a7
80002758:	00b035b3          	snez	a1,a1
8000275c:	8d4d                	or	a0,a0,a1
8000275e:	00d7d7b3          	srl	a5,a5,a3
/Local/xl_ci/toolchain/riscv-gnu-toolchain/riscv-gcc/libgcc/soft-fp/subdf3.c:46 (discriminator 126)
80002762:	00c505b3          	add	a1,a0,a2
80002766:	97ba                	add	a5,a5,a4
80002768:	00c5b633          	sltu	a2,a1,a2
8000276c:	97b2                	add	a5,a5,a2
/Local/xl_ci/toolchain/riscv-gnu-toolchain/riscv-gcc/libgcc/soft-fp/subdf3.c:45 (discriminator 126)
8000276e:	841a                	mv	s0,t1
80002770:	bf31                	j	8000268c <__subdf3+0xe4>
/Local/xl_ci/toolchain/riscv-gnu-toolchain/riscv-gcc/libgcc/soft-fp/subdf3.c:46 (discriminator 113)
80002772:	fe068513          	addi	a0,a3,-32 # 7fffe0 <__stack_size+0x7ff7e0>
80002776:	02000893          	li	a7,32
8000277a:	00a7d833          	srl	a6,a5,a0
8000277e:	4501                	li	a0,0
80002780:	01168763          	beq	a3,a7,8000278e <__subdf3+0x1e6>
/Local/xl_ci/toolchain/riscv-gnu-toolchain/riscv-gcc/libgcc/soft-fp/subdf3.c:46 (discriminator 120)
80002784:	04000513          	li	a0,64
80002788:	8d15                	sub	a0,a0,a3
8000278a:	00a79533          	sll	a0,a5,a0
/Local/xl_ci/toolchain/riscv-gnu-toolchain/riscv-gcc/libgcc/soft-fp/subdf3.c:46 (discriminator 123)
8000278e:	8d4d                	or	a0,a0,a1
80002790:	00a03533          	snez	a0,a0
80002794:	00a86533          	or	a0,a6,a0
/Local/xl_ci/toolchain/riscv-gnu-toolchain/riscv-gcc/libgcc/soft-fp/subdf3.c:46 (discriminator 111)
80002798:	4781                	li	a5,0
8000279a:	b7e1                	j	80002762 <__subdf3+0x1ba>
8000279c:	00b7e533          	or	a0,a5,a1
800027a0:	00a03533          	snez	a0,a0
800027a4:	bfd5                	j	80002798 <__subdf3+0x1f0>
/Local/xl_ci/toolchain/riscv-gnu-toolchain/riscv-gcc/libgcc/soft-fp/subdf3.c:46 (discriminator 72)
800027a6:	00140693          	addi	a3,s0,1 # 80001 <__stack_size+0x7f801>
800027aa:	7fe6f513          	andi	a0,a3,2046
800027ae:	e13d                	bnez	a0,80002814 <__subdf3+0x26c>
/Local/xl_ci/toolchain/riscv-gnu-toolchain/riscv-gcc/libgcc/soft-fp/subdf3.c:46 (discriminator 128)
800027b0:	00b7e6b3          	or	a3,a5,a1
800027b4:	e429                	bnez	s0,800027fe <__subdf3+0x256>
/Local/xl_ci/toolchain/riscv-gnu-toolchain/riscv-gcc/libgcc/soft-fp/subdf3.c:46 (discriminator 130)
800027b6:	36068b63          	beqz	a3,80002b2c <__subdf3+0x584>
/Local/xl_ci/toolchain/riscv-gnu-toolchain/riscv-gcc/libgcc/soft-fp/subdf3.c:46 (discriminator 133)
800027ba:	00c766b3          	or	a3,a4,a2
800027be:	c285                	beqz	a3,800027de <__subdf3+0x236>
/Local/xl_ci/toolchain/riscv-gnu-toolchain/riscv-gcc/libgcc/soft-fp/subdf3.c:46 (discriminator 139)
800027c0:	962e                	add	a2,a2,a1
800027c2:	97ba                	add	a5,a5,a4
800027c4:	00b63533          	sltu	a0,a2,a1
800027c8:	97aa                	add	a5,a5,a0
800027ca:	00800737          	lui	a4,0x800
800027ce:	8f7d                	and	a4,a4,a5
800027d0:	85b2                	mv	a1,a2
800027d2:	c711                	beqz	a4,800027de <__subdf3+0x236>
/Local/xl_ci/toolchain/riscv-gnu-toolchain/riscv-gcc/libgcc/soft-fp/subdf3.c:46 (discriminator 141)
800027d4:	ff800737          	lui	a4,0xff800
800027d8:	177d                	addi	a4,a4,-1
800027da:	8ff9                	and	a5,a5,a4
800027dc:	4405                	li	s0,1
/Local/xl_ci/toolchain/riscv-gnu-toolchain/riscv-gcc/libgcc/soft-fp/subdf3.c:47 (discriminator 426)
800027de:	0075f713          	andi	a4,a1,7
800027e2:	34070c63          	beqz	a4,80002b3a <__subdf3+0x592>
/Local/xl_ci/toolchain/riscv-gnu-toolchain/riscv-gcc/libgcc/soft-fp/subdf3.c:47 (discriminator 37)
800027e6:	00f5f713          	andi	a4,a1,15
800027ea:	4691                	li	a3,4
800027ec:	34d70763          	beq	a4,a3,80002b3a <__subdf3+0x592>
/Local/xl_ci/toolchain/riscv-gnu-toolchain/riscv-gcc/libgcc/soft-fp/subdf3.c:47 (discriminator 44)
800027f0:	00458713          	addi	a4,a1,4
800027f4:	00b73533          	sltu	a0,a4,a1
800027f8:	97aa                	add	a5,a5,a0
800027fa:	85ba                	mv	a1,a4
800027fc:	ae3d                	j	80002b3a <__subdf3+0x592>
/Local/xl_ci/toolchain/riscv-gnu-toolchain/riscv-gcc/libgcc/soft-fp/subdf3.c:46 (discriminator 158)
800027fe:	de99                	beqz	a3,8000271c <__subdf3+0x174>
/Local/xl_ci/toolchain/riscv-gnu-toolchain/riscv-gcc/libgcc/soft-fp/subdf3.c:46 (discriminator 160)
80002800:	8e59                	or	a2,a2,a4
80002802:	e2060be3          	beqz	a2,80002638 <__subdf3+0x90>
/Local/xl_ci/toolchain/riscv-gnu-toolchain/riscv-gcc/libgcc/soft-fp/subdf3.c:46
80002806:	4481                	li	s1,0
80002808:	004007b7          	lui	a5,0x400
8000280c:	4581                	li	a1,0
8000280e:	7ff00413          	li	s0,2047
80002812:	a625                	j	80002b3a <__subdf3+0x592>
/Local/xl_ci/toolchain/riscv-gnu-toolchain/riscv-gcc/libgcc/soft-fp/subdf3.c:46 (discriminator 129)
80002814:	7ff00513          	li	a0,2047
80002818:	30a68d63          	beq	a3,a0,80002b32 <__subdf3+0x58a>
/Local/xl_ci/toolchain/riscv-gnu-toolchain/riscv-gcc/libgcc/soft-fp/subdf3.c:46
8000281c:	962e                	add	a2,a2,a1
8000281e:	00b63533          	sltu	a0,a2,a1
80002822:	97ba                	add	a5,a5,a4
80002824:	97aa                	add	a5,a5,a0
80002826:	01f79513          	slli	a0,a5,0x1f
8000282a:	8205                	srli	a2,a2,0x1
8000282c:	00c565b3          	or	a1,a0,a2
80002830:	8385                	srli	a5,a5,0x1
80002832:	8436                	mv	s0,a3
80002834:	b76d                	j	800027de <__subdf3+0x236>
/Local/xl_ci/toolchain/riscv-gnu-toolchain/riscv-gcc/libgcc/soft-fp/subdf3.c:46 (discriminator 13)
80002836:	0d005663          	blez	a6,80002902 <__subdf3+0x35a>
/Local/xl_ci/toolchain/riscv-gnu-toolchain/riscv-gcc/libgcc/soft-fp/subdf3.c:46 (discriminator 205)
8000283a:	08031163          	bnez	t1,800028bc <__subdf3+0x314>
/Local/xl_ci/toolchain/riscv-gnu-toolchain/riscv-gcc/libgcc/soft-fp/subdf3.c:46 (discriminator 207)
8000283e:	00c766b3          	or	a3,a4,a2
80002842:	34068d63          	beqz	a3,80002b9c <__subdf3+0x5f4>
/Local/xl_ci/toolchain/riscv-gnu-toolchain/riscv-gcc/libgcc/soft-fp/subdf3.c:46 (discriminator 210)
80002846:	fff80513          	addi	a0,a6,-1
8000284a:	e911                	bnez	a0,8000285e <__subdf3+0x2b6>
/Local/xl_ci/toolchain/riscv-gnu-toolchain/riscv-gcc/libgcc/soft-fp/subdf3.c:46 (discriminator 219)
8000284c:	40c58633          	sub	a2,a1,a2
80002850:	00c5b533          	sltu	a0,a1,a2
80002854:	8f99                	sub	a5,a5,a4
80002856:	8f89                	sub	a5,a5,a0
80002858:	85b2                	mv	a1,a2
/Local/xl_ci/toolchain/riscv-gnu-toolchain/riscv-gcc/libgcc/soft-fp/subdf3.c:45 (discriminator 276)
8000285a:	4405                	li	s0,1
/Local/xl_ci/toolchain/riscv-gnu-toolchain/riscv-gcc/libgcc/soft-fp/subdf3.c:46 (discriminator 276)
8000285c:	a0b1                	j	800028a8 <__subdf3+0x300>
/Local/xl_ci/toolchain/riscv-gnu-toolchain/riscv-gcc/libgcc/soft-fp/subdf3.c:46 (discriminator 220)
8000285e:	7ff00693          	li	a3,2047
80002862:	dcd80be3          	beq	a6,a3,80002638 <__subdf3+0x90>
/Local/xl_ci/toolchain/riscv-gnu-toolchain/riscv-gcc/libgcc/soft-fp/subdf3.c:46 (discriminator 243)
80002866:	03800693          	li	a3,56
8000286a:	08a6c863          	blt	a3,a0,800028fa <__subdf3+0x352>
/Local/xl_ci/toolchain/riscv-gnu-toolchain/riscv-gcc/libgcc/soft-fp/subdf3.c:46 (discriminator 244)
8000286e:	46fd                	li	a3,31
80002870:	04a6cf63          	blt	a3,a0,800028ce <__subdf3+0x326>
/Local/xl_ci/toolchain/riscv-gnu-toolchain/riscv-gcc/libgcc/soft-fp/subdf3.c:46 (discriminator 246)
80002874:	02000813          	li	a6,32
80002878:	40a80833          	sub	a6,a6,a0
8000287c:	010716b3          	sll	a3,a4,a6
80002880:	00a658b3          	srl	a7,a2,a0
80002884:	01061633          	sll	a2,a2,a6
80002888:	0116e6b3          	or	a3,a3,a7
8000288c:	00c03633          	snez	a2,a2
80002890:	8e55                	or	a2,a2,a3
80002892:	00a75733          	srl	a4,a4,a0
/Local/xl_ci/toolchain/riscv-gnu-toolchain/riscv-gcc/libgcc/soft-fp/subdf3.c:46 (discriminator 260)
80002896:	40c58633          	sub	a2,a1,a2
8000289a:	00c5b533          	sltu	a0,a1,a2
8000289e:	40e78733          	sub	a4,a5,a4
800028a2:	40a707b3          	sub	a5,a4,a0
800028a6:	85b2                	mv	a1,a2
/Local/xl_ci/toolchain/riscv-gnu-toolchain/riscv-gcc/libgcc/soft-fp/subdf3.c:46 (discriminator 318)
800028a8:	00800937          	lui	s2,0x800
800028ac:	0127f733          	and	a4,a5,s2
800028b0:	d71d                	beqz	a4,800027de <__subdf3+0x236>
/Local/xl_ci/toolchain/riscv-gnu-toolchain/riscv-gcc/libgcc/soft-fp/subdf3.c:46 (discriminator 378)
800028b2:	197d                	addi	s2,s2,-1
800028b4:	0127f933          	and	s2,a5,s2
800028b8:	89ae                	mv	s3,a1
800028ba:	aa5d                	j	80002a70 <__subdf3+0x4c8>
/Local/xl_ci/toolchain/riscv-gnu-toolchain/riscv-gcc/libgcc/soft-fp/subdf3.c:46 (discriminator 208)
800028bc:	7ff00693          	li	a3,2047
800028c0:	f0d40fe3          	beq	s0,a3,800027de <__subdf3+0x236>
/Local/xl_ci/toolchain/riscv-gnu-toolchain/riscv-gcc/libgcc/soft-fp/subdf3.c:46 (discriminator 234)
800028c4:	008006b7          	lui	a3,0x800
800028c8:	8f55                	or	a4,a4,a3
800028ca:	8542                	mv	a0,a6
800028cc:	bf69                	j	80002866 <__subdf3+0x2be>
/Local/xl_ci/toolchain/riscv-gnu-toolchain/riscv-gcc/libgcc/soft-fp/subdf3.c:46 (discriminator 247)
800028ce:	fe050693          	addi	a3,a0,-32
800028d2:	02000893          	li	a7,32
800028d6:	00d756b3          	srl	a3,a4,a3
800028da:	4801                	li	a6,0
800028dc:	01150863          	beq	a0,a7,800028ec <__subdf3+0x344>
/Local/xl_ci/toolchain/riscv-gnu-toolchain/riscv-gcc/libgcc/soft-fp/subdf3.c:46 (discriminator 254)
800028e0:	04000813          	li	a6,64
800028e4:	40a80533          	sub	a0,a6,a0
800028e8:	00a71833          	sll	a6,a4,a0
/Local/xl_ci/toolchain/riscv-gnu-toolchain/riscv-gcc/libgcc/soft-fp/subdf3.c:46 (discriminator 257)
800028ec:	00c86633          	or	a2,a6,a2
800028f0:	00c03633          	snez	a2,a2
800028f4:	8e55                	or	a2,a2,a3
/Local/xl_ci/toolchain/riscv-gnu-toolchain/riscv-gcc/libgcc/soft-fp/subdf3.c:46 (discriminator 245)
800028f6:	4701                	li	a4,0
800028f8:	bf79                	j	80002896 <__subdf3+0x2ee>
800028fa:	8e59                	or	a2,a2,a4
800028fc:	00c03633          	snez	a2,a2
80002900:	bfdd                	j	800028f6 <__subdf3+0x34e>
/Local/xl_ci/toolchain/riscv-gnu-toolchain/riscv-gcc/libgcc/soft-fp/subdf3.c:46 (discriminator 206)
80002902:	0c080563          	beqz	a6,800029cc <__subdf3+0x424>
/Local/xl_ci/toolchain/riscv-gnu-toolchain/riscv-gcc/libgcc/soft-fp/subdf3.c:46 (discriminator 262)
80002906:	40830533          	sub	a0,t1,s0
8000290a:	e81d                	bnez	s0,80002940 <__subdf3+0x398>
/Local/xl_ci/toolchain/riscv-gnu-toolchain/riscv-gcc/libgcc/soft-fp/subdf3.c:46 (discriminator 264)
8000290c:	00b7e833          	or	a6,a5,a1
80002910:	28080863          	beqz	a6,80002ba0 <__subdf3+0x5f8>
/Local/xl_ci/toolchain/riscv-gnu-toolchain/riscv-gcc/libgcc/soft-fp/subdf3.c:46 (discriminator 267)
80002914:	fff50813          	addi	a6,a0,-1
80002918:	00081b63          	bnez	a6,8000292e <__subdf3+0x386>
/Local/xl_ci/toolchain/riscv-gnu-toolchain/riscv-gcc/libgcc/soft-fp/subdf3.c:46 (discriminator 276)
8000291c:	40b605b3          	sub	a1,a2,a1
80002920:	40f707b3          	sub	a5,a4,a5
80002924:	00b63633          	sltu	a2,a2,a1
80002928:	8f91                	sub	a5,a5,a2
8000292a:	84b6                	mv	s1,a3
8000292c:	b73d                	j	8000285a <__subdf3+0x2b2>
/Local/xl_ci/toolchain/riscv-gnu-toolchain/riscv-gcc/libgcc/soft-fp/subdf3.c:46 (discriminator 277)
8000292e:	7ff00893          	li	a7,2047
80002932:	03151063          	bne	a0,a7,80002952 <__subdf3+0x3aa>
/Local/xl_ci/toolchain/riscv-gnu-toolchain/riscv-gcc/libgcc/soft-fp/subdf3.c:45
80002936:	87ba                	mv	a5,a4
80002938:	85b2                	mv	a1,a2
/Local/xl_ci/toolchain/riscv-gnu-toolchain/riscv-gcc/libgcc/soft-fp/subdf3.c:46
8000293a:	7ff00413          	li	s0,2047
8000293e:	a07d                	j	800029ec <__subdf3+0x444>
/Local/xl_ci/toolchain/riscv-gnu-toolchain/riscv-gcc/libgcc/soft-fp/subdf3.c:46 (discriminator 265)
80002940:	7ff00813          	li	a6,2047
80002944:	ff0309e3          	beq	t1,a6,80002936 <__subdf3+0x38e>
/Local/xl_ci/toolchain/riscv-gnu-toolchain/riscv-gcc/libgcc/soft-fp/subdf3.c:46 (discriminator 291)
80002948:	00800837          	lui	a6,0x800
8000294c:	0107e7b3          	or	a5,a5,a6
80002950:	882a                	mv	a6,a0
/Local/xl_ci/toolchain/riscv-gnu-toolchain/riscv-gcc/libgcc/soft-fp/subdf3.c:46 (discriminator 300)
80002952:	03800513          	li	a0,56
80002956:	07054663          	blt	a0,a6,800029c2 <__subdf3+0x41a>
/Local/xl_ci/toolchain/riscv-gnu-toolchain/riscv-gcc/libgcc/soft-fp/subdf3.c:46 (discriminator 301)
8000295a:	457d                	li	a0,31
8000295c:	03054d63          	blt	a0,a6,80002996 <__subdf3+0x3ee>
/Local/xl_ci/toolchain/riscv-gnu-toolchain/riscv-gcc/libgcc/soft-fp/subdf3.c:46 (discriminator 303)
80002960:	02000893          	li	a7,32
80002964:	410888b3          	sub	a7,a7,a6
80002968:	01179533          	sll	a0,a5,a7
8000296c:	0105de33          	srl	t3,a1,a6
80002970:	011595b3          	sll	a1,a1,a7
80002974:	01c56533          	or	a0,a0,t3
80002978:	00b035b3          	snez	a1,a1
8000297c:	8d4d                	or	a0,a0,a1
8000297e:	0107d7b3          	srl	a5,a5,a6
/Local/xl_ci/toolchain/riscv-gnu-toolchain/riscv-gcc/libgcc/soft-fp/subdf3.c:46 (discriminator 317)
80002982:	40a605b3          	sub	a1,a2,a0
80002986:	40f707b3          	sub	a5,a4,a5
8000298a:	00b63633          	sltu	a2,a2,a1
8000298e:	8f91                	sub	a5,a5,a2
/Local/xl_ci/toolchain/riscv-gnu-toolchain/riscv-gcc/libgcc/soft-fp/subdf3.c:45 (discriminator 317)
80002990:	841a                	mv	s0,t1
80002992:	84b6                	mv	s1,a3
80002994:	bf11                	j	800028a8 <__subdf3+0x300>
/Local/xl_ci/toolchain/riscv-gnu-toolchain/riscv-gcc/libgcc/soft-fp/subdf3.c:46 (discriminator 304)
80002996:	fe080513          	addi	a0,a6,-32 # 7fffe0 <__stack_size+0x7ff7e0>
8000299a:	02000e13          	li	t3,32
8000299e:	00a7d8b3          	srl	a7,a5,a0
800029a2:	4501                	li	a0,0
800029a4:	01c80863          	beq	a6,t3,800029b4 <__subdf3+0x40c>
/Local/xl_ci/toolchain/riscv-gnu-toolchain/riscv-gcc/libgcc/soft-fp/subdf3.c:46 (discriminator 311)
800029a8:	04000513          	li	a0,64
800029ac:	41050533          	sub	a0,a0,a6
800029b0:	00a79533          	sll	a0,a5,a0
/Local/xl_ci/toolchain/riscv-gnu-toolchain/riscv-gcc/libgcc/soft-fp/subdf3.c:46 (discriminator 314)
800029b4:	8d4d                	or	a0,a0,a1
800029b6:	00a03533          	snez	a0,a0
800029ba:	00a8e533          	or	a0,a7,a0
/Local/xl_ci/toolchain/riscv-gnu-toolchain/riscv-gcc/libgcc/soft-fp/subdf3.c:46 (discriminator 302)
800029be:	4781                	li	a5,0
800029c0:	b7c9                	j	80002982 <__subdf3+0x3da>
800029c2:	00b7e533          	or	a0,a5,a1
800029c6:	00a03533          	snez	a0,a0
800029ca:	bfd5                	j	800029be <__subdf3+0x416>
/Local/xl_ci/toolchain/riscv-gnu-toolchain/riscv-gcc/libgcc/soft-fp/subdf3.c:46 (discriminator 263)
800029cc:	00140513          	addi	a0,s0,1
800029d0:	7fe57513          	andi	a0,a0,2046
800029d4:	e925                	bnez	a0,80002a44 <__subdf3+0x49c>
/Local/xl_ci/toolchain/riscv-gnu-toolchain/riscv-gcc/libgcc/soft-fp/subdf3.c:46 (discriminator 319)
800029d6:	00b7e833          	or	a6,a5,a1
800029da:	00c76533          	or	a0,a4,a2
800029de:	e821                	bnez	s0,80002a2e <__subdf3+0x486>
/Local/xl_ci/toolchain/riscv-gnu-toolchain/riscv-gcc/libgcc/soft-fp/subdf3.c:46 (discriminator 321)
800029e0:	00081863          	bnez	a6,800029f0 <__subdf3+0x448>
/Local/xl_ci/toolchain/riscv-gnu-toolchain/riscv-gcc/libgcc/soft-fp/subdf3.c:46 (discriminator 323)
800029e4:	1c050263          	beqz	a0,80002ba8 <__subdf3+0x600>
/Local/xl_ci/toolchain/riscv-gnu-toolchain/riscv-gcc/libgcc/soft-fp/subdf3.c:45
800029e8:	87ba                	mv	a5,a4
800029ea:	85b2                	mv	a1,a2
800029ec:	84b6                	mv	s1,a3
800029ee:	bbc5                	j	800027de <__subdf3+0x236>
/Local/xl_ci/toolchain/riscv-gnu-toolchain/riscv-gcc/libgcc/soft-fp/subdf3.c:46 (discriminator 324)
800029f0:	de0507e3          	beqz	a0,800027de <__subdf3+0x236>
/Local/xl_ci/toolchain/riscv-gnu-toolchain/riscv-gcc/libgcc/soft-fp/subdf3.c:46 (discriminator 331)
800029f4:	40c58833          	sub	a6,a1,a2
800029f8:	0105b8b3          	sltu	a7,a1,a6
800029fc:	40e78533          	sub	a0,a5,a4
80002a00:	41150533          	sub	a0,a0,a7
80002a04:	008008b7          	lui	a7,0x800
80002a08:	011578b3          	and	a7,a0,a7
80002a0c:	00088a63          	beqz	a7,80002a20 <__subdf3+0x478>
/Local/xl_ci/toolchain/riscv-gnu-toolchain/riscv-gcc/libgcc/soft-fp/subdf3.c:46 (discriminator 333)
80002a10:	40b605b3          	sub	a1,a2,a1
80002a14:	40f707b3          	sub	a5,a4,a5
80002a18:	00b63633          	sltu	a2,a2,a1
80002a1c:	8f91                	sub	a5,a5,a2
80002a1e:	b7f9                	j	800029ec <__subdf3+0x444>
/Local/xl_ci/toolchain/riscv-gnu-toolchain/riscv-gcc/libgcc/soft-fp/subdf3.c:46 (discriminator 334)
80002a20:	00a865b3          	or	a1,a6,a0
80002a24:	18058663          	beqz	a1,80002bb0 <__subdf3+0x608>
/Local/xl_ci/toolchain/riscv-gnu-toolchain/riscv-gcc/libgcc/soft-fp/subdf3.c:46
80002a28:	87aa                	mv	a5,a0
80002a2a:	85c2                	mv	a1,a6
80002a2c:	bb4d                	j	800027de <__subdf3+0x236>
/Local/xl_ci/toolchain/riscv-gnu-toolchain/riscv-gcc/libgcc/soft-fp/subdf3.c:46 (discriminator 353)
80002a2e:	00081863          	bnez	a6,80002a3e <__subdf3+0x496>
/Local/xl_ci/toolchain/riscv-gnu-toolchain/riscv-gcc/libgcc/soft-fp/subdf3.c:46 (discriminator 354)
80002a32:	18050163          	beqz	a0,80002bb4 <__subdf3+0x60c>
/Local/xl_ci/toolchain/riscv-gnu-toolchain/riscv-gcc/libgcc/soft-fp/subdf3.c:45
80002a36:	87ba                	mv	a5,a4
80002a38:	85b2                	mv	a1,a2
/Local/xl_ci/toolchain/riscv-gnu-toolchain/riscv-gcc/libgcc/soft-fp/subdf3.c:46
80002a3a:	84b6                	mv	s1,a3
80002a3c:	bef5                	j	80002638 <__subdf3+0x90>
/Local/xl_ci/toolchain/riscv-gnu-toolchain/riscv-gcc/libgcc/soft-fp/subdf3.c:46 (discriminator 355)
80002a3e:	be050de3          	beqz	a0,80002638 <__subdf3+0x90>
80002a42:	b3d1                	j	80002806 <__subdf3+0x25e>
/Local/xl_ci/toolchain/riscv-gnu-toolchain/riscv-gcc/libgcc/soft-fp/subdf3.c:46 (discriminator 320)
80002a44:	40c589b3          	sub	s3,a1,a2
80002a48:	0135b533          	sltu	a0,a1,s3
80002a4c:	40e78933          	sub	s2,a5,a4
80002a50:	40a90933          	sub	s2,s2,a0
80002a54:	00800537          	lui	a0,0x800
80002a58:	00a97533          	and	a0,s2,a0
80002a5c:	c925                	beqz	a0,80002acc <__subdf3+0x524>
/Local/xl_ci/toolchain/riscv-gnu-toolchain/riscv-gcc/libgcc/soft-fp/subdf3.c:46 (discriminator 371)
80002a5e:	40b609b3          	sub	s3,a2,a1
80002a62:	40f707b3          	sub	a5,a4,a5
80002a66:	01363633          	sltu	a2,a2,s3
80002a6a:	40c78933          	sub	s2,a5,a2
80002a6e:	84b6                	mv	s1,a3
/Local/xl_ci/toolchain/riscv-gnu-toolchain/riscv-gcc/libgcc/soft-fp/subdf3.c:46 (discriminator 380)
80002a70:	06090463          	beqz	s2,80002ad8 <__subdf3+0x530>
/Local/xl_ci/toolchain/riscv-gnu-toolchain/riscv-gcc/libgcc/soft-fp/subdf3.c:46 (discriminator 383)
80002a74:	854a                	mv	a0,s2
80002a76:	2fd000ef          	jal	ra,80003572 <__clzsi2>
/Local/xl_ci/toolchain/riscv-gnu-toolchain/riscv-gcc/libgcc/soft-fp/subdf3.c:46 (discriminator 397)
80002a7a:	ff850713          	addi	a4,a0,-8 # 7ffff8 <__stack_size+0x7ff7f8>
80002a7e:	47fd                	li	a5,31
80002a80:	06e7c263          	blt	a5,a4,80002ae4 <__subdf3+0x53c>
/Local/xl_ci/toolchain/riscv-gnu-toolchain/riscv-gcc/libgcc/soft-fp/subdf3.c:46 (discriminator 403)
80002a84:	02000793          	li	a5,32
80002a88:	8f99                	sub	a5,a5,a4
80002a8a:	00e91933          	sll	s2,s2,a4
80002a8e:	00f9d7b3          	srl	a5,s3,a5
80002a92:	0127e7b3          	or	a5,a5,s2
80002a96:	00e995b3          	sll	a1,s3,a4
/Local/xl_ci/toolchain/riscv-gnu-toolchain/riscv-gcc/libgcc/soft-fp/subdf3.c:46 (discriminator 407)
80002a9a:	06874f63          	blt	a4,s0,80002b18 <__subdf3+0x570>
/Local/xl_ci/toolchain/riscv-gnu-toolchain/riscv-gcc/libgcc/soft-fp/subdf3.c:46 (discriminator 408)
80002a9e:	8f01                	sub	a4,a4,s0
80002aa0:	00170693          	addi	a3,a4,1 # ff800001 <_sp+0x6f7f0001>
80002aa4:	467d                	li	a2,31
80002aa6:	04d64563          	blt	a2,a3,80002af0 <__subdf3+0x548>
/Local/xl_ci/toolchain/riscv-gnu-toolchain/riscv-gcc/libgcc/soft-fp/subdf3.c:46 (discriminator 410)
80002aaa:	02000713          	li	a4,32
80002aae:	8f15                	sub	a4,a4,a3
80002ab0:	00e79633          	sll	a2,a5,a4
80002ab4:	00d5d533          	srl	a0,a1,a3
80002ab8:	00e595b3          	sll	a1,a1,a4
80002abc:	8e49                	or	a2,a2,a0
80002abe:	00b035b3          	snez	a1,a1
80002ac2:	8dd1                	or	a1,a1,a2
80002ac4:	00d7d7b3          	srl	a5,a5,a3
/Local/xl_ci/toolchain/riscv-gnu-toolchain/riscv-gcc/libgcc/soft-fp/subdf3.c:46 (discriminator 422)
80002ac8:	4401                	li	s0,0
80002aca:	bb11                	j	800027de <__subdf3+0x236>
/Local/xl_ci/toolchain/riscv-gnu-toolchain/riscv-gcc/libgcc/soft-fp/subdf3.c:46 (discriminator 372)
80002acc:	0129e5b3          	or	a1,s3,s2
80002ad0:	f1c5                	bnez	a1,80002a70 <__subdf3+0x4c8>
80002ad2:	4781                	li	a5,0
/Local/xl_ci/toolchain/riscv-gnu-toolchain/riscv-gcc/libgcc/soft-fp/subdf3.c:46
80002ad4:	4401                	li	s0,0
80002ad6:	a8d9                	j	80002bac <__subdf3+0x604>
/Local/xl_ci/toolchain/riscv-gnu-toolchain/riscv-gcc/libgcc/soft-fp/subdf3.c:46 (discriminator 390)
80002ad8:	854e                	mv	a0,s3
80002ada:	299000ef          	jal	ra,80003572 <__clzsi2>
80002ade:	02050513          	addi	a0,a0,32
80002ae2:	bf61                	j	80002a7a <__subdf3+0x4d2>
/Local/xl_ci/toolchain/riscv-gnu-toolchain/riscv-gcc/libgcc/soft-fp/subdf3.c:46 (discriminator 399)
80002ae4:	fd850793          	addi	a5,a0,-40
80002ae8:	00f997b3          	sll	a5,s3,a5
80002aec:	4581                	li	a1,0
80002aee:	b775                	j	80002a9a <__subdf3+0x4f2>
/Local/xl_ci/toolchain/riscv-gnu-toolchain/riscv-gcc/libgcc/soft-fp/subdf3.c:46 (discriminator 411)
80002af0:	1705                	addi	a4,a4,-31
80002af2:	02000613          	li	a2,32
80002af6:	00e7d733          	srl	a4,a5,a4
80002afa:	4501                	li	a0,0
80002afc:	00c68763          	beq	a3,a2,80002b0a <__subdf3+0x562>
/Local/xl_ci/toolchain/riscv-gnu-toolchain/riscv-gcc/libgcc/soft-fp/subdf3.c:46 (discriminator 419)
80002b00:	04000513          	li	a0,64
80002b04:	8d15                	sub	a0,a0,a3
80002b06:	00a79533          	sll	a0,a5,a0
/Local/xl_ci/toolchain/riscv-gnu-toolchain/riscv-gcc/libgcc/soft-fp/subdf3.c:46 (discriminator 422)
80002b0a:	8d4d                	or	a0,a0,a1
80002b0c:	00a03533          	snez	a0,a0
80002b10:	00a765b3          	or	a1,a4,a0
80002b14:	4781                	li	a5,0
80002b16:	bf4d                	j	80002ac8 <__subdf3+0x520>
/Local/xl_ci/toolchain/riscv-gnu-toolchain/riscv-gcc/libgcc/soft-fp/subdf3.c:46 (discriminator 409)
80002b18:	8c19                	sub	s0,s0,a4
80002b1a:	ff800737          	lui	a4,0xff800
80002b1e:	177d                	addi	a4,a4,-1
80002b20:	8ff9                	and	a5,a5,a4
80002b22:	b975                	j	800027de <__subdf3+0x236>
/Local/xl_ci/toolchain/riscv-gnu-toolchain/riscv-gcc/libgcc/soft-fp/subdf3.c:45
80002b24:	87ba                	mv	a5,a4
80002b26:	85b2                	mv	a1,a2
/Local/xl_ci/toolchain/riscv-gnu-toolchain/riscv-gcc/libgcc/soft-fp/subdf3.c:46
80002b28:	842a                	mv	s0,a0
80002b2a:	b955                	j	800027de <__subdf3+0x236>
/Local/xl_ci/toolchain/riscv-gnu-toolchain/riscv-gcc/libgcc/soft-fp/subdf3.c:45
80002b2c:	87ba                	mv	a5,a4
80002b2e:	85b2                	mv	a1,a2
80002b30:	b17d                	j	800027de <__subdf3+0x236>
80002b32:	7ff00413          	li	s0,2047
80002b36:	4781                	li	a5,0
80002b38:	4581                	li	a1,0
/Local/xl_ci/toolchain/riscv-gnu-toolchain/riscv-gcc/libgcc/soft-fp/subdf3.c:47 (discriminator 47)
80002b3a:	00800737          	lui	a4,0x800
80002b3e:	8f7d                	and	a4,a4,a5
80002b40:	cb11                	beqz	a4,80002b54 <__subdf3+0x5ac>
/Local/xl_ci/toolchain/riscv-gnu-toolchain/riscv-gcc/libgcc/soft-fp/subdf3.c:47 (discriminator 63)
80002b42:	0405                	addi	s0,s0,1
80002b44:	7ff00713          	li	a4,2047
80002b48:	06e40b63          	beq	s0,a4,80002bbe <__subdf3+0x616>
/Local/xl_ci/toolchain/riscv-gnu-toolchain/riscv-gcc/libgcc/soft-fp/subdf3.c:47
80002b4c:	ff800737          	lui	a4,0xff800
80002b50:	177d                	addi	a4,a4,-1
80002b52:	8ff9                	and	a5,a5,a4
/Local/xl_ci/toolchain/riscv-gnu-toolchain/riscv-gcc/libgcc/soft-fp/subdf3.c:47 (discriminator 79)
80002b54:	01d79713          	slli	a4,a5,0x1d
80002b58:	0035d513          	srli	a0,a1,0x3
80002b5c:	8d59                	or	a0,a0,a4
80002b5e:	7ff00713          	li	a4,2047
80002b62:	838d                	srli	a5,a5,0x3
80002b64:	00e41963          	bne	s0,a4,80002b76 <__subdf3+0x5ce>
/Local/xl_ci/toolchain/riscv-gnu-toolchain/riscv-gcc/libgcc/soft-fp/subdf3.c:47 (discriminator 80)
80002b68:	8d5d                	or	a0,a0,a5
80002b6a:	4781                	li	a5,0
80002b6c:	c509                	beqz	a0,80002b76 <__subdf3+0x5ce>
/Local/xl_ci/toolchain/riscv-gnu-toolchain/riscv-gcc/libgcc/soft-fp/subdf3.c:47
80002b6e:	000807b7          	lui	a5,0x80
80002b72:	4501                	li	a0,0
80002b74:	4481                	li	s1,0
/Local/xl_ci/toolchain/riscv-gnu-toolchain/riscv-gcc/libgcc/soft-fp/subdf3.c:47 (discriminator 90)
80002b76:	01441713          	slli	a4,s0,0x14
80002b7a:	7ff006b7          	lui	a3,0x7ff00
80002b7e:	07b2                	slli	a5,a5,0xc
/Local/xl_ci/toolchain/riscv-gnu-toolchain/riscv-gcc/libgcc/soft-fp/subdf3.c:51 (discriminator 90)
80002b80:	40f2                	lw	ra,28(sp)
80002b82:	4462                	lw	s0,24(sp)
/Local/xl_ci/toolchain/riscv-gnu-toolchain/riscv-gcc/libgcc/soft-fp/subdf3.c:47 (discriminator 90)
80002b84:	8f75                	and	a4,a4,a3
80002b86:	83b1                	srli	a5,a5,0xc
80002b88:	04fe                	slli	s1,s1,0x1f
80002b8a:	8fd9                	or	a5,a5,a4
80002b8c:	0097e733          	or	a4,a5,s1
/Local/xl_ci/toolchain/riscv-gnu-toolchain/riscv-gcc/libgcc/soft-fp/subdf3.c:51 (discriminator 90)
80002b90:	4942                	lw	s2,16(sp)
80002b92:	44d2                	lw	s1,20(sp)
80002b94:	49b2                	lw	s3,12(sp)
80002b96:	85ba                	mv	a1,a4
80002b98:	6105                	addi	sp,sp,32
80002b9a:	8082                	ret
80002b9c:	8442                	mv	s0,a6
80002b9e:	b181                	j	800027de <__subdf3+0x236>
/Local/xl_ci/toolchain/riscv-gnu-toolchain/riscv-gcc/libgcc/soft-fp/subdf3.c:45
80002ba0:	87ba                	mv	a5,a4
80002ba2:	85b2                	mv	a1,a2
/Local/xl_ci/toolchain/riscv-gnu-toolchain/riscv-gcc/libgcc/soft-fp/subdf3.c:46
80002ba4:	842a                	mv	s0,a0
80002ba6:	b599                	j	800029ec <__subdf3+0x444>
80002ba8:	4781                	li	a5,0
80002baa:	4581                	li	a1,0
80002bac:	4481                	li	s1,0
80002bae:	b771                	j	80002b3a <__subdf3+0x592>
80002bb0:	4781                	li	a5,0
80002bb2:	bfed                	j	80002bac <__subdf3+0x604>
80002bb4:	4581                	li	a1,0
80002bb6:	4481                	li	s1,0
80002bb8:	004007b7          	lui	a5,0x400
80002bbc:	b989                	j	8000280e <__subdf3+0x266>
80002bbe:	4781                	li	a5,0
80002bc0:	4581                	li	a1,0
80002bc2:	bf49                	j	80002b54 <__subdf3+0x5ac>

80002bc4 <__unorddf2>:
__unorddf2():
/Local/xl_ci/toolchain/riscv-gnu-toolchain/riscv-gcc/libgcc/soft-fp/unorddf2.c:42
80002bc4:	00100737          	lui	a4,0x100
80002bc8:	fff70793          	addi	a5,a4,-1 # fffff <__stack_size+0xff7ff>
80002bcc:	00b7f733          	and	a4,a5,a1
80002bd0:	81d1                	srli	a1,a1,0x14
/Local/xl_ci/toolchain/riscv-gnu-toolchain/riscv-gcc/libgcc/soft-fp/unorddf2.c:43
80002bd2:	8ff5                	and	a5,a5,a3
/Local/xl_ci/toolchain/riscv-gnu-toolchain/riscv-gcc/libgcc/soft-fp/unorddf2.c:42
80002bd4:	7ff5f593          	andi	a1,a1,2047
/Local/xl_ci/toolchain/riscv-gnu-toolchain/riscv-gcc/libgcc/soft-fp/unorddf2.c:43
80002bd8:	82d1                	srli	a3,a3,0x14
/Local/xl_ci/toolchain/riscv-gnu-toolchain/riscv-gcc/libgcc/soft-fp/unorddf2.c:44
80002bda:	7ff00813          	li	a6,2047
/Local/xl_ci/toolchain/riscv-gnu-toolchain/riscv-gcc/libgcc/soft-fp/unorddf2.c:43
80002bde:	7ff6f693          	andi	a3,a3,2047
/Local/xl_ci/toolchain/riscv-gnu-toolchain/riscv-gcc/libgcc/soft-fp/unorddf2.c:44
80002be2:	01059563          	bne	a1,a6,80002bec <__unorddf2+0x28>
/Local/xl_ci/toolchain/riscv-gnu-toolchain/riscv-gcc/libgcc/soft-fp/unorddf2.c:44 (discriminator 20)
80002be6:	8f49                	or	a4,a4,a0
80002be8:	4505                	li	a0,1
80002bea:	eb09                	bnez	a4,80002bfc <__unorddf2+0x38>
/Local/xl_ci/toolchain/riscv-gnu-toolchain/riscv-gcc/libgcc/soft-fp/unorddf2.c:44 (discriminator 23)
80002bec:	7ff00713          	li	a4,2047
80002bf0:	4501                	li	a0,0
80002bf2:	00e69563          	bne	a3,a4,80002bfc <__unorddf2+0x38>
/Local/xl_ci/toolchain/riscv-gnu-toolchain/riscv-gcc/libgcc/soft-fp/unorddf2.c:44 (discriminator 24)
80002bf6:	8fd1                	or	a5,a5,a2
80002bf8:	00f03533          	snez	a0,a5
/Local/xl_ci/toolchain/riscv-gnu-toolchain/riscv-gcc/libgcc/soft-fp/unorddf2.c:48
80002bfc:	8082                	ret

80002bfe <__floatsidf>:
__floatsidf():
/Local/xl_ci/toolchain/riscv-gnu-toolchain/riscv-gcc/libgcc/soft-fp/floatsidf.c:37
80002bfe:	1141                	addi	sp,sp,-16
80002c00:	c606                	sw	ra,12(sp)
80002c02:	c422                	sw	s0,8(sp)
80002c04:	c226                	sw	s1,4(sp)
/Local/xl_ci/toolchain/riscv-gnu-toolchain/riscv-gcc/libgcc/soft-fp/floatsidf.c:41
80002c06:	cd29                	beqz	a0,80002c60 <__floatsidf+0x62>
/Local/xl_ci/toolchain/riscv-gnu-toolchain/riscv-gcc/libgcc/soft-fp/floatsidf.c:41 (discriminator 1)
80002c08:	41f55793          	srai	a5,a0,0x1f
80002c0c:	00a7c433          	xor	s0,a5,a0
80002c10:	8c1d                	sub	s0,s0,a5
80002c12:	01f55493          	srli	s1,a0,0x1f
80002c16:	8522                	mv	a0,s0
80002c18:	15b000ef          	jal	ra,80003572 <__clzsi2>
80002c1c:	41e00713          	li	a4,1054
80002c20:	47a9                	li	a5,10
80002c22:	8f09                	sub	a4,a4,a0
80002c24:	02a7c863          	blt	a5,a0,80002c54 <__floatsidf+0x56>
/Local/xl_ci/toolchain/riscv-gnu-toolchain/riscv-gcc/libgcc/soft-fp/floatsidf.c:41 (discriminator 23)
80002c28:	47ad                	li	a5,11
80002c2a:	8f89                	sub	a5,a5,a0
80002c2c:	0555                	addi	a0,a0,21
80002c2e:	00f457b3          	srl	a5,s0,a5
80002c32:	00a41433          	sll	s0,s0,a0
80002c36:	8526                	mv	a0,s1
/Local/xl_ci/toolchain/riscv-gnu-toolchain/riscv-gcc/libgcc/soft-fp/floatsidf.c:42 (discriminator 126)
80002c38:	07b2                	slli	a5,a5,0xc
80002c3a:	0752                	slli	a4,a4,0x14
80002c3c:	83b1                	srli	a5,a5,0xc
80002c3e:	057e                	slli	a0,a0,0x1f
80002c40:	8fd9                	or	a5,a5,a4
/Local/xl_ci/toolchain/riscv-gnu-toolchain/riscv-gcc/libgcc/soft-fp/floatsidf.c:45 (discriminator 126)
80002c42:	40b2                	lw	ra,12(sp)
/Local/xl_ci/toolchain/riscv-gnu-toolchain/riscv-gcc/libgcc/soft-fp/floatsidf.c:42 (discriminator 126)
80002c44:	00a7e733          	or	a4,a5,a0
/Local/xl_ci/toolchain/riscv-gnu-toolchain/riscv-gcc/libgcc/soft-fp/floatsidf.c:45 (discriminator 126)
80002c48:	8522                	mv	a0,s0
80002c4a:	4422                	lw	s0,8(sp)
80002c4c:	4492                	lw	s1,4(sp)
80002c4e:	85ba                	mv	a1,a4
80002c50:	0141                	addi	sp,sp,16
80002c52:	8082                	ret
/Local/xl_ci/toolchain/riscv-gnu-toolchain/riscv-gcc/libgcc/soft-fp/floatsidf.c:41 (discriminator 24)
80002c54:	1555                	addi	a0,a0,-11
80002c56:	00a417b3          	sll	a5,s0,a0
80002c5a:	8526                	mv	a0,s1
/Local/xl_ci/toolchain/riscv-gnu-toolchain/riscv-gcc/libgcc/soft-fp/floatsidf.c:41
80002c5c:	4401                	li	s0,0
80002c5e:	bfe9                	j	80002c38 <__floatsidf+0x3a>
80002c60:	4701                	li	a4,0
80002c62:	4781                	li	a5,0
80002c64:	bfe5                	j	80002c5c <__floatsidf+0x5e>

80002c66 <__addsf3>:
__addsf3():
/Local/xl_ci/toolchain/riscv-gnu-toolchain/riscv-gcc/libgcc/soft-fp/addsf3.c:44
80002c66:	00800737          	lui	a4,0x800
/Local/xl_ci/toolchain/riscv-gnu-toolchain/riscv-gcc/libgcc/soft-fp/addsf3.c:36
80002c6a:	1141                	addi	sp,sp,-16
/Local/xl_ci/toolchain/riscv-gnu-toolchain/riscv-gcc/libgcc/soft-fp/addsf3.c:44
80002c6c:	177d                	addi	a4,a4,-1
80002c6e:	00a777b3          	and	a5,a4,a0
/Local/xl_ci/toolchain/riscv-gnu-toolchain/riscv-gcc/libgcc/soft-fp/addsf3.c:36
80002c72:	c422                	sw	s0,8(sp)
80002c74:	c226                	sw	s1,4(sp)
/Local/xl_ci/toolchain/riscv-gnu-toolchain/riscv-gcc/libgcc/soft-fp/addsf3.c:44
80002c76:	01755413          	srli	s0,a0,0x17
80002c7a:	01f55493          	srli	s1,a0,0x1f
/Local/xl_ci/toolchain/riscv-gnu-toolchain/riscv-gcc/libgcc/soft-fp/addsf3.c:45
80002c7e:	0175d513          	srli	a0,a1,0x17
80002c82:	8f6d                	and	a4,a4,a1
/Local/xl_ci/toolchain/riscv-gnu-toolchain/riscv-gcc/libgcc/soft-fp/addsf3.c:44
80002c84:	0ff47413          	zext.b	s0,s0
/Local/xl_ci/toolchain/riscv-gnu-toolchain/riscv-gcc/libgcc/soft-fp/addsf3.c:45
80002c88:	0ff57513          	zext.b	a0,a0
/Local/xl_ci/toolchain/riscv-gnu-toolchain/riscv-gcc/libgcc/soft-fp/addsf3.c:36
80002c8c:	c606                	sw	ra,12(sp)
80002c8e:	c04a                	sw	s2,0(sp)
/Local/xl_ci/toolchain/riscv-gnu-toolchain/riscv-gcc/libgcc/soft-fp/addsf3.c:45
80002c90:	81fd                	srli	a1,a1,0x1f
/Local/xl_ci/toolchain/riscv-gnu-toolchain/riscv-gcc/libgcc/soft-fp/addsf3.c:44
80002c92:	078e                	slli	a5,a5,0x3
/Local/xl_ci/toolchain/riscv-gnu-toolchain/riscv-gcc/libgcc/soft-fp/addsf3.c:45
80002c94:	070e                	slli	a4,a4,0x3
/Local/xl_ci/toolchain/riscv-gnu-toolchain/riscv-gcc/libgcc/soft-fp/addsf3.c:46
80002c96:	40a406b3          	sub	a3,s0,a0
80002c9a:	12b49663          	bne	s1,a1,80002dc6 <__addsf3+0x160>
/Local/xl_ci/toolchain/riscv-gnu-toolchain/riscv-gcc/libgcc/soft-fp/addsf3.c:46 (discriminator 7)
80002c9e:	06d05c63          	blez	a3,80002d16 <__addsf3+0xb0>
/Local/xl_ci/toolchain/riscv-gnu-toolchain/riscv-gcc/libgcc/soft-fp/addsf3.c:46 (discriminator 9)
80002ca2:	e105                	bnez	a0,80002cc2 <__addsf3+0x5c>
/Local/xl_ci/toolchain/riscv-gnu-toolchain/riscv-gcc/libgcc/soft-fp/addsf3.c:46 (discriminator 11)
80002ca4:	10070f63          	beqz	a4,80002dc2 <__addsf3+0x15c>
/Local/xl_ci/toolchain/riscv-gnu-toolchain/riscv-gcc/libgcc/soft-fp/addsf3.c:46 (discriminator 14)
80002ca8:	fff68613          	addi	a2,a3,-1 # 7fefffff <__stack_size+0x7feff7ff>
80002cac:	e601                	bnez	a2,80002cb4 <__addsf3+0x4e>
/Local/xl_ci/toolchain/riscv-gnu-toolchain/riscv-gcc/libgcc/soft-fp/addsf3.c:46 (discriminator 75)
80002cae:	97ba                	add	a5,a5,a4
/Local/xl_ci/toolchain/riscv-gnu-toolchain/riscv-gcc/libgcc/soft-fp/addsf3.c:45 (discriminator 75)
80002cb0:	4405                	li	s0,1
/Local/xl_ci/toolchain/riscv-gnu-toolchain/riscv-gcc/libgcc/soft-fp/addsf3.c:46 (discriminator 75)
80002cb2:	a081                	j	80002cf2 <__addsf3+0x8c>
/Local/xl_ci/toolchain/riscv-gnu-toolchain/riscv-gcc/libgcc/soft-fp/addsf3.c:46 (discriminator 24)
80002cb4:	0ff00593          	li	a1,255
80002cb8:	00b69d63          	bne	a3,a1,80002cd2 <__addsf3+0x6c>
/Local/xl_ci/toolchain/riscv-gnu-toolchain/riscv-gcc/libgcc/soft-fp/addsf3.c:46
80002cbc:	0ff00413          	li	s0,255
80002cc0:	a8c1                	j	80002d90 <__addsf3+0x12a>
/Local/xl_ci/toolchain/riscv-gnu-toolchain/riscv-gcc/libgcc/soft-fp/addsf3.c:46 (discriminator 12)
80002cc2:	0ff00613          	li	a2,255
80002cc6:	0cc40563          	beq	s0,a2,80002d90 <__addsf3+0x12a>
/Local/xl_ci/toolchain/riscv-gnu-toolchain/riscv-gcc/libgcc/soft-fp/addsf3.c:46 (discriminator 38)
80002cca:	04000637          	lui	a2,0x4000
80002cce:	8f51                	or	a4,a4,a2
80002cd0:	8636                	mv	a2,a3
/Local/xl_ci/toolchain/riscv-gnu-toolchain/riscv-gcc/libgcc/soft-fp/addsf3.c:46 (discriminator 47)
80002cd2:	45ed                	li	a1,27
80002cd4:	4685                	li	a3,1
80002cd6:	00c5cd63          	blt	a1,a2,80002cf0 <__addsf3+0x8a>
/Local/xl_ci/toolchain/riscv-gnu-toolchain/riscv-gcc/libgcc/soft-fp/addsf3.c:46 (discriminator 48)
80002cda:	02000693          	li	a3,32
80002cde:	8e91                	sub	a3,a3,a2
80002ce0:	00c755b3          	srl	a1,a4,a2
80002ce4:	00d71733          	sll	a4,a4,a3
80002ce8:	00e03733          	snez	a4,a4
80002cec:	00e5e6b3          	or	a3,a1,a4
/Local/xl_ci/toolchain/riscv-gnu-toolchain/riscv-gcc/libgcc/soft-fp/addsf3.c:46 (discriminator 59)
80002cf0:	97b6                	add	a5,a5,a3
/Local/xl_ci/toolchain/riscv-gnu-toolchain/riscv-gcc/libgcc/soft-fp/addsf3.c:46 (discriminator 112)
80002cf2:	04000737          	lui	a4,0x4000
80002cf6:	8f7d                	and	a4,a4,a5
80002cf8:	cf41                	beqz	a4,80002d90 <__addsf3+0x12a>
/Local/xl_ci/toolchain/riscv-gnu-toolchain/riscv-gcc/libgcc/soft-fp/addsf3.c:46 (discriminator 171)
80002cfa:	0405                	addi	s0,s0,1
80002cfc:	0ff00713          	li	a4,255
80002d00:	22e40963          	beq	s0,a4,80002f32 <__addsf3+0x2cc>
/Local/xl_ci/toolchain/riscv-gnu-toolchain/riscv-gcc/libgcc/soft-fp/addsf3.c:46
80002d04:	7e000737          	lui	a4,0x7e000
80002d08:	0017f693          	andi	a3,a5,1
80002d0c:	177d                	addi	a4,a4,-1
80002d0e:	8385                	srli	a5,a5,0x1
80002d10:	8ff9                	and	a5,a5,a4
80002d12:	8fd5                	or	a5,a5,a3
80002d14:	a8b5                	j	80002d90 <__addsf3+0x12a>
/Local/xl_ci/toolchain/riscv-gnu-toolchain/riscv-gcc/libgcc/soft-fp/addsf3.c:46 (discriminator 10)
80002d16:	cab1                	beqz	a3,80002d6a <__addsf3+0x104>
/Local/xl_ci/toolchain/riscv-gnu-toolchain/riscv-gcc/libgcc/soft-fp/addsf3.c:46 (discriminator 61)
80002d18:	408506b3          	sub	a3,a0,s0
80002d1c:	ec01                	bnez	s0,80002d34 <__addsf3+0xce>
/Local/xl_ci/toolchain/riscv-gnu-toolchain/riscv-gcc/libgcc/soft-fp/addsf3.c:46 (discriminator 63)
80002d1e:	20078463          	beqz	a5,80002f26 <__addsf3+0x2c0>
/Local/xl_ci/toolchain/riscv-gnu-toolchain/riscv-gcc/libgcc/soft-fp/addsf3.c:46 (discriminator 66)
80002d22:	fff68613          	addi	a2,a3,-1
80002d26:	d641                	beqz	a2,80002cae <__addsf3+0x48>
/Local/xl_ci/toolchain/riscv-gnu-toolchain/riscv-gcc/libgcc/soft-fp/addsf3.c:46 (discriminator 76)
80002d28:	0ff00593          	li	a1,255
80002d2c:	00b69c63          	bne	a3,a1,80002d44 <__addsf3+0xde>
/Local/xl_ci/toolchain/riscv-gnu-toolchain/riscv-gcc/libgcc/soft-fp/addsf3.c:45
80002d30:	87ba                	mv	a5,a4
80002d32:	b769                	j	80002cbc <__addsf3+0x56>
/Local/xl_ci/toolchain/riscv-gnu-toolchain/riscv-gcc/libgcc/soft-fp/addsf3.c:46 (discriminator 64)
80002d34:	0ff00613          	li	a2,255
80002d38:	fec50ce3          	beq	a0,a2,80002d30 <__addsf3+0xca>
/Local/xl_ci/toolchain/riscv-gnu-toolchain/riscv-gcc/libgcc/soft-fp/addsf3.c:46 (discriminator 90)
80002d3c:	04000637          	lui	a2,0x4000
80002d40:	8fd1                	or	a5,a5,a2
80002d42:	8636                	mv	a2,a3
/Local/xl_ci/toolchain/riscv-gnu-toolchain/riscv-gcc/libgcc/soft-fp/addsf3.c:46 (discriminator 99)
80002d44:	45ed                	li	a1,27
80002d46:	4685                	li	a3,1
80002d48:	00c5cd63          	blt	a1,a2,80002d62 <__addsf3+0xfc>
/Local/xl_ci/toolchain/riscv-gnu-toolchain/riscv-gcc/libgcc/soft-fp/addsf3.c:46 (discriminator 100)
80002d4c:	02000693          	li	a3,32
80002d50:	8e91                	sub	a3,a3,a2
80002d52:	00c7d5b3          	srl	a1,a5,a2
80002d56:	00d797b3          	sll	a5,a5,a3
80002d5a:	00f037b3          	snez	a5,a5
80002d5e:	00f5e6b3          	or	a3,a1,a5
/Local/xl_ci/toolchain/riscv-gnu-toolchain/riscv-gcc/libgcc/soft-fp/addsf3.c:46 (discriminator 111)
80002d62:	00e687b3          	add	a5,a3,a4
/Local/xl_ci/toolchain/riscv-gnu-toolchain/riscv-gcc/libgcc/soft-fp/addsf3.c:45 (discriminator 111)
80002d66:	842a                	mv	s0,a0
80002d68:	b769                	j	80002cf2 <__addsf3+0x8c>
/Local/xl_ci/toolchain/riscv-gnu-toolchain/riscv-gcc/libgcc/soft-fp/addsf3.c:46 (discriminator 62)
80002d6a:	00140693          	addi	a3,s0,1
80002d6e:	0fe6f613          	andi	a2,a3,254
80002d72:	e231                	bnez	a2,80002db6 <__addsf3+0x150>
/Local/xl_ci/toolchain/riscv-gnu-toolchain/riscv-gcc/libgcc/soft-fp/addsf3.c:46 (discriminator 113)
80002d74:	e80d                	bnez	s0,80002da6 <__addsf3+0x140>
/Local/xl_ci/toolchain/riscv-gnu-toolchain/riscv-gcc/libgcc/soft-fp/addsf3.c:46 (discriminator 115)
80002d76:	1a078a63          	beqz	a5,80002f2a <__addsf3+0x2c4>
/Local/xl_ci/toolchain/riscv-gnu-toolchain/riscv-gcc/libgcc/soft-fp/addsf3.c:46 (discriminator 118)
80002d7a:	cb19                	beqz	a4,80002d90 <__addsf3+0x12a>
/Local/xl_ci/toolchain/riscv-gnu-toolchain/riscv-gcc/libgcc/soft-fp/addsf3.c:46 (discriminator 124)
80002d7c:	97ba                	add	a5,a5,a4
80002d7e:	04000737          	lui	a4,0x4000
80002d82:	8f7d                	and	a4,a4,a5
80002d84:	c711                	beqz	a4,80002d90 <__addsf3+0x12a>
/Local/xl_ci/toolchain/riscv-gnu-toolchain/riscv-gcc/libgcc/soft-fp/addsf3.c:46 (discriminator 126)
80002d86:	fc000737          	lui	a4,0xfc000
80002d8a:	177d                	addi	a4,a4,-1
80002d8c:	8ff9                	and	a5,a5,a4
80002d8e:	4405                	li	s0,1
/Local/xl_ci/toolchain/riscv-gnu-toolchain/riscv-gcc/libgcc/soft-fp/addsf3.c:47 (discriminator 377)
80002d90:	0077f713          	andi	a4,a5,7
80002d94:	1a070063          	beqz	a4,80002f34 <__addsf3+0x2ce>
/Local/xl_ci/toolchain/riscv-gnu-toolchain/riscv-gcc/libgcc/soft-fp/addsf3.c:47 (discriminator 37)
80002d98:	00f7f713          	andi	a4,a5,15
80002d9c:	4691                	li	a3,4
80002d9e:	18d70b63          	beq	a4,a3,80002f34 <__addsf3+0x2ce>
/Local/xl_ci/toolchain/riscv-gnu-toolchain/riscv-gcc/libgcc/soft-fp/addsf3.c:47 (discriminator 44)
80002da2:	0791                	addi	a5,a5,4
80002da4:	aa41                	j	80002f34 <__addsf3+0x2ce>
/Local/xl_ci/toolchain/riscv-gnu-toolchain/riscv-gcc/libgcc/soft-fp/addsf3.c:46 (discriminator 143)
80002da6:	d7c9                	beqz	a5,80002d30 <__addsf3+0xca>
/Local/xl_ci/toolchain/riscv-gnu-toolchain/riscv-gcc/libgcc/soft-fp/addsf3.c:46 (discriminator 329)
80002da8:	db11                	beqz	a4,80002cbc <__addsf3+0x56>
/Local/xl_ci/toolchain/riscv-gnu-toolchain/riscv-gcc/libgcc/soft-fp/addsf3.c:46
80002daa:	4481                	li	s1,0
80002dac:	020007b7          	lui	a5,0x2000
80002db0:	0ff00413          	li	s0,255
80002db4:	a241                	j	80002f34 <__addsf3+0x2ce>
/Local/xl_ci/toolchain/riscv-gnu-toolchain/riscv-gcc/libgcc/soft-fp/addsf3.c:46 (discriminator 114)
80002db6:	0ff00613          	li	a2,255
80002dba:	16c68a63          	beq	a3,a2,80002f2e <__addsf3+0x2c8>
/Local/xl_ci/toolchain/riscv-gnu-toolchain/riscv-gcc/libgcc/soft-fp/addsf3.c:46
80002dbe:	97ba                	add	a5,a5,a4
80002dc0:	8385                	srli	a5,a5,0x1
80002dc2:	8436                	mv	s0,a3
80002dc4:	b7f1                	j	80002d90 <__addsf3+0x12a>
/Local/xl_ci/toolchain/riscv-gnu-toolchain/riscv-gcc/libgcc/soft-fp/addsf3.c:46 (discriminator 8)
80002dc6:	06d05063          	blez	a3,80002e26 <__addsf3+0x1c0>
/Local/xl_ci/toolchain/riscv-gnu-toolchain/riscv-gcc/libgcc/soft-fp/addsf3.c:46 (discriminator 189)
80002dca:	e529                	bnez	a0,80002e14 <__addsf3+0x1ae>
/Local/xl_ci/toolchain/riscv-gnu-toolchain/riscv-gcc/libgcc/soft-fp/addsf3.c:46 (discriminator 191)
80002dcc:	db7d                	beqz	a4,80002dc2 <__addsf3+0x15c>
/Local/xl_ci/toolchain/riscv-gnu-toolchain/riscv-gcc/libgcc/soft-fp/addsf3.c:46 (discriminator 194)
80002dce:	fff68613          	addi	a2,a3,-1
80002dd2:	e601                	bnez	a2,80002dda <__addsf3+0x174>
/Local/xl_ci/toolchain/riscv-gnu-toolchain/riscv-gcc/libgcc/soft-fp/addsf3.c:46 (discriminator 203)
80002dd4:	8f99                	sub	a5,a5,a4
/Local/xl_ci/toolchain/riscv-gnu-toolchain/riscv-gcc/libgcc/soft-fp/addsf3.c:45 (discriminator 255)
80002dd6:	4405                	li	s0,1
/Local/xl_ci/toolchain/riscv-gnu-toolchain/riscv-gcc/libgcc/soft-fp/addsf3.c:46 (discriminator 255)
80002dd8:	a02d                	j	80002e02 <__addsf3+0x19c>
/Local/xl_ci/toolchain/riscv-gnu-toolchain/riscv-gcc/libgcc/soft-fp/addsf3.c:46 (discriminator 204)
80002dda:	0ff00593          	li	a1,255
80002dde:	ecb68fe3          	beq	a3,a1,80002cbc <__addsf3+0x56>
/Local/xl_ci/toolchain/riscv-gnu-toolchain/riscv-gcc/libgcc/soft-fp/addsf3.c:46 (discriminator 227)
80002de2:	45ed                	li	a1,27
80002de4:	4685                	li	a3,1
80002de6:	00c5cd63          	blt	a1,a2,80002e00 <__addsf3+0x19a>
/Local/xl_ci/toolchain/riscv-gnu-toolchain/riscv-gcc/libgcc/soft-fp/addsf3.c:46 (discriminator 228)
80002dea:	02000693          	li	a3,32
80002dee:	8e91                	sub	a3,a3,a2
80002df0:	00c755b3          	srl	a1,a4,a2
80002df4:	00d71733          	sll	a4,a4,a3
80002df8:	00e03733          	snez	a4,a4
80002dfc:	00e5e6b3          	or	a3,a1,a4
/Local/xl_ci/toolchain/riscv-gnu-toolchain/riscv-gcc/libgcc/soft-fp/addsf3.c:46 (discriminator 239)
80002e00:	8f95                	sub	a5,a5,a3
/Local/xl_ci/toolchain/riscv-gnu-toolchain/riscv-gcc/libgcc/soft-fp/addsf3.c:46 (discriminator 292)
80002e02:	04000937          	lui	s2,0x4000
80002e06:	0127f733          	and	a4,a5,s2
80002e0a:	d359                	beqz	a4,80002d90 <__addsf3+0x12a>
/Local/xl_ci/toolchain/riscv-gnu-toolchain/riscv-gcc/libgcc/soft-fp/addsf3.c:46 (discriminator 351)
80002e0c:	197d                	addi	s2,s2,-1
80002e0e:	0127f933          	and	s2,a5,s2
80002e12:	a0f1                	j	80002ede <__addsf3+0x278>
/Local/xl_ci/toolchain/riscv-gnu-toolchain/riscv-gcc/libgcc/soft-fp/addsf3.c:46 (discriminator 192)
80002e14:	0ff00613          	li	a2,255
80002e18:	f6c40ce3          	beq	s0,a2,80002d90 <__addsf3+0x12a>
/Local/xl_ci/toolchain/riscv-gnu-toolchain/riscv-gcc/libgcc/soft-fp/addsf3.c:46 (discriminator 218)
80002e1c:	04000637          	lui	a2,0x4000
80002e20:	8f51                	or	a4,a4,a2
80002e22:	8636                	mv	a2,a3
80002e24:	bf7d                	j	80002de2 <__addsf3+0x17c>
/Local/xl_ci/toolchain/riscv-gnu-toolchain/riscv-gcc/libgcc/soft-fp/addsf3.c:46 (discriminator 190)
80002e26:	c2ad                	beqz	a3,80002e88 <__addsf3+0x222>
/Local/xl_ci/toolchain/riscv-gnu-toolchain/riscv-gcc/libgcc/soft-fp/addsf3.c:46 (discriminator 241)
80002e28:	408506b3          	sub	a3,a0,s0
80002e2c:	e015                	bnez	s0,80002e50 <__addsf3+0x1ea>
/Local/xl_ci/toolchain/riscv-gnu-toolchain/riscv-gcc/libgcc/soft-fp/addsf3.c:46 (discriminator 243)
80002e2e:	14078963          	beqz	a5,80002f80 <__addsf3+0x31a>
/Local/xl_ci/toolchain/riscv-gnu-toolchain/riscv-gcc/libgcc/soft-fp/addsf3.c:46 (discriminator 246)
80002e32:	fff68613          	addi	a2,a3,-1
80002e36:	e609                	bnez	a2,80002e40 <__addsf3+0x1da>
/Local/xl_ci/toolchain/riscv-gnu-toolchain/riscv-gcc/libgcc/soft-fp/addsf3.c:46 (discriminator 255)
80002e38:	40f707b3          	sub	a5,a4,a5
80002e3c:	84ae                	mv	s1,a1
80002e3e:	bf61                	j	80002dd6 <__addsf3+0x170>
/Local/xl_ci/toolchain/riscv-gnu-toolchain/riscv-gcc/libgcc/soft-fp/addsf3.c:46 (discriminator 256)
80002e40:	0ff00813          	li	a6,255
80002e44:	01069e63          	bne	a3,a6,80002e60 <__addsf3+0x1fa>
/Local/xl_ci/toolchain/riscv-gnu-toolchain/riscv-gcc/libgcc/soft-fp/addsf3.c:45
80002e48:	87ba                	mv	a5,a4
/Local/xl_ci/toolchain/riscv-gnu-toolchain/riscv-gcc/libgcc/soft-fp/addsf3.c:46
80002e4a:	0ff00413          	li	s0,255
80002e4e:	a0b9                	j	80002e9c <__addsf3+0x236>
/Local/xl_ci/toolchain/riscv-gnu-toolchain/riscv-gcc/libgcc/soft-fp/addsf3.c:46 (discriminator 244)
80002e50:	0ff00613          	li	a2,255
80002e54:	fec50ae3          	beq	a0,a2,80002e48 <__addsf3+0x1e2>
/Local/xl_ci/toolchain/riscv-gnu-toolchain/riscv-gcc/libgcc/soft-fp/addsf3.c:46 (discriminator 270)
80002e58:	04000637          	lui	a2,0x4000
80002e5c:	8fd1                	or	a5,a5,a2
80002e5e:	8636                	mv	a2,a3
/Local/xl_ci/toolchain/riscv-gnu-toolchain/riscv-gcc/libgcc/soft-fp/addsf3.c:46 (discriminator 279)
80002e60:	486d                	li	a6,27
80002e62:	4685                	li	a3,1
80002e64:	00c84d63          	blt	a6,a2,80002e7e <__addsf3+0x218>
/Local/xl_ci/toolchain/riscv-gnu-toolchain/riscv-gcc/libgcc/soft-fp/addsf3.c:46 (discriminator 280)
80002e68:	02000693          	li	a3,32
80002e6c:	8e91                	sub	a3,a3,a2
80002e6e:	00c7d833          	srl	a6,a5,a2
80002e72:	00d797b3          	sll	a5,a5,a3
80002e76:	00f037b3          	snez	a5,a5
80002e7a:	00f866b3          	or	a3,a6,a5
/Local/xl_ci/toolchain/riscv-gnu-toolchain/riscv-gcc/libgcc/soft-fp/addsf3.c:46 (discriminator 291)
80002e7e:	40d707b3          	sub	a5,a4,a3
/Local/xl_ci/toolchain/riscv-gnu-toolchain/riscv-gcc/libgcc/soft-fp/addsf3.c:45 (discriminator 291)
80002e82:	842a                	mv	s0,a0
80002e84:	84ae                	mv	s1,a1
80002e86:	bfb5                	j	80002e02 <__addsf3+0x19c>
/Local/xl_ci/toolchain/riscv-gnu-toolchain/riscv-gcc/libgcc/soft-fp/addsf3.c:46 (discriminator 242)
80002e88:	00140693          	addi	a3,s0,1
80002e8c:	0fe6f693          	andi	a3,a3,254
80002e90:	ee8d                	bnez	a3,80002eca <__addsf3+0x264>
/Local/xl_ci/toolchain/riscv-gnu-toolchain/riscv-gcc/libgcc/soft-fp/addsf3.c:46 (discriminator 293)
80002e92:	e40d                	bnez	s0,80002ebc <__addsf3+0x256>
/Local/xl_ci/toolchain/riscv-gnu-toolchain/riscv-gcc/libgcc/soft-fp/addsf3.c:46 (discriminator 295)
80002e94:	e791                	bnez	a5,80002ea0 <__addsf3+0x23a>
/Local/xl_ci/toolchain/riscv-gnu-toolchain/riscv-gcc/libgcc/soft-fp/addsf3.c:46 (discriminator 297)
80002e96:	4481                	li	s1,0
80002e98:	cf51                	beqz	a4,80002f34 <__addsf3+0x2ce>
/Local/xl_ci/toolchain/riscv-gnu-toolchain/riscv-gcc/libgcc/soft-fp/addsf3.c:46
80002e9a:	87ba                	mv	a5,a4
80002e9c:	84ae                	mv	s1,a1
80002e9e:	bdcd                	j	80002d90 <__addsf3+0x12a>
/Local/xl_ci/toolchain/riscv-gnu-toolchain/riscv-gcc/libgcc/soft-fp/addsf3.c:46 (discriminator 298)
80002ea0:	ee0708e3          	beqz	a4,80002d90 <__addsf3+0x12a>
/Local/xl_ci/toolchain/riscv-gnu-toolchain/riscv-gcc/libgcc/soft-fp/addsf3.c:46 (discriminator 305)
80002ea4:	40e786b3          	sub	a3,a5,a4
80002ea8:	04000637          	lui	a2,0x4000
80002eac:	8e75                	and	a2,a2,a3
80002eae:	40f707b3          	sub	a5,a4,a5
80002eb2:	f66d                	bnez	a2,80002e9c <__addsf3+0x236>
/Local/xl_ci/toolchain/riscv-gnu-toolchain/riscv-gcc/libgcc/soft-fp/addsf3.c:46 (discriminator 308)
80002eb4:	4781                	li	a5,0
80002eb6:	ceb9                	beqz	a3,80002f14 <__addsf3+0x2ae>
80002eb8:	87b6                	mv	a5,a3
80002eba:	bdd9                	j	80002d90 <__addsf3+0x12a>
/Local/xl_ci/toolchain/riscv-gnu-toolchain/riscv-gcc/libgcc/soft-fp/addsf3.c:46 (discriminator 327)
80002ebc:	ee0796e3          	bnez	a5,80002da8 <__addsf3+0x142>
/Local/xl_ci/toolchain/riscv-gnu-toolchain/riscv-gcc/libgcc/soft-fp/addsf3.c:46 (discriminator 328)
80002ec0:	ee0705e3          	beqz	a4,80002daa <__addsf3+0x144>
/Local/xl_ci/toolchain/riscv-gnu-toolchain/riscv-gcc/libgcc/soft-fp/addsf3.c:46
80002ec4:	87ba                	mv	a5,a4
80002ec6:	84ae                	mv	s1,a1
80002ec8:	bbd5                	j	80002cbc <__addsf3+0x56>
/Local/xl_ci/toolchain/riscv-gnu-toolchain/riscv-gcc/libgcc/soft-fp/addsf3.c:46 (discriminator 294)
80002eca:	40e78933          	sub	s2,a5,a4
80002ece:	040006b7          	lui	a3,0x4000
80002ed2:	00d976b3          	and	a3,s2,a3
80002ed6:	ca9d                	beqz	a3,80002f0c <__addsf3+0x2a6>
/Local/xl_ci/toolchain/riscv-gnu-toolchain/riscv-gcc/libgcc/soft-fp/addsf3.c:46 (discriminator 344)
80002ed8:	40f70933          	sub	s2,a4,a5
80002edc:	84ae                	mv	s1,a1
/Local/xl_ci/toolchain/riscv-gnu-toolchain/riscv-gcc/libgcc/soft-fp/addsf3.c:46 (discriminator 354)
80002ede:	854a                	mv	a0,s2
80002ee0:	2d49                	jal	80003572 <__clzsi2>
80002ee2:	156d                	addi	a0,a0,-5
80002ee4:	00a91933          	sll	s2,s2,a0
80002ee8:	02854863          	blt	a0,s0,80002f18 <__addsf3+0x2b2>
/Local/xl_ci/toolchain/riscv-gnu-toolchain/riscv-gcc/libgcc/soft-fp/addsf3.c:46 (discriminator 367)
80002eec:	8d01                	sub	a0,a0,s0
80002eee:	0505                	addi	a0,a0,1
80002ef0:	02000413          	li	s0,32
80002ef4:	00a957b3          	srl	a5,s2,a0
80002ef8:	40a40533          	sub	a0,s0,a0
80002efc:	00a91933          	sll	s2,s2,a0
80002f00:	01203933          	snez	s2,s2
80002f04:	0127e7b3          	or	a5,a5,s2
80002f08:	4401                	li	s0,0
80002f0a:	b559                	j	80002d90 <__addsf3+0x12a>
/Local/xl_ci/toolchain/riscv-gnu-toolchain/riscv-gcc/libgcc/soft-fp/addsf3.c:46 (discriminator 345)
80002f0c:	fc0919e3          	bnez	s2,80002ede <__addsf3+0x278>
/Local/xl_ci/toolchain/riscv-gnu-toolchain/riscv-gcc/libgcc/soft-fp/addsf3.c:46
80002f10:	4781                	li	a5,0
80002f12:	4401                	li	s0,0
80002f14:	4481                	li	s1,0
80002f16:	a839                	j	80002f34 <__addsf3+0x2ce>
/Local/xl_ci/toolchain/riscv-gnu-toolchain/riscv-gcc/libgcc/soft-fp/addsf3.c:46 (discriminator 368)
80002f18:	fc0007b7          	lui	a5,0xfc000
80002f1c:	17fd                	addi	a5,a5,-1
80002f1e:	8c09                	sub	s0,s0,a0
80002f20:	00f977b3          	and	a5,s2,a5
80002f24:	b5b5                	j	80002d90 <__addsf3+0x12a>
/Local/xl_ci/toolchain/riscv-gnu-toolchain/riscv-gcc/libgcc/soft-fp/addsf3.c:45
80002f26:	87ba                	mv	a5,a4
80002f28:	bd69                	j	80002dc2 <__addsf3+0x15c>
80002f2a:	87ba                	mv	a5,a4
80002f2c:	b595                	j	80002d90 <__addsf3+0x12a>
80002f2e:	0ff00413          	li	s0,255
80002f32:	4781                	li	a5,0
/Local/xl_ci/toolchain/riscv-gnu-toolchain/riscv-gcc/libgcc/soft-fp/addsf3.c:47 (discriminator 47)
80002f34:	04000737          	lui	a4,0x4000
80002f38:	8f7d                	and	a4,a4,a5
80002f3a:	cb11                	beqz	a4,80002f4e <__addsf3+0x2e8>
/Local/xl_ci/toolchain/riscv-gnu-toolchain/riscv-gcc/libgcc/soft-fp/addsf3.c:47 (discriminator 63)
80002f3c:	0405                	addi	s0,s0,1
80002f3e:	0ff00713          	li	a4,255
80002f42:	04e40263          	beq	s0,a4,80002f86 <__addsf3+0x320>
/Local/xl_ci/toolchain/riscv-gnu-toolchain/riscv-gcc/libgcc/soft-fp/addsf3.c:47
80002f46:	fc000737          	lui	a4,0xfc000
80002f4a:	177d                	addi	a4,a4,-1
80002f4c:	8ff9                	and	a5,a5,a4
/Local/xl_ci/toolchain/riscv-gnu-toolchain/riscv-gcc/libgcc/soft-fp/addsf3.c:47 (discriminator 79)
80002f4e:	0ff00713          	li	a4,255
80002f52:	838d                	srli	a5,a5,0x3
80002f54:	00e41663          	bne	s0,a4,80002f60 <__addsf3+0x2fa>
/Local/xl_ci/toolchain/riscv-gnu-toolchain/riscv-gcc/libgcc/soft-fp/addsf3.c:47 (discriminator 80)
80002f58:	c781                	beqz	a5,80002f60 <__addsf3+0x2fa>
/Local/xl_ci/toolchain/riscv-gnu-toolchain/riscv-gcc/libgcc/soft-fp/addsf3.c:47
80002f5a:	004007b7          	lui	a5,0x400
80002f5e:	4481                	li	s1,0
/Local/xl_ci/toolchain/riscv-gnu-toolchain/riscv-gcc/libgcc/soft-fp/addsf3.c:47 (discriminator 90)
80002f60:	7f800537          	lui	a0,0x7f800
80002f64:	045e                	slli	s0,s0,0x17
80002f66:	07a6                	slli	a5,a5,0x9
80002f68:	8c69                	and	s0,s0,a0
80002f6a:	83a5                	srli	a5,a5,0x9
/Local/xl_ci/toolchain/riscv-gnu-toolchain/riscv-gcc/libgcc/soft-fp/addsf3.c:51 (discriminator 90)
80002f6c:	40b2                	lw	ra,12(sp)
/Local/xl_ci/toolchain/riscv-gnu-toolchain/riscv-gcc/libgcc/soft-fp/addsf3.c:47 (discriminator 90)
80002f6e:	8fc1                	or	a5,a5,s0
/Local/xl_ci/toolchain/riscv-gnu-toolchain/riscv-gcc/libgcc/soft-fp/addsf3.c:51 (discriminator 90)
80002f70:	4422                	lw	s0,8(sp)
/Local/xl_ci/toolchain/riscv-gnu-toolchain/riscv-gcc/libgcc/soft-fp/addsf3.c:47 (discriminator 90)
80002f72:	01f49513          	slli	a0,s1,0x1f
/Local/xl_ci/toolchain/riscv-gnu-toolchain/riscv-gcc/libgcc/soft-fp/addsf3.c:51 (discriminator 90)
80002f76:	4902                	lw	s2,0(sp)
80002f78:	4492                	lw	s1,4(sp)
80002f7a:	8d5d                	or	a0,a0,a5
80002f7c:	0141                	addi	sp,sp,16
80002f7e:	8082                	ret
/Local/xl_ci/toolchain/riscv-gnu-toolchain/riscv-gcc/libgcc/soft-fp/addsf3.c:45
80002f80:	87ba                	mv	a5,a4
/Local/xl_ci/toolchain/riscv-gnu-toolchain/riscv-gcc/libgcc/soft-fp/addsf3.c:46
80002f82:	8436                	mv	s0,a3
80002f84:	bf21                	j	80002e9c <__addsf3+0x236>
80002f86:	4781                	li	a5,0
80002f88:	b7d9                	j	80002f4e <__addsf3+0x2e8>

80002f8a <__mulsf3>:
__mulsf3():
/Local/xl_ci/toolchain/riscv-gnu-toolchain/riscv-gcc/libgcc/soft-fp/mulsf3.c:36
80002f8a:	1101                	addi	sp,sp,-32
80002f8c:	c84a                	sw	s2,16(sp)
80002f8e:	01755913          	srli	s2,a0,0x17
80002f92:	ca26                	sw	s1,20(sp)
80002f94:	c64e                	sw	s3,12(sp)
80002f96:	c452                	sw	s4,8(sp)
/Local/xl_ci/toolchain/riscv-gnu-toolchain/riscv-gcc/libgcc/soft-fp/mulsf3.c:44
80002f98:	00951493          	slli	s1,a0,0x9
/Local/xl_ci/toolchain/riscv-gnu-toolchain/riscv-gcc/libgcc/soft-fp/mulsf3.c:36
80002f9c:	ce06                	sw	ra,28(sp)
80002f9e:	cc22                	sw	s0,24(sp)
80002fa0:	c256                	sw	s5,4(sp)
80002fa2:	0ff97913          	zext.b	s2,s2
80002fa6:	8a2e                	mv	s4,a1
/Local/xl_ci/toolchain/riscv-gnu-toolchain/riscv-gcc/libgcc/soft-fp/mulsf3.c:44
80002fa8:	80a5                	srli	s1,s1,0x9
80002faa:	01f55993          	srli	s3,a0,0x1f
80002fae:	06090763          	beqz	s2,8000301c <__mulsf3+0x92>
80002fb2:	0ff00793          	li	a5,255
80002fb6:	06f90f63          	beq	s2,a5,80003034 <__mulsf3+0xaa>
/Local/xl_ci/toolchain/riscv-gnu-toolchain/riscv-gcc/libgcc/soft-fp/mulsf3.c:44 (discriminator 1)
80002fba:	048e                	slli	s1,s1,0x3
80002fbc:	040007b7          	lui	a5,0x4000
80002fc0:	8cdd                	or	s1,s1,a5
80002fc2:	f8190913          	addi	s2,s2,-127 # 3ffff81 <__stack_size+0x3fff781>
/Local/xl_ci/toolchain/riscv-gnu-toolchain/riscv-gcc/libgcc/soft-fp/mulsf3.c:44 (discriminator 15)
80002fc6:	4a81                	li	s5,0
/Local/xl_ci/toolchain/riscv-gnu-toolchain/riscv-gcc/libgcc/soft-fp/mulsf3.c:45 (discriminator 8)
80002fc8:	017a5513          	srli	a0,s4,0x17
80002fcc:	009a1413          	slli	s0,s4,0x9
80002fd0:	0ff57513          	zext.b	a0,a0
80002fd4:	8025                	srli	s0,s0,0x9
80002fd6:	01fa5a13          	srli	s4,s4,0x1f
80002fda:	c535                	beqz	a0,80003046 <__mulsf3+0xbc>
/Local/xl_ci/toolchain/riscv-gnu-toolchain/riscv-gcc/libgcc/soft-fp/mulsf3.c:45
80002fdc:	0ff00793          	li	a5,255
80002fe0:	06f50f63          	beq	a0,a5,8000305e <__mulsf3+0xd4>
/Local/xl_ci/toolchain/riscv-gnu-toolchain/riscv-gcc/libgcc/soft-fp/mulsf3.c:45 (discriminator 1)
80002fe4:	040e                	slli	s0,s0,0x3
80002fe6:	040007b7          	lui	a5,0x4000
80002fea:	8c5d                	or	s0,s0,a5
80002fec:	f8150513          	addi	a0,a0,-127 # 7f7fff81 <__stack_size+0x7f7ff781>
/Local/xl_ci/toolchain/riscv-gnu-toolchain/riscv-gcc/libgcc/soft-fp/mulsf3.c:45 (discriminator 15)
80002ff0:	4781                	li	a5,0
/Local/xl_ci/toolchain/riscv-gnu-toolchain/riscv-gcc/libgcc/soft-fp/mulsf3.c:46 (discriminator 8)
80002ff2:	002a9713          	slli	a4,s5,0x2
80002ff6:	8f5d                	or	a4,a4,a5
80002ff8:	954a                	add	a0,a0,s2
80002ffa:	177d                	addi	a4,a4,-1
80002ffc:	45b9                	li	a1,14
80002ffe:	0149c6b3          	xor	a3,s3,s4
80003002:	00150613          	addi	a2,a0,1
80003006:	06e5e563          	bltu	a1,a4,80003070 <__mulsf3+0xe6>
8000300a:	00004597          	auipc	a1,0x4
8000300e:	d2e58593          	addi	a1,a1,-722 # 80006d38 <__trunctfdf2+0x3d0>
80003012:	070a                	slli	a4,a4,0x2
80003014:	972e                	add	a4,a4,a1
80003016:	4318                	lw	a4,0(a4)
80003018:	972e                	add	a4,a4,a1
8000301a:	8702                	jr	a4
/Local/xl_ci/toolchain/riscv-gnu-toolchain/riscv-gcc/libgcc/soft-fp/mulsf3.c:44 (discriminator 2)
8000301c:	c095                	beqz	s1,80003040 <__mulsf3+0xb6>
/Local/xl_ci/toolchain/riscv-gnu-toolchain/riscv-gcc/libgcc/soft-fp/mulsf3.c:44 (discriminator 15)
8000301e:	8526                	mv	a0,s1
80003020:	2b89                	jal	80003572 <__clzsi2>
80003022:	ffb50793          	addi	a5,a0,-5
80003026:	f8a00913          	li	s2,-118
8000302a:	00f494b3          	sll	s1,s1,a5
8000302e:	40a90933          	sub	s2,s2,a0
80003032:	bf51                	j	80002fc6 <__mulsf3+0x3c>
/Local/xl_ci/toolchain/riscv-gnu-toolchain/riscv-gcc/libgcc/soft-fp/mulsf3.c:44 (discriminator 3)
80003034:	0ff00913          	li	s2,255
80003038:	4a89                	li	s5,2
8000303a:	d4d9                	beqz	s1,80002fc8 <__mulsf3+0x3e>
/Local/xl_ci/toolchain/riscv-gnu-toolchain/riscv-gcc/libgcc/soft-fp/mulsf3.c:44
8000303c:	4a8d                	li	s5,3
8000303e:	b769                	j	80002fc8 <__mulsf3+0x3e>
80003040:	4901                	li	s2,0
80003042:	4a85                	li	s5,1
80003044:	b751                	j	80002fc8 <__mulsf3+0x3e>
/Local/xl_ci/toolchain/riscv-gnu-toolchain/riscv-gcc/libgcc/soft-fp/mulsf3.c:45 (discriminator 2)
80003046:	c015                	beqz	s0,8000306a <__mulsf3+0xe0>
/Local/xl_ci/toolchain/riscv-gnu-toolchain/riscv-gcc/libgcc/soft-fp/mulsf3.c:45 (discriminator 15)
80003048:	8522                	mv	a0,s0
8000304a:	2325                	jal	80003572 <__clzsi2>
8000304c:	ffb50793          	addi	a5,a0,-5
80003050:	00f41433          	sll	s0,s0,a5
80003054:	f8a00793          	li	a5,-118
80003058:	40a78533          	sub	a0,a5,a0
8000305c:	bf51                	j	80002ff0 <__mulsf3+0x66>
/Local/xl_ci/toolchain/riscv-gnu-toolchain/riscv-gcc/libgcc/soft-fp/mulsf3.c:45 (discriminator 3)
8000305e:	0ff00513          	li	a0,255
80003062:	4789                	li	a5,2
80003064:	d459                	beqz	s0,80002ff2 <__mulsf3+0x68>
/Local/xl_ci/toolchain/riscv-gnu-toolchain/riscv-gcc/libgcc/soft-fp/mulsf3.c:45
80003066:	478d                	li	a5,3
80003068:	b769                	j	80002ff2 <__mulsf3+0x68>
8000306a:	4501                	li	a0,0
8000306c:	4785                	li	a5,1
8000306e:	b751                	j	80002ff2 <__mulsf3+0x68>
/Local/xl_ci/toolchain/riscv-gnu-toolchain/riscv-gcc/libgcc/soft-fp/mulsf3.c:46 (discriminator 2)
80003070:	67c1                	lui	a5,0x10
80003072:	fff78313          	addi	t1,a5,-1 # ffff <__stack_size+0xf7ff>
80003076:	0104d713          	srli	a4,s1,0x10
8000307a:	01045593          	srli	a1,s0,0x10
8000307e:	0064f4b3          	and	s1,s1,t1
80003082:	00647433          	and	s0,s0,t1
80003086:	029408b3          	mul	a7,s0,s1
8000308a:	02870833          	mul	a6,a4,s0
8000308e:	02b70433          	mul	s0,a4,a1
80003092:	029585b3          	mul	a1,a1,s1
80003096:	0108d493          	srli	s1,a7,0x10
8000309a:	95c2                	add	a1,a1,a6
8000309c:	94ae                	add	s1,s1,a1
8000309e:	0104f363          	bgeu	s1,a6,800030a4 <__mulsf3+0x11a>
/Local/xl_ci/toolchain/riscv-gnu-toolchain/riscv-gcc/libgcc/soft-fp/mulsf3.c:46 (discriminator 9)
800030a2:	943e                	add	s0,s0,a5
/Local/xl_ci/toolchain/riscv-gnu-toolchain/riscv-gcc/libgcc/soft-fp/mulsf3.c:46 (discriminator 11)
800030a4:	0064f7b3          	and	a5,s1,t1
800030a8:	07c2                	slli	a5,a5,0x10
800030aa:	0068f8b3          	and	a7,a7,t1
800030ae:	97c6                	add	a5,a5,a7
800030b0:	00679713          	slli	a4,a5,0x6
800030b4:	80c1                	srli	s1,s1,0x10
800030b6:	00e03733          	snez	a4,a4
800030ba:	83e9                	srli	a5,a5,0x1a
800030bc:	9426                	add	s0,s0,s1
800030be:	8fd9                	or	a5,a5,a4
800030c0:	041a                	slli	s0,s0,0x6
800030c2:	8c5d                	or	s0,s0,a5
800030c4:	080007b7          	lui	a5,0x8000
800030c8:	8fe1                	and	a5,a5,s0
800030ca:	c7b5                	beqz	a5,80003136 <__mulsf3+0x1ac>
/Local/xl_ci/toolchain/riscv-gnu-toolchain/riscv-gcc/libgcc/soft-fp/mulsf3.c:46 (discriminator 12)
800030cc:	00145793          	srli	a5,s0,0x1
800030d0:	8805                	andi	s0,s0,1
800030d2:	8c5d                	or	s0,s0,a5
/Local/xl_ci/toolchain/riscv-gnu-toolchain/riscv-gcc/libgcc/soft-fp/mulsf3.c:47 (discriminator 2)
800030d4:	07f60713          	addi	a4,a2,127 # 400007f <__stack_size+0x3fff87f>
800030d8:	06e05163          	blez	a4,8000313a <__mulsf3+0x1b0>
/Local/xl_ci/toolchain/riscv-gnu-toolchain/riscv-gcc/libgcc/soft-fp/mulsf3.c:47 (discriminator 6)
800030dc:	00747793          	andi	a5,s0,7
800030e0:	c799                	beqz	a5,800030ee <__mulsf3+0x164>
/Local/xl_ci/toolchain/riscv-gnu-toolchain/riscv-gcc/libgcc/soft-fp/mulsf3.c:47 (discriminator 8)
800030e2:	00f47793          	andi	a5,s0,15
800030e6:	4591                	li	a1,4
800030e8:	00b78363          	beq	a5,a1,800030ee <__mulsf3+0x164>
/Local/xl_ci/toolchain/riscv-gnu-toolchain/riscv-gcc/libgcc/soft-fp/mulsf3.c:47 (discriminator 10)
800030ec:	0411                	addi	s0,s0,4
/Local/xl_ci/toolchain/riscv-gnu-toolchain/riscv-gcc/libgcc/soft-fp/mulsf3.c:47 (discriminator 9)
800030ee:	080007b7          	lui	a5,0x8000
800030f2:	8fe1                	and	a5,a5,s0
800030f4:	c799                	beqz	a5,80003102 <__mulsf3+0x178>
/Local/xl_ci/toolchain/riscv-gnu-toolchain/riscv-gcc/libgcc/soft-fp/mulsf3.c:47 (discriminator 24)
800030f6:	f80007b7          	lui	a5,0xf8000
800030fa:	17fd                	addi	a5,a5,-1
800030fc:	8c7d                	and	s0,s0,a5
800030fe:	08060713          	addi	a4,a2,128
/Local/xl_ci/toolchain/riscv-gnu-toolchain/riscv-gcc/libgcc/soft-fp/mulsf3.c:47 (discriminator 26)
80003102:	0fe00793          	li	a5,254
80003106:	800d                	srli	s0,s0,0x3
80003108:	06e7dd63          	bge	a5,a4,80003182 <__mulsf3+0x1f8>
8000310c:	4401                	li	s0,0
8000310e:	0ff00713          	li	a4,255
80003112:	a885                	j	80003182 <__mulsf3+0x1f8>
/Local/xl_ci/toolchain/riscv-gnu-toolchain/riscv-gcc/libgcc/soft-fp/mulsf3.c:44 (discriminator 7)
80003114:	86ce                	mv	a3,s3
/Local/xl_ci/toolchain/riscv-gnu-toolchain/riscv-gcc/libgcc/soft-fp/mulsf3.c:46 (discriminator 7)
80003116:	8426                	mv	s0,s1
80003118:	87d6                	mv	a5,s5
/Local/xl_ci/toolchain/riscv-gnu-toolchain/riscv-gcc/libgcc/soft-fp/mulsf3.c:47 (discriminator 21)
8000311a:	4709                	li	a4,2
8000311c:	fee788e3          	beq	a5,a4,8000310c <__mulsf3+0x182>
/Local/xl_ci/toolchain/riscv-gnu-toolchain/riscv-gcc/libgcc/soft-fp/mulsf3.c:47
80003120:	470d                	li	a4,3
80003122:	04e78b63          	beq	a5,a4,80003178 <__mulsf3+0x1ee>
80003126:	4705                	li	a4,1
80003128:	fae796e3          	bne	a5,a4,800030d4 <__mulsf3+0x14a>
8000312c:	4401                	li	s0,0
8000312e:	4701                	li	a4,0
80003130:	a889                	j	80003182 <__mulsf3+0x1f8>
/Local/xl_ci/toolchain/riscv-gnu-toolchain/riscv-gcc/libgcc/soft-fp/mulsf3.c:45 (discriminator 4)
80003132:	86d2                	mv	a3,s4
/Local/xl_ci/toolchain/riscv-gnu-toolchain/riscv-gcc/libgcc/soft-fp/mulsf3.c:46 (discriminator 4)
80003134:	b7dd                	j	8000311a <__mulsf3+0x190>
/Local/xl_ci/toolchain/riscv-gnu-toolchain/riscv-gcc/libgcc/soft-fp/mulsf3.c:46
80003136:	862a                	mv	a2,a0
80003138:	bf71                	j	800030d4 <__mulsf3+0x14a>
/Local/xl_ci/toolchain/riscv-gnu-toolchain/riscv-gcc/libgcc/soft-fp/mulsf3.c:47 (discriminator 59)
8000313a:	4785                	li	a5,1
8000313c:	8f99                	sub	a5,a5,a4
8000313e:	476d                	li	a4,27
80003140:	fef746e3          	blt	a4,a5,8000312c <__mulsf3+0x1a2>
/Local/xl_ci/toolchain/riscv-gnu-toolchain/riscv-gcc/libgcc/soft-fp/mulsf3.c:47 (discriminator 60)
80003144:	09e60613          	addi	a2,a2,158
80003148:	00f457b3          	srl	a5,s0,a5
8000314c:	00c41433          	sll	s0,s0,a2
80003150:	00803433          	snez	s0,s0
80003154:	8c5d                	or	s0,s0,a5
80003156:	00747793          	andi	a5,s0,7
8000315a:	c799                	beqz	a5,80003168 <__mulsf3+0x1de>
/Local/xl_ci/toolchain/riscv-gnu-toolchain/riscv-gcc/libgcc/soft-fp/mulsf3.c:47 (discriminator 68)
8000315c:	00f47793          	andi	a5,s0,15
80003160:	4711                	li	a4,4
80003162:	00e78363          	beq	a5,a4,80003168 <__mulsf3+0x1de>
/Local/xl_ci/toolchain/riscv-gnu-toolchain/riscv-gcc/libgcc/soft-fp/mulsf3.c:47 (discriminator 70)
80003166:	0411                	addi	s0,s0,4
/Local/xl_ci/toolchain/riscv-gnu-toolchain/riscv-gcc/libgcc/soft-fp/mulsf3.c:47 (discriminator 69)
80003168:	040007b7          	lui	a5,0x4000
8000316c:	8fe1                	and	a5,a5,s0
8000316e:	800d                	srli	s0,s0,0x3
80003170:	dfdd                	beqz	a5,8000312e <__mulsf3+0x1a4>
/Local/xl_ci/toolchain/riscv-gnu-toolchain/riscv-gcc/libgcc/soft-fp/mulsf3.c:47
80003172:	4401                	li	s0,0
80003174:	4705                	li	a4,1
80003176:	a031                	j	80003182 <__mulsf3+0x1f8>
80003178:	00400437          	lui	s0,0x400
8000317c:	0ff00713          	li	a4,255
80003180:	4681                	li	a3,0
/Local/xl_ci/toolchain/riscv-gnu-toolchain/riscv-gcc/libgcc/soft-fp/mulsf3.c:47 (discriminator 111)
80003182:	01771793          	slli	a5,a4,0x17
80003186:	0426                	slli	s0,s0,0x9
80003188:	7f800737          	lui	a4,0x7f800
8000318c:	8ff9                	and	a5,a5,a4
8000318e:	8025                	srli	s0,s0,0x9
80003190:	8c5d                	or	s0,s0,a5
80003192:	01f69513          	slli	a0,a3,0x1f
/Local/xl_ci/toolchain/riscv-gnu-toolchain/riscv-gcc/libgcc/soft-fp/mulsf3.c:51 (discriminator 111)
80003196:	40f2                	lw	ra,28(sp)
80003198:	8d41                	or	a0,a0,s0
8000319a:	4462                	lw	s0,24(sp)
8000319c:	44d2                	lw	s1,20(sp)
8000319e:	4942                	lw	s2,16(sp)
800031a0:	49b2                	lw	s3,12(sp)
800031a2:	4a22                	lw	s4,8(sp)
800031a4:	4a92                	lw	s5,4(sp)
800031a6:	6105                	addi	sp,sp,32
800031a8:	8082                	ret

800031aa <__subsf3>:
__subsf3():
/Local/xl_ci/toolchain/riscv-gnu-toolchain/riscv-gcc/libgcc/soft-fp/subsf3.c:44
800031aa:	00800737          	lui	a4,0x800
/Local/xl_ci/toolchain/riscv-gnu-toolchain/riscv-gcc/libgcc/soft-fp/subsf3.c:36
800031ae:	1141                	addi	sp,sp,-16
/Local/xl_ci/toolchain/riscv-gnu-toolchain/riscv-gcc/libgcc/soft-fp/subsf3.c:44
800031b0:	177d                	addi	a4,a4,-1
/Local/xl_ci/toolchain/riscv-gnu-toolchain/riscv-gcc/libgcc/soft-fp/subsf3.c:45
800031b2:	0175d613          	srli	a2,a1,0x17
/Local/xl_ci/toolchain/riscv-gnu-toolchain/riscv-gcc/libgcc/soft-fp/subsf3.c:44
800031b6:	00a777b3          	and	a5,a4,a0
/Local/xl_ci/toolchain/riscv-gnu-toolchain/riscv-gcc/libgcc/soft-fp/subsf3.c:36
800031ba:	c422                	sw	s0,8(sp)
/Local/xl_ci/toolchain/riscv-gnu-toolchain/riscv-gcc/libgcc/soft-fp/subsf3.c:45
800031bc:	8f6d                	and	a4,a4,a1
/Local/xl_ci/toolchain/riscv-gnu-toolchain/riscv-gcc/libgcc/soft-fp/subsf3.c:36
800031be:	c226                	sw	s1,4(sp)
/Local/xl_ci/toolchain/riscv-gnu-toolchain/riscv-gcc/libgcc/soft-fp/subsf3.c:44
800031c0:	01755413          	srli	s0,a0,0x17
/Local/xl_ci/toolchain/riscv-gnu-toolchain/riscv-gcc/libgcc/soft-fp/subsf3.c:36
800031c4:	c606                	sw	ra,12(sp)
800031c6:	c04a                	sw	s2,0(sp)
/Local/xl_ci/toolchain/riscv-gnu-toolchain/riscv-gcc/libgcc/soft-fp/subsf3.c:45
800031c8:	0ff67613          	zext.b	a2,a2
/Local/xl_ci/toolchain/riscv-gnu-toolchain/riscv-gcc/libgcc/soft-fp/subsf3.c:46
800031cc:	0ff00693          	li	a3,255
/Local/xl_ci/toolchain/riscv-gnu-toolchain/riscv-gcc/libgcc/soft-fp/subsf3.c:44
800031d0:	0ff47413          	zext.b	s0,s0
800031d4:	01f55493          	srli	s1,a0,0x1f
800031d8:	078e                	slli	a5,a5,0x3
/Local/xl_ci/toolchain/riscv-gnu-toolchain/riscv-gcc/libgcc/soft-fp/subsf3.c:45
800031da:	81fd                	srli	a1,a1,0x1f
800031dc:	070e                	slli	a4,a4,0x3
/Local/xl_ci/toolchain/riscv-gnu-toolchain/riscv-gcc/libgcc/soft-fp/subsf3.c:46
800031de:	00d61363          	bne	a2,a3,800031e4 <__subsf3+0x3a>
/Local/xl_ci/toolchain/riscv-gnu-toolchain/riscv-gcc/libgcc/soft-fp/subsf3.c:46 (discriminator 2)
800031e2:	e319                	bnez	a4,800031e8 <__subsf3+0x3e>
/Local/xl_ci/toolchain/riscv-gnu-toolchain/riscv-gcc/libgcc/soft-fp/subsf3.c:46 (discriminator 3)
800031e4:	0015c593          	xori	a1,a1,1
/Local/xl_ci/toolchain/riscv-gnu-toolchain/riscv-gcc/libgcc/soft-fp/subsf3.c:46 (discriminator 11)
800031e8:	40c406b3          	sub	a3,s0,a2
800031ec:	12959663          	bne	a1,s1,80003318 <__subsf3+0x16e>
/Local/xl_ci/toolchain/riscv-gnu-toolchain/riscv-gcc/libgcc/soft-fp/subsf3.c:46 (discriminator 12)
800031f0:	06d05c63          	blez	a3,80003268 <__subsf3+0xbe>
/Local/xl_ci/toolchain/riscv-gnu-toolchain/riscv-gcc/libgcc/soft-fp/subsf3.c:46 (discriminator 14)
800031f4:	e205                	bnez	a2,80003214 <__subsf3+0x6a>
/Local/xl_ci/toolchain/riscv-gnu-toolchain/riscv-gcc/libgcc/soft-fp/subsf3.c:46 (discriminator 16)
800031f6:	10070f63          	beqz	a4,80003314 <__subsf3+0x16a>
/Local/xl_ci/toolchain/riscv-gnu-toolchain/riscv-gcc/libgcc/soft-fp/subsf3.c:46 (discriminator 19)
800031fa:	fff68613          	addi	a2,a3,-1 # 3ffffff <__stack_size+0x3fff7ff>
800031fe:	e601                	bnez	a2,80003206 <__subsf3+0x5c>
/Local/xl_ci/toolchain/riscv-gnu-toolchain/riscv-gcc/libgcc/soft-fp/subsf3.c:46 (discriminator 80)
80003200:	97ba                	add	a5,a5,a4
/Local/xl_ci/toolchain/riscv-gnu-toolchain/riscv-gcc/libgcc/soft-fp/subsf3.c:45 (discriminator 80)
80003202:	4405                	li	s0,1
/Local/xl_ci/toolchain/riscv-gnu-toolchain/riscv-gcc/libgcc/soft-fp/subsf3.c:46 (discriminator 80)
80003204:	a081                	j	80003244 <__subsf3+0x9a>
/Local/xl_ci/toolchain/riscv-gnu-toolchain/riscv-gcc/libgcc/soft-fp/subsf3.c:46 (discriminator 29)
80003206:	0ff00593          	li	a1,255
8000320a:	00b69d63          	bne	a3,a1,80003224 <__subsf3+0x7a>
/Local/xl_ci/toolchain/riscv-gnu-toolchain/riscv-gcc/libgcc/soft-fp/subsf3.c:46
8000320e:	0ff00413          	li	s0,255
80003212:	a8c1                	j	800032e2 <__subsf3+0x138>
/Local/xl_ci/toolchain/riscv-gnu-toolchain/riscv-gcc/libgcc/soft-fp/subsf3.c:46 (discriminator 17)
80003214:	0ff00613          	li	a2,255
80003218:	0cc40563          	beq	s0,a2,800032e2 <__subsf3+0x138>
/Local/xl_ci/toolchain/riscv-gnu-toolchain/riscv-gcc/libgcc/soft-fp/subsf3.c:46 (discriminator 43)
8000321c:	04000637          	lui	a2,0x4000
80003220:	8f51                	or	a4,a4,a2
80003222:	8636                	mv	a2,a3
/Local/xl_ci/toolchain/riscv-gnu-toolchain/riscv-gcc/libgcc/soft-fp/subsf3.c:46 (discriminator 52)
80003224:	45ed                	li	a1,27
80003226:	4685                	li	a3,1
80003228:	00c5cd63          	blt	a1,a2,80003242 <__subsf3+0x98>
/Local/xl_ci/toolchain/riscv-gnu-toolchain/riscv-gcc/libgcc/soft-fp/subsf3.c:46 (discriminator 53)
8000322c:	02000693          	li	a3,32
80003230:	8e91                	sub	a3,a3,a2
80003232:	00c755b3          	srl	a1,a4,a2
80003236:	00d71733          	sll	a4,a4,a3
8000323a:	00e03733          	snez	a4,a4
8000323e:	00e5e6b3          	or	a3,a1,a4
/Local/xl_ci/toolchain/riscv-gnu-toolchain/riscv-gcc/libgcc/soft-fp/subsf3.c:46 (discriminator 64)
80003242:	97b6                	add	a5,a5,a3
/Local/xl_ci/toolchain/riscv-gnu-toolchain/riscv-gcc/libgcc/soft-fp/subsf3.c:46 (discriminator 117)
80003244:	04000737          	lui	a4,0x4000
80003248:	8f7d                	and	a4,a4,a5
8000324a:	cf41                	beqz	a4,800032e2 <__subsf3+0x138>
/Local/xl_ci/toolchain/riscv-gnu-toolchain/riscv-gcc/libgcc/soft-fp/subsf3.c:46 (discriminator 176)
8000324c:	0405                	addi	s0,s0,1
8000324e:	0ff00713          	li	a4,255
80003252:	22e40963          	beq	s0,a4,80003484 <__subsf3+0x2da>
/Local/xl_ci/toolchain/riscv-gnu-toolchain/riscv-gcc/libgcc/soft-fp/subsf3.c:46
80003256:	7e000737          	lui	a4,0x7e000
8000325a:	0017f693          	andi	a3,a5,1
8000325e:	177d                	addi	a4,a4,-1
80003260:	8385                	srli	a5,a5,0x1
80003262:	8ff9                	and	a5,a5,a4
80003264:	8fd5                	or	a5,a5,a3
80003266:	a8b5                	j	800032e2 <__subsf3+0x138>
/Local/xl_ci/toolchain/riscv-gnu-toolchain/riscv-gcc/libgcc/soft-fp/subsf3.c:46 (discriminator 15)
80003268:	cab1                	beqz	a3,800032bc <__subsf3+0x112>
/Local/xl_ci/toolchain/riscv-gnu-toolchain/riscv-gcc/libgcc/soft-fp/subsf3.c:46 (discriminator 66)
8000326a:	408606b3          	sub	a3,a2,s0
8000326e:	ec01                	bnez	s0,80003286 <__subsf3+0xdc>
/Local/xl_ci/toolchain/riscv-gnu-toolchain/riscv-gcc/libgcc/soft-fp/subsf3.c:46 (discriminator 68)
80003270:	20078463          	beqz	a5,80003478 <__subsf3+0x2ce>
/Local/xl_ci/toolchain/riscv-gnu-toolchain/riscv-gcc/libgcc/soft-fp/subsf3.c:46 (discriminator 71)
80003274:	fff68593          	addi	a1,a3,-1
80003278:	d5c1                	beqz	a1,80003200 <__subsf3+0x56>
/Local/xl_ci/toolchain/riscv-gnu-toolchain/riscv-gcc/libgcc/soft-fp/subsf3.c:46 (discriminator 81)
8000327a:	0ff00513          	li	a0,255
8000327e:	00a69c63          	bne	a3,a0,80003296 <__subsf3+0xec>
/Local/xl_ci/toolchain/riscv-gnu-toolchain/riscv-gcc/libgcc/soft-fp/subsf3.c:45
80003282:	87ba                	mv	a5,a4
80003284:	b769                	j	8000320e <__subsf3+0x64>
/Local/xl_ci/toolchain/riscv-gnu-toolchain/riscv-gcc/libgcc/soft-fp/subsf3.c:46 (discriminator 69)
80003286:	0ff00593          	li	a1,255
8000328a:	feb60ce3          	beq	a2,a1,80003282 <__subsf3+0xd8>
/Local/xl_ci/toolchain/riscv-gnu-toolchain/riscv-gcc/libgcc/soft-fp/subsf3.c:46 (discriminator 95)
8000328e:	040005b7          	lui	a1,0x4000
80003292:	8fcd                	or	a5,a5,a1
80003294:	85b6                	mv	a1,a3
/Local/xl_ci/toolchain/riscv-gnu-toolchain/riscv-gcc/libgcc/soft-fp/subsf3.c:46 (discriminator 104)
80003296:	456d                	li	a0,27
80003298:	4685                	li	a3,1
8000329a:	00b54d63          	blt	a0,a1,800032b4 <__subsf3+0x10a>
/Local/xl_ci/toolchain/riscv-gnu-toolchain/riscv-gcc/libgcc/soft-fp/subsf3.c:46 (discriminator 105)
8000329e:	02000693          	li	a3,32
800032a2:	8e8d                	sub	a3,a3,a1
800032a4:	00b7d533          	srl	a0,a5,a1
800032a8:	00d797b3          	sll	a5,a5,a3
800032ac:	00f037b3          	snez	a5,a5
800032b0:	00f566b3          	or	a3,a0,a5
/Local/xl_ci/toolchain/riscv-gnu-toolchain/riscv-gcc/libgcc/soft-fp/subsf3.c:46 (discriminator 116)
800032b4:	00e687b3          	add	a5,a3,a4
/Local/xl_ci/toolchain/riscv-gnu-toolchain/riscv-gcc/libgcc/soft-fp/subsf3.c:45 (discriminator 116)
800032b8:	8432                	mv	s0,a2
800032ba:	b769                	j	80003244 <__subsf3+0x9a>
/Local/xl_ci/toolchain/riscv-gnu-toolchain/riscv-gcc/libgcc/soft-fp/subsf3.c:46 (discriminator 67)
800032bc:	00140693          	addi	a3,s0,1 # 400001 <__stack_size+0x3ff801>
800032c0:	0fe6f613          	andi	a2,a3,254
800032c4:	e231                	bnez	a2,80003308 <__subsf3+0x15e>
/Local/xl_ci/toolchain/riscv-gnu-toolchain/riscv-gcc/libgcc/soft-fp/subsf3.c:46 (discriminator 118)
800032c6:	e80d                	bnez	s0,800032f8 <__subsf3+0x14e>
/Local/xl_ci/toolchain/riscv-gnu-toolchain/riscv-gcc/libgcc/soft-fp/subsf3.c:46 (discriminator 120)
800032c8:	1a078a63          	beqz	a5,8000347c <__subsf3+0x2d2>
/Local/xl_ci/toolchain/riscv-gnu-toolchain/riscv-gcc/libgcc/soft-fp/subsf3.c:46 (discriminator 123)
800032cc:	cb19                	beqz	a4,800032e2 <__subsf3+0x138>
/Local/xl_ci/toolchain/riscv-gnu-toolchain/riscv-gcc/libgcc/soft-fp/subsf3.c:46 (discriminator 129)
800032ce:	97ba                	add	a5,a5,a4
800032d0:	04000737          	lui	a4,0x4000
800032d4:	8f7d                	and	a4,a4,a5
800032d6:	c711                	beqz	a4,800032e2 <__subsf3+0x138>
/Local/xl_ci/toolchain/riscv-gnu-toolchain/riscv-gcc/libgcc/soft-fp/subsf3.c:46 (discriminator 131)
800032d8:	fc000737          	lui	a4,0xfc000
800032dc:	177d                	addi	a4,a4,-1
800032de:	8ff9                	and	a5,a5,a4
800032e0:	4405                	li	s0,1
/Local/xl_ci/toolchain/riscv-gnu-toolchain/riscv-gcc/libgcc/soft-fp/subsf3.c:47 (discriminator 382)
800032e2:	0077f713          	andi	a4,a5,7
800032e6:	1a070063          	beqz	a4,80003486 <__subsf3+0x2dc>
/Local/xl_ci/toolchain/riscv-gnu-toolchain/riscv-gcc/libgcc/soft-fp/subsf3.c:47 (discriminator 37)
800032ea:	00f7f713          	andi	a4,a5,15
800032ee:	4691                	li	a3,4
800032f0:	18d70b63          	beq	a4,a3,80003486 <__subsf3+0x2dc>
/Local/xl_ci/toolchain/riscv-gnu-toolchain/riscv-gcc/libgcc/soft-fp/subsf3.c:47 (discriminator 44)
800032f4:	0791                	addi	a5,a5,4
800032f6:	aa41                	j	80003486 <__subsf3+0x2dc>
/Local/xl_ci/toolchain/riscv-gnu-toolchain/riscv-gcc/libgcc/soft-fp/subsf3.c:46 (discriminator 148)
800032f8:	d7c9                	beqz	a5,80003282 <__subsf3+0xd8>
/Local/xl_ci/toolchain/riscv-gnu-toolchain/riscv-gcc/libgcc/soft-fp/subsf3.c:46 (discriminator 334)
800032fa:	db11                	beqz	a4,8000320e <__subsf3+0x64>
/Local/xl_ci/toolchain/riscv-gnu-toolchain/riscv-gcc/libgcc/soft-fp/subsf3.c:46
800032fc:	4481                	li	s1,0
800032fe:	020007b7          	lui	a5,0x2000
80003302:	0ff00413          	li	s0,255
80003306:	a241                	j	80003486 <__subsf3+0x2dc>
/Local/xl_ci/toolchain/riscv-gnu-toolchain/riscv-gcc/libgcc/soft-fp/subsf3.c:46 (discriminator 119)
80003308:	0ff00613          	li	a2,255
8000330c:	16c68a63          	beq	a3,a2,80003480 <__subsf3+0x2d6>
/Local/xl_ci/toolchain/riscv-gnu-toolchain/riscv-gcc/libgcc/soft-fp/subsf3.c:46
80003310:	97ba                	add	a5,a5,a4
80003312:	8385                	srli	a5,a5,0x1
80003314:	8436                	mv	s0,a3
80003316:	b7f1                	j	800032e2 <__subsf3+0x138>
/Local/xl_ci/toolchain/riscv-gnu-toolchain/riscv-gcc/libgcc/soft-fp/subsf3.c:46 (discriminator 13)
80003318:	06d05063          	blez	a3,80003378 <__subsf3+0x1ce>
/Local/xl_ci/toolchain/riscv-gnu-toolchain/riscv-gcc/libgcc/soft-fp/subsf3.c:46 (discriminator 194)
8000331c:	e629                	bnez	a2,80003366 <__subsf3+0x1bc>
/Local/xl_ci/toolchain/riscv-gnu-toolchain/riscv-gcc/libgcc/soft-fp/subsf3.c:46 (discriminator 196)
8000331e:	db7d                	beqz	a4,80003314 <__subsf3+0x16a>
/Local/xl_ci/toolchain/riscv-gnu-toolchain/riscv-gcc/libgcc/soft-fp/subsf3.c:46 (discriminator 199)
80003320:	fff68613          	addi	a2,a3,-1
80003324:	e601                	bnez	a2,8000332c <__subsf3+0x182>
/Local/xl_ci/toolchain/riscv-gnu-toolchain/riscv-gcc/libgcc/soft-fp/subsf3.c:46 (discriminator 208)
80003326:	8f99                	sub	a5,a5,a4
/Local/xl_ci/toolchain/riscv-gnu-toolchain/riscv-gcc/libgcc/soft-fp/subsf3.c:45 (discriminator 260)
80003328:	4405                	li	s0,1
/Local/xl_ci/toolchain/riscv-gnu-toolchain/riscv-gcc/libgcc/soft-fp/subsf3.c:46 (discriminator 260)
8000332a:	a02d                	j	80003354 <__subsf3+0x1aa>
/Local/xl_ci/toolchain/riscv-gnu-toolchain/riscv-gcc/libgcc/soft-fp/subsf3.c:46 (discriminator 209)
8000332c:	0ff00593          	li	a1,255
80003330:	ecb68fe3          	beq	a3,a1,8000320e <__subsf3+0x64>
/Local/xl_ci/toolchain/riscv-gnu-toolchain/riscv-gcc/libgcc/soft-fp/subsf3.c:46 (discriminator 232)
80003334:	45ed                	li	a1,27
80003336:	4685                	li	a3,1
80003338:	00c5cd63          	blt	a1,a2,80003352 <__subsf3+0x1a8>
/Local/xl_ci/toolchain/riscv-gnu-toolchain/riscv-gcc/libgcc/soft-fp/subsf3.c:46 (discriminator 233)
8000333c:	02000693          	li	a3,32
80003340:	8e91                	sub	a3,a3,a2
80003342:	00c755b3          	srl	a1,a4,a2
80003346:	00d71733          	sll	a4,a4,a3
8000334a:	00e03733          	snez	a4,a4
8000334e:	00e5e6b3          	or	a3,a1,a4
/Local/xl_ci/toolchain/riscv-gnu-toolchain/riscv-gcc/libgcc/soft-fp/subsf3.c:46 (discriminator 244)
80003352:	8f95                	sub	a5,a5,a3
/Local/xl_ci/toolchain/riscv-gnu-toolchain/riscv-gcc/libgcc/soft-fp/subsf3.c:46 (discriminator 297)
80003354:	04000937          	lui	s2,0x4000
80003358:	0127f733          	and	a4,a5,s2
8000335c:	d359                	beqz	a4,800032e2 <__subsf3+0x138>
/Local/xl_ci/toolchain/riscv-gnu-toolchain/riscv-gcc/libgcc/soft-fp/subsf3.c:46 (discriminator 356)
8000335e:	197d                	addi	s2,s2,-1
80003360:	0127f933          	and	s2,a5,s2
80003364:	a0f1                	j	80003430 <__subsf3+0x286>
/Local/xl_ci/toolchain/riscv-gnu-toolchain/riscv-gcc/libgcc/soft-fp/subsf3.c:46 (discriminator 197)
80003366:	0ff00613          	li	a2,255
8000336a:	f6c40ce3          	beq	s0,a2,800032e2 <__subsf3+0x138>
/Local/xl_ci/toolchain/riscv-gnu-toolchain/riscv-gcc/libgcc/soft-fp/subsf3.c:46 (discriminator 223)
8000336e:	04000637          	lui	a2,0x4000
80003372:	8f51                	or	a4,a4,a2
80003374:	8636                	mv	a2,a3
80003376:	bf7d                	j	80003334 <__subsf3+0x18a>
/Local/xl_ci/toolchain/riscv-gnu-toolchain/riscv-gcc/libgcc/soft-fp/subsf3.c:46 (discriminator 195)
80003378:	c2ad                	beqz	a3,800033da <__subsf3+0x230>
/Local/xl_ci/toolchain/riscv-gnu-toolchain/riscv-gcc/libgcc/soft-fp/subsf3.c:46 (discriminator 246)
8000337a:	408606b3          	sub	a3,a2,s0
8000337e:	e015                	bnez	s0,800033a2 <__subsf3+0x1f8>
/Local/xl_ci/toolchain/riscv-gnu-toolchain/riscv-gcc/libgcc/soft-fp/subsf3.c:46 (discriminator 248)
80003380:	14078963          	beqz	a5,800034d2 <__subsf3+0x328>
/Local/xl_ci/toolchain/riscv-gnu-toolchain/riscv-gcc/libgcc/soft-fp/subsf3.c:46 (discriminator 251)
80003384:	fff68513          	addi	a0,a3,-1
80003388:	e509                	bnez	a0,80003392 <__subsf3+0x1e8>
/Local/xl_ci/toolchain/riscv-gnu-toolchain/riscv-gcc/libgcc/soft-fp/subsf3.c:46 (discriminator 260)
8000338a:	40f707b3          	sub	a5,a4,a5
8000338e:	84ae                	mv	s1,a1
80003390:	bf61                	j	80003328 <__subsf3+0x17e>
/Local/xl_ci/toolchain/riscv-gnu-toolchain/riscv-gcc/libgcc/soft-fp/subsf3.c:46 (discriminator 261)
80003392:	0ff00813          	li	a6,255
80003396:	01069e63          	bne	a3,a6,800033b2 <__subsf3+0x208>
/Local/xl_ci/toolchain/riscv-gnu-toolchain/riscv-gcc/libgcc/soft-fp/subsf3.c:45
8000339a:	87ba                	mv	a5,a4
/Local/xl_ci/toolchain/riscv-gnu-toolchain/riscv-gcc/libgcc/soft-fp/subsf3.c:46
8000339c:	0ff00413          	li	s0,255
800033a0:	a0b9                	j	800033ee <__subsf3+0x244>
/Local/xl_ci/toolchain/riscv-gnu-toolchain/riscv-gcc/libgcc/soft-fp/subsf3.c:46 (discriminator 249)
800033a2:	0ff00513          	li	a0,255
800033a6:	fea60ae3          	beq	a2,a0,8000339a <__subsf3+0x1f0>
/Local/xl_ci/toolchain/riscv-gnu-toolchain/riscv-gcc/libgcc/soft-fp/subsf3.c:46 (discriminator 275)
800033aa:	04000537          	lui	a0,0x4000
800033ae:	8fc9                	or	a5,a5,a0
800033b0:	8536                	mv	a0,a3
/Local/xl_ci/toolchain/riscv-gnu-toolchain/riscv-gcc/libgcc/soft-fp/subsf3.c:46 (discriminator 284)
800033b2:	486d                	li	a6,27
800033b4:	4685                	li	a3,1
800033b6:	00a84d63          	blt	a6,a0,800033d0 <__subsf3+0x226>
/Local/xl_ci/toolchain/riscv-gnu-toolchain/riscv-gcc/libgcc/soft-fp/subsf3.c:46 (discriminator 285)
800033ba:	02000693          	li	a3,32
800033be:	8e89                	sub	a3,a3,a0
800033c0:	00a7d833          	srl	a6,a5,a0
800033c4:	00d797b3          	sll	a5,a5,a3
800033c8:	00f037b3          	snez	a5,a5
800033cc:	00f866b3          	or	a3,a6,a5
/Local/xl_ci/toolchain/riscv-gnu-toolchain/riscv-gcc/libgcc/soft-fp/subsf3.c:46 (discriminator 296)
800033d0:	40d707b3          	sub	a5,a4,a3
/Local/xl_ci/toolchain/riscv-gnu-toolchain/riscv-gcc/libgcc/soft-fp/subsf3.c:45 (discriminator 296)
800033d4:	8432                	mv	s0,a2
800033d6:	84ae                	mv	s1,a1
800033d8:	bfb5                	j	80003354 <__subsf3+0x1aa>
/Local/xl_ci/toolchain/riscv-gnu-toolchain/riscv-gcc/libgcc/soft-fp/subsf3.c:46 (discriminator 247)
800033da:	00140693          	addi	a3,s0,1
800033de:	0fe6f693          	andi	a3,a3,254
800033e2:	ee8d                	bnez	a3,8000341c <__subsf3+0x272>
/Local/xl_ci/toolchain/riscv-gnu-toolchain/riscv-gcc/libgcc/soft-fp/subsf3.c:46 (discriminator 298)
800033e4:	e40d                	bnez	s0,8000340e <__subsf3+0x264>
/Local/xl_ci/toolchain/riscv-gnu-toolchain/riscv-gcc/libgcc/soft-fp/subsf3.c:46 (discriminator 300)
800033e6:	e791                	bnez	a5,800033f2 <__subsf3+0x248>
/Local/xl_ci/toolchain/riscv-gnu-toolchain/riscv-gcc/libgcc/soft-fp/subsf3.c:46 (discriminator 302)
800033e8:	4481                	li	s1,0
800033ea:	cf51                	beqz	a4,80003486 <__subsf3+0x2dc>
/Local/xl_ci/toolchain/riscv-gnu-toolchain/riscv-gcc/libgcc/soft-fp/subsf3.c:46
800033ec:	87ba                	mv	a5,a4
800033ee:	84ae                	mv	s1,a1
800033f0:	bdcd                	j	800032e2 <__subsf3+0x138>
/Local/xl_ci/toolchain/riscv-gnu-toolchain/riscv-gcc/libgcc/soft-fp/subsf3.c:46 (discriminator 303)
800033f2:	ee0708e3          	beqz	a4,800032e2 <__subsf3+0x138>
/Local/xl_ci/toolchain/riscv-gnu-toolchain/riscv-gcc/libgcc/soft-fp/subsf3.c:46 (discriminator 310)
800033f6:	40e786b3          	sub	a3,a5,a4
800033fa:	04000637          	lui	a2,0x4000
800033fe:	8e75                	and	a2,a2,a3
80003400:	40f707b3          	sub	a5,a4,a5
80003404:	f66d                	bnez	a2,800033ee <__subsf3+0x244>
/Local/xl_ci/toolchain/riscv-gnu-toolchain/riscv-gcc/libgcc/soft-fp/subsf3.c:46 (discriminator 313)
80003406:	4781                	li	a5,0
80003408:	ceb9                	beqz	a3,80003466 <__subsf3+0x2bc>
8000340a:	87b6                	mv	a5,a3
8000340c:	bdd9                	j	800032e2 <__subsf3+0x138>
/Local/xl_ci/toolchain/riscv-gnu-toolchain/riscv-gcc/libgcc/soft-fp/subsf3.c:46 (discriminator 332)
8000340e:	ee0796e3          	bnez	a5,800032fa <__subsf3+0x150>
/Local/xl_ci/toolchain/riscv-gnu-toolchain/riscv-gcc/libgcc/soft-fp/subsf3.c:46 (discriminator 333)
80003412:	ee0705e3          	beqz	a4,800032fc <__subsf3+0x152>
/Local/xl_ci/toolchain/riscv-gnu-toolchain/riscv-gcc/libgcc/soft-fp/subsf3.c:46
80003416:	87ba                	mv	a5,a4
80003418:	84ae                	mv	s1,a1
8000341a:	bbd5                	j	8000320e <__subsf3+0x64>
/Local/xl_ci/toolchain/riscv-gnu-toolchain/riscv-gcc/libgcc/soft-fp/subsf3.c:46 (discriminator 299)
8000341c:	40e78933          	sub	s2,a5,a4
80003420:	040006b7          	lui	a3,0x4000
80003424:	00d976b3          	and	a3,s2,a3
80003428:	ca9d                	beqz	a3,8000345e <__subsf3+0x2b4>
/Local/xl_ci/toolchain/riscv-gnu-toolchain/riscv-gcc/libgcc/soft-fp/subsf3.c:46 (discriminator 349)
8000342a:	40f70933          	sub	s2,a4,a5
8000342e:	84ae                	mv	s1,a1
/Local/xl_ci/toolchain/riscv-gnu-toolchain/riscv-gcc/libgcc/soft-fp/subsf3.c:46 (discriminator 359)
80003430:	854a                	mv	a0,s2
80003432:	2281                	jal	80003572 <__clzsi2>
80003434:	156d                	addi	a0,a0,-5
80003436:	00a91933          	sll	s2,s2,a0
8000343a:	02854863          	blt	a0,s0,8000346a <__subsf3+0x2c0>
/Local/xl_ci/toolchain/riscv-gnu-toolchain/riscv-gcc/libgcc/soft-fp/subsf3.c:46 (discriminator 372)
8000343e:	8d01                	sub	a0,a0,s0
80003440:	0505                	addi	a0,a0,1
80003442:	02000413          	li	s0,32
80003446:	00a957b3          	srl	a5,s2,a0
8000344a:	40a40533          	sub	a0,s0,a0
8000344e:	00a91933          	sll	s2,s2,a0
80003452:	01203933          	snez	s2,s2
80003456:	0127e7b3          	or	a5,a5,s2
8000345a:	4401                	li	s0,0
8000345c:	b559                	j	800032e2 <__subsf3+0x138>
/Local/xl_ci/toolchain/riscv-gnu-toolchain/riscv-gcc/libgcc/soft-fp/subsf3.c:46 (discriminator 350)
8000345e:	fc0919e3          	bnez	s2,80003430 <__subsf3+0x286>
/Local/xl_ci/toolchain/riscv-gnu-toolchain/riscv-gcc/libgcc/soft-fp/subsf3.c:46
80003462:	4781                	li	a5,0
80003464:	4401                	li	s0,0
80003466:	4481                	li	s1,0
80003468:	a839                	j	80003486 <__subsf3+0x2dc>
/Local/xl_ci/toolchain/riscv-gnu-toolchain/riscv-gcc/libgcc/soft-fp/subsf3.c:46 (discriminator 373)
8000346a:	fc0007b7          	lui	a5,0xfc000
8000346e:	17fd                	addi	a5,a5,-1
80003470:	8c09                	sub	s0,s0,a0
80003472:	00f977b3          	and	a5,s2,a5
80003476:	b5b5                	j	800032e2 <__subsf3+0x138>
/Local/xl_ci/toolchain/riscv-gnu-toolchain/riscv-gcc/libgcc/soft-fp/subsf3.c:45
80003478:	87ba                	mv	a5,a4
8000347a:	bd69                	j	80003314 <__subsf3+0x16a>
8000347c:	87ba                	mv	a5,a4
8000347e:	b595                	j	800032e2 <__subsf3+0x138>
80003480:	0ff00413          	li	s0,255
80003484:	4781                	li	a5,0
/Local/xl_ci/toolchain/riscv-gnu-toolchain/riscv-gcc/libgcc/soft-fp/subsf3.c:47 (discriminator 47)
80003486:	04000737          	lui	a4,0x4000
8000348a:	8f7d                	and	a4,a4,a5
8000348c:	cb11                	beqz	a4,800034a0 <__subsf3+0x2f6>
/Local/xl_ci/toolchain/riscv-gnu-toolchain/riscv-gcc/libgcc/soft-fp/subsf3.c:47 (discriminator 63)
8000348e:	0405                	addi	s0,s0,1
80003490:	0ff00713          	li	a4,255
80003494:	04e40263          	beq	s0,a4,800034d8 <__subsf3+0x32e>
/Local/xl_ci/toolchain/riscv-gnu-toolchain/riscv-gcc/libgcc/soft-fp/subsf3.c:47
80003498:	fc000737          	lui	a4,0xfc000
8000349c:	177d                	addi	a4,a4,-1
8000349e:	8ff9                	and	a5,a5,a4
/Local/xl_ci/toolchain/riscv-gnu-toolchain/riscv-gcc/libgcc/soft-fp/subsf3.c:47 (discriminator 79)
800034a0:	0ff00713          	li	a4,255
800034a4:	838d                	srli	a5,a5,0x3
800034a6:	00e41663          	bne	s0,a4,800034b2 <__subsf3+0x308>
/Local/xl_ci/toolchain/riscv-gnu-toolchain/riscv-gcc/libgcc/soft-fp/subsf3.c:47 (discriminator 80)
800034aa:	c781                	beqz	a5,800034b2 <__subsf3+0x308>
/Local/xl_ci/toolchain/riscv-gnu-toolchain/riscv-gcc/libgcc/soft-fp/subsf3.c:47
800034ac:	004007b7          	lui	a5,0x400
800034b0:	4481                	li	s1,0
/Local/xl_ci/toolchain/riscv-gnu-toolchain/riscv-gcc/libgcc/soft-fp/subsf3.c:47 (discriminator 90)
800034b2:	7f800537          	lui	a0,0x7f800
800034b6:	045e                	slli	s0,s0,0x17
800034b8:	07a6                	slli	a5,a5,0x9
800034ba:	8c69                	and	s0,s0,a0
800034bc:	83a5                	srli	a5,a5,0x9
/Local/xl_ci/toolchain/riscv-gnu-toolchain/riscv-gcc/libgcc/soft-fp/subsf3.c:51 (discriminator 90)
800034be:	40b2                	lw	ra,12(sp)
/Local/xl_ci/toolchain/riscv-gnu-toolchain/riscv-gcc/libgcc/soft-fp/subsf3.c:47 (discriminator 90)
800034c0:	8fc1                	or	a5,a5,s0
/Local/xl_ci/toolchain/riscv-gnu-toolchain/riscv-gcc/libgcc/soft-fp/subsf3.c:51 (discriminator 90)
800034c2:	4422                	lw	s0,8(sp)
/Local/xl_ci/toolchain/riscv-gnu-toolchain/riscv-gcc/libgcc/soft-fp/subsf3.c:47 (discriminator 90)
800034c4:	01f49513          	slli	a0,s1,0x1f
/Local/xl_ci/toolchain/riscv-gnu-toolchain/riscv-gcc/libgcc/soft-fp/subsf3.c:51 (discriminator 90)
800034c8:	4902                	lw	s2,0(sp)
800034ca:	4492                	lw	s1,4(sp)
800034cc:	8d5d                	or	a0,a0,a5
800034ce:	0141                	addi	sp,sp,16
800034d0:	8082                	ret
/Local/xl_ci/toolchain/riscv-gnu-toolchain/riscv-gcc/libgcc/soft-fp/subsf3.c:45
800034d2:	87ba                	mv	a5,a4
/Local/xl_ci/toolchain/riscv-gnu-toolchain/riscv-gcc/libgcc/soft-fp/subsf3.c:46
800034d4:	8436                	mv	s0,a3
800034d6:	bf21                	j	800033ee <__subsf3+0x244>
800034d8:	4781                	li	a5,0
800034da:	b7d9                	j	800034a0 <__subsf3+0x2f6>

800034dc <__extendsfdf2>:
__extendsfdf2():
/Local/xl_ci/toolchain/riscv-gnu-toolchain/riscv-gcc/libgcc/soft-fp/extendsfdf2.c:45
800034dc:	01755713          	srli	a4,a0,0x17
800034e0:	0ff77713          	zext.b	a4,a4
/Local/xl_ci/toolchain/riscv-gnu-toolchain/riscv-gcc/libgcc/soft-fp/extendsfdf2.c:38
800034e4:	1141                	addi	sp,sp,-16
/Local/xl_ci/toolchain/riscv-gnu-toolchain/riscv-gcc/libgcc/soft-fp/extendsfdf2.c:47
800034e6:	00170793          	addi	a5,a4,1 # fc000001 <_sp+0x6bff0001>
/Local/xl_ci/toolchain/riscv-gnu-toolchain/riscv-gcc/libgcc/soft-fp/extendsfdf2.c:38
800034ea:	c422                	sw	s0,8(sp)
800034ec:	c226                	sw	s1,4(sp)
/Local/xl_ci/toolchain/riscv-gnu-toolchain/riscv-gcc/libgcc/soft-fp/extendsfdf2.c:45
800034ee:	00951413          	slli	s0,a0,0x9
/Local/xl_ci/toolchain/riscv-gnu-toolchain/riscv-gcc/libgcc/soft-fp/extendsfdf2.c:38
800034f2:	c606                	sw	ra,12(sp)
/Local/xl_ci/toolchain/riscv-gnu-toolchain/riscv-gcc/libgcc/soft-fp/extendsfdf2.c:47
800034f4:	0fe7f793          	andi	a5,a5,254
/Local/xl_ci/toolchain/riscv-gnu-toolchain/riscv-gcc/libgcc/soft-fp/extendsfdf2.c:45
800034f8:	8025                	srli	s0,s0,0x9
800034fa:	01f55493          	srli	s1,a0,0x1f
/Local/xl_ci/toolchain/riscv-gnu-toolchain/riscv-gcc/libgcc/soft-fp/extendsfdf2.c:47
800034fe:	c78d                	beqz	a5,80003528 <__extendsfdf2+0x4c>
/Local/xl_ci/toolchain/riscv-gnu-toolchain/riscv-gcc/libgcc/soft-fp/extendsfdf2.c:47 (discriminator 1)
80003500:	00345793          	srli	a5,s0,0x3
80003504:	38070713          	addi	a4,a4,896
80003508:	0476                	slli	s0,s0,0x1d
/Local/xl_ci/toolchain/riscv-gnu-toolchain/riscv-gcc/libgcc/soft-fp/extendsfdf2.c:51 (discriminator 53)
8000350a:	07b2                	slli	a5,a5,0xc
8000350c:	0752                	slli	a4,a4,0x14
8000350e:	83b1                	srli	a5,a5,0xc
80003510:	01f49513          	slli	a0,s1,0x1f
80003514:	8fd9                	or	a5,a5,a4
/Local/xl_ci/toolchain/riscv-gnu-toolchain/riscv-gcc/libgcc/soft-fp/extendsfdf2.c:55 (discriminator 53)
80003516:	40b2                	lw	ra,12(sp)
/Local/xl_ci/toolchain/riscv-gnu-toolchain/riscv-gcc/libgcc/soft-fp/extendsfdf2.c:51 (discriminator 53)
80003518:	00a7e733          	or	a4,a5,a0
/Local/xl_ci/toolchain/riscv-gnu-toolchain/riscv-gcc/libgcc/soft-fp/extendsfdf2.c:55 (discriminator 53)
8000351c:	8522                	mv	a0,s0
8000351e:	4422                	lw	s0,8(sp)
80003520:	4492                	lw	s1,4(sp)
80003522:	85ba                	mv	a1,a4
80003524:	0141                	addi	sp,sp,16
80003526:	8082                	ret
/Local/xl_ci/toolchain/riscv-gnu-toolchain/riscv-gcc/libgcc/soft-fp/extendsfdf2.c:47 (discriminator 2)
80003528:	eb15                	bnez	a4,8000355c <__extendsfdf2+0x80>
/Local/xl_ci/toolchain/riscv-gnu-toolchain/riscv-gcc/libgcc/soft-fp/extendsfdf2.c:47 (discriminator 12)
8000352a:	4781                	li	a5,0
8000352c:	dc79                	beqz	s0,8000350a <__extendsfdf2+0x2e>
/Local/xl_ci/toolchain/riscv-gnu-toolchain/riscv-gcc/libgcc/soft-fp/extendsfdf2.c:47 (discriminator 16)
8000352e:	8522                	mv	a0,s0
80003530:	2089                	jal	80003572 <__clzsi2>
80003532:	47a9                	li	a5,10
80003534:	00a7ce63          	blt	a5,a0,80003550 <__extendsfdf2+0x74>
/Local/xl_ci/toolchain/riscv-gnu-toolchain/riscv-gcc/libgcc/soft-fp/extendsfdf2.c:47 (discriminator 29)
80003538:	47ad                	li	a5,11
8000353a:	8f89                	sub	a5,a5,a0
8000353c:	01550713          	addi	a4,a0,21 # 7f800015 <__stack_size+0x7f7ff815>
80003540:	00f457b3          	srl	a5,s0,a5
80003544:	00e41433          	sll	s0,s0,a4
/Local/xl_ci/toolchain/riscv-gnu-toolchain/riscv-gcc/libgcc/soft-fp/extendsfdf2.c:47 (discriminator 38)
80003548:	38900713          	li	a4,905
8000354c:	8f09                	sub	a4,a4,a0
8000354e:	bf75                	j	8000350a <__extendsfdf2+0x2e>
/Local/xl_ci/toolchain/riscv-gnu-toolchain/riscv-gcc/libgcc/soft-fp/extendsfdf2.c:47 (discriminator 30)
80003550:	ff550793          	addi	a5,a0,-11
80003554:	00f417b3          	sll	a5,s0,a5
80003558:	4401                	li	s0,0
8000355a:	b7fd                	j	80003548 <__extendsfdf2+0x6c>
/Local/xl_ci/toolchain/riscv-gnu-toolchain/riscv-gcc/libgcc/soft-fp/extendsfdf2.c:47 (discriminator 9)
8000355c:	4781                	li	a5,0
8000355e:	c419                	beqz	s0,8000356c <__extendsfdf2+0x90>
/Local/xl_ci/toolchain/riscv-gnu-toolchain/riscv-gcc/libgcc/soft-fp/extendsfdf2.c:47 (discriminator 39)
80003560:	00345793          	srli	a5,s0,0x3
80003564:	00080737          	lui	a4,0x80
80003568:	0476                	slli	s0,s0,0x1d
8000356a:	8fd9                	or	a5,a5,a4
/Local/xl_ci/toolchain/riscv-gnu-toolchain/riscv-gcc/libgcc/soft-fp/extendsfdf2.c:47
8000356c:	7ff00713          	li	a4,2047
80003570:	bf69                	j	8000350a <__extendsfdf2+0x2e>

80003572 <__clzsi2>:
__clzsi2():
/Local/xl_ci/toolchain/riscv-gnu-toolchain/riscv-gcc/libgcc/libgcc2.c:710
80003572:	67c1                	lui	a5,0x10
80003574:	02f57663          	bgeu	a0,a5,800035a0 <__clzsi2+0x2e>
/Local/xl_ci/toolchain/riscv-gnu-toolchain/riscv-gcc/libgcc/libgcc2.c:710 (discriminator 3)
80003578:	0ff00793          	li	a5,255
8000357c:	00a7b7b3          	sltu	a5,a5,a0
80003580:	078e                	slli	a5,a5,0x3
/Local/xl_ci/toolchain/riscv-gnu-toolchain/riscv-gcc/libgcc/libgcc2.c:710 (discriminator 14)
80003582:	02000713          	li	a4,32
80003586:	8f1d                	sub	a4,a4,a5
80003588:	00f55533          	srl	a0,a0,a5
8000358c:	00003797          	auipc	a5,0x3
80003590:	7e878793          	addi	a5,a5,2024 # 80006d74 <__clz_tab>
80003594:	953e                	add	a0,a0,a5
80003596:	00054503          	lbu	a0,0(a0)
/Local/xl_ci/toolchain/riscv-gnu-toolchain/riscv-gcc/libgcc/libgcc2.c:713 (discriminator 14)
8000359a:	40a70533          	sub	a0,a4,a0
8000359e:	8082                	ret
/Local/xl_ci/toolchain/riscv-gnu-toolchain/riscv-gcc/libgcc/libgcc2.c:710 (discriminator 4)
800035a0:	01000737          	lui	a4,0x1000
800035a4:	47c1                	li	a5,16
800035a6:	fce56ee3          	bltu	a0,a4,80003582 <__clzsi2+0x10>
/Local/xl_ci/toolchain/riscv-gnu-toolchain/riscv-gcc/libgcc/libgcc2.c:710
800035aa:	47e1                	li	a5,24
800035ac:	bfd9                	j	80003582 <__clzsi2+0x10>

800035ae <atexit>:
atexit():
800035ae:	85aa                	mv	a1,a0
800035b0:	4681                	li	a3,0
800035b2:	4601                	li	a2,0
800035b4:	4501                	li	a0,0
800035b6:	57d0006f          	j	80004332 <__register_exitproc>

800035ba <__libc_fini_array>:
__libc_fini_array():
800035ba:	1141                	addi	sp,sp,-16
800035bc:	c422                	sw	s0,8(sp)
800035be:	c226                	sw	s1,4(sp)
800035c0:	00004417          	auipc	s0,0x4
800035c4:	cf440413          	addi	s0,s0,-780 # 800072b4 <__fsymtab_end>
800035c8:	00004497          	auipc	s1,0x4
800035cc:	cec48493          	addi	s1,s1,-788 # 800072b4 <__fsymtab_end>
800035d0:	8c05                	sub	s0,s0,s1
800035d2:	c606                	sw	ra,12(sp)
800035d4:	8409                	srai	s0,s0,0x2
800035d6:	e411                	bnez	s0,800035e2 <__libc_fini_array+0x28>
800035d8:	40b2                	lw	ra,12(sp)
800035da:	4422                	lw	s0,8(sp)
800035dc:	4492                	lw	s1,4(sp)
800035de:	0141                	addi	sp,sp,16
800035e0:	8082                	ret
800035e2:	147d                	addi	s0,s0,-1
800035e4:	00241793          	slli	a5,s0,0x2
800035e8:	97a6                	add	a5,a5,s1
800035ea:	439c                	lw	a5,0(a5)
800035ec:	9782                	jalr	a5
800035ee:	b7e5                	j	800035d6 <__libc_fini_array+0x1c>

800035f0 <__libc_init_array>:
__libc_init_array():
800035f0:	1141                	addi	sp,sp,-16
800035f2:	c422                	sw	s0,8(sp)
800035f4:	c226                	sw	s1,4(sp)
800035f6:	00004417          	auipc	s0,0x4
800035fa:	cbe40413          	addi	s0,s0,-834 # 800072b4 <__fsymtab_end>
800035fe:	00004497          	auipc	s1,0x4
80003602:	cb648493          	addi	s1,s1,-842 # 800072b4 <__fsymtab_end>
80003606:	8c81                	sub	s1,s1,s0
80003608:	c04a                	sw	s2,0(sp)
8000360a:	c606                	sw	ra,12(sp)
8000360c:	8489                	srai	s1,s1,0x2
8000360e:	4901                	li	s2,0
80003610:	02991563          	bne	s2,s1,8000363a <__libc_init_array+0x4a>
80003614:	00004417          	auipc	s0,0x4
80003618:	ca040413          	addi	s0,s0,-864 # 800072b4 <__fsymtab_end>
8000361c:	00004497          	auipc	s1,0x4
80003620:	c9848493          	addi	s1,s1,-872 # 800072b4 <__fsymtab_end>
80003624:	8c81                	sub	s1,s1,s0
80003626:	8489                	srai	s1,s1,0x2
80003628:	4901                	li	s2,0
8000362a:	00991d63          	bne	s2,s1,80003644 <__libc_init_array+0x54>
8000362e:	40b2                	lw	ra,12(sp)
80003630:	4422                	lw	s0,8(sp)
80003632:	4492                	lw	s1,4(sp)
80003634:	4902                	lw	s2,0(sp)
80003636:	0141                	addi	sp,sp,16
80003638:	8082                	ret
8000363a:	401c                	lw	a5,0(s0)
8000363c:	0905                	addi	s2,s2,1
8000363e:	0411                	addi	s0,s0,4
80003640:	9782                	jalr	a5
80003642:	b7f9                	j	80003610 <__libc_init_array+0x20>
80003644:	401c                	lw	a5,0(s0)
80003646:	0905                	addi	s2,s2,1
80003648:	0411                	addi	s0,s0,4
8000364a:	9782                	jalr	a5
8000364c:	bff9                	j	8000362a <__libc_init_array+0x3a>

8000364e <__cvt>:
__cvt():
8000364e:	7179                	addi	sp,sp,-48
80003650:	d422                	sw	s0,40(sp)
80003652:	d04a                	sw	s2,32(sp)
80003654:	cc52                	sw	s4,24(sp)
80003656:	ca56                	sw	s5,20(sp)
80003658:	c85a                	sw	s6,16(sp)
8000365a:	d606                	sw	ra,44(sp)
8000365c:	d226                	sw	s1,36(sp)
8000365e:	ce4e                	sw	s3,28(sp)
80003660:	8b3a                	mv	s6,a4
80003662:	8a2e                	mv	s4,a1
80003664:	8432                	mv	s0,a2
80003666:	8936                	mv	s2,a3
80003668:	8ac2                	mv	s5,a6
8000366a:	4701                	li	a4,0
8000366c:	00065863          	bgez	a2,8000367c <__cvt+0x2e>
80003670:	80000737          	lui	a4,0x80000
80003674:	00c74433          	xor	s0,a4,a2
80003678:	02d00713          	li	a4,45
8000367c:	00e78023          	sb	a4,0(a5)
80003680:	fdf8f493          	andi	s1,a7,-33
80003684:	04600793          	li	a5,70
80003688:	468d                	li	a3,3
8000368a:	00f48863          	beq	s1,a5,8000369a <__cvt+0x4c>
8000368e:	04500793          	li	a5,69
80003692:	4689                	li	a3,2
80003694:	00f49363          	bne	s1,a5,8000369a <__cvt+0x4c>
80003698:	0905                	addi	s2,s2,1
8000369a:	87d6                	mv	a5,s5
8000369c:	00c10893          	addi	a7,sp,12
800036a0:	00810813          	addi	a6,sp,8
800036a4:	874a                	mv	a4,s2
800036a6:	85d2                	mv	a1,s4
800036a8:	8622                	mv	a2,s0
800036aa:	629000ef          	jal	ra,800044d2 <_dtoa_r>
800036ae:	04700793          	li	a5,71
800036b2:	89aa                	mv	s3,a0
800036b4:	00f49563          	bne	s1,a5,800036be <__cvt+0x70>
800036b8:	001b7613          	andi	a2,s6,1
800036bc:	ca29                	beqz	a2,8000370e <__cvt+0xc0>
800036be:	04600793          	li	a5,70
800036c2:	01298b33          	add	s6,s3,s2
800036c6:	02f49763          	bne	s1,a5,800036f4 <__cvt+0xa6>
800036ca:	0009c703          	lbu	a4,0(s3)
800036ce:	03000793          	li	a5,48
800036d2:	00f71e63          	bne	a4,a5,800036ee <__cvt+0xa0>
800036d6:	4601                	li	a2,0
800036d8:	4681                	li	a3,0
800036da:	8552                	mv	a0,s4
800036dc:	85a2                	mv	a1,s0
800036de:	979fe0ef          	jal	ra,80002056 <__eqdf2>
800036e2:	c511                	beqz	a0,800036ee <__cvt+0xa0>
800036e4:	4605                	li	a2,1
800036e6:	412606b3          	sub	a3,a2,s2
800036ea:	00daa023          	sw	a3,0(s5) # 800000 <__stack_size+0x7ff800>
800036ee:	000aa783          	lw	a5,0(s5)
800036f2:	9b3e                	add	s6,s6,a5
800036f4:	4601                	li	a2,0
800036f6:	4681                	li	a3,0
800036f8:	8552                	mv	a0,s4
800036fa:	85a2                	mv	a1,s0
800036fc:	95bfe0ef          	jal	ra,80002056 <__eqdf2>
80003700:	e111                	bnez	a0,80003704 <__cvt+0xb6>
80003702:	c65a                	sw	s6,12(sp)
80003704:	03000713          	li	a4,48
80003708:	47b2                	lw	a5,12(sp)
8000370a:	0367e263          	bltu	a5,s6,8000372e <__cvt+0xe0>
8000370e:	47b2                	lw	a5,12(sp)
80003710:	5742                	lw	a4,48(sp)
80003712:	50b2                	lw	ra,44(sp)
80003714:	5422                	lw	s0,40(sp)
80003716:	413787b3          	sub	a5,a5,s3
8000371a:	c31c                	sw	a5,0(a4)
8000371c:	5492                	lw	s1,36(sp)
8000371e:	5902                	lw	s2,32(sp)
80003720:	4a62                	lw	s4,24(sp)
80003722:	4ad2                	lw	s5,20(sp)
80003724:	4b42                	lw	s6,16(sp)
80003726:	854e                	mv	a0,s3
80003728:	49f2                	lw	s3,28(sp)
8000372a:	6145                	addi	sp,sp,48
8000372c:	8082                	ret
8000372e:	00178693          	addi	a3,a5,1
80003732:	c636                	sw	a3,12(sp)
80003734:	00e78023          	sb	a4,0(a5)
80003738:	bfc1                	j	80003708 <__cvt+0xba>

8000373a <__exponent>:
__exponent():
8000373a:	00c50023          	sb	a2,0(a0)
8000373e:	00250793          	addi	a5,a0,2
80003742:	02b00713          	li	a4,43
80003746:	0005d663          	bgez	a1,80003752 <__exponent+0x18>
8000374a:	40b005b3          	neg	a1,a1
8000374e:	02d00713          	li	a4,45
80003752:	00e500a3          	sb	a4,1(a0)
80003756:	4725                	li	a4,9
80003758:	06b75263          	bge	a4,a1,800037bc <__exponent+0x82>
8000375c:	1141                	addi	sp,sp,-16
8000375e:	00f10713          	addi	a4,sp,15
80003762:	883a                	mv	a6,a4
80003764:	48a9                	li	a7,10
80003766:	06300313          	li	t1,99
8000376a:	0315e633          	rem	a2,a1,a7
8000376e:	86ba                	mv	a3,a4
80003770:	177d                	addi	a4,a4,-1
80003772:	03060613          	addi	a2,a2,48 # 4000030 <__stack_size+0x3fff830>
80003776:	fec68fa3          	sb	a2,-1(a3) # 3ffffff <__stack_size+0x3fff7ff>
8000377a:	862e                	mv	a2,a1
8000377c:	0315c5b3          	div	a1,a1,a7
80003780:	fec345e3          	blt	t1,a2,8000376a <__exponent+0x30>
80003784:	ffe68893          	addi	a7,a3,-2
80003788:	03058593          	addi	a1,a1,48 # 4000030 <__stack_size+0x3fff830>
8000378c:	feb70fa3          	sb	a1,-1(a4) # 7fffffff <_sp+0xeffeffff>
80003790:	863e                	mv	a2,a5
80003792:	8746                	mv	a4,a7
80003794:	01076d63          	bltu	a4,a6,800037ae <__exponent+0x74>
80003798:	4701                	li	a4,0
8000379a:	01186563          	bltu	a6,a7,800037a4 <__exponent+0x6a>
8000379e:	01110713          	addi	a4,sp,17
800037a2:	8f15                	sub	a4,a4,a3
800037a4:	97ba                	add	a5,a5,a4
800037a6:	40a78533          	sub	a0,a5,a0
800037aa:	0141                	addi	sp,sp,16
800037ac:	8082                	ret
800037ae:	00074583          	lbu	a1,0(a4)
800037b2:	0705                	addi	a4,a4,1
800037b4:	0605                	addi	a2,a2,1
800037b6:	feb60fa3          	sb	a1,-1(a2)
800037ba:	bfe9                	j	80003794 <__exponent+0x5a>
800037bc:	03000793          	li	a5,48
800037c0:	00f50123          	sb	a5,2(a0)
800037c4:	03058593          	addi	a1,a1,48
800037c8:	00450793          	addi	a5,a0,4
800037cc:	00b501a3          	sb	a1,3(a0)
800037d0:	40a78533          	sub	a0,a5,a0
800037d4:	8082                	ret

800037d6 <_printf_float>:
_printf_float():
800037d6:	7119                	addi	sp,sp,-128
800037d8:	de86                	sw	ra,124(sp)
800037da:	dca2                	sw	s0,120(sp)
800037dc:	daa6                	sw	s1,116(sp)
800037de:	842e                	mv	s0,a1
800037e0:	d8ca                	sw	s2,112(sp)
800037e2:	d6ce                	sw	s3,108(sp)
800037e4:	d4d2                	sw	s4,104(sp)
800037e6:	d2d6                	sw	s5,100(sp)
800037e8:	8a3a                	mv	s4,a4
800037ea:	d0da                	sw	s6,96(sp)
800037ec:	cede                	sw	s7,92(sp)
800037ee:	cce2                	sw	s8,88(sp)
800037f0:	8932                	mv	s2,a2
800037f2:	89b6                	mv	s3,a3
800037f4:	cae6                	sw	s9,84(sp)
800037f6:	c8ea                	sw	s10,80(sp)
800037f8:	c6ee                	sw	s11,76(sp)
800037fa:	84aa                	mv	s1,a0
800037fc:	4f7010ef          	jal	ra,800054f2 <_localeconv_r>
80003800:	00052c03          	lw	s8,0(a0)
80003804:	8562                	mv	a0,s8
80003806:	145000ef          	jal	ra,8000414a <strlen>
8000380a:	00042b03          	lw	s6,0(s0)
8000380e:	dc02                	sw	zero,56(sp)
80003810:	01844a83          	lbu	s5,24(s0)
80003814:	100b7713          	andi	a4,s6,256
80003818:	000a2783          	lw	a5,0(s4)
8000381c:	8baa                	mv	s7,a0
8000381e:	cb79                	beqz	a4,800038f4 <_printf_float+0x11e>
80003820:	00478713          	addi	a4,a5,4
80003824:	00ea2023          	sw	a4,0(s4)
80003828:	439c                	lw	a5,0(a5)
8000382a:	1008                	addi	a0,sp,32
8000382c:	4398                	lw	a4,0(a5)
8000382e:	d03a                	sw	a4,32(sp)
80003830:	43d8                	lw	a4,4(a5)
80003832:	d23a                	sw	a4,36(sp)
80003834:	4798                	lw	a4,8(a5)
80003836:	d43a                	sw	a4,40(sp)
80003838:	47dc                	lw	a5,12(a5)
8000383a:	d63e                	sw	a5,44(sp)
8000383c:	12c030ef          	jal	ra,80006968 <__trunctfdf2>
80003840:	c428                	sw	a0,72(s0)
80003842:	c46c                	sw	a1,76(s0)
80003844:	04c42a03          	lw	s4,76(s0)
80003848:	0fffd717          	auipc	a4,0xfffd
8000384c:	9a870713          	addi	a4,a4,-1624 # 900001f0 <_impure_ptr+0x8>
80003850:	04842c83          	lw	s9,72(s0)
80003854:	00072d03          	lw	s10,0(a4)
80003858:	00472d83          	lw	s11,4(a4)
8000385c:	001a1793          	slli	a5,s4,0x1
80003860:	8385                	srli	a5,a5,0x1
80003862:	866a                	mv	a2,s10
80003864:	86ee                	mv	a3,s11
80003866:	8566                	mv	a0,s9
80003868:	85be                	mv	a1,a5
8000386a:	ce3e                	sw	a5,28(sp)
8000386c:	b58ff0ef          	jal	ra,80002bc4 <__unorddf2>
80003870:	ed49                	bnez	a0,8000390a <_printf_float+0x134>
80003872:	47f2                	lw	a5,28(sp)
80003874:	866a                	mv	a2,s10
80003876:	86ee                	mv	a3,s11
80003878:	8566                	mv	a0,s9
8000387a:	85be                	mv	a1,a5
8000387c:	845fe0ef          	jal	ra,800020c0 <__ledf2>
80003880:	08a05563          	blez	a0,8000390a <_printf_float+0x134>
80003884:	4601                	li	a2,0
80003886:	4681                	li	a3,0
80003888:	8566                	mv	a0,s9
8000388a:	85d2                	mv	a1,s4
8000388c:	835fe0ef          	jal	ra,800020c0 <__ledf2>
80003890:	00055663          	bgez	a0,8000389c <_printf_float+0xc6>
80003894:	02d00793          	li	a5,45
80003898:	04f401a3          	sb	a5,67(s0)
8000389c:	04700793          	li	a5,71
800038a0:	00003a17          	auipc	s4,0x3
800038a4:	5d4a0a13          	addi	s4,s4,1492 # 80006e74 <__clz_tab+0x100>
800038a8:	0157f663          	bgeu	a5,s5,800038b4 <_printf_float+0xde>
800038ac:	00003a17          	auipc	s4,0x3
800038b0:	5cca0a13          	addi	s4,s4,1484 # 80006e78 <__clz_tab+0x104>
800038b4:	ffbb7b13          	andi	s6,s6,-5
800038b8:	478d                	li	a5,3
800038ba:	01642023          	sw	s6,0(s0)
800038be:	c81c                	sw	a5,16(s0)
800038c0:	4b01                	li	s6,0
800038c2:	874e                	mv	a4,s3
800038c4:	86ca                	mv	a3,s2
800038c6:	1870                	addi	a2,sp,60
800038c8:	85a2                	mv	a1,s0
800038ca:	8526                	mv	a0,s1
800038cc:	2ef9                	jal	80003caa <_printf_common>
800038ce:	5cfd                	li	s9,-1
800038d0:	17951363          	bne	a0,s9,80003a36 <_printf_float+0x260>
800038d4:	557d                	li	a0,-1
800038d6:	50f6                	lw	ra,124(sp)
800038d8:	5466                	lw	s0,120(sp)
800038da:	54d6                	lw	s1,116(sp)
800038dc:	5946                	lw	s2,112(sp)
800038de:	59b6                	lw	s3,108(sp)
800038e0:	5a26                	lw	s4,104(sp)
800038e2:	5a96                	lw	s5,100(sp)
800038e4:	5b06                	lw	s6,96(sp)
800038e6:	4bf6                	lw	s7,92(sp)
800038e8:	4c66                	lw	s8,88(sp)
800038ea:	4cd6                	lw	s9,84(sp)
800038ec:	4d46                	lw	s10,80(sp)
800038ee:	4db6                	lw	s11,76(sp)
800038f0:	6109                	addi	sp,sp,128
800038f2:	8082                	ret
800038f4:	079d                	addi	a5,a5,7
800038f6:	9be1                	andi	a5,a5,-8
800038f8:	00878713          	addi	a4,a5,8
800038fc:	00ea2023          	sw	a4,0(s4)
80003900:	4398                	lw	a4,0(a5)
80003902:	43dc                	lw	a5,4(a5)
80003904:	c438                	sw	a4,72(s0)
80003906:	c47c                	sw	a5,76(s0)
80003908:	bf35                	j	80003844 <_printf_float+0x6e>
8000390a:	8666                	mv	a2,s9
8000390c:	86d2                	mv	a3,s4
8000390e:	8566                	mv	a0,s9
80003910:	85d2                	mv	a1,s4
80003912:	ab2ff0ef          	jal	ra,80002bc4 <__unorddf2>
80003916:	c505                	beqz	a0,8000393e <_printf_float+0x168>
80003918:	000a5663          	bgez	s4,80003924 <_printf_float+0x14e>
8000391c:	02d00793          	li	a5,45
80003920:	04f401a3          	sb	a5,67(s0)
80003924:	04700793          	li	a5,71
80003928:	00003a17          	auipc	s4,0x3
8000392c:	554a0a13          	addi	s4,s4,1364 # 80006e7c <__clz_tab+0x108>
80003930:	f957f2e3          	bgeu	a5,s5,800038b4 <_printf_float+0xde>
80003934:	00003a17          	auipc	s4,0x3
80003938:	54ca0a13          	addi	s4,s4,1356 # 80006e80 <__clz_tab+0x10c>
8000393c:	bfa5                	j	800038b4 <_printf_float+0xde>
8000393e:	405c                	lw	a5,4(s0)
80003940:	577d                	li	a4,-1
80003942:	0dfafd13          	andi	s10,s5,223
80003946:	08e79363          	bne	a5,a4,800039cc <_printf_float+0x1f6>
8000394a:	4799                	li	a5,6
8000394c:	c05c                	sw	a5,4(s0)
8000394e:	4054                	lw	a3,4(s0)
80003950:	400b6713          	ori	a4,s6,1024
80003954:	183c                	addi	a5,sp,56
80003956:	c03e                	sw	a5,0(sp)
80003958:	8652                	mv	a2,s4
8000395a:	03310793          	addi	a5,sp,51
8000395e:	85e6                	mv	a1,s9
80003960:	c018                	sw	a4,0(s0)
80003962:	c202                	sw	zero,4(sp)
80003964:	88d6                	mv	a7,s5
80003966:	03410813          	addi	a6,sp,52
8000396a:	8526                	mv	a0,s1
8000396c:	31cd                	jal	8000364e <__cvt>
8000396e:	04700793          	li	a5,71
80003972:	55d2                	lw	a1,52(sp)
80003974:	8a2a                	mv	s4,a0
80003976:	00fd1b63          	bne	s10,a5,8000398c <_printf_float+0x1b6>
8000397a:	57f5                	li	a5,-3
8000397c:	00f5c563          	blt	a1,a5,80003986 <_printf_float+0x1b0>
80003980:	405c                	lw	a5,4(s0)
80003982:	08b7d763          	bge	a5,a1,80003a10 <_printf_float+0x23a>
80003986:	1af9                	addi	s5,s5,-2
80003988:	0ffafa93          	zext.b	s5,s5
8000398c:	06500793          	li	a5,101
80003990:	0557e563          	bltu	a5,s5,800039da <_printf_float+0x204>
80003994:	15fd                	addi	a1,a1,-1
80003996:	8656                	mv	a2,s5
80003998:	05040513          	addi	a0,s0,80
8000399c:	da2e                	sw	a1,52(sp)
8000399e:	3b71                	jal	8000373a <__exponent>
800039a0:	5762                	lw	a4,56(sp)
800039a2:	4685                	li	a3,1
800039a4:	8b2a                	mv	s6,a0
800039a6:	00a707b3          	add	a5,a4,a0
800039aa:	c81c                	sw	a5,16(s0)
800039ac:	00e6c563          	blt	a3,a4,800039b6 <_printf_float+0x1e0>
800039b0:	4018                	lw	a4,0(s0)
800039b2:	8b05                	andi	a4,a4,1
800039b4:	c319                	beqz	a4,800039ba <_printf_float+0x1e4>
800039b6:	0785                	addi	a5,a5,1
800039b8:	c81c                	sw	a5,16(s0)
800039ba:	03314783          	lbu	a5,51(sp)
800039be:	f00782e3          	beqz	a5,800038c2 <_printf_float+0xec>
800039c2:	02d00793          	li	a5,45
800039c6:	04f401a3          	sb	a5,67(s0)
800039ca:	bde5                	j	800038c2 <_printf_float+0xec>
800039cc:	04700713          	li	a4,71
800039d0:	f6ed1fe3          	bne	s10,a4,8000394e <_printf_float+0x178>
800039d4:	ffad                	bnez	a5,8000394e <_printf_float+0x178>
800039d6:	4785                	li	a5,1
800039d8:	bf95                	j	8000394c <_printf_float+0x176>
800039da:	06600793          	li	a5,102
800039de:	02fa9b63          	bne	s5,a5,80003a14 <_printf_float+0x23e>
800039e2:	405c                	lw	a5,4(s0)
800039e4:	00b05b63          	blez	a1,800039fa <_printf_float+0x224>
800039e8:	c80c                	sw	a1,16(s0)
800039ea:	e781                	bnez	a5,800039f2 <_printf_float+0x21c>
800039ec:	4018                	lw	a4,0(s0)
800039ee:	8b05                	andi	a4,a4,1
800039f0:	cf09                	beqz	a4,80003a0a <_printf_float+0x234>
800039f2:	0785                	addi	a5,a5,1
800039f4:	97ae                	add	a5,a5,a1
800039f6:	c81c                	sw	a5,16(s0)
800039f8:	a809                	j	80003a0a <_printf_float+0x234>
800039fa:	e789                	bnez	a5,80003a04 <_printf_float+0x22e>
800039fc:	4018                	lw	a4,0(s0)
800039fe:	4685                	li	a3,1
80003a00:	8b05                	andi	a4,a4,1
80003a02:	c319                	beqz	a4,80003a08 <_printf_float+0x232>
80003a04:	00278693          	addi	a3,a5,2
80003a08:	c814                	sw	a3,16(s0)
80003a0a:	cc2c                	sw	a1,88(s0)
80003a0c:	4b01                	li	s6,0
80003a0e:	b775                	j	800039ba <_printf_float+0x1e4>
80003a10:	06700a93          	li	s5,103
80003a14:	57e2                	lw	a5,56(sp)
80003a16:	00f5c963          	blt	a1,a5,80003a28 <_printf_float+0x252>
80003a1a:	401c                	lw	a5,0(s0)
80003a1c:	c80c                	sw	a1,16(s0)
80003a1e:	8b85                	andi	a5,a5,1
80003a20:	d7ed                	beqz	a5,80003a0a <_printf_float+0x234>
80003a22:	00158793          	addi	a5,a1,1
80003a26:	bfc1                	j	800039f6 <_printf_float+0x220>
80003a28:	4705                	li	a4,1
80003a2a:	00b04463          	bgtz	a1,80003a32 <_printf_float+0x25c>
80003a2e:	4709                	li	a4,2
80003a30:	8f0d                	sub	a4,a4,a1
80003a32:	97ba                	add	a5,a5,a4
80003a34:	b7c9                	j	800039f6 <_printf_float+0x220>
80003a36:	401c                	lw	a5,0(s0)
80003a38:	4007f713          	andi	a4,a5,1024
80003a3c:	e315                	bnez	a4,80003a60 <_printf_float+0x28a>
80003a3e:	4814                	lw	a3,16(s0)
80003a40:	8652                	mv	a2,s4
80003a42:	85ca                	mv	a1,s2
80003a44:	8526                	mv	a0,s1
80003a46:	9982                	jalr	s3
80003a48:	e99506e3          	beq	a0,s9,800038d4 <_printf_float+0xfe>
80003a4c:	401c                	lw	a5,0(s0)
80003a4e:	8b89                	andi	a5,a5,2
80003a50:	24079863          	bnez	a5,80003ca0 <_printf_float+0x4ca>
80003a54:	57f2                	lw	a5,60(sp)
80003a56:	4448                	lw	a0,12(s0)
80003a58:	e6f55fe3          	bge	a0,a5,800038d6 <_printf_float+0x100>
80003a5c:	853e                	mv	a0,a5
80003a5e:	bda5                	j	800038d6 <_printf_float+0x100>
80003a60:	06500713          	li	a4,101
80003a64:	19577d63          	bgeu	a4,s5,80003bfe <_printf_float+0x428>
80003a68:	4428                	lw	a0,72(s0)
80003a6a:	446c                	lw	a1,76(s0)
80003a6c:	4601                	li	a2,0
80003a6e:	4681                	li	a3,0
80003a70:	de6fe0ef          	jal	ra,80002056 <__eqdf2>
80003a74:	e939                	bnez	a0,80003aca <_printf_float+0x2f4>
80003a76:	4685                	li	a3,1
80003a78:	00003617          	auipc	a2,0x3
80003a7c:	40c60613          	addi	a2,a2,1036 # 80006e84 <__clz_tab+0x110>
80003a80:	85ca                	mv	a1,s2
80003a82:	8526                	mv	a0,s1
80003a84:	9982                	jalr	s3
80003a86:	e59507e3          	beq	a0,s9,800038d4 <_printf_float+0xfe>
80003a8a:	5752                	lw	a4,52(sp)
80003a8c:	57e2                	lw	a5,56(sp)
80003a8e:	00f74563          	blt	a4,a5,80003a98 <_printf_float+0x2c2>
80003a92:	401c                	lw	a5,0(s0)
80003a94:	8b85                	andi	a5,a5,1
80003a96:	dbdd                	beqz	a5,80003a4c <_printf_float+0x276>
80003a98:	86de                	mv	a3,s7
80003a9a:	8662                	mv	a2,s8
80003a9c:	85ca                	mv	a1,s2
80003a9e:	8526                	mv	a0,s1
80003aa0:	9982                	jalr	s3
80003aa2:	57fd                	li	a5,-1
80003aa4:	e2f508e3          	beq	a0,a5,800038d4 <_printf_float+0xfe>
80003aa8:	4a01                	li	s4,0
80003aaa:	01a40a93          	addi	s5,s0,26
80003aae:	5b7d                	li	s6,-1
80003ab0:	57e2                	lw	a5,56(sp)
80003ab2:	17fd                	addi	a5,a5,-1
80003ab4:	f8fa5ce3          	bge	s4,a5,80003a4c <_printf_float+0x276>
80003ab8:	4685                	li	a3,1
80003aba:	8656                	mv	a2,s5
80003abc:	85ca                	mv	a1,s2
80003abe:	8526                	mv	a0,s1
80003ac0:	9982                	jalr	s3
80003ac2:	e16509e3          	beq	a0,s6,800038d4 <_printf_float+0xfe>
80003ac6:	0a05                	addi	s4,s4,1
80003ac8:	b7e5                	j	80003ab0 <_printf_float+0x2da>
80003aca:	57d2                	lw	a5,52(sp)
80003acc:	06f04663          	bgtz	a5,80003b38 <_printf_float+0x362>
80003ad0:	4685                	li	a3,1
80003ad2:	00003617          	auipc	a2,0x3
80003ad6:	3b260613          	addi	a2,a2,946 # 80006e84 <__clz_tab+0x110>
80003ada:	85ca                	mv	a1,s2
80003adc:	8526                	mv	a0,s1
80003ade:	9982                	jalr	s3
80003ae0:	df950ae3          	beq	a0,s9,800038d4 <_printf_float+0xfe>
80003ae4:	57d2                	lw	a5,52(sp)
80003ae6:	5762                	lw	a4,56(sp)
80003ae8:	8fd9                	or	a5,a5,a4
80003aea:	e781                	bnez	a5,80003af2 <_printf_float+0x31c>
80003aec:	401c                	lw	a5,0(s0)
80003aee:	8b85                	andi	a5,a5,1
80003af0:	dfb1                	beqz	a5,80003a4c <_printf_float+0x276>
80003af2:	86de                	mv	a3,s7
80003af4:	8662                	mv	a2,s8
80003af6:	85ca                	mv	a1,s2
80003af8:	8526                	mv	a0,s1
80003afa:	9982                	jalr	s3
80003afc:	57fd                	li	a5,-1
80003afe:	dcf50be3          	beq	a0,a5,800038d4 <_printf_float+0xfe>
80003b02:	4a81                	li	s5,0
80003b04:	01a40b13          	addi	s6,s0,26
80003b08:	5bfd                	li	s7,-1
80003b0a:	57d2                	lw	a5,52(sp)
80003b0c:	40f007b3          	neg	a5,a5
80003b10:	00facb63          	blt	s5,a5,80003b26 <_printf_float+0x350>
80003b14:	56e2                	lw	a3,56(sp)
80003b16:	8652                	mv	a2,s4
80003b18:	85ca                	mv	a1,s2
80003b1a:	8526                	mv	a0,s1
80003b1c:	9982                	jalr	s3
80003b1e:	57fd                	li	a5,-1
80003b20:	f2f516e3          	bne	a0,a5,80003a4c <_printf_float+0x276>
80003b24:	bb45                	j	800038d4 <_printf_float+0xfe>
80003b26:	4685                	li	a3,1
80003b28:	865a                	mv	a2,s6
80003b2a:	85ca                	mv	a1,s2
80003b2c:	8526                	mv	a0,s1
80003b2e:	9982                	jalr	s3
80003b30:	db7502e3          	beq	a0,s7,800038d4 <_printf_float+0xfe>
80003b34:	0a85                	addi	s5,s5,1
80003b36:	bfd1                	j	80003b0a <_printf_float+0x334>
80003b38:	4c3c                	lw	a5,88(s0)
80003b3a:	5ae2                	lw	s5,56(sp)
80003b3c:	0157d363          	bge	a5,s5,80003b42 <_printf_float+0x36c>
80003b40:	8abe                	mv	s5,a5
80003b42:	07504963          	bgtz	s5,80003bb4 <_printf_float+0x3de>
80003b46:	4b01                	li	s6,0
80003b48:	01a40d13          	addi	s10,s0,26
80003b4c:	5dfd                	li	s11,-1
80003b4e:	05842c83          	lw	s9,88(s0)
80003b52:	87d6                	mv	a5,s5
80003b54:	000ad363          	bgez	s5,80003b5a <_printf_float+0x384>
80003b58:	4781                	li	a5,0
80003b5a:	40fc87b3          	sub	a5,s9,a5
80003b5e:	06fb4463          	blt	s6,a5,80003bc6 <_printf_float+0x3f0>
80003b62:	5752                	lw	a4,52(sp)
80003b64:	57e2                	lw	a5,56(sp)
80003b66:	06f74963          	blt	a4,a5,80003bd8 <_printf_float+0x402>
80003b6a:	401c                	lw	a5,0(s0)
80003b6c:	8b85                	andi	a5,a5,1
80003b6e:	e7ad                	bnez	a5,80003bd8 <_printf_float+0x402>
80003b70:	5ae2                	lw	s5,56(sp)
80003b72:	5752                	lw	a4,52(sp)
80003b74:	419a87b3          	sub	a5,s5,s9
80003b78:	40ea8ab3          	sub	s5,s5,a4
80003b7c:	0157d363          	bge	a5,s5,80003b82 <_printf_float+0x3ac>
80003b80:	8abe                	mv	s5,a5
80003b82:	07504463          	bgtz	s5,80003bea <_printf_float+0x414>
80003b86:	4a01                	li	s4,0
80003b88:	01a40b13          	addi	s6,s0,26
80003b8c:	5bfd                	li	s7,-1
80003b8e:	5752                	lw	a4,52(sp)
80003b90:	57e2                	lw	a5,56(sp)
80003b92:	8f99                	sub	a5,a5,a4
80003b94:	8756                	mv	a4,s5
80003b96:	000ad363          	bgez	s5,80003b9c <_printf_float+0x3c6>
80003b9a:	4701                	li	a4,0
80003b9c:	8f99                	sub	a5,a5,a4
80003b9e:	eafa57e3          	bge	s4,a5,80003a4c <_printf_float+0x276>
80003ba2:	4685                	li	a3,1
80003ba4:	865a                	mv	a2,s6
80003ba6:	85ca                	mv	a1,s2
80003ba8:	8526                	mv	a0,s1
80003baa:	9982                	jalr	s3
80003bac:	d37504e3          	beq	a0,s7,800038d4 <_printf_float+0xfe>
80003bb0:	0a05                	addi	s4,s4,1
80003bb2:	bff1                	j	80003b8e <_printf_float+0x3b8>
80003bb4:	86d6                	mv	a3,s5
80003bb6:	8652                	mv	a2,s4
80003bb8:	85ca                	mv	a1,s2
80003bba:	8526                	mv	a0,s1
80003bbc:	9982                	jalr	s3
80003bbe:	57fd                	li	a5,-1
80003bc0:	f8f513e3          	bne	a0,a5,80003b46 <_printf_float+0x370>
80003bc4:	bb01                	j	800038d4 <_printf_float+0xfe>
80003bc6:	4685                	li	a3,1
80003bc8:	866a                	mv	a2,s10
80003bca:	85ca                	mv	a1,s2
80003bcc:	8526                	mv	a0,s1
80003bce:	9982                	jalr	s3
80003bd0:	d1b502e3          	beq	a0,s11,800038d4 <_printf_float+0xfe>
80003bd4:	0b05                	addi	s6,s6,1
80003bd6:	bfa5                	j	80003b4e <_printf_float+0x378>
80003bd8:	86de                	mv	a3,s7
80003bda:	8662                	mv	a2,s8
80003bdc:	85ca                	mv	a1,s2
80003bde:	8526                	mv	a0,s1
80003be0:	9982                	jalr	s3
80003be2:	57fd                	li	a5,-1
80003be4:	f8f516e3          	bne	a0,a5,80003b70 <_printf_float+0x39a>
80003be8:	b1f5                	j	800038d4 <_printf_float+0xfe>
80003bea:	86d6                	mv	a3,s5
80003bec:	019a0633          	add	a2,s4,s9
80003bf0:	85ca                	mv	a1,s2
80003bf2:	8526                	mv	a0,s1
80003bf4:	9982                	jalr	s3
80003bf6:	57fd                	li	a5,-1
80003bf8:	f8f517e3          	bne	a0,a5,80003b86 <_printf_float+0x3b0>
80003bfc:	b9e1                	j	800038d4 <_printf_float+0xfe>
80003bfe:	56e2                	lw	a3,56(sp)
80003c00:	4705                	li	a4,1
80003c02:	00d74463          	blt	a4,a3,80003c0a <_printf_float+0x434>
80003c06:	8b85                	andi	a5,a5,1
80003c08:	c7b5                	beqz	a5,80003c74 <_printf_float+0x49e>
80003c0a:	4685                	li	a3,1
80003c0c:	8652                	mv	a2,s4
80003c0e:	85ca                	mv	a1,s2
80003c10:	8526                	mv	a0,s1
80003c12:	9982                	jalr	s3
80003c14:	5afd                	li	s5,-1
80003c16:	cb550fe3          	beq	a0,s5,800038d4 <_printf_float+0xfe>
80003c1a:	86de                	mv	a3,s7
80003c1c:	8662                	mv	a2,s8
80003c1e:	85ca                	mv	a1,s2
80003c20:	8526                	mv	a0,s1
80003c22:	9982                	jalr	s3
80003c24:	cb5508e3          	beq	a0,s5,800038d4 <_printf_float+0xfe>
80003c28:	4428                	lw	a0,72(s0)
80003c2a:	446c                	lw	a1,76(s0)
80003c2c:	4601                	li	a2,0
80003c2e:	4681                	li	a3,0
80003c30:	c26fe0ef          	jal	ra,80002056 <__eqdf2>
80003c34:	c91d                	beqz	a0,80003c6a <_printf_float+0x494>
80003c36:	56e2                	lw	a3,56(sp)
80003c38:	001a0613          	addi	a2,s4,1
80003c3c:	85ca                	mv	a1,s2
80003c3e:	16fd                	addi	a3,a3,-1
80003c40:	8526                	mv	a0,s1
80003c42:	9982                	jalr	s3
80003c44:	c95508e3          	beq	a0,s5,800038d4 <_printf_float+0xfe>
80003c48:	86da                	mv	a3,s6
80003c4a:	05040613          	addi	a2,s0,80
80003c4e:	b5e9                	j	80003b18 <_printf_float+0x342>
80003c50:	4685                	li	a3,1
80003c52:	8656                	mv	a2,s5
80003c54:	85ca                	mv	a1,s2
80003c56:	8526                	mv	a0,s1
80003c58:	9982                	jalr	s3
80003c5a:	c7750de3          	beq	a0,s7,800038d4 <_printf_float+0xfe>
80003c5e:	0a05                	addi	s4,s4,1
80003c60:	57e2                	lw	a5,56(sp)
80003c62:	17fd                	addi	a5,a5,-1
80003c64:	fefa46e3          	blt	s4,a5,80003c50 <_printf_float+0x47a>
80003c68:	b7c5                	j	80003c48 <_printf_float+0x472>
80003c6a:	4a01                	li	s4,0
80003c6c:	01a40a93          	addi	s5,s0,26
80003c70:	5bfd                	li	s7,-1
80003c72:	b7fd                	j	80003c60 <_printf_float+0x48a>
80003c74:	4685                	li	a3,1
80003c76:	8652                	mv	a2,s4
80003c78:	85ca                	mv	a1,s2
80003c7a:	8526                	mv	a0,s1
80003c7c:	9982                	jalr	s3
80003c7e:	fd9515e3          	bne	a0,s9,80003c48 <_printf_float+0x472>
80003c82:	b989                	j	800038d4 <_printf_float+0xfe>
80003c84:	4685                	li	a3,1
80003c86:	8656                	mv	a2,s5
80003c88:	85ca                	mv	a1,s2
80003c8a:	8526                	mv	a0,s1
80003c8c:	9982                	jalr	s3
80003c8e:	c56503e3          	beq	a0,s6,800038d4 <_printf_float+0xfe>
80003c92:	0a05                	addi	s4,s4,1
80003c94:	445c                	lw	a5,12(s0)
80003c96:	5772                	lw	a4,60(sp)
80003c98:	8f99                	sub	a5,a5,a4
80003c9a:	fefa45e3          	blt	s4,a5,80003c84 <_printf_float+0x4ae>
80003c9e:	bb5d                	j	80003a54 <_printf_float+0x27e>
80003ca0:	4a01                	li	s4,0
80003ca2:	01940a93          	addi	s5,s0,25
80003ca6:	5b7d                	li	s6,-1
80003ca8:	b7f5                	j	80003c94 <_printf_float+0x4be>

80003caa <_printf_common>:
_printf_common():
80003caa:	7179                	addi	sp,sp,-48
80003cac:	cc52                	sw	s4,24(sp)
80003cae:	499c                	lw	a5,16(a1)
80003cb0:	8a3a                	mv	s4,a4
80003cb2:	4598                	lw	a4,8(a1)
80003cb4:	d422                	sw	s0,40(sp)
80003cb6:	d226                	sw	s1,36(sp)
80003cb8:	ce4e                	sw	s3,28(sp)
80003cba:	ca56                	sw	s5,20(sp)
80003cbc:	d606                	sw	ra,44(sp)
80003cbe:	d04a                	sw	s2,32(sp)
80003cc0:	c85a                	sw	s6,16(sp)
80003cc2:	c65e                	sw	s7,12(sp)
80003cc4:	89aa                	mv	s3,a0
80003cc6:	842e                	mv	s0,a1
80003cc8:	84b2                	mv	s1,a2
80003cca:	8ab6                	mv	s5,a3
80003ccc:	00e7d363          	bge	a5,a4,80003cd2 <_printf_common+0x28>
80003cd0:	87ba                	mv	a5,a4
80003cd2:	c09c                	sw	a5,0(s1)
80003cd4:	04344703          	lbu	a4,67(s0)
80003cd8:	c319                	beqz	a4,80003cde <_printf_common+0x34>
80003cda:	0785                	addi	a5,a5,1
80003cdc:	c09c                	sw	a5,0(s1)
80003cde:	401c                	lw	a5,0(s0)
80003ce0:	0207f793          	andi	a5,a5,32
80003ce4:	c781                	beqz	a5,80003cec <_printf_common+0x42>
80003ce6:	409c                	lw	a5,0(s1)
80003ce8:	0789                	addi	a5,a5,2
80003cea:	c09c                	sw	a5,0(s1)
80003cec:	00042903          	lw	s2,0(s0)
80003cf0:	00697913          	andi	s2,s2,6
80003cf4:	00091a63          	bnez	s2,80003d08 <_printf_common+0x5e>
80003cf8:	01940b13          	addi	s6,s0,25
80003cfc:	5bfd                	li	s7,-1
80003cfe:	445c                	lw	a5,12(s0)
80003d00:	4098                	lw	a4,0(s1)
80003d02:	8f99                	sub	a5,a5,a4
80003d04:	04f94c63          	blt	s2,a5,80003d5c <_printf_common+0xb2>
80003d08:	04344783          	lbu	a5,67(s0)
80003d0c:	00f036b3          	snez	a3,a5
80003d10:	401c                	lw	a5,0(s0)
80003d12:	0207f793          	andi	a5,a5,32
80003d16:	eba5                	bnez	a5,80003d86 <_printf_common+0xdc>
80003d18:	04340613          	addi	a2,s0,67
80003d1c:	85d6                	mv	a1,s5
80003d1e:	854e                	mv	a0,s3
80003d20:	9a02                	jalr	s4
80003d22:	57fd                	li	a5,-1
80003d24:	04f50363          	beq	a0,a5,80003d6a <_printf_common+0xc0>
80003d28:	401c                	lw	a5,0(s0)
80003d2a:	4611                	li	a2,4
80003d2c:	4098                	lw	a4,0(s1)
80003d2e:	8b99                	andi	a5,a5,6
80003d30:	4454                	lw	a3,12(s0)
80003d32:	4481                	li	s1,0
80003d34:	00c79763          	bne	a5,a2,80003d42 <_printf_common+0x98>
80003d38:	40e684b3          	sub	s1,a3,a4
80003d3c:	0004d363          	bgez	s1,80003d42 <_printf_common+0x98>
80003d40:	4481                	li	s1,0
80003d42:	441c                	lw	a5,8(s0)
80003d44:	4818                	lw	a4,16(s0)
80003d46:	00f75463          	bge	a4,a5,80003d4e <_printf_common+0xa4>
80003d4a:	8f99                	sub	a5,a5,a4
80003d4c:	94be                	add	s1,s1,a5
80003d4e:	4901                	li	s2,0
80003d50:	0469                	addi	s0,s0,26
80003d52:	5b7d                	li	s6,-1
80003d54:	05249863          	bne	s1,s2,80003da4 <_printf_common+0xfa>
80003d58:	4501                	li	a0,0
80003d5a:	a809                	j	80003d6c <_printf_common+0xc2>
80003d5c:	4685                	li	a3,1
80003d5e:	865a                	mv	a2,s6
80003d60:	85d6                	mv	a1,s5
80003d62:	854e                	mv	a0,s3
80003d64:	9a02                	jalr	s4
80003d66:	01751e63          	bne	a0,s7,80003d82 <_printf_common+0xd8>
80003d6a:	557d                	li	a0,-1
80003d6c:	50b2                	lw	ra,44(sp)
80003d6e:	5422                	lw	s0,40(sp)
80003d70:	5492                	lw	s1,36(sp)
80003d72:	5902                	lw	s2,32(sp)
80003d74:	49f2                	lw	s3,28(sp)
80003d76:	4a62                	lw	s4,24(sp)
80003d78:	4ad2                	lw	s5,20(sp)
80003d7a:	4b42                	lw	s6,16(sp)
80003d7c:	4bb2                	lw	s7,12(sp)
80003d7e:	6145                	addi	sp,sp,48
80003d80:	8082                	ret
80003d82:	0905                	addi	s2,s2,1
80003d84:	bfad                	j	80003cfe <_printf_common+0x54>
80003d86:	00d40733          	add	a4,s0,a3
80003d8a:	03000613          	li	a2,48
80003d8e:	04c701a3          	sb	a2,67(a4)
80003d92:	04544703          	lbu	a4,69(s0)
80003d96:	00168793          	addi	a5,a3,1
80003d9a:	97a2                	add	a5,a5,s0
80003d9c:	0689                	addi	a3,a3,2
80003d9e:	04e781a3          	sb	a4,67(a5)
80003da2:	bf9d                	j	80003d18 <_printf_common+0x6e>
80003da4:	4685                	li	a3,1
80003da6:	8622                	mv	a2,s0
80003da8:	85d6                	mv	a1,s5
80003daa:	854e                	mv	a0,s3
80003dac:	9a02                	jalr	s4
80003dae:	fb650ee3          	beq	a0,s6,80003d6a <_printf_common+0xc0>
80003db2:	0905                	addi	s2,s2,1
80003db4:	b745                	j	80003d54 <_printf_common+0xaa>

80003db6 <_printf_i>:
_printf_i():
80003db6:	7179                	addi	sp,sp,-48
80003db8:	d422                	sw	s0,40(sp)
80003dba:	d226                	sw	s1,36(sp)
80003dbc:	d04a                	sw	s2,32(sp)
80003dbe:	ce4e                	sw	s3,28(sp)
80003dc0:	d606                	sw	ra,44(sp)
80003dc2:	cc52                	sw	s4,24(sp)
80003dc4:	ca56                	sw	s5,20(sp)
80003dc6:	c85a                	sw	s6,16(sp)
80003dc8:	0185c803          	lbu	a6,24(a1)
80003dcc:	07800793          	li	a5,120
80003dd0:	84aa                	mv	s1,a0
80003dd2:	842e                	mv	s0,a1
80003dd4:	8932                	mv	s2,a2
80003dd6:	89b6                	mv	s3,a3
80003dd8:	0107ee63          	bltu	a5,a6,80003df4 <_printf_i+0x3e>
80003ddc:	06200793          	li	a5,98
80003de0:	04358693          	addi	a3,a1,67
80003de4:	0107ed63          	bltu	a5,a6,80003dfe <_printf_i+0x48>
80003de8:	1c080563          	beqz	a6,80003fb2 <_printf_i+0x1fc>
80003dec:	05800793          	li	a5,88
80003df0:	12f80a63          	beq	a6,a5,80003f24 <_printf_i+0x16e>
80003df4:	04240a93          	addi	s5,s0,66
80003df8:	05040123          	sb	a6,66(s0)
80003dfc:	a815                	j	80003e30 <_printf_i+0x7a>
80003dfe:	f9d80793          	addi	a5,a6,-99
80003e02:	0ff7f793          	zext.b	a5,a5
80003e06:	4655                	li	a2,21
80003e08:	fef666e3          	bltu	a2,a5,80003df4 <_printf_i+0x3e>
80003e0c:	00003617          	auipc	a2,0x3
80003e10:	0a460613          	addi	a2,a2,164 # 80006eb0 <__clz_tab+0x13c>
80003e14:	078a                	slli	a5,a5,0x2
80003e16:	97b2                	add	a5,a5,a2
80003e18:	439c                	lw	a5,0(a5)
80003e1a:	97b2                	add	a5,a5,a2
80003e1c:	8782                	jr	a5
80003e1e:	431c                	lw	a5,0(a4)
80003e20:	04258a93          	addi	s5,a1,66
80003e24:	00478693          	addi	a3,a5,4
80003e28:	439c                	lw	a5,0(a5)
80003e2a:	c314                	sw	a3,0(a4)
80003e2c:	04f58123          	sb	a5,66(a1)
80003e30:	4785                	li	a5,1
80003e32:	a265                	j	80003fda <_printf_i+0x224>
80003e34:	419c                	lw	a5,0(a1)
80003e36:	4308                	lw	a0,0(a4)
80003e38:	0807f613          	andi	a2,a5,128
80003e3c:	00450593          	addi	a1,a0,4
80003e40:	c20d                	beqz	a2,80003e62 <_printf_i+0xac>
80003e42:	411c                	lw	a5,0(a0)
80003e44:	c30c                	sw	a1,0(a4)
80003e46:	0007d863          	bgez	a5,80003e56 <_printf_i+0xa0>
80003e4a:	02d00713          	li	a4,45
80003e4e:	40f007b3          	neg	a5,a5
80003e52:	04e401a3          	sb	a4,67(s0)
80003e56:	00003617          	auipc	a2,0x3
80003e5a:	03260613          	addi	a2,a2,50 # 80006e88 <__clz_tab+0x114>
80003e5e:	4829                	li	a6,10
80003e60:	a0a1                	j	80003ea8 <_printf_i+0xf2>
80003e62:	0407f613          	andi	a2,a5,64
80003e66:	411c                	lw	a5,0(a0)
80003e68:	c30c                	sw	a1,0(a4)
80003e6a:	de71                	beqz	a2,80003e46 <_printf_i+0x90>
80003e6c:	07c2                	slli	a5,a5,0x10
80003e6e:	87c1                	srai	a5,a5,0x10
80003e70:	bfd9                	j	80003e46 <_printf_i+0x90>
80003e72:	4190                	lw	a2,0(a1)
80003e74:	431c                	lw	a5,0(a4)
80003e76:	08067513          	andi	a0,a2,128
80003e7a:	00478593          	addi	a1,a5,4
80003e7e:	c501                	beqz	a0,80003e86 <_printf_i+0xd0>
80003e80:	c30c                	sw	a1,0(a4)
80003e82:	439c                	lw	a5,0(a5)
80003e84:	a039                	j	80003e92 <_printf_i+0xdc>
80003e86:	04067613          	andi	a2,a2,64
80003e8a:	c30c                	sw	a1,0(a4)
80003e8c:	da7d                	beqz	a2,80003e82 <_printf_i+0xcc>
80003e8e:	0007d783          	lhu	a5,0(a5)
80003e92:	06f00713          	li	a4,111
80003e96:	00003617          	auipc	a2,0x3
80003e9a:	ff260613          	addi	a2,a2,-14 # 80006e88 <__clz_tab+0x114>
80003e9e:	0ee80463          	beq	a6,a4,80003f86 <_printf_i+0x1d0>
80003ea2:	4829                	li	a6,10
80003ea4:	040401a3          	sb	zero,67(s0)
80003ea8:	4058                	lw	a4,4(s0)
80003eaa:	c418                	sw	a4,8(s0)
80003eac:	00074563          	bltz	a4,80003eb6 <_printf_i+0x100>
80003eb0:	400c                	lw	a1,0(s0)
80003eb2:	99ed                	andi	a1,a1,-5
80003eb4:	c00c                	sw	a1,0(s0)
80003eb6:	e399                	bnez	a5,80003ebc <_printf_i+0x106>
80003eb8:	8ab6                	mv	s5,a3
80003eba:	cf19                	beqz	a4,80003ed8 <_printf_i+0x122>
80003ebc:	8ab6                	mv	s5,a3
80003ebe:	0307f733          	remu	a4,a5,a6
80003ec2:	1afd                	addi	s5,s5,-1
80003ec4:	9732                	add	a4,a4,a2
80003ec6:	00074703          	lbu	a4,0(a4)
80003eca:	00ea8023          	sb	a4,0(s5)
80003ece:	873e                	mv	a4,a5
80003ed0:	0307d7b3          	divu	a5,a5,a6
80003ed4:	ff0775e3          	bgeu	a4,a6,80003ebe <_printf_i+0x108>
80003ed8:	47a1                	li	a5,8
80003eda:	00f81e63          	bne	a6,a5,80003ef6 <_printf_i+0x140>
80003ede:	401c                	lw	a5,0(s0)
80003ee0:	8b85                	andi	a5,a5,1
80003ee2:	cb91                	beqz	a5,80003ef6 <_printf_i+0x140>
80003ee4:	4058                	lw	a4,4(s0)
80003ee6:	481c                	lw	a5,16(s0)
80003ee8:	00e7c763          	blt	a5,a4,80003ef6 <_printf_i+0x140>
80003eec:	03000793          	li	a5,48
80003ef0:	fefa8fa3          	sb	a5,-1(s5)
80003ef4:	1afd                	addi	s5,s5,-1
80003ef6:	415686b3          	sub	a3,a3,s5
80003efa:	c814                	sw	a3,16(s0)
80003efc:	874e                	mv	a4,s3
80003efe:	86ca                	mv	a3,s2
80003f00:	0070                	addi	a2,sp,12
80003f02:	85a2                	mv	a1,s0
80003f04:	8526                	mv	a0,s1
80003f06:	3355                	jal	80003caa <_printf_common>
80003f08:	5a7d                	li	s4,-1
80003f0a:	0d451c63          	bne	a0,s4,80003fe2 <_printf_i+0x22c>
80003f0e:	557d                	li	a0,-1
80003f10:	50b2                	lw	ra,44(sp)
80003f12:	5422                	lw	s0,40(sp)
80003f14:	5492                	lw	s1,36(sp)
80003f16:	5902                	lw	s2,32(sp)
80003f18:	49f2                	lw	s3,28(sp)
80003f1a:	4a62                	lw	s4,24(sp)
80003f1c:	4ad2                	lw	s5,20(sp)
80003f1e:	4b42                	lw	s6,16(sp)
80003f20:	6145                	addi	sp,sp,48
80003f22:	8082                	ret
80003f24:	050582a3          	sb	a6,69(a1)
80003f28:	00003617          	auipc	a2,0x3
80003f2c:	f6060613          	addi	a2,a2,-160 # 80006e88 <__clz_tab+0x114>
80003f30:	400c                	lw	a1,0(s0)
80003f32:	4308                	lw	a0,0(a4)
80003f34:	0805f813          	andi	a6,a1,128
80003f38:	411c                	lw	a5,0(a0)
80003f3a:	0511                	addi	a0,a0,4
80003f3c:	02080d63          	beqz	a6,80003f76 <_printf_i+0x1c0>
80003f40:	c308                	sw	a0,0(a4)
80003f42:	0015f713          	andi	a4,a1,1
80003f46:	c701                	beqz	a4,80003f4e <_printf_i+0x198>
80003f48:	0205e593          	ori	a1,a1,32
80003f4c:	c00c                	sw	a1,0(s0)
80003f4e:	4841                	li	a6,16
80003f50:	fbb1                	bnez	a5,80003ea4 <_printf_i+0xee>
80003f52:	4018                	lw	a4,0(s0)
80003f54:	fdf77713          	andi	a4,a4,-33
80003f58:	c018                	sw	a4,0(s0)
80003f5a:	b7a9                	j	80003ea4 <_printf_i+0xee>
80003f5c:	419c                	lw	a5,0(a1)
80003f5e:	0207e793          	ori	a5,a5,32
80003f62:	c19c                	sw	a5,0(a1)
80003f64:	07800793          	li	a5,120
80003f68:	04f402a3          	sb	a5,69(s0)
80003f6c:	00003617          	auipc	a2,0x3
80003f70:	f3060613          	addi	a2,a2,-208 # 80006e9c <__clz_tab+0x128>
80003f74:	bf75                	j	80003f30 <_printf_i+0x17a>
80003f76:	0405f813          	andi	a6,a1,64
80003f7a:	c308                	sw	a0,0(a4)
80003f7c:	fc0803e3          	beqz	a6,80003f42 <_printf_i+0x18c>
80003f80:	07c2                	slli	a5,a5,0x10
80003f82:	83c1                	srli	a5,a5,0x10
80003f84:	bf7d                	j	80003f42 <_printf_i+0x18c>
80003f86:	4821                	li	a6,8
80003f88:	bf31                	j	80003ea4 <_printf_i+0xee>
80003f8a:	4190                	lw	a2,0(a1)
80003f8c:	431c                	lw	a5,0(a4)
80003f8e:	49cc                	lw	a1,20(a1)
80003f90:	08067813          	andi	a6,a2,128
80003f94:	00478513          	addi	a0,a5,4
80003f98:	00080663          	beqz	a6,80003fa4 <_printf_i+0x1ee>
80003f9c:	c308                	sw	a0,0(a4)
80003f9e:	439c                	lw	a5,0(a5)
80003fa0:	c38c                	sw	a1,0(a5)
80003fa2:	a801                	j	80003fb2 <_printf_i+0x1fc>
80003fa4:	c308                	sw	a0,0(a4)
80003fa6:	04067613          	andi	a2,a2,64
80003faa:	439c                	lw	a5,0(a5)
80003fac:	da75                	beqz	a2,80003fa0 <_printf_i+0x1ea>
80003fae:	00b79023          	sh	a1,0(a5)
80003fb2:	00042823          	sw	zero,16(s0)
80003fb6:	8ab6                	mv	s5,a3
80003fb8:	b791                	j	80003efc <_printf_i+0x146>
80003fba:	431c                	lw	a5,0(a4)
80003fbc:	41d0                	lw	a2,4(a1)
80003fbe:	4581                	li	a1,0
80003fc0:	00478693          	addi	a3,a5,4
80003fc4:	c314                	sw	a3,0(a4)
80003fc6:	0007aa83          	lw	s5,0(a5)
80003fca:	8556                	mv	a0,s5
80003fcc:	636010ef          	jal	ra,80005602 <memchr>
80003fd0:	c501                	beqz	a0,80003fd8 <_printf_i+0x222>
80003fd2:	41550533          	sub	a0,a0,s5
80003fd6:	c048                	sw	a0,4(s0)
80003fd8:	405c                	lw	a5,4(s0)
80003fda:	c81c                	sw	a5,16(s0)
80003fdc:	040401a3          	sb	zero,67(s0)
80003fe0:	bf31                	j	80003efc <_printf_i+0x146>
80003fe2:	4814                	lw	a3,16(s0)
80003fe4:	8656                	mv	a2,s5
80003fe6:	85ca                	mv	a1,s2
80003fe8:	8526                	mv	a0,s1
80003fea:	9982                	jalr	s3
80003fec:	f34501e3          	beq	a0,s4,80003f0e <_printf_i+0x158>
80003ff0:	401c                	lw	a5,0(s0)
80003ff2:	8b89                	andi	a5,a5,2
80003ff4:	e78d                	bnez	a5,8000401e <_printf_i+0x268>
80003ff6:	47b2                	lw	a5,12(sp)
80003ff8:	4448                	lw	a0,12(s0)
80003ffa:	f0f55be3          	bge	a0,a5,80003f10 <_printf_i+0x15a>
80003ffe:	853e                	mv	a0,a5
80004000:	bf01                	j	80003f10 <_printf_i+0x15a>
80004002:	4685                	li	a3,1
80004004:	8656                	mv	a2,s5
80004006:	85ca                	mv	a1,s2
80004008:	8526                	mv	a0,s1
8000400a:	9982                	jalr	s3
8000400c:	f16501e3          	beq	a0,s6,80003f0e <_printf_i+0x158>
80004010:	0a05                	addi	s4,s4,1
80004012:	445c                	lw	a5,12(s0)
80004014:	4732                	lw	a4,12(sp)
80004016:	8f99                	sub	a5,a5,a4
80004018:	fefa45e3          	blt	s4,a5,80004002 <_printf_i+0x24c>
8000401c:	bfe9                	j	80003ff6 <_printf_i+0x240>
8000401e:	4a01                	li	s4,0
80004020:	01940a93          	addi	s5,s0,25
80004024:	5b7d                	li	s6,-1
80004026:	b7f5                	j	80004012 <_printf_i+0x25c>

80004028 <iprintf>:
printf():
80004028:	715d                	addi	sp,sp,-80
8000402a:	d422                	sw	s0,40(sp)
8000402c:	d606                	sw	ra,44(sp)
8000402e:	842a                	mv	s0,a0
80004030:	da2e                	sw	a1,52(sp)
80004032:	dc32                	sw	a2,56(sp)
80004034:	de36                	sw	a3,60(sp)
80004036:	c0ba                	sw	a4,64(sp)
80004038:	c2be                	sw	a5,68(sp)
8000403a:	c4c2                	sw	a6,72(sp)
8000403c:	c6c6                	sw	a7,76(sp)
8000403e:	8101a503          	lw	a0,-2032(gp) # 900001e8 <_impure_ptr>
80004042:	c519                	beqz	a0,80004050 <iprintf+0x28>
80004044:	4d1c                	lw	a5,24(a0)
80004046:	e789                	bnez	a5,80004050 <iprintf+0x28>
80004048:	c62a                	sw	a0,12(sp)
8000404a:	340010ef          	jal	ra,8000538a <__sinit>
8000404e:	4532                	lw	a0,12(sp)
80004050:	450c                	lw	a1,8(a0)
80004052:	1854                	addi	a3,sp,52
80004054:	8622                	mv	a2,s0
80004056:	ce36                	sw	a3,28(sp)
80004058:	1d8020ef          	jal	ra,80006230 <_vfiprintf_r>
8000405c:	50b2                	lw	ra,44(sp)
8000405e:	5422                	lw	s0,40(sp)
80004060:	6161                	addi	sp,sp,80
80004062:	8082                	ret

80004064 <_puts_r>:
_puts_r():
80004064:	1101                	addi	sp,sp,-32
80004066:	ca26                	sw	s1,20(sp)
80004068:	c84a                	sw	s2,16(sp)
8000406a:	ce06                	sw	ra,28(sp)
8000406c:	cc22                	sw	s0,24(sp)
8000406e:	c64e                	sw	s3,12(sp)
80004070:	c452                	sw	s4,8(sp)
80004072:	84aa                	mv	s1,a0
80004074:	892e                	mv	s2,a1
80004076:	c509                	beqz	a0,80004080 <_puts_r+0x1c>
80004078:	4d1c                	lw	a5,24(a0)
8000407a:	e399                	bnez	a5,80004080 <_puts_r+0x1c>
8000407c:	30e010ef          	jal	ra,8000538a <__sinit>
80004080:	4c9c                	lw	a5,24(s1)
80004082:	4480                	lw	s0,8(s1)
80004084:	e781                	bnez	a5,8000408c <_puts_r+0x28>
80004086:	8526                	mv	a0,s1
80004088:	302010ef          	jal	ra,8000538a <__sinit>
8000408c:	00003797          	auipc	a5,0x3
80004090:	f2c78793          	addi	a5,a5,-212 # 80006fb8 <__sf_fake_stdin>
80004094:	02f41c63          	bne	s0,a5,800040cc <_puts_r+0x68>
80004098:	40c0                	lw	s0,4(s1)
8000409a:	00c45783          	lhu	a5,12(s0)
8000409e:	8ba1                	andi	a5,a5,8
800040a0:	c7b1                	beqz	a5,800040ec <_puts_r+0x88>
800040a2:	481c                	lw	a5,16(s0)
800040a4:	c7a1                	beqz	a5,800040ec <_puts_r+0x88>
800040a6:	59fd                	li	s3,-1
800040a8:	4a29                	li	s4,10
800040aa:	441c                	lw	a5,8(s0)
800040ac:	00094583          	lbu	a1,0(s2) # 4000000 <__stack_size+0x3fff800>
800040b0:	17fd                	addi	a5,a5,-1
800040b2:	e9b1                	bnez	a1,80004106 <_puts_r+0xa2>
800040b4:	c41c                	sw	a5,8(s0)
800040b6:	0607de63          	bgez	a5,80004132 <_puts_r+0xce>
800040ba:	8622                	mv	a2,s0
800040bc:	45a9                	li	a1,10
800040be:	8526                	mv	a0,s1
800040c0:	2045                	jal	80004160 <__swbuf_r>
800040c2:	57fd                	li	a5,-1
800040c4:	02f50863          	beq	a0,a5,800040f4 <_puts_r+0x90>
800040c8:	4529                	li	a0,10
800040ca:	a035                	j	800040f6 <_puts_r+0x92>
800040cc:	00003797          	auipc	a5,0x3
800040d0:	f0c78793          	addi	a5,a5,-244 # 80006fd8 <__sf_fake_stdout>
800040d4:	00f41463          	bne	s0,a5,800040dc <_puts_r+0x78>
800040d8:	4480                	lw	s0,8(s1)
800040da:	b7c1                	j	8000409a <_puts_r+0x36>
800040dc:	00003797          	auipc	a5,0x3
800040e0:	ebc78793          	addi	a5,a5,-324 # 80006f98 <__sf_fake_stderr>
800040e4:	faf41be3          	bne	s0,a5,8000409a <_puts_r+0x36>
800040e8:	44c0                	lw	s0,12(s1)
800040ea:	bf45                	j	8000409a <_puts_r+0x36>
800040ec:	85a2                	mv	a1,s0
800040ee:	8526                	mv	a0,s1
800040f0:	2a1d                	jal	80004226 <__swsetup_r>
800040f2:	d955                	beqz	a0,800040a6 <_puts_r+0x42>
800040f4:	557d                	li	a0,-1
800040f6:	40f2                	lw	ra,28(sp)
800040f8:	4462                	lw	s0,24(sp)
800040fa:	44d2                	lw	s1,20(sp)
800040fc:	4942                	lw	s2,16(sp)
800040fe:	49b2                	lw	s3,12(sp)
80004100:	4a22                	lw	s4,8(sp)
80004102:	6105                	addi	sp,sp,32
80004104:	8082                	ret
80004106:	c41c                	sw	a5,8(s0)
80004108:	0905                	addi	s2,s2,1
8000410a:	0007d763          	bgez	a5,80004118 <_puts_r+0xb4>
8000410e:	4c18                	lw	a4,24(s0)
80004110:	00e7cb63          	blt	a5,a4,80004126 <_puts_r+0xc2>
80004114:	01458963          	beq	a1,s4,80004126 <_puts_r+0xc2>
80004118:	401c                	lw	a5,0(s0)
8000411a:	00178713          	addi	a4,a5,1
8000411e:	c018                	sw	a4,0(s0)
80004120:	00b78023          	sb	a1,0(a5)
80004124:	b759                	j	800040aa <_puts_r+0x46>
80004126:	8622                	mv	a2,s0
80004128:	8526                	mv	a0,s1
8000412a:	281d                	jal	80004160 <__swbuf_r>
8000412c:	f7351fe3          	bne	a0,s3,800040aa <_puts_r+0x46>
80004130:	b7d1                	j	800040f4 <_puts_r+0x90>
80004132:	401c                	lw	a5,0(s0)
80004134:	00178713          	addi	a4,a5,1
80004138:	c018                	sw	a4,0(s0)
8000413a:	4729                	li	a4,10
8000413c:	00e78023          	sb	a4,0(a5)
80004140:	b761                	j	800040c8 <_puts_r+0x64>

80004142 <puts>:
puts():
80004142:	85aa                	mv	a1,a0
80004144:	8101a503          	lw	a0,-2032(gp) # 900001e8 <_impure_ptr>
80004148:	bf31                	j	80004064 <_puts_r>

8000414a <strlen>:
strlen():
8000414a:	87aa                	mv	a5,a0
8000414c:	0007c703          	lbu	a4,0(a5)
80004150:	0785                	addi	a5,a5,1
80004152:	ff6d                	bnez	a4,8000414c <strlen+0x2>
80004154:	40a78533          	sub	a0,a5,a0
80004158:	157d                	addi	a0,a0,-1
8000415a:	8082                	ret

8000415c <isatty>:
isatty():
8000415c:	fdffb06f          	j	8000013a <_isatty>

80004160 <__swbuf_r>:
__swbuf_r():
80004160:	1101                	addi	sp,sp,-32
80004162:	cc22                	sw	s0,24(sp)
80004164:	ca26                	sw	s1,20(sp)
80004166:	c84a                	sw	s2,16(sp)
80004168:	ce06                	sw	ra,28(sp)
8000416a:	c64e                	sw	s3,12(sp)
8000416c:	84aa                	mv	s1,a0
8000416e:	892e                	mv	s2,a1
80004170:	8432                	mv	s0,a2
80004172:	c509                	beqz	a0,8000417c <__swbuf_r+0x1c>
80004174:	4d1c                	lw	a5,24(a0)
80004176:	e399                	bnez	a5,8000417c <__swbuf_r+0x1c>
80004178:	212010ef          	jal	ra,8000538a <__sinit>
8000417c:	00003797          	auipc	a5,0x3
80004180:	e3c78793          	addi	a5,a5,-452 # 80006fb8 <__sf_fake_stdin>
80004184:	06f41b63          	bne	s0,a5,800041fa <__swbuf_r+0x9a>
80004188:	40c0                	lw	s0,4(s1)
8000418a:	4c1c                	lw	a5,24(s0)
8000418c:	c41c                	sw	a5,8(s0)
8000418e:	00c45783          	lhu	a5,12(s0)
80004192:	8ba1                	andi	a5,a5,8
80004194:	c3d9                	beqz	a5,8000421a <__swbuf_r+0xba>
80004196:	481c                	lw	a5,16(s0)
80004198:	c3c9                	beqz	a5,8000421a <__swbuf_r+0xba>
8000419a:	481c                	lw	a5,16(s0)
8000419c:	4008                	lw	a0,0(s0)
8000419e:	0ff97993          	zext.b	s3,s2
800041a2:	0ff97913          	zext.b	s2,s2
800041a6:	8d1d                	sub	a0,a0,a5
800041a8:	485c                	lw	a5,20(s0)
800041aa:	00f54763          	blt	a0,a5,800041b8 <__swbuf_r+0x58>
800041ae:	85a2                	mv	a1,s0
800041b0:	8526                	mv	a0,s1
800041b2:	0bc010ef          	jal	ra,8000526e <_fflush_r>
800041b6:	e535                	bnez	a0,80004222 <__swbuf_r+0xc2>
800041b8:	441c                	lw	a5,8(s0)
800041ba:	0505                	addi	a0,a0,1
800041bc:	17fd                	addi	a5,a5,-1
800041be:	c41c                	sw	a5,8(s0)
800041c0:	401c                	lw	a5,0(s0)
800041c2:	00178713          	addi	a4,a5,1
800041c6:	c018                	sw	a4,0(s0)
800041c8:	01378023          	sb	s3,0(a5)
800041cc:	485c                	lw	a5,20(s0)
800041ce:	00a78963          	beq	a5,a0,800041e0 <__swbuf_r+0x80>
800041d2:	00c45783          	lhu	a5,12(s0)
800041d6:	8b85                	andi	a5,a5,1
800041d8:	cb89                	beqz	a5,800041ea <__swbuf_r+0x8a>
800041da:	47a9                	li	a5,10
800041dc:	00f91763          	bne	s2,a5,800041ea <__swbuf_r+0x8a>
800041e0:	85a2                	mv	a1,s0
800041e2:	8526                	mv	a0,s1
800041e4:	08a010ef          	jal	ra,8000526e <_fflush_r>
800041e8:	ed0d                	bnez	a0,80004222 <__swbuf_r+0xc2>
800041ea:	40f2                	lw	ra,28(sp)
800041ec:	4462                	lw	s0,24(sp)
800041ee:	44d2                	lw	s1,20(sp)
800041f0:	49b2                	lw	s3,12(sp)
800041f2:	854a                	mv	a0,s2
800041f4:	4942                	lw	s2,16(sp)
800041f6:	6105                	addi	sp,sp,32
800041f8:	8082                	ret
800041fa:	00003797          	auipc	a5,0x3
800041fe:	dde78793          	addi	a5,a5,-546 # 80006fd8 <__sf_fake_stdout>
80004202:	00f41463          	bne	s0,a5,8000420a <__swbuf_r+0xaa>
80004206:	4480                	lw	s0,8(s1)
80004208:	b749                	j	8000418a <__swbuf_r+0x2a>
8000420a:	00003797          	auipc	a5,0x3
8000420e:	d8e78793          	addi	a5,a5,-626 # 80006f98 <__sf_fake_stderr>
80004212:	f6f41ce3          	bne	s0,a5,8000418a <__swbuf_r+0x2a>
80004216:	44c0                	lw	s0,12(s1)
80004218:	bf8d                	j	8000418a <__swbuf_r+0x2a>
8000421a:	85a2                	mv	a1,s0
8000421c:	8526                	mv	a0,s1
8000421e:	2021                	jal	80004226 <__swsetup_r>
80004220:	dd2d                	beqz	a0,8000419a <__swbuf_r+0x3a>
80004222:	597d                	li	s2,-1
80004224:	b7d9                	j	800041ea <__swbuf_r+0x8a>

80004226 <__swsetup_r>:
__swsetup_r():
80004226:	1141                	addi	sp,sp,-16
80004228:	c422                	sw	s0,8(sp)
8000422a:	c226                	sw	s1,4(sp)
8000422c:	c04a                	sw	s2,0(sp)
8000422e:	c606                	sw	ra,12(sp)
80004230:	8101a483          	lw	s1,-2032(gp) # 900001e8 <_impure_ptr>
80004234:	892a                	mv	s2,a0
80004236:	842e                	mv	s0,a1
80004238:	c491                	beqz	s1,80004244 <__swsetup_r+0x1e>
8000423a:	4c9c                	lw	a5,24(s1)
8000423c:	e781                	bnez	a5,80004244 <__swsetup_r+0x1e>
8000423e:	8526                	mv	a0,s1
80004240:	14a010ef          	jal	ra,8000538a <__sinit>
80004244:	00003797          	auipc	a5,0x3
80004248:	d7478793          	addi	a5,a5,-652 # 80006fb8 <__sf_fake_stdin>
8000424c:	02f41763          	bne	s0,a5,8000427a <__swsetup_r+0x54>
80004250:	40c0                	lw	s0,4(s1)
80004252:	00c41783          	lh	a5,12(s0)
80004256:	01079713          	slli	a4,a5,0x10
8000425a:	0087f693          	andi	a3,a5,8
8000425e:	8341                	srli	a4,a4,0x10
80004260:	eab5                	bnez	a3,800042d4 <__swsetup_r+0xae>
80004262:	01077693          	andi	a3,a4,16
80004266:	ea95                	bnez	a3,8000429a <__swsetup_r+0x74>
80004268:	4725                	li	a4,9
8000426a:	00e92023          	sw	a4,0(s2)
8000426e:	0407e793          	ori	a5,a5,64
80004272:	00f41623          	sh	a5,12(s0)
80004276:	557d                	li	a0,-1
80004278:	a045                	j	80004318 <__swsetup_r+0xf2>
8000427a:	00003797          	auipc	a5,0x3
8000427e:	d5e78793          	addi	a5,a5,-674 # 80006fd8 <__sf_fake_stdout>
80004282:	00f41463          	bne	s0,a5,8000428a <__swsetup_r+0x64>
80004286:	4480                	lw	s0,8(s1)
80004288:	b7e9                	j	80004252 <__swsetup_r+0x2c>
8000428a:	00003797          	auipc	a5,0x3
8000428e:	d0e78793          	addi	a5,a5,-754 # 80006f98 <__sf_fake_stderr>
80004292:	fcf410e3          	bne	s0,a5,80004252 <__swsetup_r+0x2c>
80004296:	44c0                	lw	s0,12(s1)
80004298:	bf6d                	j	80004252 <__swsetup_r+0x2c>
8000429a:	8b11                	andi	a4,a4,4
8000429c:	c715                	beqz	a4,800042c8 <__swsetup_r+0xa2>
8000429e:	584c                	lw	a1,52(s0)
800042a0:	c991                	beqz	a1,800042b4 <__swsetup_r+0x8e>
800042a2:	04440793          	addi	a5,s0,68
800042a6:	00f58563          	beq	a1,a5,800042b0 <__swsetup_r+0x8a>
800042aa:	854a                	mv	a0,s2
800042ac:	5ab010ef          	jal	ra,80006056 <_free_r>
800042b0:	02042a23          	sw	zero,52(s0)
800042b4:	00c45783          	lhu	a5,12(s0)
800042b8:	00042223          	sw	zero,4(s0)
800042bc:	fdb7f793          	andi	a5,a5,-37
800042c0:	00f41623          	sh	a5,12(s0)
800042c4:	481c                	lw	a5,16(s0)
800042c6:	c01c                	sw	a5,0(s0)
800042c8:	00c45783          	lhu	a5,12(s0)
800042cc:	0087e793          	ori	a5,a5,8
800042d0:	00f41623          	sh	a5,12(s0)
800042d4:	481c                	lw	a5,16(s0)
800042d6:	ef89                	bnez	a5,800042f0 <__swsetup_r+0xca>
800042d8:	00c45783          	lhu	a5,12(s0)
800042dc:	20000713          	li	a4,512
800042e0:	2807f793          	andi	a5,a5,640
800042e4:	00e78663          	beq	a5,a4,800042f0 <__swsetup_r+0xca>
800042e8:	85a2                	mv	a1,s0
800042ea:	854a                	mv	a0,s2
800042ec:	26c010ef          	jal	ra,80005558 <__smakebuf_r>
800042f0:	00c41783          	lh	a5,12(s0)
800042f4:	01079713          	slli	a4,a5,0x10
800042f8:	0017f693          	andi	a3,a5,1
800042fc:	8341                	srli	a4,a4,0x10
800042fe:	c29d                	beqz	a3,80004324 <__swsetup_r+0xfe>
80004300:	4854                	lw	a3,20(s0)
80004302:	00042423          	sw	zero,8(s0)
80004306:	40d006b3          	neg	a3,a3
8000430a:	cc14                	sw	a3,24(s0)
8000430c:	4814                	lw	a3,16(s0)
8000430e:	4501                	li	a0,0
80004310:	e681                	bnez	a3,80004318 <__swsetup_r+0xf2>
80004312:	08077713          	andi	a4,a4,128
80004316:	ff21                	bnez	a4,8000426e <__swsetup_r+0x48>
80004318:	40b2                	lw	ra,12(sp)
8000431a:	4422                	lw	s0,8(sp)
8000431c:	4492                	lw	s1,4(sp)
8000431e:	4902                	lw	s2,0(sp)
80004320:	0141                	addi	sp,sp,16
80004322:	8082                	ret
80004324:	00277693          	andi	a3,a4,2
80004328:	4601                	li	a2,0
8000432a:	e291                	bnez	a3,8000432e <__swsetup_r+0x108>
8000432c:	4850                	lw	a2,20(s0)
8000432e:	c410                	sw	a2,8(s0)
80004330:	bff1                	j	8000430c <__swsetup_r+0xe6>

80004332 <__register_exitproc>:
__register_exitproc():
80004332:	88aa                	mv	a7,a0
80004334:	89418513          	addi	a0,gp,-1900 # 9000026c <_global_atexit>
80004338:	411c                	lw	a5,0(a0)
8000433a:	ef81                	bnez	a5,80004352 <__register_exitproc+0x20>
8000433c:	a3818713          	addi	a4,gp,-1480 # 90000410 <_global_atexit0>
80004340:	c118                	sw	a4,0(a0)
80004342:	00000513          	li	a0,0
80004346:	87ba                	mv	a5,a4
80004348:	c509                	beqz	a0,80004352 <__register_exitproc+0x20>
8000434a:	411c                	lw	a5,0(a0)
8000434c:	08f72423          	sw	a5,136(a4)
80004350:	87ba                	mv	a5,a4
80004352:	43d8                	lw	a4,4(a5)
80004354:	487d                	li	a6,31
80004356:	557d                	li	a0,-1
80004358:	04e84663          	blt	a6,a4,800043a4 <__register_exitproc+0x72>
8000435c:	02088d63          	beqz	a7,80004396 <__register_exitproc+0x64>
80004360:	0887a803          	lw	a6,136(a5)
80004364:	04080063          	beqz	a6,800043a4 <__register_exitproc+0x72>
80004368:	00271513          	slli	a0,a4,0x2
8000436c:	9542                	add	a0,a0,a6
8000436e:	c110                	sw	a2,0(a0)
80004370:	10082303          	lw	t1,256(a6)
80004374:	4605                	li	a2,1
80004376:	00e61633          	sll	a2,a2,a4
8000437a:	00c36333          	or	t1,t1,a2
8000437e:	10682023          	sw	t1,256(a6)
80004382:	08d52023          	sw	a3,128(a0)
80004386:	4689                	li	a3,2
80004388:	00d89763          	bne	a7,a3,80004396 <__register_exitproc+0x64>
8000438c:	10482683          	lw	a3,260(a6)
80004390:	8e55                	or	a2,a2,a3
80004392:	10c82223          	sw	a2,260(a6)
80004396:	00170693          	addi	a3,a4,1
8000439a:	070a                	slli	a4,a4,0x2
8000439c:	c3d4                	sw	a3,4(a5)
8000439e:	97ba                	add	a5,a5,a4
800043a0:	c78c                	sw	a1,8(a5)
800043a2:	4501                	li	a0,0
800043a4:	8082                	ret

800043a6 <quorem>:
quorem():
800043a6:	1101                	addi	sp,sp,-32
800043a8:	cc22                	sw	s0,24(sp)
800043aa:	491c                	lw	a5,16(a0)
800043ac:	4980                	lw	s0,16(a1)
800043ae:	ce06                	sw	ra,28(sp)
800043b0:	ca26                	sw	s1,20(sp)
800043b2:	c84a                	sw	s2,16(sp)
800043b4:	c64e                	sw	s3,12(sp)
800043b6:	c452                	sw	s4,8(sp)
800043b8:	c256                	sw	s5,4(sp)
800043ba:	1087ca63          	blt	a5,s0,800044ce <quorem+0x128>
800043be:	147d                	addi	s0,s0,-1
800043c0:	00241613          	slli	a2,s0,0x2
800043c4:	01458a13          	addi	s4,a1,20
800043c8:	00ca0ab3          	add	s5,s4,a2
800043cc:	01450993          	addi	s3,a0,20
800043d0:	000aa783          	lw	a5,0(s5)
800043d4:	964e                	add	a2,a2,s3
800043d6:	4218                	lw	a4,0(a2)
800043d8:	0785                	addi	a5,a5,1
800043da:	892a                	mv	s2,a0
800043dc:	02f754b3          	divu	s1,a4,a5
800043e0:	06f76263          	bltu	a4,a5,80004444 <quorem+0x9e>
800043e4:	6541                	lui	a0,0x10
800043e6:	8852                	mv	a6,s4
800043e8:	88ce                	mv	a7,s3
800043ea:	4301                	li	t1,0
800043ec:	4e01                	li	t3,0
800043ee:	157d                	addi	a0,a0,-1
800043f0:	00082683          	lw	a3,0(a6)
800043f4:	0891                	addi	a7,a7,4
800043f6:	0811                	addi	a6,a6,4
800043f8:	00a6f7b3          	and	a5,a3,a0
800043fc:	82c1                	srli	a3,a3,0x10
800043fe:	029787b3          	mul	a5,a5,s1
80004402:	029686b3          	mul	a3,a3,s1
80004406:	979a                	add	a5,a5,t1
80004408:	0107d713          	srli	a4,a5,0x10
8000440c:	8fe9                	and	a5,a5,a0
8000440e:	40fe07b3          	sub	a5,t3,a5
80004412:	96ba                	add	a3,a3,a4
80004414:	ffc8a703          	lw	a4,-4(a7) # 7ffffc <__stack_size+0x7ff7fc>
80004418:	0106d313          	srli	t1,a3,0x10
8000441c:	8ee9                	and	a3,a3,a0
8000441e:	00a77e33          	and	t3,a4,a0
80004422:	97f2                	add	a5,a5,t3
80004424:	8341                	srli	a4,a4,0x10
80004426:	8f15                	sub	a4,a4,a3
80004428:	4107d693          	srai	a3,a5,0x10
8000442c:	9736                	add	a4,a4,a3
8000442e:	41075e13          	srai	t3,a4,0x10
80004432:	8fe9                	and	a5,a5,a0
80004434:	0742                	slli	a4,a4,0x10
80004436:	8fd9                	or	a5,a5,a4
80004438:	fef8ae23          	sw	a5,-4(a7)
8000443c:	fb0afae3          	bgeu	s5,a6,800043f0 <quorem+0x4a>
80004440:	421c                	lw	a5,0(a2)
80004442:	c7bd                	beqz	a5,800044b0 <quorem+0x10a>
80004444:	854a                	mv	a0,s2
80004446:	15b010ef          	jal	ra,80005da0 <__mcmp>
8000444a:	04054663          	bltz	a0,80004496 <quorem+0xf0>
8000444e:	66c1                	lui	a3,0x10
80004450:	0485                	addi	s1,s1,1
80004452:	864e                	mv	a2,s3
80004454:	4581                	li	a1,0
80004456:	16fd                	addi	a3,a3,-1
80004458:	000a2503          	lw	a0,0(s4)
8000445c:	421c                	lw	a5,0(a2)
8000445e:	0611                	addi	a2,a2,4
80004460:	00d57733          	and	a4,a0,a3
80004464:	8d99                	sub	a1,a1,a4
80004466:	00d7f733          	and	a4,a5,a3
8000446a:	972e                	add	a4,a4,a1
8000446c:	83c1                	srli	a5,a5,0x10
8000446e:	8141                	srli	a0,a0,0x10
80004470:	41075593          	srai	a1,a4,0x10
80004474:	8f89                	sub	a5,a5,a0
80004476:	97ae                	add	a5,a5,a1
80004478:	4107d593          	srai	a1,a5,0x10
8000447c:	8f75                	and	a4,a4,a3
8000447e:	07c2                	slli	a5,a5,0x10
80004480:	8fd9                	or	a5,a5,a4
80004482:	0a11                	addi	s4,s4,4
80004484:	fef62e23          	sw	a5,-4(a2)
80004488:	fd4af8e3          	bgeu	s5,s4,80004458 <quorem+0xb2>
8000448c:	00241793          	slli	a5,s0,0x2
80004490:	97ce                	add	a5,a5,s3
80004492:	4398                	lw	a4,0(a5)
80004494:	c71d                	beqz	a4,800044c2 <quorem+0x11c>
80004496:	8526                	mv	a0,s1
80004498:	40f2                	lw	ra,28(sp)
8000449a:	4462                	lw	s0,24(sp)
8000449c:	44d2                	lw	s1,20(sp)
8000449e:	4942                	lw	s2,16(sp)
800044a0:	49b2                	lw	s3,12(sp)
800044a2:	4a22                	lw	s4,8(sp)
800044a4:	4a92                	lw	s5,4(sp)
800044a6:	6105                	addi	sp,sp,32
800044a8:	8082                	ret
800044aa:	421c                	lw	a5,0(a2)
800044ac:	e789                	bnez	a5,800044b6 <quorem+0x110>
800044ae:	147d                	addi	s0,s0,-1
800044b0:	1671                	addi	a2,a2,-4
800044b2:	fec9ece3          	bltu	s3,a2,800044aa <quorem+0x104>
800044b6:	00892823          	sw	s0,16(s2)
800044ba:	b769                	j	80004444 <quorem+0x9e>
800044bc:	4398                	lw	a4,0(a5)
800044be:	e709                	bnez	a4,800044c8 <quorem+0x122>
800044c0:	147d                	addi	s0,s0,-1
800044c2:	17f1                	addi	a5,a5,-4
800044c4:	fef9ece3          	bltu	s3,a5,800044bc <quorem+0x116>
800044c8:	00892823          	sw	s0,16(s2)
800044cc:	b7e9                	j	80004496 <quorem+0xf0>
800044ce:	4501                	li	a0,0
800044d0:	b7e1                	j	80004498 <quorem+0xf2>

800044d2 <_dtoa_r>:
_dtoa_r():
800044d2:	7135                	addi	sp,sp,-160
800044d4:	dc3e                	sw	a5,56(sp)
800044d6:	515c                	lw	a5,36(a0)
800044d8:	cd22                	sw	s0,152(sp)
800044da:	cb26                	sw	s1,148(sp)
800044dc:	c94a                	sw	s2,144(sp)
800044de:	c74e                	sw	s3,140(sp)
800044e0:	c356                	sw	s5,132(sp)
800044e2:	c15a                	sw	s6,128(sp)
800044e4:	cf06                	sw	ra,156(sp)
800044e6:	c552                	sw	s4,136(sp)
800044e8:	dede                	sw	s7,124(sp)
800044ea:	dce2                	sw	s8,120(sp)
800044ec:	dae6                	sw	s9,116(sp)
800044ee:	d8ea                	sw	s10,112(sp)
800044f0:	d6ee                	sw	s11,108(sp)
800044f2:	ca36                	sw	a3,20(sp)
800044f4:	d03a                	sw	a4,32(sp)
800044f6:	d246                	sw	a7,36(sp)
800044f8:	84aa                	mv	s1,a0
800044fa:	8aae                	mv	s5,a1
800044fc:	8432                	mv	s0,a2
800044fe:	8942                	mv	s2,a6
80004500:	89ae                	mv	s3,a1
80004502:	8b32                	mv	s6,a2
80004504:	eb9d                	bnez	a5,8000453a <_dtoa_r+0x68>
80004506:	4541                	li	a0,16
80004508:	0f0010ef          	jal	ra,800055f8 <malloc>
8000450c:	d0c8                	sw	a0,36(s1)
8000450e:	ed11                	bnez	a0,8000452a <_dtoa_r+0x58>
80004510:	00003697          	auipc	a3,0x3
80004514:	a0868693          	addi	a3,a3,-1528 # 80006f18 <__clz_tab+0x1a4>
80004518:	4601                	li	a2,0
8000451a:	0ea00593          	li	a1,234
8000451e:	00003517          	auipc	a0,0x3
80004522:	a1250513          	addi	a0,a0,-1518 # 80006f30 <__clz_tab+0x1bc>
80004526:	0b6020ef          	jal	ra,800065dc <__assert_func>
8000452a:	00052223          	sw	zero,4(a0)
8000452e:	00052423          	sw	zero,8(a0)
80004532:	00052023          	sw	zero,0(a0)
80004536:	00052623          	sw	zero,12(a0)
8000453a:	50dc                	lw	a5,36(s1)
8000453c:	438c                	lw	a1,0(a5)
8000453e:	cd89                	beqz	a1,80004558 <_dtoa_r+0x86>
80004540:	43d8                	lw	a4,4(a5)
80004542:	4785                	li	a5,1
80004544:	8526                	mv	a0,s1
80004546:	00e797b3          	sll	a5,a5,a4
8000454a:	c59c                	sw	a5,8(a1)
8000454c:	c1d8                	sw	a4,4(a1)
8000454e:	2fe010ef          	jal	ra,8000584c <_Bfree>
80004552:	50dc                	lw	a5,36(s1)
80004554:	0007a023          	sw	zero,0(a5)
80004558:	04045263          	bgez	s0,8000459c <_dtoa_r+0xca>
8000455c:	4785                	li	a5,1
8000455e:	0406                	slli	s0,s0,0x1
80004560:	00f92023          	sw	a5,0(s2)
80004564:	00145b13          	srli	s6,s0,0x1
80004568:	7ff007b7          	lui	a5,0x7ff00
8000456c:	00fb7733          	and	a4,s6,a5
80004570:	06f71463          	bne	a4,a5,800045d8 <_dtoa_r+0x106>
80004574:	5762                	lw	a4,56(sp)
80004576:	6789                	lui	a5,0x2
80004578:	0b32                	slli	s6,s6,0xc
8000457a:	70f78793          	addi	a5,a5,1807 # 270f <__stack_size+0x1f0f>
8000457e:	00cb5b13          	srli	s6,s6,0xc
80004582:	c31c                	sw	a5,0(a4)
80004584:	015b6ab3          	or	s5,s6,s5
80004588:	340a82e3          	beqz	s5,800050cc <_dtoa_r+0xbfa>
8000458c:	5792                	lw	a5,36(sp)
8000458e:	eb91                	bnez	a5,800045a2 <_dtoa_r+0xd0>
80004590:	00003797          	auipc	a5,0x3
80004594:	98478793          	addi	a5,a5,-1660 # 80006f14 <__clz_tab+0x1a0>
80004598:	c63e                	sw	a5,12(sp)
8000459a:	a839                	j	800045b8 <_dtoa_r+0xe6>
8000459c:	00092023          	sw	zero,0(s2)
800045a0:	b7e1                	j	80004568 <_dtoa_r+0x96>
800045a2:	00003797          	auipc	a5,0x3
800045a6:	97278793          	addi	a5,a5,-1678 # 80006f14 <__clz_tab+0x1a0>
800045aa:	c63e                	sw	a5,12(sp)
800045ac:	00003797          	auipc	a5,0x3
800045b0:	96b78793          	addi	a5,a5,-1685 # 80006f17 <__clz_tab+0x1a3>
800045b4:	5712                	lw	a4,36(sp)
800045b6:	c31c                	sw	a5,0(a4)
800045b8:	40fa                	lw	ra,156(sp)
800045ba:	446a                	lw	s0,152(sp)
800045bc:	4532                	lw	a0,12(sp)
800045be:	44da                	lw	s1,148(sp)
800045c0:	494a                	lw	s2,144(sp)
800045c2:	49ba                	lw	s3,140(sp)
800045c4:	4a2a                	lw	s4,136(sp)
800045c6:	4a9a                	lw	s5,132(sp)
800045c8:	4b0a                	lw	s6,128(sp)
800045ca:	5bf6                	lw	s7,124(sp)
800045cc:	5c66                	lw	s8,120(sp)
800045ce:	5cd6                	lw	s9,116(sp)
800045d0:	5d46                	lw	s10,112(sp)
800045d2:	5db6                	lw	s11,108(sp)
800045d4:	610d                	addi	sp,sp,160
800045d6:	8082                	ret
800045d8:	4601                	li	a2,0
800045da:	4681                	li	a3,0
800045dc:	8556                	mv	a0,s5
800045de:	85da                	mv	a1,s6
800045e0:	d656                	sw	s5,44(sp)
800045e2:	d85a                	sw	s6,48(sp)
800045e4:	a73fd0ef          	jal	ra,80002056 <__eqdf2>
800045e8:	e105                	bnez	a0,80004608 <_dtoa_r+0x136>
800045ea:	5762                	lw	a4,56(sp)
800045ec:	4785                	li	a5,1
800045ee:	c31c                	sw	a5,0(a4)
800045f0:	00003797          	auipc	a5,0x3
800045f4:	89478793          	addi	a5,a5,-1900 # 80006e84 <__clz_tab+0x110>
800045f8:	c63e                	sw	a5,12(sp)
800045fa:	5792                	lw	a5,36(sp)
800045fc:	dfd5                	beqz	a5,800045b8 <_dtoa_r+0xe6>
800045fe:	00003797          	auipc	a5,0x3
80004602:	88778793          	addi	a5,a5,-1913 # 80006e85 <__clz_tab+0x111>
80004606:	b77d                	j	800045b4 <_dtoa_r+0xe2>
80004608:	08b8                	addi	a4,sp,88
8000460a:	08f4                	addi	a3,sp,92
8000460c:	865a                	mv	a2,s6
8000460e:	85d6                	mv	a1,s5
80004610:	8526                	mv	a0,s1
80004612:	014b5913          	srli	s2,s6,0x14
80004616:	11d010ef          	jal	ra,80005f32 <__d2b>
8000461a:	7ff97913          	andi	s2,s2,2047
8000461e:	4a66                	lw	s4,88(sp)
80004620:	842a                	mv	s0,a0
80004622:	12090663          	beqz	s2,8000474e <_dtoa_r+0x27c>
80004626:	57c2                	lw	a5,48(sp)
80004628:	5532                	lw	a0,44(sp)
8000462a:	c0190913          	addi	s2,s2,-1023
8000462e:	00c79593          	slli	a1,a5,0xc
80004632:	81b1                	srli	a1,a1,0xc
80004634:	3ff007b7          	lui	a5,0x3ff00
80004638:	8ddd                	or	a1,a1,a5
8000463a:	c082                	sw	zero,64(sp)
8000463c:	0fffc797          	auipc	a5,0xfffc
80004640:	bbc78793          	addi	a5,a5,-1092 # 900001f8 <_impure_ptr+0x10>
80004644:	4390                	lw	a2,0(a5)
80004646:	43d4                	lw	a3,4(a5)
80004648:	f61fd0ef          	jal	ra,800025a8 <__subdf3>
8000464c:	0fffc797          	auipc	a5,0xfffc
80004650:	bb478793          	addi	a5,a5,-1100 # 90000200 <_impure_ptr+0x18>
80004654:	4390                	lw	a2,0(a5)
80004656:	43d4                	lw	a3,4(a5)
80004658:	b0ffd0ef          	jal	ra,80002166 <__muldf3>
8000465c:	0fffc797          	auipc	a5,0xfffc
80004660:	bac78793          	addi	a5,a5,-1108 # 90000208 <_impure_ptr+0x20>
80004664:	4390                	lw	a2,0(a5)
80004666:	43d4                	lw	a3,4(a5)
80004668:	ea5fc0ef          	jal	ra,8000150c <__adddf3>
8000466c:	8baa                	mv	s7,a0
8000466e:	854a                	mv	a0,s2
80004670:	8aae                	mv	s5,a1
80004672:	d8cfe0ef          	jal	ra,80002bfe <__floatsidf>
80004676:	0fffc797          	auipc	a5,0xfffc
8000467a:	b9a78793          	addi	a5,a5,-1126 # 90000210 <_impure_ptr+0x28>
8000467e:	4390                	lw	a2,0(a5)
80004680:	43d4                	lw	a3,4(a5)
80004682:	ae5fd0ef          	jal	ra,80002166 <__muldf3>
80004686:	862a                	mv	a2,a0
80004688:	86ae                	mv	a3,a1
8000468a:	855e                	mv	a0,s7
8000468c:	85d6                	mv	a1,s5
8000468e:	e7ffc0ef          	jal	ra,8000150c <__adddf3>
80004692:	8baa                	mv	s7,a0
80004694:	8aae                	mv	s5,a1
80004696:	21e020ef          	jal	ra,800068b4 <__fixdfsi>
8000469a:	8daa                	mv	s11,a0
8000469c:	4601                	li	a2,0
8000469e:	4681                	li	a3,0
800046a0:	855e                	mv	a0,s7
800046a2:	85d6                	mv	a1,s5
800046a4:	a1dfd0ef          	jal	ra,800020c0 <__ledf2>
800046a8:	00055b63          	bgez	a0,800046be <_dtoa_r+0x1ec>
800046ac:	856e                	mv	a0,s11
800046ae:	d50fe0ef          	jal	ra,80002bfe <__floatsidf>
800046b2:	865e                	mv	a2,s7
800046b4:	86d6                	mv	a3,s5
800046b6:	9a1fd0ef          	jal	ra,80002056 <__eqdf2>
800046ba:	c111                	beqz	a0,800046be <_dtoa_r+0x1ec>
800046bc:	1dfd                	addi	s11,s11,-1
800046be:	4705                	li	a4,1
800046c0:	47d9                	li	a5,22
800046c2:	da3a                	sw	a4,52(sp)
800046c4:	03b7e363          	bltu	a5,s11,800046ea <_dtoa_r+0x218>
800046c8:	003d9713          	slli	a4,s11,0x3
800046cc:	00003797          	auipc	a5,0x3
800046d0:	9ac78793          	addi	a5,a5,-1620 # 80007078 <__mprec_tens>
800046d4:	97ba                	add	a5,a5,a4
800046d6:	4390                	lw	a2,0(a5)
800046d8:	43d4                	lw	a3,4(a5)
800046da:	5532                	lw	a0,44(sp)
800046dc:	55c2                	lw	a1,48(sp)
800046de:	9e3fd0ef          	jal	ra,800020c0 <__ledf2>
800046e2:	00055363          	bgez	a0,800046e8 <_dtoa_r+0x216>
800046e6:	1dfd                	addi	s11,s11,-1
800046e8:	da02                	sw	zero,52(sp)
800046ea:	412a0933          	sub	s2,s4,s2
800046ee:	fff90c13          	addi	s8,s2,-1
800046f2:	4b81                	li	s7,0
800046f4:	000c5663          	bgez	s8,80004700 <_dtoa_r+0x22e>
800046f8:	4b85                	li	s7,1
800046fa:	412b8bb3          	sub	s7,s7,s2
800046fe:	4c01                	li	s8,0
80004700:	080dc863          	bltz	s11,80004790 <_dtoa_r+0x2be>
80004704:	9c6e                	add	s8,s8,s11
80004706:	d46e                	sw	s11,40(sp)
80004708:	4c81                	li	s9,0
8000470a:	4752                	lw	a4,20(sp)
8000470c:	47a5                	li	a5,9
8000470e:	0ee7e563          	bltu	a5,a4,800047f8 <_dtoa_r+0x326>
80004712:	4795                	li	a5,5
80004714:	4905                	li	s2,1
80004716:	00e7d663          	bge	a5,a4,80004722 <_dtoa_r+0x250>
8000471a:	ffc70793          	addi	a5,a4,-4
8000471e:	ca3e                	sw	a5,20(sp)
80004720:	4901                	li	s2,0
80004722:	4752                	lw	a4,20(sp)
80004724:	4791                	li	a5,4
80004726:	06f70b63          	beq	a4,a5,8000479c <_dtoa_r+0x2ca>
8000472a:	4795                	li	a5,5
8000472c:	0af70a63          	beq	a4,a5,800047e0 <_dtoa_r+0x30e>
80004730:	4789                	li	a5,2
80004732:	0af70563          	beq	a4,a5,800047dc <_dtoa_r+0x30a>
80004736:	478d                	li	a5,3
80004738:	ce02                	sw	zero,28(sp)
8000473a:	0af70563          	beq	a4,a5,800047e4 <_dtoa_r+0x312>
8000473e:	4785                	li	a5,1
80004740:	ce3e                	sw	a5,28(sp)
80004742:	57fd                	li	a5,-1
80004744:	c83e                	sw	a5,16(sp)
80004746:	5d7d                	li	s10,-1
80004748:	47c9                	li	a5,18
8000474a:	d002                	sw	zero,32(sp)
8000474c:	a095                	j	800047b0 <_dtoa_r+0x2de>
8000474e:	4976                	lw	s2,92(sp)
80004750:	02000793          	li	a5,32
80004754:	9952                	add	s2,s2,s4
80004756:	43290593          	addi	a1,s2,1074
8000475a:	02b7d663          	bge	a5,a1,80004786 <_dtoa_r+0x2b4>
8000475e:	04000513          	li	a0,64
80004762:	8d0d                	sub	a0,a0,a1
80004764:	41290593          	addi	a1,s2,1042
80004768:	00ab1533          	sll	a0,s6,a0
8000476c:	00badab3          	srl	s5,s5,a1
80004770:	01556533          	or	a0,a0,s5
80004774:	1a4020ef          	jal	ra,80006918 <__floatunsidf>
80004778:	fe1007b7          	lui	a5,0xfe100
8000477c:	95be                	add	a1,a1,a5
8000477e:	4785                	li	a5,1
80004780:	197d                	addi	s2,s2,-1
80004782:	c0be                	sw	a5,64(sp)
80004784:	bd65                	j	8000463c <_dtoa_r+0x16a>
80004786:	40b78533          	sub	a0,a5,a1
8000478a:	00aa9533          	sll	a0,s5,a0
8000478e:	b7dd                	j	80004774 <_dtoa_r+0x2a2>
80004790:	41bb8bb3          	sub	s7,s7,s11
80004794:	41b00cb3          	neg	s9,s11
80004798:	d402                	sw	zero,40(sp)
8000479a:	bf85                	j	8000470a <_dtoa_r+0x238>
8000479c:	4785                	li	a5,1
8000479e:	ce3e                	sw	a5,28(sp)
800047a0:	5782                	lw	a5,32(sp)
800047a2:	04f04e63          	bgtz	a5,800047fe <_dtoa_r+0x32c>
800047a6:	4785                	li	a5,1
800047a8:	4705                	li	a4,1
800047aa:	c83e                	sw	a5,16(sp)
800047ac:	4d05                	li	s10,1
800047ae:	d03a                	sw	a4,32(sp)
800047b0:	50d4                	lw	a3,36(s1)
800047b2:	4711                	li	a4,4
800047b4:	0006a223          	sw	zero,4(a3)
800047b8:	01470613          	addi	a2,a4,20
800047bc:	42cc                	lw	a1,4(a3)
800047be:	04c7f463          	bgeu	a5,a2,80004806 <_dtoa_r+0x334>
800047c2:	8526                	mv	a0,s1
800047c4:	7dd000ef          	jal	ra,800057a0 <_Balloc>
800047c8:	c62a                	sw	a0,12(sp)
800047ca:	e131                	bnez	a0,8000480e <_dtoa_r+0x33c>
800047cc:	00002697          	auipc	a3,0x2
800047d0:	7b868693          	addi	a3,a3,1976 # 80006f84 <__clz_tab+0x210>
800047d4:	4601                	li	a2,0
800047d6:	1aa00593          	li	a1,426
800047da:	b391                	j	8000451e <_dtoa_r+0x4c>
800047dc:	ce02                	sw	zero,28(sp)
800047de:	b7c9                	j	800047a0 <_dtoa_r+0x2ce>
800047e0:	4785                	li	a5,1
800047e2:	ce3e                	sw	a5,28(sp)
800047e4:	5782                	lw	a5,32(sp)
800047e6:	97ee                	add	a5,a5,s11
800047e8:	c83e                	sw	a5,16(sp)
800047ea:	00178d13          	addi	s10,a5,1 # fe100001 <_sp+0x6e0f0001>
800047ee:	87ea                	mv	a5,s10
800047f0:	fda040e3          	bgtz	s10,800047b0 <_dtoa_r+0x2de>
800047f4:	4785                	li	a5,1
800047f6:	bf6d                	j	800047b0 <_dtoa_r+0x2de>
800047f8:	4905                	li	s2,1
800047fa:	ca02                	sw	zero,20(sp)
800047fc:	b789                	j	8000473e <_dtoa_r+0x26c>
800047fe:	5782                	lw	a5,32(sp)
80004800:	c83e                	sw	a5,16(sp)
80004802:	8d3e                	mv	s10,a5
80004804:	b775                	j	800047b0 <_dtoa_r+0x2de>
80004806:	0585                	addi	a1,a1,1
80004808:	c2cc                	sw	a1,4(a3)
8000480a:	0706                	slli	a4,a4,0x1
8000480c:	b775                	j	800047b8 <_dtoa_r+0x2e6>
8000480e:	50dc                	lw	a5,36(s1)
80004810:	4732                	lw	a4,12(sp)
80004812:	c398                	sw	a4,0(a5)
80004814:	47b9                	li	a5,14
80004816:	13a7e863          	bltu	a5,s10,80004946 <_dtoa_r+0x474>
8000481a:	12090663          	beqz	s2,80004946 <_dtoa_r+0x474>
8000481e:	1bb05a63          	blez	s11,800049d2 <_dtoa_r+0x500>
80004822:	00fdf713          	andi	a4,s11,15
80004826:	00371793          	slli	a5,a4,0x3
8000482a:	00003717          	auipc	a4,0x3
8000482e:	84e70713          	addi	a4,a4,-1970 # 80007078 <__mprec_tens>
80004832:	973e                	add	a4,a4,a5
80004834:	404dd913          	srai	s2,s11,0x4
80004838:	431c                	lw	a5,0(a4)
8000483a:	00472a83          	lw	s5,4(a4)
8000483e:	01097713          	andi	a4,s2,16
80004842:	4a09                	li	s4,2
80004844:	c315                	beqz	a4,80004868 <_dtoa_r+0x396>
80004846:	00003717          	auipc	a4,0x3
8000484a:	80a70713          	addi	a4,a4,-2038 # 80007050 <__mprec_bigtens>
8000484e:	5310                	lw	a2,32(a4)
80004850:	5354                	lw	a3,36(a4)
80004852:	5532                	lw	a0,44(sp)
80004854:	55c2                	lw	a1,48(sp)
80004856:	cc3e                	sw	a5,24(sp)
80004858:	00f97913          	andi	s2,s2,15
8000485c:	abafd0ef          	jal	ra,80001b16 <__divdf3>
80004860:	47e2                	lw	a5,24(sp)
80004862:	89aa                	mv	s3,a0
80004864:	8b2e                	mv	s6,a1
80004866:	4a0d                	li	s4,3
80004868:	00002717          	auipc	a4,0x2
8000486c:	7e870713          	addi	a4,a4,2024 # 80007050 <__mprec_bigtens>
80004870:	12091f63          	bnez	s2,800049ae <_dtoa_r+0x4dc>
80004874:	854e                	mv	a0,s3
80004876:	863e                	mv	a2,a5
80004878:	86d6                	mv	a3,s5
8000487a:	85da                	mv	a1,s6
8000487c:	a9afd0ef          	jal	ra,80001b16 <__divdf3>
80004880:	89aa                	mv	s3,a0
80004882:	8b2e                	mv	s6,a1
80004884:	57d2                	lw	a5,52(sp)
80004886:	1a078b63          	beqz	a5,80004a3c <_dtoa_r+0x56a>
8000488a:	0fffc797          	auipc	a5,0xfffc
8000488e:	98e78793          	addi	a5,a5,-1650 # 90000218 <_impure_ptr+0x30>
80004892:	4390                	lw	a2,0(a5)
80004894:	43d4                	lw	a3,4(a5)
80004896:	854e                	mv	a0,s3
80004898:	85da                	mv	a1,s6
8000489a:	827fd0ef          	jal	ra,800020c0 <__ledf2>
8000489e:	18055f63          	bgez	a0,80004a3c <_dtoa_r+0x56a>
800048a2:	1a0d0063          	beqz	s10,80004a42 <_dtoa_r+0x570>
800048a6:	47c2                	lw	a5,16(sp)
800048a8:	08f05d63          	blez	a5,80004942 <_dtoa_r+0x470>
800048ac:	fffd8793          	addi	a5,s11,-1
800048b0:	cc3e                	sw	a5,24(sp)
800048b2:	0fffc797          	auipc	a5,0xfffc
800048b6:	96e78793          	addi	a5,a5,-1682 # 90000220 <_impure_ptr+0x38>
800048ba:	4390                	lw	a2,0(a5)
800048bc:	43d4                	lw	a3,4(a5)
800048be:	854e                	mv	a0,s3
800048c0:	85da                	mv	a1,s6
800048c2:	8a5fd0ef          	jal	ra,80002166 <__muldf3>
800048c6:	4842                	lw	a6,16(sp)
800048c8:	89aa                	mv	s3,a0
800048ca:	8b2e                	mv	s6,a1
800048cc:	0a05                	addi	s4,s4,1
800048ce:	8552                	mv	a0,s4
800048d0:	c4c2                	sw	a6,72(sp)
800048d2:	de5a                	sw	s6,60(sp)
800048d4:	c2ce                	sw	s3,68(sp)
800048d6:	b28fe0ef          	jal	ra,80002bfe <__floatsidf>
800048da:	86da                	mv	a3,s6
800048dc:	864e                	mv	a2,s3
800048de:	889fd0ef          	jal	ra,80002166 <__muldf3>
800048e2:	0fffc697          	auipc	a3,0xfffc
800048e6:	94668693          	addi	a3,a3,-1722 # 90000228 <_impure_ptr+0x40>
800048ea:	4290                	lw	a2,0(a3)
800048ec:	42d4                	lw	a3,4(a3)
800048ee:	895a                	mv	s2,s6
800048f0:	8ace                	mv	s5,s3
800048f2:	c1bfc0ef          	jal	ra,8000150c <__adddf3>
800048f6:	4826                	lw	a6,72(sp)
800048f8:	fcc008b7          	lui	a7,0xfcc00
800048fc:	8b2a                	mv	s6,a0
800048fe:	00b88a33          	add	s4,a7,a1
80004902:	14081363          	bnez	a6,80004a48 <_dtoa_r+0x576>
80004906:	0fffc697          	auipc	a3,0xfffc
8000490a:	92a68693          	addi	a3,a3,-1750 # 90000230 <_impure_ptr+0x48>
8000490e:	4290                	lw	a2,0(a3)
80004910:	42d4                	lw	a3,4(a3)
80004912:	854e                	mv	a0,s3
80004914:	85ca                	mv	a1,s2
80004916:	c93fd0ef          	jal	ra,800025a8 <__subdf3>
8000491a:	865a                	mv	a2,s6
8000491c:	86d2                	mv	a3,s4
8000491e:	89aa                	mv	s3,a0
80004920:	892e                	mv	s2,a1
80004922:	6ed010ef          	jal	ra,8000680e <__gedf2>
80004926:	5aa04b63          	bgtz	a0,80004edc <_dtoa_r+0xa0a>
8000492a:	800007b7          	lui	a5,0x80000
8000492e:	0147c7b3          	xor	a5,a5,s4
80004932:	865a                	mv	a2,s6
80004934:	86be                	mv	a3,a5
80004936:	854e                	mv	a0,s3
80004938:	85ca                	mv	a1,s2
8000493a:	f86fd0ef          	jal	ra,800020c0 <__ledf2>
8000493e:	58054c63          	bltz	a0,80004ed6 <_dtoa_r+0xa04>
80004942:	59b2                	lw	s3,44(sp)
80004944:	5b42                	lw	s6,48(sp)
80004946:	47f6                	lw	a5,92(sp)
80004948:	3607c863          	bltz	a5,80004cb8 <_dtoa_r+0x7e6>
8000494c:	4739                	li	a4,14
8000494e:	37b74563          	blt	a4,s11,80004cb8 <_dtoa_r+0x7e6>
80004952:	003d9713          	slli	a4,s11,0x3
80004956:	00002797          	auipc	a5,0x2
8000495a:	72278793          	addi	a5,a5,1826 # 80007078 <__mprec_tens>
8000495e:	97ba                	add	a5,a5,a4
80004960:	0007aa03          	lw	s4,0(a5)
80004964:	0047aa83          	lw	s5,4(a5)
80004968:	5782                	lw	a5,32(sp)
8000496a:	2607d163          	bgez	a5,80004bcc <_dtoa_r+0x6fa>
8000496e:	25a04f63          	bgtz	s10,80004bcc <_dtoa_r+0x6fa>
80004972:	560d1263          	bnez	s10,80004ed6 <_dtoa_r+0xa04>
80004976:	0fffc797          	auipc	a5,0xfffc
8000497a:	8ba78793          	addi	a5,a5,-1862 # 90000230 <_impure_ptr+0x48>
8000497e:	4390                	lw	a2,0(a5)
80004980:	43d4                	lw	a3,4(a5)
80004982:	8552                	mv	a0,s4
80004984:	85d6                	mv	a1,s5
80004986:	fe0fd0ef          	jal	ra,80002166 <__muldf3>
8000498a:	864e                	mv	a2,s3
8000498c:	86da                	mv	a3,s6
8000498e:	681010ef          	jal	ra,8000680e <__gedf2>
80004992:	4a01                	li	s4,0
80004994:	4901                	li	s2,0
80004996:	50055863          	bgez	a0,80004ea6 <_dtoa_r+0x9d4>
8000499a:	47b2                	lw	a5,12(sp)
8000499c:	4732                	lw	a4,12(sp)
8000499e:	0d85                	addi	s11,s11,1
800049a0:	00178993          	addi	s3,a5,1
800049a4:	03100793          	li	a5,49
800049a8:	00f70023          	sb	a5,0(a4)
800049ac:	a309                	j	80004eae <_dtoa_r+0x9dc>
800049ae:	00197693          	andi	a3,s2,1
800049b2:	ce81                	beqz	a3,800049ca <_dtoa_r+0x4f8>
800049b4:	4310                	lw	a2,0(a4)
800049b6:	4354                	lw	a3,4(a4)
800049b8:	853e                	mv	a0,a5
800049ba:	85d6                	mv	a1,s5
800049bc:	cc3a                	sw	a4,24(sp)
800049be:	fa8fd0ef          	jal	ra,80002166 <__muldf3>
800049c2:	4762                	lw	a4,24(sp)
800049c4:	0a05                	addi	s4,s4,1
800049c6:	87aa                	mv	a5,a0
800049c8:	8aae                	mv	s5,a1
800049ca:	40195913          	srai	s2,s2,0x1
800049ce:	0721                	addi	a4,a4,8
800049d0:	b545                	j	80004870 <_dtoa_r+0x39e>
800049d2:	4a09                	li	s4,2
800049d4:	ea0d88e3          	beqz	s11,80004884 <_dtoa_r+0x3b2>
800049d8:	41b00933          	neg	s2,s11
800049dc:	00f97793          	andi	a5,s2,15
800049e0:	00379713          	slli	a4,a5,0x3
800049e4:	00002797          	auipc	a5,0x2
800049e8:	69478793          	addi	a5,a5,1684 # 80007078 <__mprec_tens>
800049ec:	97ba                	add	a5,a5,a4
800049ee:	4390                	lw	a2,0(a5)
800049f0:	43d4                	lw	a3,4(a5)
800049f2:	5532                	lw	a0,44(sp)
800049f4:	55c2                	lw	a1,48(sp)
800049f6:	40495913          	srai	s2,s2,0x4
800049fa:	00002a97          	auipc	s5,0x2
800049fe:	656a8a93          	addi	s5,s5,1622 # 80007050 <__mprec_bigtens>
80004a02:	f64fd0ef          	jal	ra,80002166 <__muldf3>
80004a06:	87aa                	mv	a5,a0
80004a08:	89aa                	mv	s3,a0
80004a0a:	8b2e                	mv	s6,a1
80004a0c:	4701                	li	a4,0
80004a0e:	00091663          	bnez	s2,80004a1a <_dtoa_r+0x548>
80004a12:	e60709e3          	beqz	a4,80004884 <_dtoa_r+0x3b2>
80004a16:	89be                	mv	s3,a5
80004a18:	b5ad                	j	80004882 <_dtoa_r+0x3b0>
80004a1a:	00197693          	andi	a3,s2,1
80004a1e:	ca99                	beqz	a3,80004a34 <_dtoa_r+0x562>
80004a20:	000aa603          	lw	a2,0(s5)
80004a24:	004aa683          	lw	a3,4(s5)
80004a28:	853e                	mv	a0,a5
80004a2a:	0a05                	addi	s4,s4,1
80004a2c:	f3afd0ef          	jal	ra,80002166 <__muldf3>
80004a30:	87aa                	mv	a5,a0
80004a32:	4705                	li	a4,1
80004a34:	40195913          	srai	s2,s2,0x1
80004a38:	0aa1                	addi	s5,s5,8
80004a3a:	bfd1                	j	80004a0e <_dtoa_r+0x53c>
80004a3c:	cc6e                	sw	s11,24(sp)
80004a3e:	886a                	mv	a6,s10
80004a40:	b579                	j	800048ce <_dtoa_r+0x3fc>
80004a42:	cc6e                	sw	s11,24(sp)
80004a44:	4801                	li	a6,0
80004a46:	b561                	j	800048ce <_dtoa_r+0x3fc>
80004a48:	fff80793          	addi	a5,a6,-1
80004a4c:	00379713          	slli	a4,a5,0x3
80004a50:	00002797          	auipc	a5,0x2
80004a54:	62878793          	addi	a5,a5,1576 # 80007078 <__mprec_tens>
80004a58:	97ba                	add	a5,a5,a4
80004a5a:	4390                	lw	a2,0(a5)
80004a5c:	43d4                	lw	a3,4(a5)
80004a5e:	47b2                	lw	a5,12(sp)
80004a60:	97c2                	add	a5,a5,a6
80004a62:	de3e                	sw	a5,60(sp)
80004a64:	47f2                	lw	a5,28(sp)
80004a66:	cbc5                	beqz	a5,80004b16 <_dtoa_r+0x644>
80004a68:	0fffb797          	auipc	a5,0xfffb
80004a6c:	7d078793          	addi	a5,a5,2000 # 90000238 <_impure_ptr+0x50>
80004a70:	43cc                	lw	a1,4(a5)
80004a72:	c2aa                	sw	a0,68(sp)
80004a74:	4388                	lw	a0,0(a5)
80004a76:	8a0fd0ef          	jal	ra,80001b16 <__divdf3>
80004a7a:	865a                	mv	a2,s6
80004a7c:	86d2                	mv	a3,s4
80004a7e:	b2bfd0ef          	jal	ra,800025a8 <__subdf3>
80004a82:	49b2                	lw	s3,12(sp)
80004a84:	8a2a                	mv	s4,a0
80004a86:	8b2e                	mv	s6,a1
80004a88:	85ca                	mv	a1,s2
80004a8a:	8556                	mv	a0,s5
80004a8c:	629010ef          	jal	ra,800068b4 <__fixdfsi>
80004a90:	c2aa                	sw	a0,68(sp)
80004a92:	96cfe0ef          	jal	ra,80002bfe <__floatsidf>
80004a96:	862a                	mv	a2,a0
80004a98:	86ae                	mv	a3,a1
80004a9a:	8556                	mv	a0,s5
80004a9c:	85ca                	mv	a1,s2
80004a9e:	b0bfd0ef          	jal	ra,800025a8 <__subdf3>
80004aa2:	4796                	lw	a5,68(sp)
80004aa4:	0985                	addi	s3,s3,1
80004aa6:	8652                	mv	a2,s4
80004aa8:	03078793          	addi	a5,a5,48
80004aac:	fef98fa3          	sb	a5,-1(s3)
80004ab0:	86da                	mv	a3,s6
80004ab2:	892a                	mv	s2,a0
80004ab4:	8aae                	mv	s5,a1
80004ab6:	e0afd0ef          	jal	ra,800020c0 <__ledf2>
80004aba:	0e054c63          	bltz	a0,80004bb2 <_dtoa_r+0x6e0>
80004abe:	0fffb797          	auipc	a5,0xfffb
80004ac2:	75a78793          	addi	a5,a5,1882 # 90000218 <_impure_ptr+0x30>
80004ac6:	4388                	lw	a0,0(a5)
80004ac8:	43cc                	lw	a1,4(a5)
80004aca:	864a                	mv	a2,s2
80004acc:	86d6                	mv	a3,s5
80004ace:	adbfd0ef          	jal	ra,800025a8 <__subdf3>
80004ad2:	8652                	mv	a2,s4
80004ad4:	86da                	mv	a3,s6
80004ad6:	deafd0ef          	jal	ra,800020c0 <__ledf2>
80004ada:	18054763          	bltz	a0,80004c68 <_dtoa_r+0x796>
80004ade:	57f2                	lw	a5,60(sp)
80004ae0:	e6f981e3          	beq	s3,a5,80004942 <_dtoa_r+0x470>
80004ae4:	0fffb797          	auipc	a5,0xfffb
80004ae8:	73c78793          	addi	a5,a5,1852 # 90000220 <_impure_ptr+0x38>
80004aec:	4390                	lw	a2,0(a5)
80004aee:	43d4                	lw	a3,4(a5)
80004af0:	8552                	mv	a0,s4
80004af2:	85da                	mv	a1,s6
80004af4:	e72fd0ef          	jal	ra,80002166 <__muldf3>
80004af8:	0fffb797          	auipc	a5,0xfffb
80004afc:	72878793          	addi	a5,a5,1832 # 90000220 <_impure_ptr+0x38>
80004b00:	4390                	lw	a2,0(a5)
80004b02:	43d4                	lw	a3,4(a5)
80004b04:	8a2a                	mv	s4,a0
80004b06:	8b2e                	mv	s6,a1
80004b08:	854a                	mv	a0,s2
80004b0a:	85d6                	mv	a1,s5
80004b0c:	e5afd0ef          	jal	ra,80002166 <__muldf3>
80004b10:	8aaa                	mv	s5,a0
80004b12:	892e                	mv	s2,a1
80004b14:	bf95                	j	80004a88 <_dtoa_r+0x5b6>
80004b16:	85d2                	mv	a1,s4
80004b18:	e4efd0ef          	jal	ra,80002166 <__muldf3>
80004b1c:	57f2                	lw	a5,60(sp)
80004b1e:	49b2                	lw	s3,12(sp)
80004b20:	c4aa                	sw	a0,72(sp)
80004b22:	8b2e                	mv	s6,a1
80004b24:	c2be                	sw	a5,68(sp)
80004b26:	85ca                	mv	a1,s2
80004b28:	8556                	mv	a0,s5
80004b2a:	58b010ef          	jal	ra,800068b4 <__fixdfsi>
80004b2e:	c6aa                	sw	a0,76(sp)
80004b30:	8cefe0ef          	jal	ra,80002bfe <__floatsidf>
80004b34:	862a                	mv	a2,a0
80004b36:	86ae                	mv	a3,a1
80004b38:	8556                	mv	a0,s5
80004b3a:	85ca                	mv	a1,s2
80004b3c:	a6dfd0ef          	jal	ra,800025a8 <__subdf3>
80004b40:	47b6                	lw	a5,76(sp)
80004b42:	0985                	addi	s3,s3,1
80004b44:	8a2a                	mv	s4,a0
80004b46:	03078793          	addi	a5,a5,48
80004b4a:	fef98fa3          	sb	a5,-1(s3)
80004b4e:	57f2                	lw	a5,60(sp)
80004b50:	892e                	mv	s2,a1
80004b52:	06f99263          	bne	s3,a5,80004bb6 <_dtoa_r+0x6e4>
80004b56:	0fffba97          	auipc	s5,0xfffb
80004b5a:	6e2a8a93          	addi	s5,s5,1762 # 90000238 <_impure_ptr+0x50>
80004b5e:	000aa603          	lw	a2,0(s5)
80004b62:	004aa683          	lw	a3,4(s5)
80004b66:	4526                	lw	a0,72(sp)
80004b68:	85da                	mv	a1,s6
80004b6a:	9a3fc0ef          	jal	ra,8000150c <__adddf3>
80004b6e:	862a                	mv	a2,a0
80004b70:	86ae                	mv	a3,a1
80004b72:	8552                	mv	a0,s4
80004b74:	85ca                	mv	a1,s2
80004b76:	499010ef          	jal	ra,8000680e <__gedf2>
80004b7a:	0ea04763          	bgtz	a0,80004c68 <_dtoa_r+0x796>
80004b7e:	4626                	lw	a2,72(sp)
80004b80:	000aa503          	lw	a0,0(s5)
80004b84:	004aa583          	lw	a1,4(s5)
80004b88:	86da                	mv	a3,s6
80004b8a:	a1ffd0ef          	jal	ra,800025a8 <__subdf3>
80004b8e:	862a                	mv	a2,a0
80004b90:	86ae                	mv	a3,a1
80004b92:	8552                	mv	a0,s4
80004b94:	85ca                	mv	a1,s2
80004b96:	d2afd0ef          	jal	ra,800020c0 <__ledf2>
80004b9a:	da0554e3          	bgez	a0,80004942 <_dtoa_r+0x470>
80004b9e:	03000793          	li	a5,48
80004ba2:	4996                	lw	s3,68(sp)
80004ba4:	fff98713          	addi	a4,s3,-1
80004ba8:	c2ba                	sw	a4,68(sp)
80004baa:	fff9c703          	lbu	a4,-1(s3)
80004bae:	fef70ae3          	beq	a4,a5,80004ba2 <_dtoa_r+0x6d0>
80004bb2:	4de2                	lw	s11,24(sp)
80004bb4:	a849                	j	80004c46 <_dtoa_r+0x774>
80004bb6:	0fffb797          	auipc	a5,0xfffb
80004bba:	66a78793          	addi	a5,a5,1642 # 90000220 <_impure_ptr+0x38>
80004bbe:	4390                	lw	a2,0(a5)
80004bc0:	43d4                	lw	a3,4(a5)
80004bc2:	da4fd0ef          	jal	ra,80002166 <__muldf3>
80004bc6:	8aaa                	mv	s5,a0
80004bc8:	892e                	mv	s2,a1
80004bca:	bfb1                	j	80004b26 <_dtoa_r+0x654>
80004bcc:	47b2                	lw	a5,12(sp)
80004bce:	8c5a                	mv	s8,s6
80004bd0:	8cce                	mv	s9,s3
80004bd2:	00178b13          	addi	s6,a5,1
80004bd6:	9d3e                	add	s10,s10,a5
80004bd8:	0fffbb97          	auipc	s7,0xfffb
80004bdc:	648b8b93          	addi	s7,s7,1608 # 90000220 <_impure_ptr+0x38>
80004be0:	8652                	mv	a2,s4
80004be2:	86d6                	mv	a3,s5
80004be4:	8566                	mv	a0,s9
80004be6:	85e2                	mv	a1,s8
80004be8:	f2ffc0ef          	jal	ra,80001b16 <__divdf3>
80004bec:	4c9010ef          	jal	ra,800068b4 <__fixdfsi>
80004bf0:	892a                	mv	s2,a0
80004bf2:	80cfe0ef          	jal	ra,80002bfe <__floatsidf>
80004bf6:	8652                	mv	a2,s4
80004bf8:	86d6                	mv	a3,s5
80004bfa:	d6cfd0ef          	jal	ra,80002166 <__muldf3>
80004bfe:	86ae                	mv	a3,a1
80004c00:	862a                	mv	a2,a0
80004c02:	85e2                	mv	a1,s8
80004c04:	8566                	mv	a0,s9
80004c06:	9a3fd0ef          	jal	ra,800025a8 <__subdf3>
80004c0a:	03090693          	addi	a3,s2,48
80004c0e:	fedb0fa3          	sb	a3,-1(s6)
80004c12:	89da                	mv	s3,s6
80004c14:	096d1363          	bne	s10,s6,80004c9a <_dtoa_r+0x7c8>
80004c18:	862a                	mv	a2,a0
80004c1a:	86ae                	mv	a3,a1
80004c1c:	8f1fc0ef          	jal	ra,8000150c <__adddf3>
80004c20:	8652                	mv	a2,s4
80004c22:	86d6                	mv	a3,s5
80004c24:	8baa                	mv	s7,a0
80004c26:	8b2e                	mv	s6,a1
80004c28:	3e7010ef          	jal	ra,8000680e <__gedf2>
80004c2c:	02a04d63          	bgtz	a0,80004c66 <_dtoa_r+0x794>
80004c30:	8652                	mv	a2,s4
80004c32:	86d6                	mv	a3,s5
80004c34:	855e                	mv	a0,s7
80004c36:	85da                	mv	a1,s6
80004c38:	c1efd0ef          	jal	ra,80002056 <__eqdf2>
80004c3c:	e509                	bnez	a0,80004c46 <_dtoa_r+0x774>
80004c3e:	00197913          	andi	s2,s2,1
80004c42:	02091263          	bnez	s2,80004c66 <_dtoa_r+0x794>
80004c46:	8526                	mv	a0,s1
80004c48:	85a2                	mv	a1,s0
80004c4a:	403000ef          	jal	ra,8000584c <_Bfree>
80004c4e:	57e2                	lw	a5,56(sp)
80004c50:	00098023          	sb	zero,0(s3)
80004c54:	001d8513          	addi	a0,s11,1
80004c58:	c388                	sw	a0,0(a5)
80004c5a:	5792                	lw	a5,36(sp)
80004c5c:	94078ee3          	beqz	a5,800045b8 <_dtoa_r+0xe6>
80004c60:	0137a023          	sw	s3,0(a5)
80004c64:	ba91                	j	800045b8 <_dtoa_r+0xe6>
80004c66:	cc6e                	sw	s11,24(sp)
80004c68:	87ce                	mv	a5,s3
80004c6a:	03900713          	li	a4,57
80004c6e:	89be                	mv	s3,a5
80004c70:	fff7c683          	lbu	a3,-1(a5)
80004c74:	17fd                	addi	a5,a5,-1
80004c76:	00e69c63          	bne	a3,a4,80004c8e <_dtoa_r+0x7bc>
80004c7a:	46b2                	lw	a3,12(sp)
80004c7c:	fef699e3          	bne	a3,a5,80004c6e <_dtoa_r+0x79c>
80004c80:	4762                	lw	a4,24(sp)
80004c82:	0705                	addi	a4,a4,1
80004c84:	cc3a                	sw	a4,24(sp)
80004c86:	03000713          	li	a4,48
80004c8a:	00e68023          	sb	a4,0(a3)
80004c8e:	0007c703          	lbu	a4,0(a5)
80004c92:	0705                	addi	a4,a4,1
80004c94:	00e78023          	sb	a4,0(a5)
80004c98:	bf29                	j	80004bb2 <_dtoa_r+0x6e0>
80004c9a:	000ba603          	lw	a2,0(s7)
80004c9e:	004ba683          	lw	a3,4(s7)
80004ca2:	0b05                	addi	s6,s6,1
80004ca4:	cc2fd0ef          	jal	ra,80002166 <__muldf3>
80004ca8:	4601                	li	a2,0
80004caa:	4681                	li	a3,0
80004cac:	8caa                	mv	s9,a0
80004cae:	8c2e                	mv	s8,a1
80004cb0:	ba6fd0ef          	jal	ra,80002056 <__eqdf2>
80004cb4:	f515                	bnez	a0,80004be0 <_dtoa_r+0x70e>
80004cb6:	bf41                	j	80004c46 <_dtoa_r+0x774>
80004cb8:	4772                	lw	a4,28(sp)
80004cba:	10070063          	beqz	a4,80004dba <_dtoa_r+0x8e8>
80004cbe:	46d2                	lw	a3,20(sp)
80004cc0:	4705                	li	a4,1
80004cc2:	0cd74563          	blt	a4,a3,80004d8c <_dtoa_r+0x8ba>
80004cc6:	4706                	lw	a4,64(sp)
80004cc8:	43378793          	addi	a5,a5,1075
80004ccc:	e709                	bnez	a4,80004cd6 <_dtoa_r+0x804>
80004cce:	4766                	lw	a4,88(sp)
80004cd0:	03600793          	li	a5,54
80004cd4:	8f99                	sub	a5,a5,a4
80004cd6:	8a66                	mv	s4,s9
80004cd8:	8ade                	mv	s5,s7
80004cda:	4585                	li	a1,1
80004cdc:	8526                	mv	a0,s1
80004cde:	9bbe                	add	s7,s7,a5
80004ce0:	9c3e                	add	s8,s8,a5
80004ce2:	535000ef          	jal	ra,80005a16 <__i2b>
80004ce6:	892a                	mv	s2,a0
80004ce8:	01505e63          	blez	s5,80004d04 <_dtoa_r+0x832>
80004cec:	01805c63          	blez	s8,80004d04 <_dtoa_r+0x832>
80004cf0:	87d6                	mv	a5,s5
80004cf2:	015c5363          	bge	s8,s5,80004cf8 <_dtoa_r+0x826>
80004cf6:	87e2                	mv	a5,s8
80004cf8:	40fb8bb3          	sub	s7,s7,a5
80004cfc:	40fa8ab3          	sub	s5,s5,a5
80004d00:	40fc0c33          	sub	s8,s8,a5
80004d04:	040c8163          	beqz	s9,80004d46 <_dtoa_r+0x874>
80004d08:	47f2                	lw	a5,28(sp)
80004d0a:	cfc5                	beqz	a5,80004dc2 <_dtoa_r+0x8f0>
80004d0c:	03405463          	blez	s4,80004d34 <_dtoa_r+0x862>
80004d10:	85ca                	mv	a1,s2
80004d12:	8652                	mv	a2,s4
80004d14:	8526                	mv	a0,s1
80004d16:	6b5000ef          	jal	ra,80005bca <__pow5mult>
80004d1a:	8622                	mv	a2,s0
80004d1c:	85aa                	mv	a1,a0
80004d1e:	892a                	mv	s2,a0
80004d20:	8526                	mv	a0,s1
80004d22:	52b000ef          	jal	ra,80005a4c <__multiply>
80004d26:	cc2a                	sw	a0,24(sp)
80004d28:	85a2                	mv	a1,s0
80004d2a:	8526                	mv	a0,s1
80004d2c:	321000ef          	jal	ra,8000584c <_Bfree>
80004d30:	47e2                	lw	a5,24(sp)
80004d32:	843e                	mv	s0,a5
80004d34:	414c8633          	sub	a2,s9,s4
80004d38:	014c8763          	beq	s9,s4,80004d46 <_dtoa_r+0x874>
80004d3c:	85a2                	mv	a1,s0
80004d3e:	8526                	mv	a0,s1
80004d40:	68b000ef          	jal	ra,80005bca <__pow5mult>
80004d44:	842a                	mv	s0,a0
80004d46:	4585                	li	a1,1
80004d48:	8526                	mv	a0,s1
80004d4a:	4cd000ef          	jal	ra,80005a16 <__i2b>
80004d4e:	57a2                	lw	a5,40(sp)
80004d50:	8a2a                	mv	s4,a0
80004d52:	06f05a63          	blez	a5,80004dc6 <_dtoa_r+0x8f4>
80004d56:	863e                	mv	a2,a5
80004d58:	85aa                	mv	a1,a0
80004d5a:	8526                	mv	a0,s1
80004d5c:	66f000ef          	jal	ra,80005bca <__pow5mult>
80004d60:	4752                	lw	a4,20(sp)
80004d62:	4785                	li	a5,1
80004d64:	8a2a                	mv	s4,a0
80004d66:	4c81                	li	s9,0
80004d68:	06e7c763          	blt	a5,a4,80004dd6 <_dtoa_r+0x904>
80004d6c:	4c81                	li	s9,0
80004d6e:	06099163          	bnez	s3,80004dd0 <_dtoa_r+0x8fe>
80004d72:	00cb1793          	slli	a5,s6,0xc
80004d76:	efa9                	bnez	a5,80004dd0 <_dtoa_r+0x8fe>
80004d78:	7ff005b7          	lui	a1,0x7ff00
80004d7c:	00bb7b33          	and	s6,s6,a1
80004d80:	040b0863          	beqz	s6,80004dd0 <_dtoa_r+0x8fe>
80004d84:	0b85                	addi	s7,s7,1
80004d86:	0c05                	addi	s8,s8,1
80004d88:	4c85                	li	s9,1
80004d8a:	a099                	j	80004dd0 <_dtoa_r+0x8fe>
80004d8c:	fffd0a13          	addi	s4,s10,-1
80004d90:	014cca63          	blt	s9,s4,80004da4 <_dtoa_r+0x8d2>
80004d94:	414c8a33          	sub	s4,s9,s4
80004d98:	000d5e63          	bgez	s10,80004db4 <_dtoa_r+0x8e2>
80004d9c:	41ab8ab3          	sub	s5,s7,s10
80004da0:	4781                	li	a5,0
80004da2:	bf25                	j	80004cda <_dtoa_r+0x808>
80004da4:	57a2                	lw	a5,40(sp)
80004da6:	419a0cb3          	sub	s9,s4,s9
80004daa:	97e6                	add	a5,a5,s9
80004dac:	d43e                	sw	a5,40(sp)
80004dae:	8cd2                	mv	s9,s4
80004db0:	4a01                	li	s4,0
80004db2:	b7dd                	j	80004d98 <_dtoa_r+0x8c6>
80004db4:	8ade                	mv	s5,s7
80004db6:	87ea                	mv	a5,s10
80004db8:	b70d                	j	80004cda <_dtoa_r+0x808>
80004dba:	8a66                	mv	s4,s9
80004dbc:	8ade                	mv	s5,s7
80004dbe:	4901                	li	s2,0
80004dc0:	b725                	j	80004ce8 <_dtoa_r+0x816>
80004dc2:	8666                	mv	a2,s9
80004dc4:	bfa5                	j	80004d3c <_dtoa_r+0x86a>
80004dc6:	4752                	lw	a4,20(sp)
80004dc8:	4785                	li	a5,1
80004dca:	4c81                	li	s9,0
80004dcc:	fae7d0e3          	bge	a5,a4,80004d6c <_dtoa_r+0x89a>
80004dd0:	57a2                	lw	a5,40(sp)
80004dd2:	4505                	li	a0,1
80004dd4:	cf89                	beqz	a5,80004dee <_dtoa_r+0x91c>
80004dd6:	010a2783          	lw	a5,16(s4)
80004dda:	078d                	addi	a5,a5,3
80004ddc:	078a                	slli	a5,a5,0x2
80004dde:	97d2                	add	a5,a5,s4
80004de0:	43c8                	lw	a0,4(a5)
80004de2:	385000ef          	jal	ra,80005966 <__hi0bits>
80004de6:	02000793          	li	a5,32
80004dea:	40a78533          	sub	a0,a5,a0
80004dee:	9562                	add	a0,a0,s8
80004df0:	897d                	andi	a0,a0,31
80004df2:	c151                	beqz	a0,80004e76 <_dtoa_r+0x9a4>
80004df4:	02000793          	li	a5,32
80004df8:	8f89                	sub	a5,a5,a0
80004dfa:	4711                	li	a4,4
80004dfc:	06f75a63          	bge	a4,a5,80004e70 <_dtoa_r+0x99e>
80004e00:	47f1                	li	a5,28
80004e02:	40a78533          	sub	a0,a5,a0
80004e06:	9baa                	add	s7,s7,a0
80004e08:	9aaa                	add	s5,s5,a0
80004e0a:	9c2a                	add	s8,s8,a0
80004e0c:	01705863          	blez	s7,80004e1c <_dtoa_r+0x94a>
80004e10:	85a2                	mv	a1,s0
80004e12:	865e                	mv	a2,s7
80004e14:	8526                	mv	a0,s1
80004e16:	687000ef          	jal	ra,80005c9c <__lshift>
80004e1a:	842a                	mv	s0,a0
80004e1c:	01805863          	blez	s8,80004e2c <_dtoa_r+0x95a>
80004e20:	85d2                	mv	a1,s4
80004e22:	8662                	mv	a2,s8
80004e24:	8526                	mv	a0,s1
80004e26:	677000ef          	jal	ra,80005c9c <__lshift>
80004e2a:	8a2a                	mv	s4,a0
80004e2c:	57d2                	lw	a5,52(sp)
80004e2e:	c7b1                	beqz	a5,80004e7a <_dtoa_r+0x9a8>
80004e30:	85d2                	mv	a1,s4
80004e32:	8522                	mv	a0,s0
80004e34:	76d000ef          	jal	ra,80005da0 <__mcmp>
80004e38:	04055163          	bgez	a0,80004e7a <_dtoa_r+0x9a8>
80004e3c:	85a2                	mv	a1,s0
80004e3e:	4681                	li	a3,0
80004e40:	4629                	li	a2,10
80004e42:	8526                	mv	a0,s1
80004e44:	269000ef          	jal	ra,800058ac <__multadd>
80004e48:	47f2                	lw	a5,28(sp)
80004e4a:	1dfd                	addi	s11,s11,-1
80004e4c:	842a                	mv	s0,a0
80004e4e:	28078d63          	beqz	a5,800050e8 <_dtoa_r+0xc16>
80004e52:	85ca                	mv	a1,s2
80004e54:	4681                	li	a3,0
80004e56:	4629                	li	a2,10
80004e58:	8526                	mv	a0,s1
80004e5a:	253000ef          	jal	ra,800058ac <__multadd>
80004e5e:	47c2                	lw	a5,16(sp)
80004e60:	892a                	mv	s2,a0
80004e62:	08f04563          	bgtz	a5,80004eec <_dtoa_r+0xa1a>
80004e66:	4752                	lw	a4,20(sp)
80004e68:	4789                	li	a5,2
80004e6a:	00e7cf63          	blt	a5,a4,80004e88 <_dtoa_r+0x9b6>
80004e6e:	a8bd                	j	80004eec <_dtoa_r+0xa1a>
80004e70:	f8e78ee3          	beq	a5,a4,80004e0c <_dtoa_r+0x93a>
80004e74:	853e                	mv	a0,a5
80004e76:	0571                	addi	a0,a0,28
80004e78:	b779                	j	80004e06 <_dtoa_r+0x934>
80004e7a:	07a04563          	bgtz	s10,80004ee4 <_dtoa_r+0xa12>
80004e7e:	4752                	lw	a4,20(sp)
80004e80:	4789                	li	a5,2
80004e82:	06e7d163          	bge	a5,a4,80004ee4 <_dtoa_r+0xa12>
80004e86:	c86a                	sw	s10,16(sp)
80004e88:	47c2                	lw	a5,16(sp)
80004e8a:	ef91                	bnez	a5,80004ea6 <_dtoa_r+0x9d4>
80004e8c:	85d2                	mv	a1,s4
80004e8e:	4681                	li	a3,0
80004e90:	4615                	li	a2,5
80004e92:	8526                	mv	a0,s1
80004e94:	219000ef          	jal	ra,800058ac <__multadd>
80004e98:	8a2a                	mv	s4,a0
80004e9a:	85aa                	mv	a1,a0
80004e9c:	8522                	mv	a0,s0
80004e9e:	703000ef          	jal	ra,80005da0 <__mcmp>
80004ea2:	aea04ce3          	bgtz	a0,8000499a <_dtoa_r+0x4c8>
80004ea6:	5782                	lw	a5,32(sp)
80004ea8:	49b2                	lw	s3,12(sp)
80004eaa:	fff7cd93          	not	s11,a5
80004eae:	4b01                	li	s6,0
80004eb0:	85d2                	mv	a1,s4
80004eb2:	8526                	mv	a0,s1
80004eb4:	199000ef          	jal	ra,8000584c <_Bfree>
80004eb8:	d80907e3          	beqz	s2,80004c46 <_dtoa_r+0x774>
80004ebc:	000b0863          	beqz	s6,80004ecc <_dtoa_r+0x9fa>
80004ec0:	012b0663          	beq	s6,s2,80004ecc <_dtoa_r+0x9fa>
80004ec4:	85da                	mv	a1,s6
80004ec6:	8526                	mv	a0,s1
80004ec8:	185000ef          	jal	ra,8000584c <_Bfree>
80004ecc:	85ca                	mv	a1,s2
80004ece:	8526                	mv	a0,s1
80004ed0:	17d000ef          	jal	ra,8000584c <_Bfree>
80004ed4:	bb8d                	j	80004c46 <_dtoa_r+0x774>
80004ed6:	4a01                	li	s4,0
80004ed8:	4901                	li	s2,0
80004eda:	b7f1                	j	80004ea6 <_dtoa_r+0x9d4>
80004edc:	4de2                	lw	s11,24(sp)
80004ede:	4a01                	li	s4,0
80004ee0:	4901                	li	s2,0
80004ee2:	bc65                	j	8000499a <_dtoa_r+0x4c8>
80004ee4:	47f2                	lw	a5,28(sp)
80004ee6:	c86a                	sw	s10,16(sp)
80004ee8:	20078763          	beqz	a5,800050f6 <_dtoa_r+0xc24>
80004eec:	01505863          	blez	s5,80004efc <_dtoa_r+0xa2a>
80004ef0:	85ca                	mv	a1,s2
80004ef2:	8656                	mv	a2,s5
80004ef4:	8526                	mv	a0,s1
80004ef6:	5a7000ef          	jal	ra,80005c9c <__lshift>
80004efa:	892a                	mv	s2,a0
80004efc:	854a                	mv	a0,s2
80004efe:	040c8063          	beqz	s9,80004f3e <_dtoa_r+0xa6c>
80004f02:	00492583          	lw	a1,4(s2)
80004f06:	8526                	mv	a0,s1
80004f08:	099000ef          	jal	ra,800057a0 <_Balloc>
80004f0c:	8aaa                	mv	s5,a0
80004f0e:	e911                	bnez	a0,80004f22 <_dtoa_r+0xa50>
80004f10:	00002697          	auipc	a3,0x2
80004f14:	07468693          	addi	a3,a3,116 # 80006f84 <__clz_tab+0x210>
80004f18:	4601                	li	a2,0
80004f1a:	2ea00593          	li	a1,746
80004f1e:	e00ff06f          	j	8000451e <_dtoa_r+0x4c>
80004f22:	01092603          	lw	a2,16(s2)
80004f26:	00c90593          	addi	a1,s2,12
80004f2a:	0531                	addi	a0,a0,12
80004f2c:	0609                	addi	a2,a2,2
80004f2e:	060a                	slli	a2,a2,0x2
80004f30:	6ec000ef          	jal	ra,8000561c <memcpy>
80004f34:	4605                	li	a2,1
80004f36:	85d6                	mv	a1,s5
80004f38:	8526                	mv	a0,s1
80004f3a:	563000ef          	jal	ra,80005c9c <__lshift>
80004f3e:	47b2                	lw	a5,12(sp)
80004f40:	4742                	lw	a4,16(sp)
80004f42:	8b4a                	mv	s6,s2
80004f44:	00178c13          	addi	s8,a5,1
80004f48:	97ba                	add	a5,a5,a4
80004f4a:	cc3e                	sw	a5,24(sp)
80004f4c:	0019f793          	andi	a5,s3,1
80004f50:	892a                	mv	s2,a0
80004f52:	c83e                	sw	a5,16(sp)
80004f54:	85d2                	mv	a1,s4
80004f56:	8522                	mv	a0,s0
80004f58:	c4eff0ef          	jal	ra,800043a6 <quorem>
80004f5c:	85da                	mv	a1,s6
80004f5e:	8caa                	mv	s9,a0
80004f60:	03050a93          	addi	s5,a0,48
80004f64:	8522                	mv	a0,s0
80004f66:	63b000ef          	jal	ra,80005da0 <__mcmp>
80004f6a:	85d2                	mv	a1,s4
80004f6c:	8baa                	mv	s7,a0
80004f6e:	864a                	mv	a2,s2
80004f70:	8526                	mv	a0,s1
80004f72:	665000ef          	jal	ra,80005dd6 <__mdiff>
80004f76:	4554                	lw	a3,12(a0)
80004f78:	fffc0d13          	addi	s10,s8,-1
80004f7c:	85aa                	mv	a1,a0
80004f7e:	4705                	li	a4,1
80004f80:	e699                	bnez	a3,80004f8e <_dtoa_r+0xabc>
80004f82:	ce2a                	sw	a0,28(sp)
80004f84:	8522                	mv	a0,s0
80004f86:	61b000ef          	jal	ra,80005da0 <__mcmp>
80004f8a:	45f2                	lw	a1,28(sp)
80004f8c:	872a                	mv	a4,a0
80004f8e:	8526                	mv	a0,s1
80004f90:	ce3a                	sw	a4,28(sp)
80004f92:	0bb000ef          	jal	ra,8000584c <_Bfree>
80004f96:	47d2                	lw	a5,20(sp)
80004f98:	4772                	lw	a4,28(sp)
80004f9a:	89e2                	mv	s3,s8
80004f9c:	00e7e6b3          	or	a3,a5,a4
80004fa0:	47c2                	lw	a5,16(sp)
80004fa2:	8edd                	or	a3,a3,a5
80004fa4:	ee81                	bnez	a3,80004fbc <_dtoa_r+0xaea>
80004fa6:	03900713          	li	a4,57
80004faa:	04ea8863          	beq	s5,a4,80004ffa <_dtoa_r+0xb28>
80004fae:	01705463          	blez	s7,80004fb6 <_dtoa_r+0xae4>
80004fb2:	031c8a93          	addi	s5,s9,49
80004fb6:	015d0023          	sb	s5,0(s10)
80004fba:	bddd                	j	80004eb0 <_dtoa_r+0x9de>
80004fbc:	000bca63          	bltz	s7,80004fd0 <_dtoa_r+0xafe>
80004fc0:	47d2                	lw	a5,20(sp)
80004fc2:	0177ebb3          	or	s7,a5,s7
80004fc6:	47c2                	lw	a5,16(sp)
80004fc8:	00fbebb3          	or	s7,s7,a5
80004fcc:	040b9863          	bnez	s7,8000501c <_dtoa_r+0xb4a>
80004fd0:	fee053e3          	blez	a4,80004fb6 <_dtoa_r+0xae4>
80004fd4:	85a2                	mv	a1,s0
80004fd6:	4605                	li	a2,1
80004fd8:	8526                	mv	a0,s1
80004fda:	4c3000ef          	jal	ra,80005c9c <__lshift>
80004fde:	85d2                	mv	a1,s4
80004fe0:	842a                	mv	s0,a0
80004fe2:	5bf000ef          	jal	ra,80005da0 <__mcmp>
80004fe6:	00a04663          	bgtz	a0,80004ff2 <_dtoa_r+0xb20>
80004fea:	f571                	bnez	a0,80004fb6 <_dtoa_r+0xae4>
80004fec:	001af713          	andi	a4,s5,1
80004ff0:	d379                	beqz	a4,80004fb6 <_dtoa_r+0xae4>
80004ff2:	03900713          	li	a4,57
80004ff6:	faea9ee3          	bne	s5,a4,80004fb2 <_dtoa_r+0xae0>
80004ffa:	03900793          	li	a5,57
80004ffe:	00fd0023          	sb	a5,0(s10)
80005002:	87ce                	mv	a5,s3
80005004:	03900693          	li	a3,57
80005008:	89be                	mv	s3,a5
8000500a:	fff9c703          	lbu	a4,-1(s3)
8000500e:	17fd                	addi	a5,a5,-1
80005010:	0ad70563          	beq	a4,a3,800050ba <_dtoa_r+0xbe8>
80005014:	0705                	addi	a4,a4,1
80005016:	00e78023          	sb	a4,0(a5)
8000501a:	bd59                	j	80004eb0 <_dtoa_r+0x9de>
8000501c:	00e05b63          	blez	a4,80005032 <_dtoa_r+0xb60>
80005020:	03900713          	li	a4,57
80005024:	fcea8be3          	beq	s5,a4,80004ffa <_dtoa_r+0xb28>
80005028:	001a8793          	addi	a5,s5,1
8000502c:	00fd0023          	sb	a5,0(s10)
80005030:	b541                	j	80004eb0 <_dtoa_r+0x9de>
80005032:	47e2                	lw	a5,24(sp)
80005034:	ff5c0fa3          	sb	s5,-1(s8)
80005038:	05878863          	beq	a5,s8,80005088 <_dtoa_r+0xbb6>
8000503c:	85a2                	mv	a1,s0
8000503e:	4681                	li	a3,0
80005040:	4629                	li	a2,10
80005042:	8526                	mv	a0,s1
80005044:	069000ef          	jal	ra,800058ac <__multadd>
80005048:	842a                	mv	s0,a0
8000504a:	4681                	li	a3,0
8000504c:	4629                	li	a2,10
8000504e:	85da                	mv	a1,s6
80005050:	8526                	mv	a0,s1
80005052:	012b1863          	bne	s6,s2,80005062 <_dtoa_r+0xb90>
80005056:	057000ef          	jal	ra,800058ac <__multadd>
8000505a:	8b2a                	mv	s6,a0
8000505c:	892a                	mv	s2,a0
8000505e:	0c05                	addi	s8,s8,1
80005060:	bdd5                	j	80004f54 <_dtoa_r+0xa82>
80005062:	04b000ef          	jal	ra,800058ac <__multadd>
80005066:	85ca                	mv	a1,s2
80005068:	8b2a                	mv	s6,a0
8000506a:	4681                	li	a3,0
8000506c:	4629                	li	a2,10
8000506e:	8526                	mv	a0,s1
80005070:	03d000ef          	jal	ra,800058ac <__multadd>
80005074:	892a                	mv	s2,a0
80005076:	b7e5                	j	8000505e <_dtoa_r+0xb8c>
80005078:	47c2                	lw	a5,16(sp)
8000507a:	4985                	li	s3,1
8000507c:	00f05363          	blez	a5,80005082 <_dtoa_r+0xbb0>
80005080:	89be                	mv	s3,a5
80005082:	47b2                	lw	a5,12(sp)
80005084:	4b01                	li	s6,0
80005086:	99be                	add	s3,s3,a5
80005088:	85a2                	mv	a1,s0
8000508a:	4605                	li	a2,1
8000508c:	8526                	mv	a0,s1
8000508e:	40f000ef          	jal	ra,80005c9c <__lshift>
80005092:	85d2                	mv	a1,s4
80005094:	842a                	mv	s0,a0
80005096:	50b000ef          	jal	ra,80005da0 <__mcmp>
8000509a:	f6a044e3          	bgtz	a0,80005002 <_dtoa_r+0xb30>
8000509e:	e501                	bnez	a0,800050a6 <_dtoa_r+0xbd4>
800050a0:	001af793          	andi	a5,s5,1
800050a4:	ffb9                	bnez	a5,80005002 <_dtoa_r+0xb30>
800050a6:	87ce                	mv	a5,s3
800050a8:	03000713          	li	a4,48
800050ac:	89be                	mv	s3,a5
800050ae:	fff7c683          	lbu	a3,-1(a5)
800050b2:	17fd                	addi	a5,a5,-1
800050b4:	fee68ce3          	beq	a3,a4,800050ac <_dtoa_r+0xbda>
800050b8:	bbe5                	j	80004eb0 <_dtoa_r+0x9de>
800050ba:	4732                	lw	a4,12(sp)
800050bc:	f4f716e3          	bne	a4,a5,80005008 <_dtoa_r+0xb36>
800050c0:	03100793          	li	a5,49
800050c4:	0d85                	addi	s11,s11,1
800050c6:	00f70023          	sb	a5,0(a4)
800050ca:	b3dd                	j	80004eb0 <_dtoa_r+0x9de>
800050cc:	5712                	lw	a4,36(sp)
800050ce:	00002797          	auipc	a5,0x2
800050d2:	e3a78793          	addi	a5,a5,-454 # 80006f08 <__clz_tab+0x194>
800050d6:	c63e                	sw	a5,12(sp)
800050d8:	00002797          	auipc	a5,0x2
800050dc:	e3878793          	addi	a5,a5,-456 # 80006f10 <__clz_tab+0x19c>
800050e0:	cc071a63          	bnez	a4,800045b4 <_dtoa_r+0xe2>
800050e4:	cd4ff06f          	j	800045b8 <_dtoa_r+0xe6>
800050e8:	47c2                	lw	a5,16(sp)
800050ea:	00f04663          	bgtz	a5,800050f6 <_dtoa_r+0xc24>
800050ee:	4752                	lw	a4,20(sp)
800050f0:	4789                	li	a5,2
800050f2:	d8e7cbe3          	blt	a5,a4,80004e88 <_dtoa_r+0x9b6>
800050f6:	4981                	li	s3,0
800050f8:	85d2                	mv	a1,s4
800050fa:	8522                	mv	a0,s0
800050fc:	aaaff0ef          	jal	ra,800043a6 <quorem>
80005100:	47b2                	lw	a5,12(sp)
80005102:	03050a93          	addi	s5,a0,48
80005106:	01378733          	add	a4,a5,s3
8000510a:	47c2                	lw	a5,16(sp)
8000510c:	01570023          	sb	s5,0(a4)
80005110:	0985                	addi	s3,s3,1
80005112:	f6f9d3e3          	bge	s3,a5,80005078 <_dtoa_r+0xba6>
80005116:	85a2                	mv	a1,s0
80005118:	4681                	li	a3,0
8000511a:	4629                	li	a2,10
8000511c:	8526                	mv	a0,s1
8000511e:	78e000ef          	jal	ra,800058ac <__multadd>
80005122:	842a                	mv	s0,a0
80005124:	bfd1                	j	800050f8 <_dtoa_r+0xc26>

80005126 <__sflush_r>:
__sflush_r():
80005126:	00c5d783          	lhu	a5,12(a1) # 7ff0000c <__stack_size+0x7feff80c>
8000512a:	1101                	addi	sp,sp,-32
8000512c:	cc22                	sw	s0,24(sp)
8000512e:	ca26                	sw	s1,20(sp)
80005130:	ce06                	sw	ra,28(sp)
80005132:	c84a                	sw	s2,16(sp)
80005134:	c64e                	sw	s3,12(sp)
80005136:	0087f713          	andi	a4,a5,8
8000513a:	84aa                	mv	s1,a0
8000513c:	842e                	mv	s0,a1
8000513e:	e37d                	bnez	a4,80005224 <__sflush_r+0xfe>
80005140:	41d8                	lw	a4,4(a1)
80005142:	00e04763          	bgtz	a4,80005150 <__sflush_r+0x2a>
80005146:	41b8                	lw	a4,64(a1)
80005148:	00e04463          	bgtz	a4,80005150 <__sflush_r+0x2a>
8000514c:	4501                	li	a0,0
8000514e:	a87d                	j	8000520c <__sflush_r+0xe6>
80005150:	5458                	lw	a4,44(s0)
80005152:	df6d                	beqz	a4,8000514c <__sflush_r+0x26>
80005154:	6685                	lui	a3,0x1
80005156:	0004a903          	lw	s2,0(s1)
8000515a:	8ff5                	and	a5,a5,a3
8000515c:	0004a023          	sw	zero,0(s1)
80005160:	cfad                	beqz	a5,800051da <__sflush_r+0xb4>
80005162:	4868                	lw	a0,84(s0)
80005164:	00c45783          	lhu	a5,12(s0)
80005168:	8b91                	andi	a5,a5,4
8000516a:	c799                	beqz	a5,80005178 <__sflush_r+0x52>
8000516c:	405c                	lw	a5,4(s0)
8000516e:	8d1d                	sub	a0,a0,a5
80005170:	585c                	lw	a5,52(s0)
80005172:	c399                	beqz	a5,80005178 <__sflush_r+0x52>
80005174:	403c                	lw	a5,64(s0)
80005176:	8d1d                	sub	a0,a0,a5
80005178:	545c                	lw	a5,44(s0)
8000517a:	500c                	lw	a1,32(s0)
8000517c:	862a                	mv	a2,a0
8000517e:	4681                	li	a3,0
80005180:	8526                	mv	a0,s1
80005182:	9782                	jalr	a5
80005184:	57fd                	li	a5,-1
80005186:	00c45703          	lhu	a4,12(s0)
8000518a:	00f51d63          	bne	a0,a5,800051a4 <__sflush_r+0x7e>
8000518e:	4094                	lw	a3,0(s1)
80005190:	47f5                	li	a5,29
80005192:	08d7e463          	bltu	a5,a3,8000521a <__sflush_r+0xf4>
80005196:	204007b7          	lui	a5,0x20400
8000519a:	0785                	addi	a5,a5,1
8000519c:	00d7d7b3          	srl	a5,a5,a3
800051a0:	8b85                	andi	a5,a5,1
800051a2:	cfa5                	beqz	a5,8000521a <__sflush_r+0xf4>
800051a4:	481c                	lw	a5,16(s0)
800051a6:	00042223          	sw	zero,4(s0)
800051aa:	c01c                	sw	a5,0(s0)
800051ac:	6785                	lui	a5,0x1
800051ae:	8f7d                	and	a4,a4,a5
800051b0:	c719                	beqz	a4,800051be <__sflush_r+0x98>
800051b2:	57fd                	li	a5,-1
800051b4:	00f51463          	bne	a0,a5,800051bc <__sflush_r+0x96>
800051b8:	409c                	lw	a5,0(s1)
800051ba:	e391                	bnez	a5,800051be <__sflush_r+0x98>
800051bc:	c868                	sw	a0,84(s0)
800051be:	584c                	lw	a1,52(s0)
800051c0:	0124a023          	sw	s2,0(s1)
800051c4:	d5c1                	beqz	a1,8000514c <__sflush_r+0x26>
800051c6:	04440793          	addi	a5,s0,68
800051ca:	00f58563          	beq	a1,a5,800051d4 <__sflush_r+0xae>
800051ce:	8526                	mv	a0,s1
800051d0:	687000ef          	jal	ra,80006056 <_free_r>
800051d4:	02042a23          	sw	zero,52(s0)
800051d8:	bf95                	j	8000514c <__sflush_r+0x26>
800051da:	500c                	lw	a1,32(s0)
800051dc:	4685                	li	a3,1
800051de:	4601                	li	a2,0
800051e0:	8526                	mv	a0,s1
800051e2:	9702                	jalr	a4
800051e4:	57fd                	li	a5,-1
800051e6:	f6f51fe3          	bne	a0,a5,80005164 <__sflush_r+0x3e>
800051ea:	409c                	lw	a5,0(s1)
800051ec:	dfa5                	beqz	a5,80005164 <__sflush_r+0x3e>
800051ee:	4775                	li	a4,29
800051f0:	00e78563          	beq	a5,a4,800051fa <__sflush_r+0xd4>
800051f4:	4759                	li	a4,22
800051f6:	00e79563          	bne	a5,a4,80005200 <__sflush_r+0xda>
800051fa:	0124a023          	sw	s2,0(s1)
800051fe:	b7b9                	j	8000514c <__sflush_r+0x26>
80005200:	00c45783          	lhu	a5,12(s0)
80005204:	0407e793          	ori	a5,a5,64
80005208:	00f41623          	sh	a5,12(s0)
8000520c:	40f2                	lw	ra,28(sp)
8000520e:	4462                	lw	s0,24(sp)
80005210:	44d2                	lw	s1,20(sp)
80005212:	4942                	lw	s2,16(sp)
80005214:	49b2                	lw	s3,12(sp)
80005216:	6105                	addi	sp,sp,32
80005218:	8082                	ret
8000521a:	04076713          	ori	a4,a4,64
8000521e:	00e41623          	sh	a4,12(s0)
80005222:	b7ed                	j	8000520c <__sflush_r+0xe6>
80005224:	0105a983          	lw	s3,16(a1)
80005228:	f20982e3          	beqz	s3,8000514c <__sflush_r+0x26>
8000522c:	0005a903          	lw	s2,0(a1)
80005230:	8b8d                	andi	a5,a5,3
80005232:	0135a023          	sw	s3,0(a1)
80005236:	41390933          	sub	s2,s2,s3
8000523a:	4701                	li	a4,0
8000523c:	e391                	bnez	a5,80005240 <__sflush_r+0x11a>
8000523e:	49d8                	lw	a4,20(a1)
80005240:	c418                	sw	a4,8(s0)
80005242:	f12055e3          	blez	s2,8000514c <__sflush_r+0x26>
80005246:	541c                	lw	a5,40(s0)
80005248:	500c                	lw	a1,32(s0)
8000524a:	86ca                	mv	a3,s2
8000524c:	864e                	mv	a2,s3
8000524e:	8526                	mv	a0,s1
80005250:	9782                	jalr	a5
80005252:	00a04a63          	bgtz	a0,80005266 <__sflush_r+0x140>
80005256:	00c45783          	lhu	a5,12(s0)
8000525a:	557d                	li	a0,-1
8000525c:	0407e793          	ori	a5,a5,64
80005260:	00f41623          	sh	a5,12(s0)
80005264:	b765                	j	8000520c <__sflush_r+0xe6>
80005266:	99aa                	add	s3,s3,a0
80005268:	40a90933          	sub	s2,s2,a0
8000526c:	bfd9                	j	80005242 <__sflush_r+0x11c>

8000526e <_fflush_r>:
_fflush_r():
8000526e:	499c                	lw	a5,16(a1)
80005270:	cfb9                	beqz	a5,800052ce <_fflush_r+0x60>
80005272:	1101                	addi	sp,sp,-32
80005274:	cc22                	sw	s0,24(sp)
80005276:	ce06                	sw	ra,28(sp)
80005278:	842a                	mv	s0,a0
8000527a:	c511                	beqz	a0,80005286 <_fflush_r+0x18>
8000527c:	4d1c                	lw	a5,24(a0)
8000527e:	e781                	bnez	a5,80005286 <_fflush_r+0x18>
80005280:	c62e                	sw	a1,12(sp)
80005282:	2221                	jal	8000538a <__sinit>
80005284:	45b2                	lw	a1,12(sp)
80005286:	00002797          	auipc	a5,0x2
8000528a:	d3278793          	addi	a5,a5,-718 # 80006fb8 <__sf_fake_stdin>
8000528e:	00f59b63          	bne	a1,a5,800052a4 <_fflush_r+0x36>
80005292:	404c                	lw	a1,4(s0)
80005294:	00c59783          	lh	a5,12(a1)
80005298:	c795                	beqz	a5,800052c4 <_fflush_r+0x56>
8000529a:	8522                	mv	a0,s0
8000529c:	4462                	lw	s0,24(sp)
8000529e:	40f2                	lw	ra,28(sp)
800052a0:	6105                	addi	sp,sp,32
800052a2:	b551                	j	80005126 <__sflush_r>
800052a4:	00002797          	auipc	a5,0x2
800052a8:	d3478793          	addi	a5,a5,-716 # 80006fd8 <__sf_fake_stdout>
800052ac:	00f59463          	bne	a1,a5,800052b4 <_fflush_r+0x46>
800052b0:	440c                	lw	a1,8(s0)
800052b2:	b7cd                	j	80005294 <_fflush_r+0x26>
800052b4:	00002797          	auipc	a5,0x2
800052b8:	ce478793          	addi	a5,a5,-796 # 80006f98 <__sf_fake_stderr>
800052bc:	fcf59ce3          	bne	a1,a5,80005294 <_fflush_r+0x26>
800052c0:	444c                	lw	a1,12(s0)
800052c2:	bfc9                	j	80005294 <_fflush_r+0x26>
800052c4:	40f2                	lw	ra,28(sp)
800052c6:	4462                	lw	s0,24(sp)
800052c8:	4501                	li	a0,0
800052ca:	6105                	addi	sp,sp,32
800052cc:	8082                	ret
800052ce:	4501                	li	a0,0
800052d0:	8082                	ret

800052d2 <std>:
std():
800052d2:	1141                	addi	sp,sp,-16
800052d4:	c422                	sw	s0,8(sp)
800052d6:	c606                	sw	ra,12(sp)
800052d8:	842a                	mv	s0,a0
800052da:	00b51623          	sh	a1,12(a0)
800052de:	00c51723          	sh	a2,14(a0)
800052e2:	00052023          	sw	zero,0(a0)
800052e6:	00052223          	sw	zero,4(a0)
800052ea:	00052423          	sw	zero,8(a0)
800052ee:	06052223          	sw	zero,100(a0)
800052f2:	00052823          	sw	zero,16(a0)
800052f6:	00052a23          	sw	zero,20(a0)
800052fa:	00052c23          	sw	zero,24(a0)
800052fe:	4621                	li	a2,8
80005300:	4581                	li	a1,0
80005302:	05c50513          	addi	a0,a0,92
80005306:	2ecd                	jal	800056f8 <memset>
80005308:	00001797          	auipc	a5,0x1
8000530c:	1ee78793          	addi	a5,a5,494 # 800064f6 <__sread>
80005310:	d05c                	sw	a5,36(s0)
80005312:	00001797          	auipc	a5,0x1
80005316:	21478793          	addi	a5,a5,532 # 80006526 <__swrite>
8000531a:	d41c                	sw	a5,40(s0)
8000531c:	00001797          	auipc	a5,0x1
80005320:	25878793          	addi	a5,a5,600 # 80006574 <__sseek>
80005324:	d45c                	sw	a5,44(s0)
80005326:	00001797          	auipc	a5,0x1
8000532a:	28478793          	addi	a5,a5,644 # 800065aa <__sclose>
8000532e:	40b2                	lw	ra,12(sp)
80005330:	d000                	sw	s0,32(s0)
80005332:	d81c                	sw	a5,48(s0)
80005334:	4422                	lw	s0,8(sp)
80005336:	0141                	addi	sp,sp,16
80005338:	8082                	ret

8000533a <_cleanup_r>:
_cleanup_r():
8000533a:	00000597          	auipc	a1,0x0
8000533e:	f3458593          	addi	a1,a1,-204 # 8000526e <_fflush_r>
80005342:	a299                	j	80005488 <_fwalk_reent>

80005344 <__sfmoreglue>:
__sfmoreglue():
80005344:	1141                	addi	sp,sp,-16
80005346:	c226                	sw	s1,4(sp)
80005348:	06800613          	li	a2,104
8000534c:	fff58493          	addi	s1,a1,-1
80005350:	02c484b3          	mul	s1,s1,a2
80005354:	c04a                	sw	s2,0(sp)
80005356:	892e                	mv	s2,a1
80005358:	c422                	sw	s0,8(sp)
8000535a:	c606                	sw	ra,12(sp)
8000535c:	07448593          	addi	a1,s1,116
80005360:	595000ef          	jal	ra,800060f4 <_malloc_r>
80005364:	842a                	mv	s0,a0
80005366:	c919                	beqz	a0,8000537c <__sfmoreglue+0x38>
80005368:	00052023          	sw	zero,0(a0)
8000536c:	01252223          	sw	s2,4(a0)
80005370:	0531                	addi	a0,a0,12
80005372:	c408                	sw	a0,8(s0)
80005374:	06848613          	addi	a2,s1,104
80005378:	4581                	li	a1,0
8000537a:	2ebd                	jal	800056f8 <memset>
8000537c:	40b2                	lw	ra,12(sp)
8000537e:	8522                	mv	a0,s0
80005380:	4422                	lw	s0,8(sp)
80005382:	4492                	lw	s1,4(sp)
80005384:	4902                	lw	s2,0(sp)
80005386:	0141                	addi	sp,sp,16
80005388:	8082                	ret

8000538a <__sinit>:
__sinit():
8000538a:	4d1c                	lw	a5,24(a0)
8000538c:	e3ad                	bnez	a5,800053ee <__sinit+0x64>
8000538e:	1141                	addi	sp,sp,-16
80005390:	c422                	sw	s0,8(sp)
80005392:	c606                	sw	ra,12(sp)
80005394:	00000797          	auipc	a5,0x0
80005398:	fa678793          	addi	a5,a5,-90 # 8000533a <_cleanup_r>
8000539c:	d51c                	sw	a5,40(a0)
8000539e:	04052423          	sw	zero,72(a0)
800053a2:	04052623          	sw	zero,76(a0)
800053a6:	04052823          	sw	zero,80(a0)
800053aa:	8681a783          	lw	a5,-1944(gp) # 90000240 <_global_impure_ptr>
800053ae:	842a                	mv	s0,a0
800053b0:	00f51463          	bne	a0,a5,800053b8 <__sinit+0x2e>
800053b4:	4785                	li	a5,1
800053b6:	cd1c                	sw	a5,24(a0)
800053b8:	8522                	mv	a0,s0
800053ba:	281d                	jal	800053f0 <__sfp>
800053bc:	c048                	sw	a0,4(s0)
800053be:	8522                	mv	a0,s0
800053c0:	2805                	jal	800053f0 <__sfp>
800053c2:	c408                	sw	a0,8(s0)
800053c4:	8522                	mv	a0,s0
800053c6:	202d                	jal	800053f0 <__sfp>
800053c8:	c448                	sw	a0,12(s0)
800053ca:	4048                	lw	a0,4(s0)
800053cc:	4601                	li	a2,0
800053ce:	4591                	li	a1,4
800053d0:	3709                	jal	800052d2 <std>
800053d2:	4408                	lw	a0,8(s0)
800053d4:	4605                	li	a2,1
800053d6:	45a5                	li	a1,9
800053d8:	3ded                	jal	800052d2 <std>
800053da:	4448                	lw	a0,12(s0)
800053dc:	4609                	li	a2,2
800053de:	45c9                	li	a1,18
800053e0:	3dcd                	jal	800052d2 <std>
800053e2:	4785                	li	a5,1
800053e4:	40b2                	lw	ra,12(sp)
800053e6:	cc1c                	sw	a5,24(s0)
800053e8:	4422                	lw	s0,8(sp)
800053ea:	0141                	addi	sp,sp,16
800053ec:	8082                	ret
800053ee:	8082                	ret

800053f0 <__sfp>:
__sfp():
800053f0:	1141                	addi	sp,sp,-16
800053f2:	c226                	sw	s1,4(sp)
800053f4:	8681a483          	lw	s1,-1944(gp) # 90000240 <_global_impure_ptr>
800053f8:	4c9c                	lw	a5,24(s1)
800053fa:	c04a                	sw	s2,0(sp)
800053fc:	c606                	sw	ra,12(sp)
800053fe:	c422                	sw	s0,8(sp)
80005400:	892a                	mv	s2,a0
80005402:	e399                	bnez	a5,80005408 <__sfp+0x18>
80005404:	8526                	mv	a0,s1
80005406:	3751                	jal	8000538a <__sinit>
80005408:	04848493          	addi	s1,s1,72
8000540c:	4480                	lw	s0,8(s1)
8000540e:	40dc                	lw	a5,4(s1)
80005410:	17fd                	addi	a5,a5,-1
80005412:	0007d663          	bgez	a5,8000541e <__sfp+0x2e>
80005416:	409c                	lw	a5,0(s1)
80005418:	cfb1                	beqz	a5,80005474 <__sfp+0x84>
8000541a:	4084                	lw	s1,0(s1)
8000541c:	bfc5                	j	8000540c <__sfp+0x1c>
8000541e:	00c41703          	lh	a4,12(s0)
80005422:	e731                	bnez	a4,8000546e <__sfp+0x7e>
80005424:	77c1                	lui	a5,0xffff0
80005426:	0785                	addi	a5,a5,1
80005428:	06042223          	sw	zero,100(s0)
8000542c:	00042023          	sw	zero,0(s0)
80005430:	00042223          	sw	zero,4(s0)
80005434:	00042423          	sw	zero,8(s0)
80005438:	c45c                	sw	a5,12(s0)
8000543a:	00042823          	sw	zero,16(s0)
8000543e:	00042a23          	sw	zero,20(s0)
80005442:	00042c23          	sw	zero,24(s0)
80005446:	4621                	li	a2,8
80005448:	4581                	li	a1,0
8000544a:	05c40513          	addi	a0,s0,92
8000544e:	246d                	jal	800056f8 <memset>
80005450:	02042a23          	sw	zero,52(s0)
80005454:	02042c23          	sw	zero,56(s0)
80005458:	04042423          	sw	zero,72(s0)
8000545c:	04042623          	sw	zero,76(s0)
80005460:	40b2                	lw	ra,12(sp)
80005462:	8522                	mv	a0,s0
80005464:	4422                	lw	s0,8(sp)
80005466:	4492                	lw	s1,4(sp)
80005468:	4902                	lw	s2,0(sp)
8000546a:	0141                	addi	sp,sp,16
8000546c:	8082                	ret
8000546e:	06840413          	addi	s0,s0,104
80005472:	bf79                	j	80005410 <__sfp+0x20>
80005474:	4591                	li	a1,4
80005476:	854a                	mv	a0,s2
80005478:	35f1                	jal	80005344 <__sfmoreglue>
8000547a:	c088                	sw	a0,0(s1)
8000547c:	842a                	mv	s0,a0
8000547e:	fd51                	bnez	a0,8000541a <__sfp+0x2a>
80005480:	47b1                	li	a5,12
80005482:	00f92023          	sw	a5,0(s2)
80005486:	bfe9                	j	80005460 <__sfp+0x70>

80005488 <_fwalk_reent>:
_fwalk_reent():
80005488:	7179                	addi	sp,sp,-48
8000548a:	d422                	sw	s0,40(sp)
8000548c:	d04a                	sw	s2,32(sp)
8000548e:	ce4e                	sw	s3,28(sp)
80005490:	cc52                	sw	s4,24(sp)
80005492:	c85a                	sw	s6,16(sp)
80005494:	c65e                	sw	s7,12(sp)
80005496:	d606                	sw	ra,44(sp)
80005498:	d226                	sw	s1,36(sp)
8000549a:	ca56                	sw	s5,20(sp)
8000549c:	892a                	mv	s2,a0
8000549e:	8a2e                	mv	s4,a1
800054a0:	04850413          	addi	s0,a0,72
800054a4:	4981                	li	s3,0
800054a6:	4b05                	li	s6,1
800054a8:	5bfd                	li	s7,-1
800054aa:	4404                	lw	s1,8(s0)
800054ac:	00442a83          	lw	s5,4(s0)
800054b0:	1afd                	addi	s5,s5,-1
800054b2:	020ad063          	bgez	s5,800054d2 <_fwalk_reent+0x4a>
800054b6:	4000                	lw	s0,0(s0)
800054b8:	f86d                	bnez	s0,800054aa <_fwalk_reent+0x22>
800054ba:	50b2                	lw	ra,44(sp)
800054bc:	5422                	lw	s0,40(sp)
800054be:	5492                	lw	s1,36(sp)
800054c0:	5902                	lw	s2,32(sp)
800054c2:	4a62                	lw	s4,24(sp)
800054c4:	4ad2                	lw	s5,20(sp)
800054c6:	4b42                	lw	s6,16(sp)
800054c8:	4bb2                	lw	s7,12(sp)
800054ca:	854e                	mv	a0,s3
800054cc:	49f2                	lw	s3,28(sp)
800054ce:	6145                	addi	sp,sp,48
800054d0:	8082                	ret
800054d2:	00c4d783          	lhu	a5,12(s1)
800054d6:	00fb7b63          	bgeu	s6,a5,800054ec <_fwalk_reent+0x64>
800054da:	00e49783          	lh	a5,14(s1)
800054de:	01778763          	beq	a5,s7,800054ec <_fwalk_reent+0x64>
800054e2:	85a6                	mv	a1,s1
800054e4:	854a                	mv	a0,s2
800054e6:	9a02                	jalr	s4
800054e8:	00a9e9b3          	or	s3,s3,a0
800054ec:	06848493          	addi	s1,s1,104
800054f0:	b7c1                	j	800054b0 <_fwalk_reent+0x28>

800054f2 <_localeconv_r>:
_localeconv_r():
800054f2:	0fffb517          	auipc	a0,0xfffb
800054f6:	c6a50513          	addi	a0,a0,-918 # 9000015c <__global_locale+0xf0>
800054fa:	8082                	ret

800054fc <__swhatbuf_r>:
__swhatbuf_r():
800054fc:	7159                	addi	sp,sp,-112
800054fe:	d0ca                	sw	s2,96(sp)
80005500:	892e                	mv	s2,a1
80005502:	00e59583          	lh	a1,14(a1)
80005506:	d4a2                	sw	s0,104(sp)
80005508:	d2a6                	sw	s1,100(sp)
8000550a:	d686                	sw	ra,108(sp)
8000550c:	8432                	mv	s0,a2
8000550e:	84b6                	mv	s1,a3
80005510:	0005dc63          	bgez	a1,80005528 <__swhatbuf_r+0x2c>
80005514:	00c91783          	lh	a5,12(s2)
80005518:	0004a023          	sw	zero,0(s1)
8000551c:	0807f793          	andi	a5,a5,128
80005520:	e395                	bnez	a5,80005544 <__swhatbuf_r+0x48>
80005522:	40000793          	li	a5,1024
80005526:	a00d                	j	80005548 <__swhatbuf_r+0x4c>
80005528:	0030                	addi	a2,sp,8
8000552a:	136010ef          	jal	ra,80006660 <_fstat_r>
8000552e:	fe0543e3          	bltz	a0,80005514 <__swhatbuf_r+0x18>
80005532:	4732                	lw	a4,12(sp)
80005534:	67bd                	lui	a5,0xf
80005536:	8ff9                	and	a5,a5,a4
80005538:	7779                	lui	a4,0xffffe
8000553a:	97ba                	add	a5,a5,a4
8000553c:	0017b793          	seqz	a5,a5
80005540:	c09c                	sw	a5,0(s1)
80005542:	b7c5                	j	80005522 <__swhatbuf_r+0x26>
80005544:	04000793          	li	a5,64
80005548:	50b6                	lw	ra,108(sp)
8000554a:	c01c                	sw	a5,0(s0)
8000554c:	5426                	lw	s0,104(sp)
8000554e:	5496                	lw	s1,100(sp)
80005550:	5906                	lw	s2,96(sp)
80005552:	4501                	li	a0,0
80005554:	6165                	addi	sp,sp,112
80005556:	8082                	ret

80005558 <__smakebuf_r>:
__smakebuf_r():
80005558:	00c5d783          	lhu	a5,12(a1)
8000555c:	1101                	addi	sp,sp,-32
8000555e:	cc22                	sw	s0,24(sp)
80005560:	ce06                	sw	ra,28(sp)
80005562:	ca26                	sw	s1,20(sp)
80005564:	c84a                	sw	s2,16(sp)
80005566:	8b89                	andi	a5,a5,2
80005568:	842e                	mv	s0,a1
8000556a:	cf89                	beqz	a5,80005584 <__smakebuf_r+0x2c>
8000556c:	04740793          	addi	a5,s0,71
80005570:	c01c                	sw	a5,0(s0)
80005572:	c81c                	sw	a5,16(s0)
80005574:	4785                	li	a5,1
80005576:	c85c                	sw	a5,20(s0)
80005578:	40f2                	lw	ra,28(sp)
8000557a:	4462                	lw	s0,24(sp)
8000557c:	44d2                	lw	s1,20(sp)
8000557e:	4942                	lw	s2,16(sp)
80005580:	6105                	addi	sp,sp,32
80005582:	8082                	ret
80005584:	0074                	addi	a3,sp,12
80005586:	0030                	addi	a2,sp,8
80005588:	892a                	mv	s2,a0
8000558a:	3f8d                	jal	800054fc <__swhatbuf_r>
8000558c:	45a2                	lw	a1,8(sp)
8000558e:	84aa                	mv	s1,a0
80005590:	854a                	mv	a0,s2
80005592:	363000ef          	jal	ra,800060f4 <_malloc_r>
80005596:	ed01                	bnez	a0,800055ae <__smakebuf_r+0x56>
80005598:	00c41783          	lh	a5,12(s0)
8000559c:	2007f713          	andi	a4,a5,512
800055a0:	ff61                	bnez	a4,80005578 <__smakebuf_r+0x20>
800055a2:	9bf1                	andi	a5,a5,-4
800055a4:	0027e793          	ori	a5,a5,2
800055a8:	00f41623          	sh	a5,12(s0)
800055ac:	b7c1                	j	8000556c <__smakebuf_r+0x14>
800055ae:	00000797          	auipc	a5,0x0
800055b2:	d8c78793          	addi	a5,a5,-628 # 8000533a <_cleanup_r>
800055b6:	02f92423          	sw	a5,40(s2)
800055ba:	00c45783          	lhu	a5,12(s0)
800055be:	c008                	sw	a0,0(s0)
800055c0:	c808                	sw	a0,16(s0)
800055c2:	0807e793          	ori	a5,a5,128
800055c6:	00f41623          	sh	a5,12(s0)
800055ca:	47a2                	lw	a5,8(sp)
800055cc:	c85c                	sw	a5,20(s0)
800055ce:	47b2                	lw	a5,12(sp)
800055d0:	cf91                	beqz	a5,800055ec <__smakebuf_r+0x94>
800055d2:	00e41583          	lh	a1,14(s0)
800055d6:	854a                	mv	a0,s2
800055d8:	0b2010ef          	jal	ra,8000668a <_isatty_r>
800055dc:	c901                	beqz	a0,800055ec <__smakebuf_r+0x94>
800055de:	00c45783          	lhu	a5,12(s0)
800055e2:	9bf1                	andi	a5,a5,-4
800055e4:	0017e793          	ori	a5,a5,1
800055e8:	00f41623          	sh	a5,12(s0)
800055ec:	00c45503          	lhu	a0,12(s0)
800055f0:	8cc9                	or	s1,s1,a0
800055f2:	00941623          	sh	s1,12(s0)
800055f6:	b749                	j	80005578 <__smakebuf_r+0x20>

800055f8 <malloc>:
malloc():
800055f8:	85aa                	mv	a1,a0
800055fa:	8101a503          	lw	a0,-2032(gp) # 900001e8 <_impure_ptr>
800055fe:	2f70006f          	j	800060f4 <_malloc_r>

80005602 <memchr>:
memchr():
80005602:	0ff5f593          	zext.b	a1,a1
80005606:	962a                	add	a2,a2,a0
80005608:	00c51463          	bne	a0,a2,80005610 <memchr+0xe>
8000560c:	4501                	li	a0,0
8000560e:	8082                	ret
80005610:	00054783          	lbu	a5,0(a0)
80005614:	feb78de3          	beq	a5,a1,8000560e <memchr+0xc>
80005618:	0505                	addi	a0,a0,1
8000561a:	b7fd                	j	80005608 <memchr+0x6>

8000561c <memcpy>:
memcpy():
8000561c:	00a5c7b3          	xor	a5,a1,a0
80005620:	8b8d                	andi	a5,a5,3
80005622:	00c506b3          	add	a3,a0,a2
80005626:	e781                	bnez	a5,8000562e <memcpy+0x12>
80005628:	478d                	li	a5,3
8000562a:	00c7ee63          	bltu	a5,a2,80005646 <memcpy+0x2a>
8000562e:	87aa                	mv	a5,a0
80005630:	06d57163          	bgeu	a0,a3,80005692 <memcpy+0x76>
80005634:	0005c703          	lbu	a4,0(a1)
80005638:	0785                	addi	a5,a5,1
8000563a:	0585                	addi	a1,a1,1
8000563c:	fee78fa3          	sb	a4,-1(a5)
80005640:	fed7eae3          	bltu	a5,a3,80005634 <memcpy+0x18>
80005644:	8082                	ret
80005646:	00357713          	andi	a4,a0,3
8000564a:	87aa                	mv	a5,a0
8000564c:	cb11                	beqz	a4,80005660 <memcpy+0x44>
8000564e:	0005c703          	lbu	a4,0(a1)
80005652:	0785                	addi	a5,a5,1
80005654:	0585                	addi	a1,a1,1
80005656:	fee78fa3          	sb	a4,-1(a5)
8000565a:	0037f713          	andi	a4,a5,3
8000565e:	b7fd                	j	8000564c <memcpy+0x30>
80005660:	ffc6f713          	andi	a4,a3,-4
80005664:	40f70833          	sub	a6,a4,a5
80005668:	02000613          	li	a2,32
8000566c:	03064463          	blt	a2,a6,80005694 <memcpy+0x78>
80005670:	882e                	mv	a6,a1
80005672:	863e                	mv	a2,a5
80005674:	06e66b63          	bltu	a2,a4,800056ea <memcpy+0xce>
80005678:	ffd78813          	addi	a6,a5,-3
8000567c:	4601                	li	a2,0
8000567e:	01076663          	bltu	a4,a6,8000568a <memcpy+0x6e>
80005682:	070d                	addi	a4,a4,3
80005684:	8f1d                	sub	a4,a4,a5
80005686:	ffc77613          	andi	a2,a4,-4
8000568a:	97b2                	add	a5,a5,a2
8000568c:	95b2                	add	a1,a1,a2
8000568e:	fad7e3e3          	bltu	a5,a3,80005634 <memcpy+0x18>
80005692:	8082                	ret
80005694:	0005a383          	lw	t2,0(a1)
80005698:	0045a283          	lw	t0,4(a1)
8000569c:	0085af83          	lw	t6,8(a1)
800056a0:	00c5af03          	lw	t5,12(a1)
800056a4:	0105ae83          	lw	t4,16(a1)
800056a8:	0145ae03          	lw	t3,20(a1)
800056ac:	0185a303          	lw	t1,24(a1)
800056b0:	01c5a883          	lw	a7,28(a1)
800056b4:	0077a023          	sw	t2,0(a5)
800056b8:	0057a223          	sw	t0,4(a5)
800056bc:	0205a803          	lw	a6,32(a1)
800056c0:	01f7a423          	sw	t6,8(a5)
800056c4:	01e7a623          	sw	t5,12(a5)
800056c8:	01d7a823          	sw	t4,16(a5)
800056cc:	01c7aa23          	sw	t3,20(a5)
800056d0:	0067ac23          	sw	t1,24(a5)
800056d4:	0117ae23          	sw	a7,28(a5)
800056d8:	02478793          	addi	a5,a5,36
800056dc:	02458593          	addi	a1,a1,36
800056e0:	ff07ae23          	sw	a6,-4(a5)
800056e4:	40f70833          	sub	a6,a4,a5
800056e8:	b751                	j	8000566c <memcpy+0x50>
800056ea:	00082883          	lw	a7,0(a6)
800056ee:	0611                	addi	a2,a2,4
800056f0:	0811                	addi	a6,a6,4
800056f2:	ff162e23          	sw	a7,-4(a2)
800056f6:	bfbd                	j	80005674 <memcpy+0x58>

800056f8 <memset>:
memset():
800056f8:	433d                	li	t1,15
800056fa:	872a                	mv	a4,a0
800056fc:	02c37363          	bgeu	t1,a2,80005722 <memset+0x2a>
80005700:	00f77793          	andi	a5,a4,15
80005704:	efbd                	bnez	a5,80005782 <memset+0x8a>
80005706:	e5ad                	bnez	a1,80005770 <memset+0x78>
80005708:	ff067693          	andi	a3,a2,-16
8000570c:	8a3d                	andi	a2,a2,15
8000570e:	96ba                	add	a3,a3,a4
80005710:	c30c                	sw	a1,0(a4)
80005712:	c34c                	sw	a1,4(a4)
80005714:	c70c                	sw	a1,8(a4)
80005716:	c74c                	sw	a1,12(a4)
80005718:	0741                	addi	a4,a4,16
8000571a:	fed76be3          	bltu	a4,a3,80005710 <memset+0x18>
8000571e:	e211                	bnez	a2,80005722 <memset+0x2a>
80005720:	8082                	ret
80005722:	40c306b3          	sub	a3,t1,a2
80005726:	068a                	slli	a3,a3,0x2
80005728:	00000297          	auipc	t0,0x0
8000572c:	9696                	add	a3,a3,t0
8000572e:	00a68067          	jr	10(a3) # 100a <__stack_size+0x80a>
80005732:	00b70723          	sb	a1,14(a4) # ffffe00e <_sp+0x6ffee00e>
80005736:	00b706a3          	sb	a1,13(a4)
8000573a:	00b70623          	sb	a1,12(a4)
8000573e:	00b705a3          	sb	a1,11(a4)
80005742:	00b70523          	sb	a1,10(a4)
80005746:	00b704a3          	sb	a1,9(a4)
8000574a:	00b70423          	sb	a1,8(a4)
8000574e:	00b703a3          	sb	a1,7(a4)
80005752:	00b70323          	sb	a1,6(a4)
80005756:	00b702a3          	sb	a1,5(a4)
8000575a:	00b70223          	sb	a1,4(a4)
8000575e:	00b701a3          	sb	a1,3(a4)
80005762:	00b70123          	sb	a1,2(a4)
80005766:	00b700a3          	sb	a1,1(a4)
8000576a:	00b70023          	sb	a1,0(a4)
8000576e:	8082                	ret
80005770:	0ff5f593          	zext.b	a1,a1
80005774:	00859693          	slli	a3,a1,0x8
80005778:	8dd5                	or	a1,a1,a3
8000577a:	01059693          	slli	a3,a1,0x10
8000577e:	8dd5                	or	a1,a1,a3
80005780:	b761                	j	80005708 <memset+0x10>
80005782:	00279693          	slli	a3,a5,0x2
80005786:	00000297          	auipc	t0,0x0
8000578a:	9696                	add	a3,a3,t0
8000578c:	8286                	mv	t0,ra
8000578e:	fa8680e7          	jalr	-88(a3)
80005792:	8096                	mv	ra,t0
80005794:	17c1                	addi	a5,a5,-16
80005796:	8f1d                	sub	a4,a4,a5
80005798:	963e                	add	a2,a2,a5
8000579a:	f8c374e3          	bgeu	t1,a2,80005722 <memset+0x2a>
8000579e:	b7a5                	j	80005706 <memset+0xe>

800057a0 <_Balloc>:
_Balloc():
800057a0:	515c                	lw	a5,36(a0)
800057a2:	1141                	addi	sp,sp,-16
800057a4:	c422                	sw	s0,8(sp)
800057a6:	c226                	sw	s1,4(sp)
800057a8:	c606                	sw	ra,12(sp)
800057aa:	c04a                	sw	s2,0(sp)
800057ac:	842a                	mv	s0,a0
800057ae:	84ae                	mv	s1,a1
800057b0:	eb95                	bnez	a5,800057e4 <_Balloc+0x44>
800057b2:	4541                	li	a0,16
800057b4:	3591                	jal	800055f8 <malloc>
800057b6:	d048                	sw	a0,36(s0)
800057b8:	ed11                	bnez	a0,800057d4 <_Balloc+0x34>
800057ba:	00001697          	auipc	a3,0x1
800057be:	75e68693          	addi	a3,a3,1886 # 80006f18 <__clz_tab+0x1a4>
800057c2:	4601                	li	a2,0
800057c4:	06600593          	li	a1,102
800057c8:	00002517          	auipc	a0,0x2
800057cc:	83050513          	addi	a0,a0,-2000 # 80006ff8 <__sf_fake_stdout+0x20>
800057d0:	60d000ef          	jal	ra,800065dc <__assert_func>
800057d4:	00052223          	sw	zero,4(a0)
800057d8:	00052423          	sw	zero,8(a0)
800057dc:	00052023          	sw	zero,0(a0)
800057e0:	00052623          	sw	zero,12(a0)
800057e4:	02442903          	lw	s2,36(s0)
800057e8:	00c92783          	lw	a5,12(s2)
800057ec:	c79d                	beqz	a5,8000581a <_Balloc+0x7a>
800057ee:	5058                	lw	a4,36(s0)
800057f0:	00249793          	slli	a5,s1,0x2
800057f4:	4758                	lw	a4,12(a4)
800057f6:	97ba                	add	a5,a5,a4
800057f8:	4388                	lw	a0,0(a5)
800057fa:	e131                	bnez	a0,8000583e <_Balloc+0x9e>
800057fc:	4905                	li	s2,1
800057fe:	00991933          	sll	s2,s2,s1
80005802:	00590613          	addi	a2,s2,5
80005806:	060a                	slli	a2,a2,0x2
80005808:	4585                	li	a1,1
8000580a:	8522                	mv	a0,s0
8000580c:	015000ef          	jal	ra,80006020 <_calloc_r>
80005810:	c105                	beqz	a0,80005830 <_Balloc+0x90>
80005812:	c144                	sw	s1,4(a0)
80005814:	01252423          	sw	s2,8(a0)
80005818:	a02d                	j	80005842 <_Balloc+0xa2>
8000581a:	02100613          	li	a2,33
8000581e:	4591                	li	a1,4
80005820:	8522                	mv	a0,s0
80005822:	7fe000ef          	jal	ra,80006020 <_calloc_r>
80005826:	505c                	lw	a5,36(s0)
80005828:	00a92623          	sw	a0,12(s2)
8000582c:	47dc                	lw	a5,12(a5)
8000582e:	f3e1                	bnez	a5,800057ee <_Balloc+0x4e>
80005830:	4501                	li	a0,0
80005832:	40b2                	lw	ra,12(sp)
80005834:	4422                	lw	s0,8(sp)
80005836:	4492                	lw	s1,4(sp)
80005838:	4902                	lw	s2,0(sp)
8000583a:	0141                	addi	sp,sp,16
8000583c:	8082                	ret
8000583e:	4118                	lw	a4,0(a0)
80005840:	c398                	sw	a4,0(a5)
80005842:	00052823          	sw	zero,16(a0)
80005846:	00052623          	sw	zero,12(a0)
8000584a:	b7e5                	j	80005832 <_Balloc+0x92>

8000584c <_Bfree>:
_Bfree():
8000584c:	515c                	lw	a5,36(a0)
8000584e:	1141                	addi	sp,sp,-16
80005850:	c422                	sw	s0,8(sp)
80005852:	c226                	sw	s1,4(sp)
80005854:	c606                	sw	ra,12(sp)
80005856:	84aa                	mv	s1,a0
80005858:	842e                	mv	s0,a1
8000585a:	eb95                	bnez	a5,8000588e <_Bfree+0x42>
8000585c:	4541                	li	a0,16
8000585e:	3b69                	jal	800055f8 <malloc>
80005860:	d0c8                	sw	a0,36(s1)
80005862:	ed11                	bnez	a0,8000587e <_Bfree+0x32>
80005864:	00001697          	auipc	a3,0x1
80005868:	6b468693          	addi	a3,a3,1716 # 80006f18 <__clz_tab+0x1a4>
8000586c:	4601                	li	a2,0
8000586e:	08a00593          	li	a1,138
80005872:	00001517          	auipc	a0,0x1
80005876:	78650513          	addi	a0,a0,1926 # 80006ff8 <__sf_fake_stdout+0x20>
8000587a:	563000ef          	jal	ra,800065dc <__assert_func>
8000587e:	00052223          	sw	zero,4(a0)
80005882:	00052423          	sw	zero,8(a0)
80005886:	00052023          	sw	zero,0(a0)
8000588a:	00052623          	sw	zero,12(a0)
8000588e:	c811                	beqz	s0,800058a2 <_Bfree+0x56>
80005890:	50d4                	lw	a3,36(s1)
80005892:	405c                	lw	a5,4(s0)
80005894:	00279713          	slli	a4,a5,0x2
80005898:	46dc                	lw	a5,12(a3)
8000589a:	97ba                	add	a5,a5,a4
8000589c:	4398                	lw	a4,0(a5)
8000589e:	c018                	sw	a4,0(s0)
800058a0:	c380                	sw	s0,0(a5)
800058a2:	40b2                	lw	ra,12(sp)
800058a4:	4422                	lw	s0,8(sp)
800058a6:	4492                	lw	s1,4(sp)
800058a8:	0141                	addi	sp,sp,16
800058aa:	8082                	ret

800058ac <__multadd>:
__multadd():
800058ac:	1101                	addi	sp,sp,-32
800058ae:	cc22                	sw	s0,24(sp)
800058b0:	c84a                	sw	s2,16(sp)
800058b2:	c64e                	sw	s3,12(sp)
800058b4:	0105a903          	lw	s2,16(a1)
800058b8:	842e                	mv	s0,a1
800058ba:	89b6                	mv	s3,a3
800058bc:	01458693          	addi	a3,a1,20
800058c0:	65c1                	lui	a1,0x10
800058c2:	ca26                	sw	s1,20(sp)
800058c4:	ce06                	sw	ra,28(sp)
800058c6:	84aa                	mv	s1,a0
800058c8:	c452                	sw	s4,8(sp)
800058ca:	4501                	li	a0,0
800058cc:	15fd                	addi	a1,a1,-1
800058ce:	429c                	lw	a5,0(a3)
800058d0:	0691                	addi	a3,a3,4
800058d2:	0505                	addi	a0,a0,1
800058d4:	00b7f733          	and	a4,a5,a1
800058d8:	02c70733          	mul	a4,a4,a2
800058dc:	83c1                	srli	a5,a5,0x10
800058de:	02c787b3          	mul	a5,a5,a2
800058e2:	974e                	add	a4,a4,s3
800058e4:	01075813          	srli	a6,a4,0x10
800058e8:	8f6d                	and	a4,a4,a1
800058ea:	97c2                	add	a5,a5,a6
800058ec:	0107d993          	srli	s3,a5,0x10
800058f0:	07c2                	slli	a5,a5,0x10
800058f2:	97ba                	add	a5,a5,a4
800058f4:	fef6ae23          	sw	a5,-4(a3)
800058f8:	fd254be3          	blt	a0,s2,800058ce <__multadd+0x22>
800058fc:	04098c63          	beqz	s3,80005954 <__multadd+0xa8>
80005900:	441c                	lw	a5,8(s0)
80005902:	04f94063          	blt	s2,a5,80005942 <__multadd+0x96>
80005906:	404c                	lw	a1,4(s0)
80005908:	8526                	mv	a0,s1
8000590a:	0585                	addi	a1,a1,1
8000590c:	3d51                	jal	800057a0 <_Balloc>
8000590e:	8a2a                	mv	s4,a0
80005910:	ed11                	bnez	a0,8000592c <__multadd+0x80>
80005912:	00001697          	auipc	a3,0x1
80005916:	67268693          	addi	a3,a3,1650 # 80006f84 <__clz_tab+0x210>
8000591a:	4601                	li	a2,0
8000591c:	0b500593          	li	a1,181
80005920:	00001517          	auipc	a0,0x1
80005924:	6d850513          	addi	a0,a0,1752 # 80006ff8 <__sf_fake_stdout+0x20>
80005928:	4b5000ef          	jal	ra,800065dc <__assert_func>
8000592c:	4810                	lw	a2,16(s0)
8000592e:	00c40593          	addi	a1,s0,12
80005932:	0531                	addi	a0,a0,12
80005934:	0609                	addi	a2,a2,2
80005936:	060a                	slli	a2,a2,0x2
80005938:	31d5                	jal	8000561c <memcpy>
8000593a:	85a2                	mv	a1,s0
8000593c:	8526                	mv	a0,s1
8000593e:	3739                	jal	8000584c <_Bfree>
80005940:	8452                	mv	s0,s4
80005942:	00490793          	addi	a5,s2,4
80005946:	078a                	slli	a5,a5,0x2
80005948:	97a2                	add	a5,a5,s0
8000594a:	0137a223          	sw	s3,4(a5)
8000594e:	0905                	addi	s2,s2,1
80005950:	01242823          	sw	s2,16(s0)
80005954:	40f2                	lw	ra,28(sp)
80005956:	8522                	mv	a0,s0
80005958:	4462                	lw	s0,24(sp)
8000595a:	44d2                	lw	s1,20(sp)
8000595c:	4942                	lw	s2,16(sp)
8000595e:	49b2                	lw	s3,12(sp)
80005960:	4a22                	lw	s4,8(sp)
80005962:	6105                	addi	sp,sp,32
80005964:	8082                	ret

80005966 <__hi0bits>:
__hi0bits():
80005966:	7741                	lui	a4,0xffff0
80005968:	8f69                	and	a4,a4,a0
8000596a:	87aa                	mv	a5,a0
8000596c:	4501                	li	a0,0
8000596e:	e319                	bnez	a4,80005974 <__hi0bits+0xe>
80005970:	07c2                	slli	a5,a5,0x10
80005972:	4541                	li	a0,16
80005974:	ff000737          	lui	a4,0xff000
80005978:	8f7d                	and	a4,a4,a5
8000597a:	e319                	bnez	a4,80005980 <__hi0bits+0x1a>
8000597c:	0521                	addi	a0,a0,8
8000597e:	07a2                	slli	a5,a5,0x8
80005980:	f0000737          	lui	a4,0xf0000
80005984:	8f7d                	and	a4,a4,a5
80005986:	e319                	bnez	a4,8000598c <__hi0bits+0x26>
80005988:	0511                	addi	a0,a0,4
8000598a:	0792                	slli	a5,a5,0x4
8000598c:	c0000737          	lui	a4,0xc0000
80005990:	8f7d                	and	a4,a4,a5
80005992:	e319                	bnez	a4,80005998 <__hi0bits+0x32>
80005994:	0509                	addi	a0,a0,2
80005996:	078a                	slli	a5,a5,0x2
80005998:	0007c963          	bltz	a5,800059aa <__hi0bits+0x44>
8000599c:	40000737          	lui	a4,0x40000
800059a0:	8ff9                	and	a5,a5,a4
800059a2:	0505                	addi	a0,a0,1
800059a4:	e399                	bnez	a5,800059aa <__hi0bits+0x44>
800059a6:	02000513          	li	a0,32
800059aa:	8082                	ret

800059ac <__lo0bits>:
__lo0bits():
800059ac:	411c                	lw	a5,0(a0)
800059ae:	872a                	mv	a4,a0
800059b0:	0077f693          	andi	a3,a5,7
800059b4:	c285                	beqz	a3,800059d4 <__lo0bits+0x28>
800059b6:	0017f693          	andi	a3,a5,1
800059ba:	4501                	li	a0,0
800059bc:	eea1                	bnez	a3,80005a14 <__lo0bits+0x68>
800059be:	0027f693          	andi	a3,a5,2
800059c2:	c689                	beqz	a3,800059cc <__lo0bits+0x20>
800059c4:	8385                	srli	a5,a5,0x1
800059c6:	c31c                	sw	a5,0(a4)
800059c8:	4505                	li	a0,1
800059ca:	8082                	ret
800059cc:	8389                	srli	a5,a5,0x2
800059ce:	c31c                	sw	a5,0(a4)
800059d0:	4509                	li	a0,2
800059d2:	8082                	ret
800059d4:	01079693          	slli	a3,a5,0x10
800059d8:	82c1                	srli	a3,a3,0x10
800059da:	4501                	li	a0,0
800059dc:	e299                	bnez	a3,800059e2 <__lo0bits+0x36>
800059de:	83c1                	srli	a5,a5,0x10
800059e0:	4541                	li	a0,16
800059e2:	0ff7f693          	zext.b	a3,a5
800059e6:	e299                	bnez	a3,800059ec <__lo0bits+0x40>
800059e8:	0521                	addi	a0,a0,8
800059ea:	83a1                	srli	a5,a5,0x8
800059ec:	00f7f693          	andi	a3,a5,15
800059f0:	e299                	bnez	a3,800059f6 <__lo0bits+0x4a>
800059f2:	0511                	addi	a0,a0,4
800059f4:	8391                	srli	a5,a5,0x4
800059f6:	0037f693          	andi	a3,a5,3
800059fa:	e299                	bnez	a3,80005a00 <__lo0bits+0x54>
800059fc:	0509                	addi	a0,a0,2
800059fe:	8389                	srli	a5,a5,0x2
80005a00:	0017f693          	andi	a3,a5,1
80005a04:	e681                	bnez	a3,80005a0c <__lo0bits+0x60>
80005a06:	8385                	srli	a5,a5,0x1
80005a08:	0505                	addi	a0,a0,1
80005a0a:	c399                	beqz	a5,80005a10 <__lo0bits+0x64>
80005a0c:	c31c                	sw	a5,0(a4)
80005a0e:	8082                	ret
80005a10:	02000513          	li	a0,32
80005a14:	8082                	ret

80005a16 <__i2b>:
__i2b():
80005a16:	1141                	addi	sp,sp,-16
80005a18:	c422                	sw	s0,8(sp)
80005a1a:	842e                	mv	s0,a1
80005a1c:	4585                	li	a1,1
80005a1e:	c606                	sw	ra,12(sp)
80005a20:	3341                	jal	800057a0 <_Balloc>
80005a22:	ed11                	bnez	a0,80005a3e <__i2b+0x28>
80005a24:	00001697          	auipc	a3,0x1
80005a28:	56068693          	addi	a3,a3,1376 # 80006f84 <__clz_tab+0x210>
80005a2c:	4601                	li	a2,0
80005a2e:	14000593          	li	a1,320
80005a32:	00001517          	auipc	a0,0x1
80005a36:	5c650513          	addi	a0,a0,1478 # 80006ff8 <__sf_fake_stdout+0x20>
80005a3a:	3a3000ef          	jal	ra,800065dc <__assert_func>
80005a3e:	40b2                	lw	ra,12(sp)
80005a40:	c940                	sw	s0,20(a0)
80005a42:	4422                	lw	s0,8(sp)
80005a44:	4705                	li	a4,1
80005a46:	c918                	sw	a4,16(a0)
80005a48:	0141                	addi	sp,sp,16
80005a4a:	8082                	ret

80005a4c <__multiply>:
__multiply():
80005a4c:	4998                	lw	a4,16(a1)
80005a4e:	4a1c                	lw	a5,16(a2)
80005a50:	1101                	addi	sp,sp,-32
80005a52:	cc22                	sw	s0,24(sp)
80005a54:	c84a                	sw	s2,16(sp)
80005a56:	ce06                	sw	ra,28(sp)
80005a58:	ca26                	sw	s1,20(sp)
80005a5a:	c64e                	sw	s3,12(sp)
80005a5c:	c452                	sw	s4,8(sp)
80005a5e:	842e                	mv	s0,a1
80005a60:	8932                	mv	s2,a2
80005a62:	00f75463          	bge	a4,a5,80005a6a <__multiply+0x1e>
80005a66:	8432                	mv	s0,a2
80005a68:	892e                	mv	s2,a1
80005a6a:	01042a03          	lw	s4,16(s0)
80005a6e:	01092983          	lw	s3,16(s2)
80005a72:	441c                	lw	a5,8(s0)
80005a74:	404c                	lw	a1,4(s0)
80005a76:	013a04b3          	add	s1,s4,s3
80005a7a:	0097d363          	bge	a5,s1,80005a80 <__multiply+0x34>
80005a7e:	0585                	addi	a1,a1,1
80005a80:	3305                	jal	800057a0 <_Balloc>
80005a82:	ed11                	bnez	a0,80005a9e <__multiply+0x52>
80005a84:	00001697          	auipc	a3,0x1
80005a88:	50068693          	addi	a3,a3,1280 # 80006f84 <__clz_tab+0x210>
80005a8c:	4601                	li	a2,0
80005a8e:	15d00593          	li	a1,349
80005a92:	00001517          	auipc	a0,0x1
80005a96:	56650513          	addi	a0,a0,1382 # 80006ff8 <__sf_fake_stdout+0x20>
80005a9a:	343000ef          	jal	ra,800065dc <__assert_func>
80005a9e:	01450693          	addi	a3,a0,20
80005aa2:	00249813          	slli	a6,s1,0x2
80005aa6:	9836                	add	a6,a6,a3
80005aa8:	87b6                	mv	a5,a3
80005aaa:	0507ea63          	bltu	a5,a6,80005afe <__multiply+0xb2>
80005aae:	01440313          	addi	t1,s0,20
80005ab2:	002a1593          	slli	a1,s4,0x2
80005ab6:	01490613          	addi	a2,s2,20
80005aba:	00299893          	slli	a7,s3,0x2
80005abe:	959a                	add	a1,a1,t1
80005ac0:	01540793          	addi	a5,s0,21
80005ac4:	98b2                	add	a7,a7,a2
80005ac6:	4e11                	li	t3,4
80005ac8:	00f5e863          	bltu	a1,a5,80005ad8 <__multiply+0x8c>
80005acc:	40858433          	sub	s0,a1,s0
80005ad0:	142d                	addi	s0,s0,-21
80005ad2:	9871                	andi	s0,s0,-4
80005ad4:	00440e13          	addi	t3,s0,4
80005ad8:	6ec1                	lui	t4,0x10
80005ada:	1efd                	addi	t4,t4,-1
80005adc:	03166563          	bltu	a2,a7,80005b06 <__multiply+0xba>
80005ae0:	00905663          	blez	s1,80005aec <__multiply+0xa0>
80005ae4:	ffc82783          	lw	a5,-4(a6)
80005ae8:	1871                	addi	a6,a6,-4
80005aea:	cff1                	beqz	a5,80005bc6 <__multiply+0x17a>
80005aec:	40f2                	lw	ra,28(sp)
80005aee:	4462                	lw	s0,24(sp)
80005af0:	c904                	sw	s1,16(a0)
80005af2:	4942                	lw	s2,16(sp)
80005af4:	44d2                	lw	s1,20(sp)
80005af6:	49b2                	lw	s3,12(sp)
80005af8:	4a22                	lw	s4,8(sp)
80005afa:	6105                	addi	sp,sp,32
80005afc:	8082                	ret
80005afe:	0007a023          	sw	zero,0(a5)
80005b02:	0791                	addi	a5,a5,4
80005b04:	b75d                	j	80005aaa <__multiply+0x5e>
80005b06:	00062f83          	lw	t6,0(a2)
80005b0a:	01dfffb3          	and	t6,t6,t4
80005b0e:	040f8b63          	beqz	t6,80005b64 <__multiply+0x118>
80005b12:	83b6                	mv	t2,a3
80005b14:	829a                	mv	t0,t1
80005b16:	4901                	li	s2,0
80005b18:	0002a703          	lw	a4,0(t0) # 80005786 <memset+0x8e>
80005b1c:	0003a403          	lw	s0,0(t2)
80005b20:	0391                	addi	t2,t2,4
80005b22:	01d77f33          	and	t5,a4,t4
80005b26:	03ff0f33          	mul	t5,t5,t6
80005b2a:	01d477b3          	and	a5,s0,t4
80005b2e:	8041                	srli	s0,s0,0x10
80005b30:	0291                	addi	t0,t0,4
80005b32:	9f3e                	add	t5,t5,a5
80005b34:	01075793          	srli	a5,a4,0x10
80005b38:	03f787b3          	mul	a5,a5,t6
80005b3c:	9f4a                	add	t5,t5,s2
80005b3e:	010f5713          	srli	a4,t5,0x10
80005b42:	01df7f33          	and	t5,t5,t4
80005b46:	97a2                	add	a5,a5,s0
80005b48:	97ba                	add	a5,a5,a4
80005b4a:	0107d913          	srli	s2,a5,0x10
80005b4e:	07c2                	slli	a5,a5,0x10
80005b50:	01e7e7b3          	or	a5,a5,t5
80005b54:	fef3ae23          	sw	a5,-4(t2)
80005b58:	fcb2e0e3          	bltu	t0,a1,80005b18 <__multiply+0xcc>
80005b5c:	01c687b3          	add	a5,a3,t3
80005b60:	0127a023          	sw	s2,0(a5)
80005b64:	00265383          	lhu	t2,2(a2)
80005b68:	04038c63          	beqz	t2,80005bc0 <__multiply+0x174>
80005b6c:	429c                	lw	a5,0(a3)
80005b6e:	8fb6                	mv	t6,a3
80005b70:	8f1a                	mv	t5,t1
80005b72:	4281                	li	t0,0
80005b74:	000f2703          	lw	a4,0(t5)
80005b78:	002fd403          	lhu	s0,2(t6)
80005b7c:	01d7f7b3          	and	a5,a5,t4
80005b80:	01d77733          	and	a4,a4,t4
80005b84:	02770733          	mul	a4,a4,t2
80005b88:	0f91                	addi	t6,t6,4
80005b8a:	0f11                	addi	t5,t5,4
80005b8c:	9722                	add	a4,a4,s0
80005b8e:	9716                	add	a4,a4,t0
80005b90:	01071293          	slli	t0,a4,0x10
80005b94:	00f2e7b3          	or	a5,t0,a5
80005b98:	feffae23          	sw	a5,-4(t6)
80005b9c:	ffef5783          	lhu	a5,-2(t5)
80005ba0:	000fa283          	lw	t0,0(t6)
80005ba4:	8341                	srli	a4,a4,0x10
80005ba6:	027787b3          	mul	a5,a5,t2
80005baa:	01d2f2b3          	and	t0,t0,t4
80005bae:	9796                	add	a5,a5,t0
80005bb0:	97ba                	add	a5,a5,a4
80005bb2:	0107d293          	srli	t0,a5,0x10
80005bb6:	fabf6fe3          	bltu	t5,a1,80005b74 <__multiply+0x128>
80005bba:	01c68733          	add	a4,a3,t3
80005bbe:	c31c                	sw	a5,0(a4)
80005bc0:	0611                	addi	a2,a2,4
80005bc2:	0691                	addi	a3,a3,4
80005bc4:	bf21                	j	80005adc <__multiply+0x90>
80005bc6:	14fd                	addi	s1,s1,-1
80005bc8:	bf21                	j	80005ae0 <__multiply+0x94>

80005bca <__pow5mult>:
__pow5mult():
80005bca:	1101                	addi	sp,sp,-32
80005bcc:	ca26                	sw	s1,20(sp)
80005bce:	c84a                	sw	s2,16(sp)
80005bd0:	c64e                	sw	s3,12(sp)
80005bd2:	ce06                	sw	ra,28(sp)
80005bd4:	cc22                	sw	s0,24(sp)
80005bd6:	c452                	sw	s4,8(sp)
80005bd8:	00367793          	andi	a5,a2,3
80005bdc:	892a                	mv	s2,a0
80005bde:	84b2                	mv	s1,a2
80005be0:	89ae                	mv	s3,a1
80005be2:	cf81                	beqz	a5,80005bfa <__pow5mult+0x30>
80005be4:	17fd                	addi	a5,a5,-1
80005be6:	00001717          	auipc	a4,0x1
80005bea:	55a70713          	addi	a4,a4,1370 # 80007140 <p05.0>
80005bee:	078a                	slli	a5,a5,0x2
80005bf0:	97ba                	add	a5,a5,a4
80005bf2:	4390                	lw	a2,0(a5)
80005bf4:	4681                	li	a3,0
80005bf6:	395d                	jal	800058ac <__multadd>
80005bf8:	89aa                	mv	s3,a0
80005bfa:	8489                	srai	s1,s1,0x2
80005bfc:	c4d9                	beqz	s1,80005c8a <__pow5mult+0xc0>
80005bfe:	02492783          	lw	a5,36(s2)
80005c02:	ef85                	bnez	a5,80005c3a <__pow5mult+0x70>
80005c04:	4541                	li	a0,16
80005c06:	9f3ff0ef          	jal	ra,800055f8 <malloc>
80005c0a:	02a92223          	sw	a0,36(s2)
80005c0e:	ed11                	bnez	a0,80005c2a <__pow5mult+0x60>
80005c10:	00001697          	auipc	a3,0x1
80005c14:	30868693          	addi	a3,a3,776 # 80006f18 <__clz_tab+0x1a4>
80005c18:	4601                	li	a2,0
80005c1a:	1ae00593          	li	a1,430
80005c1e:	00001517          	auipc	a0,0x1
80005c22:	3da50513          	addi	a0,a0,986 # 80006ff8 <__sf_fake_stdout+0x20>
80005c26:	1b7000ef          	jal	ra,800065dc <__assert_func>
80005c2a:	00052223          	sw	zero,4(a0)
80005c2e:	00052423          	sw	zero,8(a0)
80005c32:	00052023          	sw	zero,0(a0)
80005c36:	00052623          	sw	zero,12(a0)
80005c3a:	02492a03          	lw	s4,36(s2)
80005c3e:	008a2403          	lw	s0,8(s4)
80005c42:	e811                	bnez	s0,80005c56 <__pow5mult+0x8c>
80005c44:	27100593          	li	a1,625
80005c48:	854a                	mv	a0,s2
80005c4a:	33f1                	jal	80005a16 <__i2b>
80005c4c:	00aa2423          	sw	a0,8(s4)
80005c50:	842a                	mv	s0,a0
80005c52:	00052023          	sw	zero,0(a0)
80005c56:	0014f793          	andi	a5,s1,1
80005c5a:	cb99                	beqz	a5,80005c70 <__pow5mult+0xa6>
80005c5c:	85ce                	mv	a1,s3
80005c5e:	8622                	mv	a2,s0
80005c60:	854a                	mv	a0,s2
80005c62:	33ed                	jal	80005a4c <__multiply>
80005c64:	8a2a                	mv	s4,a0
80005c66:	85ce                	mv	a1,s3
80005c68:	854a                	mv	a0,s2
80005c6a:	be3ff0ef          	jal	ra,8000584c <_Bfree>
80005c6e:	89d2                	mv	s3,s4
80005c70:	8485                	srai	s1,s1,0x1
80005c72:	cc81                	beqz	s1,80005c8a <__pow5mult+0xc0>
80005c74:	4008                	lw	a0,0(s0)
80005c76:	e901                	bnez	a0,80005c86 <__pow5mult+0xbc>
80005c78:	8622                	mv	a2,s0
80005c7a:	85a2                	mv	a1,s0
80005c7c:	854a                	mv	a0,s2
80005c7e:	33f9                	jal	80005a4c <__multiply>
80005c80:	c008                	sw	a0,0(s0)
80005c82:	00052023          	sw	zero,0(a0)
80005c86:	842a                	mv	s0,a0
80005c88:	b7f9                	j	80005c56 <__pow5mult+0x8c>
80005c8a:	40f2                	lw	ra,28(sp)
80005c8c:	4462                	lw	s0,24(sp)
80005c8e:	44d2                	lw	s1,20(sp)
80005c90:	4942                	lw	s2,16(sp)
80005c92:	4a22                	lw	s4,8(sp)
80005c94:	854e                	mv	a0,s3
80005c96:	49b2                	lw	s3,12(sp)
80005c98:	6105                	addi	sp,sp,32
80005c9a:	8082                	ret

80005c9c <__lshift>:
__lshift():
80005c9c:	1101                	addi	sp,sp,-32
80005c9e:	cc22                	sw	s0,24(sp)
80005ca0:	842e                	mv	s0,a1
80005ca2:	c05a                	sw	s6,0(sp)
80005ca4:	01042b03          	lw	s6,16(s0)
80005ca8:	ca26                	sw	s1,20(sp)
80005caa:	41cc                	lw	a1,4(a1)
80005cac:	40565493          	srai	s1,a2,0x5
80005cb0:	441c                	lw	a5,8(s0)
80005cb2:	9b26                	add	s6,s6,s1
80005cb4:	c84a                	sw	s2,16(sp)
80005cb6:	c452                	sw	s4,8(sp)
80005cb8:	c256                	sw	s5,4(sp)
80005cba:	ce06                	sw	ra,28(sp)
80005cbc:	c64e                	sw	s3,12(sp)
80005cbe:	8aaa                	mv	s5,a0
80005cc0:	8932                	mv	s2,a2
80005cc2:	001b0a13          	addi	s4,s6,1
80005cc6:	0347c463          	blt	a5,s4,80005cee <__lshift+0x52>
80005cca:	8556                	mv	a0,s5
80005ccc:	ad5ff0ef          	jal	ra,800057a0 <_Balloc>
80005cd0:	89aa                	mv	s3,a0
80005cd2:	e10d                	bnez	a0,80005cf4 <__lshift+0x58>
80005cd4:	00001697          	auipc	a3,0x1
80005cd8:	2b068693          	addi	a3,a3,688 # 80006f84 <__clz_tab+0x210>
80005cdc:	4601                	li	a2,0
80005cde:	1d900593          	li	a1,473
80005ce2:	00001517          	auipc	a0,0x1
80005ce6:	31650513          	addi	a0,a0,790 # 80006ff8 <__sf_fake_stdout+0x20>
80005cea:	0f3000ef          	jal	ra,800065dc <__assert_func>
80005cee:	0585                	addi	a1,a1,1
80005cf0:	0786                	slli	a5,a5,0x1
80005cf2:	bfd1                	j	80005cc6 <__lshift+0x2a>
80005cf4:	01450793          	addi	a5,a0,20
80005cf8:	86be                	mv	a3,a5
80005cfa:	4701                	li	a4,0
80005cfc:	0691                	addi	a3,a3,4
80005cfe:	08974563          	blt	a4,s1,80005d88 <__lshift+0xec>
80005d02:	0004d363          	bgez	s1,80005d08 <__lshift+0x6c>
80005d06:	4481                	li	s1,0
80005d08:	048a                	slli	s1,s1,0x2
80005d0a:	009786b3          	add	a3,a5,s1
80005d0e:	481c                	lw	a5,16(s0)
80005d10:	01440713          	addi	a4,s0,20
80005d14:	01f97613          	andi	a2,s2,31
80005d18:	078a                	slli	a5,a5,0x2
80005d1a:	97ba                	add	a5,a5,a4
80005d1c:	ca35                	beqz	a2,80005d90 <__lshift+0xf4>
80005d1e:	02000813          	li	a6,32
80005d22:	40c80833          	sub	a6,a6,a2
80005d26:	88b6                	mv	a7,a3
80005d28:	4581                	li	a1,0
80005d2a:	4308                	lw	a0,0(a4)
80005d2c:	0891                	addi	a7,a7,4
80005d2e:	0711                	addi	a4,a4,4
80005d30:	00c51533          	sll	a0,a0,a2
80005d34:	8dc9                	or	a1,a1,a0
80005d36:	feb8ae23          	sw	a1,-4(a7) # fcbffffc <_sp+0x6cbefffc>
80005d3a:	ffc72583          	lw	a1,-4(a4)
80005d3e:	0105d5b3          	srl	a1,a1,a6
80005d42:	fef764e3          	bltu	a4,a5,80005d2a <__lshift+0x8e>
80005d46:	01540713          	addi	a4,s0,21
80005d4a:	4611                	li	a2,4
80005d4c:	00e7e763          	bltu	a5,a4,80005d5a <__lshift+0xbe>
80005d50:	8f81                	sub	a5,a5,s0
80005d52:	17ad                	addi	a5,a5,-21
80005d54:	9bf1                	andi	a5,a5,-4
80005d56:	00478613          	addi	a2,a5,4
80005d5a:	96b2                	add	a3,a3,a2
80005d5c:	c28c                	sw	a1,0(a3)
80005d5e:	c199                	beqz	a1,80005d64 <__lshift+0xc8>
80005d60:	002b0a13          	addi	s4,s6,2
80005d64:	1a7d                	addi	s4,s4,-1
80005d66:	0149a823          	sw	s4,16(s3)
80005d6a:	8556                	mv	a0,s5
80005d6c:	85a2                	mv	a1,s0
80005d6e:	adfff0ef          	jal	ra,8000584c <_Bfree>
80005d72:	40f2                	lw	ra,28(sp)
80005d74:	4462                	lw	s0,24(sp)
80005d76:	44d2                	lw	s1,20(sp)
80005d78:	4942                	lw	s2,16(sp)
80005d7a:	4a22                	lw	s4,8(sp)
80005d7c:	4a92                	lw	s5,4(sp)
80005d7e:	4b02                	lw	s6,0(sp)
80005d80:	854e                	mv	a0,s3
80005d82:	49b2                	lw	s3,12(sp)
80005d84:	6105                	addi	sp,sp,32
80005d86:	8082                	ret
80005d88:	fe06ae23          	sw	zero,-4(a3)
80005d8c:	0705                	addi	a4,a4,1
80005d8e:	b7bd                	j	80005cfc <__lshift+0x60>
80005d90:	4310                	lw	a2,0(a4)
80005d92:	0711                	addi	a4,a4,4
80005d94:	0691                	addi	a3,a3,4
80005d96:	fec6ae23          	sw	a2,-4(a3)
80005d9a:	fef76be3          	bltu	a4,a5,80005d90 <__lshift+0xf4>
80005d9e:	b7d9                	j	80005d64 <__lshift+0xc8>

80005da0 <__mcmp>:
__mcmp():
80005da0:	4914                	lw	a3,16(a0)
80005da2:	4998                	lw	a4,16(a1)
80005da4:	87aa                	mv	a5,a0
80005da6:	40e68533          	sub	a0,a3,a4
80005daa:	02e69563          	bne	a3,a4,80005dd4 <__mcmp+0x34>
80005dae:	070a                	slli	a4,a4,0x2
80005db0:	07d1                	addi	a5,a5,20
80005db2:	05d1                	addi	a1,a1,20
80005db4:	00e786b3          	add	a3,a5,a4
80005db8:	95ba                	add	a1,a1,a4
80005dba:	16f1                	addi	a3,a3,-4
80005dbc:	15f1                	addi	a1,a1,-4
80005dbe:	4290                	lw	a2,0(a3)
80005dc0:	4198                	lw	a4,0(a1)
80005dc2:	00e60763          	beq	a2,a4,80005dd0 <__mcmp+0x30>
80005dc6:	557d                	li	a0,-1
80005dc8:	00e66663          	bltu	a2,a4,80005dd4 <__mcmp+0x34>
80005dcc:	4505                	li	a0,1
80005dce:	8082                	ret
80005dd0:	fed7e5e3          	bltu	a5,a3,80005dba <__mcmp+0x1a>
80005dd4:	8082                	ret

80005dd6 <__mdiff>:
__mdiff():
80005dd6:	1101                	addi	sp,sp,-32
80005dd8:	cc22                	sw	s0,24(sp)
80005dda:	842e                	mv	s0,a1
80005ddc:	c84a                	sw	s2,16(sp)
80005dde:	85b2                	mv	a1,a2
80005de0:	892a                	mv	s2,a0
80005de2:	8522                	mv	a0,s0
80005de4:	ca26                	sw	s1,20(sp)
80005de6:	ce06                	sw	ra,28(sp)
80005de8:	c64e                	sw	s3,12(sp)
80005dea:	84b2                	mv	s1,a2
80005dec:	3f55                	jal	80005da0 <__mcmp>
80005dee:	ed15                	bnez	a0,80005e2a <__mdiff+0x54>
80005df0:	4581                	li	a1,0
80005df2:	854a                	mv	a0,s2
80005df4:	9adff0ef          	jal	ra,800057a0 <_Balloc>
80005df8:	ed11                	bnez	a0,80005e14 <__mdiff+0x3e>
80005dfa:	00001697          	auipc	a3,0x1
80005dfe:	18a68693          	addi	a3,a3,394 # 80006f84 <__clz_tab+0x210>
80005e02:	4601                	li	a2,0
80005e04:	23200593          	li	a1,562
80005e08:	00001517          	auipc	a0,0x1
80005e0c:	1f050513          	addi	a0,a0,496 # 80006ff8 <__sf_fake_stdout+0x20>
80005e10:	7cc000ef          	jal	ra,800065dc <__assert_func>
80005e14:	4785                	li	a5,1
80005e16:	c91c                	sw	a5,16(a0)
80005e18:	00052a23          	sw	zero,20(a0)
80005e1c:	40f2                	lw	ra,28(sp)
80005e1e:	4462                	lw	s0,24(sp)
80005e20:	44d2                	lw	s1,20(sp)
80005e22:	4942                	lw	s2,16(sp)
80005e24:	49b2                	lw	s3,12(sp)
80005e26:	6105                	addi	sp,sp,32
80005e28:	8082                	ret
80005e2a:	4985                	li	s3,1
80005e2c:	00054663          	bltz	a0,80005e38 <__mdiff+0x62>
80005e30:	87a6                	mv	a5,s1
80005e32:	4981                	li	s3,0
80005e34:	84a2                	mv	s1,s0
80005e36:	843e                	mv	s0,a5
80005e38:	40cc                	lw	a1,4(s1)
80005e3a:	854a                	mv	a0,s2
80005e3c:	965ff0ef          	jal	ra,800057a0 <_Balloc>
80005e40:	e909                	bnez	a0,80005e52 <__mdiff+0x7c>
80005e42:	00001697          	auipc	a3,0x1
80005e46:	14268693          	addi	a3,a3,322 # 80006f84 <__clz_tab+0x210>
80005e4a:	4601                	li	a2,0
80005e4c:	24000593          	li	a1,576
80005e50:	bf65                	j	80005e08 <__mdiff+0x32>
80005e52:	0104a803          	lw	a6,16(s1)
80005e56:	4818                	lw	a4,16(s0)
80005e58:	01448893          	addi	a7,s1,20
80005e5c:	00281693          	slli	a3,a6,0x2
80005e60:	01440793          	addi	a5,s0,20
80005e64:	070a                	slli	a4,a4,0x2
80005e66:	6ec1                	lui	t4,0x10
80005e68:	01352623          	sw	s3,12(a0)
80005e6c:	96c6                	add	a3,a3,a7
80005e6e:	97ba                	add	a5,a5,a4
80005e70:	01450613          	addi	a2,a0,20
80005e74:	4e51                	li	t3,20
80005e76:	4301                	li	t1,0
80005e78:	1efd                	addi	t4,t4,-1
80005e7a:	01c48733          	add	a4,s1,t3
80005e7e:	4318                	lw	a4,0(a4)
80005e80:	01c405b3          	add	a1,s0,t3
80005e84:	0005af03          	lw	t5,0(a1) # 10000 <__stack_size+0xf800>
80005e88:	01d775b3          	and	a1,a4,t4
80005e8c:	959a                	add	a1,a1,t1
80005e8e:	01df7333          	and	t1,t5,t4
80005e92:	406585b3          	sub	a1,a1,t1
80005e96:	010f5f13          	srli	t5,t5,0x10
80005e9a:	8341                	srli	a4,a4,0x10
80005e9c:	4105d313          	srai	t1,a1,0x10
80005ea0:	41e70733          	sub	a4,a4,t5
80005ea4:	971a                	add	a4,a4,t1
80005ea6:	41075313          	srai	t1,a4,0x10
80005eaa:	01d5f5b3          	and	a1,a1,t4
80005eae:	0742                	slli	a4,a4,0x10
80005eb0:	01c50f33          	add	t5,a0,t3
80005eb4:	8f4d                	or	a4,a4,a1
80005eb6:	0e11                	addi	t3,t3,4
80005eb8:	00ef2023          	sw	a4,0(t5)
80005ebc:	008e0733          	add	a4,t3,s0
80005ec0:	faf76de3          	bltu	a4,a5,80005e7a <__mdiff+0xa4>
80005ec4:	01540593          	addi	a1,s0,21
80005ec8:	4711                	li	a4,4
80005eca:	00b7e763          	bltu	a5,a1,80005ed8 <__mdiff+0x102>
80005ece:	8f81                	sub	a5,a5,s0
80005ed0:	17ad                	addi	a5,a5,-21
80005ed2:	9bf1                	andi	a5,a5,-4
80005ed4:	00478713          	addi	a4,a5,4
80005ed8:	98ba                	add	a7,a7,a4
80005eda:	6e41                	lui	t3,0x10
80005edc:	9732                	add	a4,a4,a2
80005ede:	8eba                	mv	t4,a4
80005ee0:	85c6                	mv	a1,a7
80005ee2:	1e7d                	addi	t3,t3,-1
80005ee4:	02d5e263          	bltu	a1,a3,80005f08 <__mdiff+0x132>
80005ee8:	ffd88613          	addi	a2,a7,-3
80005eec:	4781                	li	a5,0
80005eee:	00c6e663          	bltu	a3,a2,80005efa <__mdiff+0x124>
80005ef2:	068d                	addi	a3,a3,3
80005ef4:	411687b3          	sub	a5,a3,a7
80005ef8:	9bf1                	andi	a5,a5,-4
80005efa:	97ba                	add	a5,a5,a4
80005efc:	17f1                	addi	a5,a5,-4
80005efe:	4398                	lw	a4,0(a5)
80005f00:	c71d                	beqz	a4,80005f2e <__mdiff+0x158>
80005f02:	01052823          	sw	a6,16(a0)
80005f06:	bf19                	j	80005e1c <__mdiff+0x46>
80005f08:	419c                	lw	a5,0(a1)
80005f0a:	0e91                	addi	t4,t4,4
80005f0c:	0591                	addi	a1,a1,4
80005f0e:	01c7f633          	and	a2,a5,t3
80005f12:	961a                	add	a2,a2,t1
80005f14:	41065313          	srai	t1,a2,0x10
80005f18:	83c1                	srli	a5,a5,0x10
80005f1a:	979a                	add	a5,a5,t1
80005f1c:	4107d313          	srai	t1,a5,0x10
80005f20:	01c67633          	and	a2,a2,t3
80005f24:	07c2                	slli	a5,a5,0x10
80005f26:	8fd1                	or	a5,a5,a2
80005f28:	fefeae23          	sw	a5,-4(t4) # fffc <__stack_size+0xf7fc>
80005f2c:	bf65                	j	80005ee4 <__mdiff+0x10e>
80005f2e:	187d                	addi	a6,a6,-1
80005f30:	b7f1                	j	80005efc <__mdiff+0x126>

80005f32 <__d2b>:
__d2b():
80005f32:	7179                	addi	sp,sp,-48
80005f34:	d226                	sw	s1,36(sp)
80005f36:	84ae                	mv	s1,a1
80005f38:	4585                	li	a1,1
80005f3a:	d422                	sw	s0,40(sp)
80005f3c:	d04a                	sw	s2,32(sp)
80005f3e:	ce4e                	sw	s3,28(sp)
80005f40:	d606                	sw	ra,44(sp)
80005f42:	cc52                	sw	s4,24(sp)
80005f44:	8432                	mv	s0,a2
80005f46:	89b6                	mv	s3,a3
80005f48:	893a                	mv	s2,a4
80005f4a:	857ff0ef          	jal	ra,800057a0 <_Balloc>
80005f4e:	ed09                	bnez	a0,80005f68 <__d2b+0x36>
80005f50:	00001697          	auipc	a3,0x1
80005f54:	03468693          	addi	a3,a3,52 # 80006f84 <__clz_tab+0x210>
80005f58:	4601                	li	a2,0
80005f5a:	30a00593          	li	a1,778
80005f5e:	00001517          	auipc	a0,0x1
80005f62:	09a50513          	addi	a0,a0,154 # 80006ff8 <__sf_fake_stdout+0x20>
80005f66:	2d9d                	jal	800065dc <__assert_func>
80005f68:	00100737          	lui	a4,0x100
80005f6c:	fff70793          	addi	a5,a4,-1 # fffff <__stack_size+0xff7ff>
80005f70:	8fe1                	and	a5,a5,s0
80005f72:	8051                	srli	s0,s0,0x14
80005f74:	7ff47413          	andi	s0,s0,2047
80005f78:	8a2a                	mv	s4,a0
80005f7a:	e035                	bnez	s0,80005fde <__d2b+0xac>
80005f7c:	c63e                	sw	a5,12(sp)
80005f7e:	c4ad                	beqz	s1,80005fe8 <__d2b+0xb6>
80005f80:	0028                	addi	a0,sp,8
80005f82:	c426                	sw	s1,8(sp)
80005f84:	a29ff0ef          	jal	ra,800059ac <__lo0bits>
80005f88:	46a2                	lw	a3,8(sp)
80005f8a:	cd21                	beqz	a0,80005fe2 <__d2b+0xb0>
80005f8c:	4732                	lw	a4,12(sp)
80005f8e:	02000793          	li	a5,32
80005f92:	8f89                	sub	a5,a5,a0
80005f94:	00f717b3          	sll	a5,a4,a5
80005f98:	8fd5                	or	a5,a5,a3
80005f9a:	00a75733          	srl	a4,a4,a0
80005f9e:	00fa2a23          	sw	a5,20(s4)
80005fa2:	c63a                	sw	a4,12(sp)
80005fa4:	44b2                	lw	s1,12(sp)
80005fa6:	009a2c23          	sw	s1,24(s4)
80005faa:	009034b3          	snez	s1,s1
80005fae:	0485                	addi	s1,s1,1
80005fb0:	009a2823          	sw	s1,16(s4)
80005fb4:	c439                	beqz	s0,80006002 <__d2b+0xd0>
80005fb6:	bcd40413          	addi	s0,s0,-1075
80005fba:	942a                	add	s0,s0,a0
80005fbc:	03500793          	li	a5,53
80005fc0:	0089a023          	sw	s0,0(s3)
80005fc4:	40a78533          	sub	a0,a5,a0
80005fc8:	00a92023          	sw	a0,0(s2)
80005fcc:	50b2                	lw	ra,44(sp)
80005fce:	5422                	lw	s0,40(sp)
80005fd0:	5492                	lw	s1,36(sp)
80005fd2:	5902                	lw	s2,32(sp)
80005fd4:	49f2                	lw	s3,28(sp)
80005fd6:	8552                	mv	a0,s4
80005fd8:	4a62                	lw	s4,24(sp)
80005fda:	6145                	addi	sp,sp,48
80005fdc:	8082                	ret
80005fde:	8fd9                	or	a5,a5,a4
80005fe0:	bf71                	j	80005f7c <__d2b+0x4a>
80005fe2:	00da2a23          	sw	a3,20(s4)
80005fe6:	bf7d                	j	80005fa4 <__d2b+0x72>
80005fe8:	0068                	addi	a0,sp,12
80005fea:	9c3ff0ef          	jal	ra,800059ac <__lo0bits>
80005fee:	47b2                	lw	a5,12(sp)
80005ff0:	02050513          	addi	a0,a0,32
80005ff4:	4485                	li	s1,1
80005ff6:	00fa2a23          	sw	a5,20(s4)
80005ffa:	4785                	li	a5,1
80005ffc:	00fa2823          	sw	a5,16(s4)
80006000:	bf55                	j	80005fb4 <__d2b+0x82>
80006002:	bce50793          	addi	a5,a0,-1074
80006006:	00f9a023          	sw	a5,0(s3)
8000600a:	00249793          	slli	a5,s1,0x2
8000600e:	97d2                	add	a5,a5,s4
80006010:	4b88                	lw	a0,16(a5)
80006012:	0496                	slli	s1,s1,0x5
80006014:	953ff0ef          	jal	ra,80005966 <__hi0bits>
80006018:	8c89                	sub	s1,s1,a0
8000601a:	00992023          	sw	s1,0(s2)
8000601e:	b77d                	j	80005fcc <__d2b+0x9a>

80006020 <_calloc_r>:
_calloc_r():
80006020:	8732                	mv	a4,a2
80006022:	02e5b7b3          	mulhu	a5,a1,a4
80006026:	1101                	addi	sp,sp,-32
80006028:	ce06                	sw	ra,28(sp)
8000602a:	cc22                	sw	s0,24(sp)
8000602c:	02c58633          	mul	a2,a1,a2
80006030:	cb89                	beqz	a5,80006042 <_calloc_r+0x22>
80006032:	47b1                	li	a5,12
80006034:	c11c                	sw	a5,0(a0)
80006036:	4401                	li	s0,0
80006038:	40f2                	lw	ra,28(sp)
8000603a:	8522                	mv	a0,s0
8000603c:	4462                	lw	s0,24(sp)
8000603e:	6105                	addi	sp,sp,32
80006040:	8082                	ret
80006042:	85b2                	mv	a1,a2
80006044:	c632                	sw	a2,12(sp)
80006046:	207d                	jal	800060f4 <_malloc_r>
80006048:	842a                	mv	s0,a0
8000604a:	d57d                	beqz	a0,80006038 <_calloc_r+0x18>
8000604c:	4632                	lw	a2,12(sp)
8000604e:	4581                	li	a1,0
80006050:	ea8ff0ef          	jal	ra,800056f8 <memset>
80006054:	b7d5                	j	80006038 <_calloc_r+0x18>

80006056 <_free_r>:
_free_r():
80006056:	cdd1                	beqz	a1,800060f2 <_free_r+0x9c>
80006058:	ffc5a783          	lw	a5,-4(a1)
8000605c:	1101                	addi	sp,sp,-32
8000605e:	cc22                	sw	s0,24(sp)
80006060:	ce06                	sw	ra,28(sp)
80006062:	ffc58413          	addi	s0,a1,-4
80006066:	0007d363          	bgez	a5,8000606c <_free_r+0x16>
8000606a:	943e                	add	s0,s0,a5
8000606c:	c62a                	sw	a0,12(sp)
8000606e:	256d                	jal	80006718 <__malloc_lock>
80006070:	89818713          	addi	a4,gp,-1896 # 90000270 <__malloc_free_list>
80006074:	431c                	lw	a5,0(a4)
80006076:	4532                	lw	a0,12(sp)
80006078:	eb81                	bnez	a5,80006088 <_free_r+0x32>
8000607a:	00042223          	sw	zero,4(s0)
8000607e:	c300                	sw	s0,0(a4)
80006080:	4462                	lw	s0,24(sp)
80006082:	40f2                	lw	ra,28(sp)
80006084:	6105                	addi	sp,sp,32
80006086:	ad51                	j	8000671a <__malloc_unlock>
80006088:	00f47d63          	bgeu	s0,a5,800060a2 <_free_r+0x4c>
8000608c:	4010                	lw	a2,0(s0)
8000608e:	00c406b3          	add	a3,s0,a2
80006092:	00d79663          	bne	a5,a3,8000609e <_free_r+0x48>
80006096:	4394                	lw	a3,0(a5)
80006098:	43dc                	lw	a5,4(a5)
8000609a:	96b2                	add	a3,a3,a2
8000609c:	c014                	sw	a3,0(s0)
8000609e:	c05c                	sw	a5,4(s0)
800060a0:	bff9                	j	8000607e <_free_r+0x28>
800060a2:	873e                	mv	a4,a5
800060a4:	43dc                	lw	a5,4(a5)
800060a6:	c399                	beqz	a5,800060ac <_free_r+0x56>
800060a8:	fef47de3          	bgeu	s0,a5,800060a2 <_free_r+0x4c>
800060ac:	4314                	lw	a3,0(a4)
800060ae:	00d70633          	add	a2,a4,a3
800060b2:	00861f63          	bne	a2,s0,800060d0 <_free_r+0x7a>
800060b6:	4010                	lw	a2,0(s0)
800060b8:	96b2                	add	a3,a3,a2
800060ba:	c314                	sw	a3,0(a4)
800060bc:	00d70633          	add	a2,a4,a3
800060c0:	fcc790e3          	bne	a5,a2,80006080 <_free_r+0x2a>
800060c4:	4390                	lw	a2,0(a5)
800060c6:	43dc                	lw	a5,4(a5)
800060c8:	96b2                	add	a3,a3,a2
800060ca:	c314                	sw	a3,0(a4)
800060cc:	c35c                	sw	a5,4(a4)
800060ce:	bf4d                	j	80006080 <_free_r+0x2a>
800060d0:	00c47563          	bgeu	s0,a2,800060da <_free_r+0x84>
800060d4:	47b1                	li	a5,12
800060d6:	c11c                	sw	a5,0(a0)
800060d8:	b765                	j	80006080 <_free_r+0x2a>
800060da:	4010                	lw	a2,0(s0)
800060dc:	00c406b3          	add	a3,s0,a2
800060e0:	00d79663          	bne	a5,a3,800060ec <_free_r+0x96>
800060e4:	4394                	lw	a3,0(a5)
800060e6:	43dc                	lw	a5,4(a5)
800060e8:	96b2                	add	a3,a3,a2
800060ea:	c014                	sw	a3,0(s0)
800060ec:	c05c                	sw	a5,4(s0)
800060ee:	c340                	sw	s0,4(a4)
800060f0:	bf41                	j	80006080 <_free_r+0x2a>
800060f2:	8082                	ret

800060f4 <_malloc_r>:
_malloc_r():
800060f4:	1101                	addi	sp,sp,-32
800060f6:	ca26                	sw	s1,20(sp)
800060f8:	00358493          	addi	s1,a1,3
800060fc:	98f1                	andi	s1,s1,-4
800060fe:	c84a                	sw	s2,16(sp)
80006100:	ce06                	sw	ra,28(sp)
80006102:	cc22                	sw	s0,24(sp)
80006104:	c64e                	sw	s3,12(sp)
80006106:	04a1                	addi	s1,s1,8
80006108:	47b1                	li	a5,12
8000610a:	892a                	mv	s2,a0
8000610c:	04f4f063          	bgeu	s1,a5,8000614c <_malloc_r+0x58>
80006110:	44b1                	li	s1,12
80006112:	02b4ef63          	bltu	s1,a1,80006150 <_malloc_r+0x5c>
80006116:	854a                	mv	a0,s2
80006118:	2501                	jal	80006718 <__malloc_lock>
8000611a:	89818693          	addi	a3,gp,-1896 # 90000270 <__malloc_free_list>
8000611e:	4298                	lw	a4,0(a3)
80006120:	843a                	mv	s0,a4
80006122:	e031                	bnez	s0,80006166 <_malloc_r+0x72>
80006124:	89c18413          	addi	s0,gp,-1892 # 90000274 <__malloc_sbrk_start>
80006128:	401c                	lw	a5,0(s0)
8000612a:	e789                	bnez	a5,80006134 <_malloc_r+0x40>
8000612c:	4581                	li	a1,0
8000612e:	854a                	mv	a0,s2
80006130:	2e79                	jal	800064ce <_sbrk_r>
80006132:	c008                	sw	a0,0(s0)
80006134:	85a6                	mv	a1,s1
80006136:	854a                	mv	a0,s2
80006138:	2e59                	jal	800064ce <_sbrk_r>
8000613a:	59fd                	li	s3,-1
8000613c:	07351863          	bne	a0,s3,800061ac <_malloc_r+0xb8>
80006140:	47b1                	li	a5,12
80006142:	00f92023          	sw	a5,0(s2)
80006146:	854a                	mv	a0,s2
80006148:	2bc9                	jal	8000671a <__malloc_unlock>
8000614a:	a031                	j	80006156 <_malloc_r+0x62>
8000614c:	fc04d3e3          	bgez	s1,80006112 <_malloc_r+0x1e>
80006150:	47b1                	li	a5,12
80006152:	00f92023          	sw	a5,0(s2)
80006156:	4501                	li	a0,0
80006158:	40f2                	lw	ra,28(sp)
8000615a:	4462                	lw	s0,24(sp)
8000615c:	44d2                	lw	s1,20(sp)
8000615e:	4942                	lw	s2,16(sp)
80006160:	49b2                	lw	s3,12(sp)
80006162:	6105                	addi	sp,sp,32
80006164:	8082                	ret
80006166:	401c                	lw	a5,0(s0)
80006168:	8f85                	sub	a5,a5,s1
8000616a:	0207ce63          	bltz	a5,800061a6 <_malloc_r+0xb2>
8000616e:	462d                	li	a2,11
80006170:	00f67663          	bgeu	a2,a5,8000617c <_malloc_r+0x88>
80006174:	c01c                	sw	a5,0(s0)
80006176:	943e                	add	s0,s0,a5
80006178:	c004                	sw	s1,0(s0)
8000617a:	a029                	j	80006184 <_malloc_r+0x90>
8000617c:	405c                	lw	a5,4(s0)
8000617e:	02871263          	bne	a4,s0,800061a2 <_malloc_r+0xae>
80006182:	c29c                	sw	a5,0(a3)
80006184:	854a                	mv	a0,s2
80006186:	2b51                	jal	8000671a <__malloc_unlock>
80006188:	00b40513          	addi	a0,s0,11
8000618c:	00440793          	addi	a5,s0,4
80006190:	9961                	andi	a0,a0,-8
80006192:	40f50733          	sub	a4,a0,a5
80006196:	fcf501e3          	beq	a0,a5,80006158 <_malloc_r+0x64>
8000619a:	943a                	add	s0,s0,a4
8000619c:	8f89                	sub	a5,a5,a0
8000619e:	c01c                	sw	a5,0(s0)
800061a0:	bf65                	j	80006158 <_malloc_r+0x64>
800061a2:	c35c                	sw	a5,4(a4)
800061a4:	b7c5                	j	80006184 <_malloc_r+0x90>
800061a6:	8722                	mv	a4,s0
800061a8:	4040                	lw	s0,4(s0)
800061aa:	bfa5                	j	80006122 <_malloc_r+0x2e>
800061ac:	00350413          	addi	s0,a0,3
800061b0:	9871                	andi	s0,s0,-4
800061b2:	fc8503e3          	beq	a0,s0,80006178 <_malloc_r+0x84>
800061b6:	40a405b3          	sub	a1,s0,a0
800061ba:	854a                	mv	a0,s2
800061bc:	2e09                	jal	800064ce <_sbrk_r>
800061be:	fb351de3          	bne	a0,s3,80006178 <_malloc_r+0x84>
800061c2:	bfbd                	j	80006140 <_malloc_r+0x4c>

800061c4 <__sfputc_r>:
__sfputc_r():
800061c4:	461c                	lw	a5,8(a2)
800061c6:	17fd                	addi	a5,a5,-1
800061c8:	c61c                	sw	a5,8(a2)
800061ca:	0007da63          	bgez	a5,800061de <__sfputc_r+0x1a>
800061ce:	4e18                	lw	a4,24(a2)
800061d0:	00e7c563          	blt	a5,a4,800061da <__sfputc_r+0x16>
800061d4:	47a9                	li	a5,10
800061d6:	00f59463          	bne	a1,a5,800061de <__sfputc_r+0x1a>
800061da:	f87fd06f          	j	80004160 <__swbuf_r>
800061de:	421c                	lw	a5,0(a2)
800061e0:	852e                	mv	a0,a1
800061e2:	00178713          	addi	a4,a5,1
800061e6:	c218                	sw	a4,0(a2)
800061e8:	00b78023          	sb	a1,0(a5)
800061ec:	8082                	ret

800061ee <__sfputs_r>:
__sfputs_r():
800061ee:	1101                	addi	sp,sp,-32
800061f0:	cc22                	sw	s0,24(sp)
800061f2:	ca26                	sw	s1,20(sp)
800061f4:	c84a                	sw	s2,16(sp)
800061f6:	c64e                	sw	s3,12(sp)
800061f8:	c452                	sw	s4,8(sp)
800061fa:	ce06                	sw	ra,28(sp)
800061fc:	892a                	mv	s2,a0
800061fe:	89ae                	mv	s3,a1
80006200:	8432                	mv	s0,a2
80006202:	00d604b3          	add	s1,a2,a3
80006206:	5a7d                	li	s4,-1
80006208:	00941463          	bne	s0,s1,80006210 <__sfputs_r+0x22>
8000620c:	4501                	li	a0,0
8000620e:	a809                	j	80006220 <__sfputs_r+0x32>
80006210:	00044583          	lbu	a1,0(s0)
80006214:	864e                	mv	a2,s3
80006216:	854a                	mv	a0,s2
80006218:	3775                	jal	800061c4 <__sfputc_r>
8000621a:	0405                	addi	s0,s0,1
8000621c:	ff4516e3          	bne	a0,s4,80006208 <__sfputs_r+0x1a>
80006220:	40f2                	lw	ra,28(sp)
80006222:	4462                	lw	s0,24(sp)
80006224:	44d2                	lw	s1,20(sp)
80006226:	4942                	lw	s2,16(sp)
80006228:	49b2                	lw	s3,12(sp)
8000622a:	4a22                	lw	s4,8(sp)
8000622c:	6105                	addi	sp,sp,32
8000622e:	8082                	ret

80006230 <_vfiprintf_r>:
_vfiprintf_r():
80006230:	7135                	addi	sp,sp,-160
80006232:	cd22                	sw	s0,152(sp)
80006234:	cb26                	sw	s1,148(sp)
80006236:	c94a                	sw	s2,144(sp)
80006238:	c74e                	sw	s3,140(sp)
8000623a:	cf06                	sw	ra,156(sp)
8000623c:	c552                	sw	s4,136(sp)
8000623e:	c356                	sw	s5,132(sp)
80006240:	c15a                	sw	s6,128(sp)
80006242:	dede                	sw	s7,124(sp)
80006244:	dce2                	sw	s8,120(sp)
80006246:	dae6                	sw	s9,116(sp)
80006248:	89aa                	mv	s3,a0
8000624a:	84ae                	mv	s1,a1
8000624c:	8932                	mv	s2,a2
8000624e:	8436                	mv	s0,a3
80006250:	c509                	beqz	a0,8000625a <_vfiprintf_r+0x2a>
80006252:	4d1c                	lw	a5,24(a0)
80006254:	e399                	bnez	a5,8000625a <_vfiprintf_r+0x2a>
80006256:	934ff0ef          	jal	ra,8000538a <__sinit>
8000625a:	00001797          	auipc	a5,0x1
8000625e:	d5e78793          	addi	a5,a5,-674 # 80006fb8 <__sf_fake_stdin>
80006262:	0cf49c63          	bne	s1,a5,8000633a <_vfiprintf_r+0x10a>
80006266:	0049a483          	lw	s1,4(s3)
8000626a:	00c4d783          	lhu	a5,12(s1)
8000626e:	8ba1                	andi	a5,a5,8
80006270:	c7fd                	beqz	a5,8000635e <_vfiprintf_r+0x12e>
80006272:	489c                	lw	a5,16(s1)
80006274:	c7ed                	beqz	a5,8000635e <_vfiprintf_r+0x12e>
80006276:	02000793          	li	a5,32
8000627a:	02f104a3          	sb	a5,41(sp)
8000627e:	03000793          	li	a5,48
80006282:	d202                	sw	zero,36(sp)
80006284:	02f10523          	sb	a5,42(sp)
80006288:	c622                	sw	s0,12(sp)
8000628a:	02500b93          	li	s7,37
8000628e:	00001a97          	auipc	s5,0x1
80006292:	ebea8a93          	addi	s5,s5,-322 # 8000714c <p05.0+0xc>
80006296:	4c05                	li	s8,1
80006298:	4b29                	li	s6,10
8000629a:	844a                	mv	s0,s2
8000629c:	00044783          	lbu	a5,0(s0)
800062a0:	c399                	beqz	a5,800062a6 <_vfiprintf_r+0x76>
800062a2:	0f779163          	bne	a5,s7,80006384 <_vfiprintf_r+0x154>
800062a6:	41240cb3          	sub	s9,s0,s2
800062aa:	01240d63          	beq	s0,s2,800062c4 <_vfiprintf_r+0x94>
800062ae:	86e6                	mv	a3,s9
800062b0:	864a                	mv	a2,s2
800062b2:	85a6                	mv	a1,s1
800062b4:	854e                	mv	a0,s3
800062b6:	3f25                	jal	800061ee <__sfputs_r>
800062b8:	57fd                	li	a5,-1
800062ba:	1ef50763          	beq	a0,a5,800064a8 <_vfiprintf_r+0x278>
800062be:	5792                	lw	a5,36(sp)
800062c0:	97e6                	add	a5,a5,s9
800062c2:	d23e                	sw	a5,36(sp)
800062c4:	00044783          	lbu	a5,0(s0)
800062c8:	1e078063          	beqz	a5,800064a8 <_vfiprintf_r+0x278>
800062cc:	57fd                	li	a5,-1
800062ce:	00140913          	addi	s2,s0,1
800062d2:	c802                	sw	zero,16(sp)
800062d4:	ce02                	sw	zero,28(sp)
800062d6:	ca3e                	sw	a5,20(sp)
800062d8:	cc02                	sw	zero,24(sp)
800062da:	040109a3          	sb	zero,83(sp)
800062de:	d482                	sw	zero,104(sp)
800062e0:	00094583          	lbu	a1,0(s2)
800062e4:	4615                	li	a2,5
800062e6:	8556                	mv	a0,s5
800062e8:	b1aff0ef          	jal	ra,80005602 <memchr>
800062ec:	47c2                	lw	a5,16(sp)
800062ee:	00190413          	addi	s0,s2,1
800062f2:	e959                	bnez	a0,80006388 <_vfiprintf_r+0x158>
800062f4:	0107f713          	andi	a4,a5,16
800062f8:	c709                	beqz	a4,80006302 <_vfiprintf_r+0xd2>
800062fa:	02000713          	li	a4,32
800062fe:	04e109a3          	sb	a4,83(sp)
80006302:	0087f713          	andi	a4,a5,8
80006306:	c709                	beqz	a4,80006310 <_vfiprintf_r+0xe0>
80006308:	02b00713          	li	a4,43
8000630c:	04e109a3          	sb	a4,83(sp)
80006310:	00094683          	lbu	a3,0(s2)
80006314:	02a00713          	li	a4,42
80006318:	08e68063          	beq	a3,a4,80006398 <_vfiprintf_r+0x168>
8000631c:	47f2                	lw	a5,28(sp)
8000631e:	844a                	mv	s0,s2
80006320:	4681                	li	a3,0
80006322:	4625                	li	a2,9
80006324:	00044703          	lbu	a4,0(s0)
80006328:	00140593          	addi	a1,s0,1
8000632c:	fd070713          	addi	a4,a4,-48
80006330:	0ae67963          	bgeu	a2,a4,800063e2 <_vfiprintf_r+0x1b2>
80006334:	cab5                	beqz	a3,800063a8 <_vfiprintf_r+0x178>
80006336:	ce3e                	sw	a5,28(sp)
80006338:	a885                	j	800063a8 <_vfiprintf_r+0x178>
8000633a:	00001797          	auipc	a5,0x1
8000633e:	c9e78793          	addi	a5,a5,-866 # 80006fd8 <__sf_fake_stdout>
80006342:	00f49563          	bne	s1,a5,8000634c <_vfiprintf_r+0x11c>
80006346:	0089a483          	lw	s1,8(s3)
8000634a:	b705                	j	8000626a <_vfiprintf_r+0x3a>
8000634c:	00001797          	auipc	a5,0x1
80006350:	c4c78793          	addi	a5,a5,-948 # 80006f98 <__sf_fake_stderr>
80006354:	f0f49be3          	bne	s1,a5,8000626a <_vfiprintf_r+0x3a>
80006358:	00c9a483          	lw	s1,12(s3)
8000635c:	b739                	j	8000626a <_vfiprintf_r+0x3a>
8000635e:	85a6                	mv	a1,s1
80006360:	854e                	mv	a0,s3
80006362:	ec5fd0ef          	jal	ra,80004226 <__swsetup_r>
80006366:	d901                	beqz	a0,80006276 <_vfiprintf_r+0x46>
80006368:	557d                	li	a0,-1
8000636a:	40fa                	lw	ra,156(sp)
8000636c:	446a                	lw	s0,152(sp)
8000636e:	44da                	lw	s1,148(sp)
80006370:	494a                	lw	s2,144(sp)
80006372:	49ba                	lw	s3,140(sp)
80006374:	4a2a                	lw	s4,136(sp)
80006376:	4a9a                	lw	s5,132(sp)
80006378:	4b0a                	lw	s6,128(sp)
8000637a:	5bf6                	lw	s7,124(sp)
8000637c:	5c66                	lw	s8,120(sp)
8000637e:	5cd6                	lw	s9,116(sp)
80006380:	610d                	addi	sp,sp,160
80006382:	8082                	ret
80006384:	0405                	addi	s0,s0,1
80006386:	bf19                	j	8000629c <_vfiprintf_r+0x6c>
80006388:	41550533          	sub	a0,a0,s5
8000638c:	00ac1533          	sll	a0,s8,a0
80006390:	8fc9                	or	a5,a5,a0
80006392:	c83e                	sw	a5,16(sp)
80006394:	8922                	mv	s2,s0
80006396:	b7a9                	j	800062e0 <_vfiprintf_r+0xb0>
80006398:	4732                	lw	a4,12(sp)
8000639a:	00470693          	addi	a3,a4,4
8000639e:	4318                	lw	a4,0(a4)
800063a0:	c636                	sw	a3,12(sp)
800063a2:	02074963          	bltz	a4,800063d4 <_vfiprintf_r+0x1a4>
800063a6:	ce3a                	sw	a4,28(sp)
800063a8:	00044703          	lbu	a4,0(s0)
800063ac:	02e00793          	li	a5,46
800063b0:	04f71f63          	bne	a4,a5,8000640e <_vfiprintf_r+0x1de>
800063b4:	00144703          	lbu	a4,1(s0)
800063b8:	02a00793          	li	a5,42
800063bc:	02f71b63          	bne	a4,a5,800063f2 <_vfiprintf_r+0x1c2>
800063c0:	47b2                	lw	a5,12(sp)
800063c2:	0409                	addi	s0,s0,2
800063c4:	00478713          	addi	a4,a5,4
800063c8:	439c                	lw	a5,0(a5)
800063ca:	c63a                	sw	a4,12(sp)
800063cc:	0207c163          	bltz	a5,800063ee <_vfiprintf_r+0x1be>
800063d0:	ca3e                	sw	a5,20(sp)
800063d2:	a835                	j	8000640e <_vfiprintf_r+0x1de>
800063d4:	40e00733          	neg	a4,a4
800063d8:	0027e793          	ori	a5,a5,2
800063dc:	ce3a                	sw	a4,28(sp)
800063de:	c83e                	sw	a5,16(sp)
800063e0:	b7e1                	j	800063a8 <_vfiprintf_r+0x178>
800063e2:	036787b3          	mul	a5,a5,s6
800063e6:	842e                	mv	s0,a1
800063e8:	4685                	li	a3,1
800063ea:	97ba                	add	a5,a5,a4
800063ec:	bf25                	j	80006324 <_vfiprintf_r+0xf4>
800063ee:	57fd                	li	a5,-1
800063f0:	b7c5                	j	800063d0 <_vfiprintf_r+0x1a0>
800063f2:	0405                	addi	s0,s0,1
800063f4:	ca02                	sw	zero,20(sp)
800063f6:	4681                	li	a3,0
800063f8:	4781                	li	a5,0
800063fa:	4625                	li	a2,9
800063fc:	00044703          	lbu	a4,0(s0)
80006400:	00140593          	addi	a1,s0,1
80006404:	fd070713          	addi	a4,a4,-48
80006408:	06e67863          	bgeu	a2,a4,80006478 <_vfiprintf_r+0x248>
8000640c:	f2f1                	bnez	a3,800063d0 <_vfiprintf_r+0x1a0>
8000640e:	00044583          	lbu	a1,0(s0)
80006412:	460d                	li	a2,3
80006414:	00001517          	auipc	a0,0x1
80006418:	d4050513          	addi	a0,a0,-704 # 80007154 <p05.0+0x14>
8000641c:	9e6ff0ef          	jal	ra,80005602 <memchr>
80006420:	cd11                	beqz	a0,8000643c <_vfiprintf_r+0x20c>
80006422:	00001797          	auipc	a5,0x1
80006426:	d3278793          	addi	a5,a5,-718 # 80007154 <p05.0+0x14>
8000642a:	8d1d                	sub	a0,a0,a5
8000642c:	04000793          	li	a5,64
80006430:	00a797b3          	sll	a5,a5,a0
80006434:	4542                	lw	a0,16(sp)
80006436:	0405                	addi	s0,s0,1
80006438:	8d5d                	or	a0,a0,a5
8000643a:	c82a                	sw	a0,16(sp)
8000643c:	00044583          	lbu	a1,0(s0)
80006440:	4619                	li	a2,6
80006442:	00001517          	auipc	a0,0x1
80006446:	d1650513          	addi	a0,a0,-746 # 80007158 <p05.0+0x18>
8000644a:	00140913          	addi	s2,s0,1
8000644e:	02b10423          	sb	a1,40(sp)
80006452:	9b0ff0ef          	jal	ra,80005602 <memchr>
80006456:	c12d                	beqz	a0,800064b8 <_vfiprintf_r+0x288>
80006458:	ffffd797          	auipc	a5,0xffffd
8000645c:	37e78793          	addi	a5,a5,894 # 800037d6 <_printf_float>
80006460:	e795                	bnez	a5,8000648c <_vfiprintf_r+0x25c>
80006462:	4742                	lw	a4,16(sp)
80006464:	47b2                	lw	a5,12(sp)
80006466:	10077713          	andi	a4,a4,256
8000646a:	cf09                	beqz	a4,80006484 <_vfiprintf_r+0x254>
8000646c:	0791                	addi	a5,a5,4
8000646e:	c63e                	sw	a5,12(sp)
80006470:	5792                	lw	a5,36(sp)
80006472:	97d2                	add	a5,a5,s4
80006474:	d23e                	sw	a5,36(sp)
80006476:	b515                	j	8000629a <_vfiprintf_r+0x6a>
80006478:	036787b3          	mul	a5,a5,s6
8000647c:	842e                	mv	s0,a1
8000647e:	4685                	li	a3,1
80006480:	97ba                	add	a5,a5,a4
80006482:	bfad                	j	800063fc <_vfiprintf_r+0x1cc>
80006484:	079d                	addi	a5,a5,7
80006486:	9be1                	andi	a5,a5,-8
80006488:	07a1                	addi	a5,a5,8
8000648a:	b7d5                	j	8000646e <_vfiprintf_r+0x23e>
8000648c:	0078                	addi	a4,sp,12
8000648e:	00000697          	auipc	a3,0x0
80006492:	d6068693          	addi	a3,a3,-672 # 800061ee <__sfputs_r>
80006496:	8626                	mv	a2,s1
80006498:	080c                	addi	a1,sp,16
8000649a:	854e                	mv	a0,s3
8000649c:	b3afd0ef          	jal	ra,800037d6 <_printf_float>
800064a0:	57fd                	li	a5,-1
800064a2:	8a2a                	mv	s4,a0
800064a4:	fcf516e3          	bne	a0,a5,80006470 <_vfiprintf_r+0x240>
800064a8:	00c4d783          	lhu	a5,12(s1)
800064ac:	0407f793          	andi	a5,a5,64
800064b0:	ea079ce3          	bnez	a5,80006368 <_vfiprintf_r+0x138>
800064b4:	5512                	lw	a0,36(sp)
800064b6:	bd55                	j	8000636a <_vfiprintf_r+0x13a>
800064b8:	0078                	addi	a4,sp,12
800064ba:	00000697          	auipc	a3,0x0
800064be:	d3468693          	addi	a3,a3,-716 # 800061ee <__sfputs_r>
800064c2:	8626                	mv	a2,s1
800064c4:	080c                	addi	a1,sp,16
800064c6:	854e                	mv	a0,s3
800064c8:	8effd0ef          	jal	ra,80003db6 <_printf_i>
800064cc:	bfd1                	j	800064a0 <_vfiprintf_r+0x270>

800064ce <_sbrk_r>:
_sbrk_r():
800064ce:	1141                	addi	sp,sp,-16
800064d0:	c422                	sw	s0,8(sp)
800064d2:	842a                	mv	s0,a0
800064d4:	852e                	mv	a0,a1
800064d6:	8801a823          	sw	zero,-1904(gp) # 90000268 <errno>
800064da:	c606                	sw	ra,12(sp)
800064dc:	cf3f90ef          	jal	ra,800001ce <_sbrk>
800064e0:	57fd                	li	a5,-1
800064e2:	00f51663          	bne	a0,a5,800064ee <_sbrk_r+0x20>
800064e6:	8901a783          	lw	a5,-1904(gp) # 90000268 <errno>
800064ea:	c391                	beqz	a5,800064ee <_sbrk_r+0x20>
800064ec:	c01c                	sw	a5,0(s0)
800064ee:	40b2                	lw	ra,12(sp)
800064f0:	4422                	lw	s0,8(sp)
800064f2:	0141                	addi	sp,sp,16
800064f4:	8082                	ret

800064f6 <__sread>:
__sread():
800064f6:	1141                	addi	sp,sp,-16
800064f8:	c422                	sw	s0,8(sp)
800064fa:	842e                	mv	s0,a1
800064fc:	00e59583          	lh	a1,14(a1)
80006500:	c606                	sw	ra,12(sp)
80006502:	2c29                	jal	8000671c <_read_r>
80006504:	00054963          	bltz	a0,80006516 <__sread+0x20>
80006508:	487c                	lw	a5,84(s0)
8000650a:	97aa                	add	a5,a5,a0
8000650c:	c87c                	sw	a5,84(s0)
8000650e:	40b2                	lw	ra,12(sp)
80006510:	4422                	lw	s0,8(sp)
80006512:	0141                	addi	sp,sp,16
80006514:	8082                	ret
80006516:	00c45783          	lhu	a5,12(s0)
8000651a:	777d                	lui	a4,0xfffff
8000651c:	177d                	addi	a4,a4,-1
8000651e:	8ff9                	and	a5,a5,a4
80006520:	00f41623          	sh	a5,12(s0)
80006524:	b7ed                	j	8000650e <__sread+0x18>

80006526 <__swrite>:
__swrite():
80006526:	00c5d783          	lhu	a5,12(a1)
8000652a:	1101                	addi	sp,sp,-32
8000652c:	cc22                	sw	s0,24(sp)
8000652e:	ca26                	sw	s1,20(sp)
80006530:	c84a                	sw	s2,16(sp)
80006532:	c64e                	sw	s3,12(sp)
80006534:	ce06                	sw	ra,28(sp)
80006536:	1007f793          	andi	a5,a5,256
8000653a:	84aa                	mv	s1,a0
8000653c:	842e                	mv	s0,a1
8000653e:	8932                	mv	s2,a2
80006540:	89b6                	mv	s3,a3
80006542:	c791                	beqz	a5,8000654e <__swrite+0x28>
80006544:	00e59583          	lh	a1,14(a1)
80006548:	4689                	li	a3,2
8000654a:	4601                	li	a2,0
8000654c:	229d                	jal	800066b2 <_lseek_r>
8000654e:	00c45783          	lhu	a5,12(s0)
80006552:	777d                	lui	a4,0xfffff
80006554:	177d                	addi	a4,a4,-1
80006556:	8ff9                	and	a5,a5,a4
80006558:	00e41583          	lh	a1,14(s0)
8000655c:	00f41623          	sh	a5,12(s0)
80006560:	4462                	lw	s0,24(sp)
80006562:	40f2                	lw	ra,28(sp)
80006564:	86ce                	mv	a3,s3
80006566:	864a                	mv	a2,s2
80006568:	49b2                	lw	s3,12(sp)
8000656a:	4942                	lw	s2,16(sp)
8000656c:	8526                	mv	a0,s1
8000656e:	44d2                	lw	s1,20(sp)
80006570:	6105                	addi	sp,sp,32
80006572:	a83d                	j	800065b0 <_write_r>

80006574 <__sseek>:
__sseek():
80006574:	1141                	addi	sp,sp,-16
80006576:	c422                	sw	s0,8(sp)
80006578:	842e                	mv	s0,a1
8000657a:	00e59583          	lh	a1,14(a1)
8000657e:	c606                	sw	ra,12(sp)
80006580:	2a0d                	jal	800066b2 <_lseek_r>
80006582:	57fd                	li	a5,-1
80006584:	00c45703          	lhu	a4,12(s0)
80006588:	00f51b63          	bne	a0,a5,8000659e <__sseek+0x2a>
8000658c:	77fd                	lui	a5,0xfffff
8000658e:	17fd                	addi	a5,a5,-1
80006590:	8ff9                	and	a5,a5,a4
80006592:	00f41623          	sh	a5,12(s0)
80006596:	40b2                	lw	ra,12(sp)
80006598:	4422                	lw	s0,8(sp)
8000659a:	0141                	addi	sp,sp,16
8000659c:	8082                	ret
8000659e:	6785                	lui	a5,0x1
800065a0:	8fd9                	or	a5,a5,a4
800065a2:	00f41623          	sh	a5,12(s0)
800065a6:	c868                	sw	a0,84(s0)
800065a8:	b7fd                	j	80006596 <__sseek+0x22>

800065aa <__sclose>:
__sclose():
800065aa:	00e59583          	lh	a1,14(a1)
800065ae:	a095                	j	80006612 <_close_r>

800065b0 <_write_r>:
_write_r():
800065b0:	1141                	addi	sp,sp,-16
800065b2:	c422                	sw	s0,8(sp)
800065b4:	842a                	mv	s0,a0
800065b6:	852e                	mv	a0,a1
800065b8:	85b2                	mv	a1,a2
800065ba:	8636                	mv	a2,a3
800065bc:	8801a823          	sw	zero,-1904(gp) # 90000268 <errno>
800065c0:	c606                	sw	ra,12(sp)
800065c2:	c85f90ef          	jal	ra,80000246 <_write>
800065c6:	57fd                	li	a5,-1
800065c8:	00f51663          	bne	a0,a5,800065d4 <_write_r+0x24>
800065cc:	8901a783          	lw	a5,-1904(gp) # 90000268 <errno>
800065d0:	c391                	beqz	a5,800065d4 <_write_r+0x24>
800065d2:	c01c                	sw	a5,0(s0)
800065d4:	40b2                	lw	ra,12(sp)
800065d6:	4422                	lw	s0,8(sp)
800065d8:	0141                	addi	sp,sp,16
800065da:	8082                	ret

800065dc <__assert_func>:
__assert_func():
800065dc:	1141                	addi	sp,sp,-16
800065de:	8101a783          	lw	a5,-2032(gp) # 900001e8 <_impure_ptr>
800065e2:	8832                	mv	a6,a2
800065e4:	c606                	sw	ra,12(sp)
800065e6:	88aa                	mv	a7,a0
800065e8:	872e                	mv	a4,a1
800065ea:	47c8                	lw	a0,12(a5)
800065ec:	8636                	mv	a2,a3
800065ee:	00001797          	auipc	a5,0x1
800065f2:	b7278793          	addi	a5,a5,-1166 # 80007160 <p05.0+0x20>
800065f6:	00081763          	bnez	a6,80006604 <__assert_func+0x28>
800065fa:	00001797          	auipc	a5,0x1
800065fe:	b7278793          	addi	a5,a5,-1166 # 8000716c <p05.0+0x2c>
80006602:	883e                	mv	a6,a5
80006604:	86c6                	mv	a3,a7
80006606:	00001597          	auipc	a1,0x1
8000660a:	b6a58593          	addi	a1,a1,-1174 # 80007170 <p05.0+0x30>
8000660e:	2035                	jal	8000663a <fiprintf>
80006610:	2aa1                	jal	80006768 <abort>

80006612 <_close_r>:
_close_r():
80006612:	1141                	addi	sp,sp,-16
80006614:	c422                	sw	s0,8(sp)
80006616:	842a                	mv	s0,a0
80006618:	852e                	mv	a0,a1
8000661a:	8801a823          	sw	zero,-1904(gp) # 90000268 <errno>
8000661e:	c606                	sw	ra,12(sp)
80006620:	a9df90ef          	jal	ra,800000bc <_close>
80006624:	57fd                	li	a5,-1
80006626:	00f51663          	bne	a0,a5,80006632 <_close_r+0x20>
8000662a:	8901a783          	lw	a5,-1904(gp) # 90000268 <errno>
8000662e:	c391                	beqz	a5,80006632 <_close_r+0x20>
80006630:	c01c                	sw	a5,0(s0)
80006632:	40b2                	lw	ra,12(sp)
80006634:	4422                	lw	s0,8(sp)
80006636:	0141                	addi	sp,sp,16
80006638:	8082                	ret

8000663a <fiprintf>:
fprintf():
8000663a:	7139                	addi	sp,sp,-64
8000663c:	d432                	sw	a2,40(sp)
8000663e:	d636                	sw	a3,44(sp)
80006640:	862e                	mv	a2,a1
80006642:	1034                	addi	a3,sp,40
80006644:	85aa                	mv	a1,a0
80006646:	8101a503          	lw	a0,-2032(gp) # 900001e8 <_impure_ptr>
8000664a:	ce06                	sw	ra,28(sp)
8000664c:	d83a                	sw	a4,48(sp)
8000664e:	da3e                	sw	a5,52(sp)
80006650:	dc42                	sw	a6,56(sp)
80006652:	de46                	sw	a7,60(sp)
80006654:	c636                	sw	a3,12(sp)
80006656:	bdbff0ef          	jal	ra,80006230 <_vfiprintf_r>
8000665a:	40f2                	lw	ra,28(sp)
8000665c:	6121                	addi	sp,sp,64
8000665e:	8082                	ret

80006660 <_fstat_r>:
_fstat_r():
80006660:	1141                	addi	sp,sp,-16
80006662:	c422                	sw	s0,8(sp)
80006664:	842a                	mv	s0,a0
80006666:	852e                	mv	a0,a1
80006668:	85b2                	mv	a1,a2
8000666a:	8801a823          	sw	zero,-1904(gp) # 90000268 <errno>
8000666e:	c606                	sw	ra,12(sp)
80006670:	a7bf90ef          	jal	ra,800000ea <_fstat>
80006674:	57fd                	li	a5,-1
80006676:	00f51663          	bne	a0,a5,80006682 <_fstat_r+0x22>
8000667a:	8901a783          	lw	a5,-1904(gp) # 90000268 <errno>
8000667e:	c391                	beqz	a5,80006682 <_fstat_r+0x22>
80006680:	c01c                	sw	a5,0(s0)
80006682:	40b2                	lw	ra,12(sp)
80006684:	4422                	lw	s0,8(sp)
80006686:	0141                	addi	sp,sp,16
80006688:	8082                	ret

8000668a <_isatty_r>:
_isatty_r():
8000668a:	1141                	addi	sp,sp,-16
8000668c:	c422                	sw	s0,8(sp)
8000668e:	842a                	mv	s0,a0
80006690:	852e                	mv	a0,a1
80006692:	8801a823          	sw	zero,-1904(gp) # 90000268 <errno>
80006696:	c606                	sw	ra,12(sp)
80006698:	aa3f90ef          	jal	ra,8000013a <_isatty>
8000669c:	57fd                	li	a5,-1
8000669e:	00f51663          	bne	a0,a5,800066aa <_isatty_r+0x20>
800066a2:	8901a783          	lw	a5,-1904(gp) # 90000268 <errno>
800066a6:	c391                	beqz	a5,800066aa <_isatty_r+0x20>
800066a8:	c01c                	sw	a5,0(s0)
800066aa:	40b2                	lw	ra,12(sp)
800066ac:	4422                	lw	s0,8(sp)
800066ae:	0141                	addi	sp,sp,16
800066b0:	8082                	ret

800066b2 <_lseek_r>:
_lseek_r():
800066b2:	1141                	addi	sp,sp,-16
800066b4:	c422                	sw	s0,8(sp)
800066b6:	842a                	mv	s0,a0
800066b8:	852e                	mv	a0,a1
800066ba:	85b2                	mv	a1,a2
800066bc:	8636                	mv	a2,a3
800066be:	8801a823          	sw	zero,-1904(gp) # 90000268 <errno>
800066c2:	c606                	sw	ra,12(sp)
800066c4:	aabf90ef          	jal	ra,8000016e <_lseek>
800066c8:	57fd                	li	a5,-1
800066ca:	00f51663          	bne	a0,a5,800066d6 <_lseek_r+0x24>
800066ce:	8901a783          	lw	a5,-1904(gp) # 90000268 <errno>
800066d2:	c391                	beqz	a5,800066d6 <_lseek_r+0x24>
800066d4:	c01c                	sw	a5,0(s0)
800066d6:	40b2                	lw	ra,12(sp)
800066d8:	4422                	lw	s0,8(sp)
800066da:	0141                	addi	sp,sp,16
800066dc:	8082                	ret

800066de <__ascii_mbtowc>:
__ascii_mbtowc():
800066de:	e185                	bnez	a1,800066fe <__ascii_mbtowc+0x20>
800066e0:	1141                	addi	sp,sp,-16
800066e2:	006c                	addi	a1,sp,12
800066e4:	4501                	li	a0,0
800066e6:	ca11                	beqz	a2,800066fa <__ascii_mbtowc+0x1c>
800066e8:	5579                	li	a0,-2
800066ea:	ca81                	beqz	a3,800066fa <__ascii_mbtowc+0x1c>
800066ec:	00064783          	lbu	a5,0(a2)
800066f0:	c19c                	sw	a5,0(a1)
800066f2:	00064503          	lbu	a0,0(a2)
800066f6:	00a03533          	snez	a0,a0
800066fa:	0141                	addi	sp,sp,16
800066fc:	8082                	ret
800066fe:	4501                	li	a0,0
80006700:	ca19                	beqz	a2,80006716 <__ascii_mbtowc+0x38>
80006702:	5579                	li	a0,-2
80006704:	ca89                	beqz	a3,80006716 <__ascii_mbtowc+0x38>
80006706:	00064783          	lbu	a5,0(a2)
8000670a:	c19c                	sw	a5,0(a1)
8000670c:	00064503          	lbu	a0,0(a2)
80006710:	00a03533          	snez	a0,a0
80006714:	8082                	ret
80006716:	8082                	ret

80006718 <__malloc_lock>:
__malloc_lock():
80006718:	8082                	ret

8000671a <__malloc_unlock>:
__malloc_unlock():
8000671a:	8082                	ret

8000671c <_read_r>:
_read_r():
8000671c:	1141                	addi	sp,sp,-16
8000671e:	c422                	sw	s0,8(sp)
80006720:	842a                	mv	s0,a0
80006722:	852e                	mv	a0,a1
80006724:	85b2                	mv	a1,a2
80006726:	8636                	mv	a2,a3
80006728:	8801a823          	sw	zero,-1904(gp) # 90000268 <errno>
8000672c:	c606                	sw	ra,12(sp)
8000672e:	a5df90ef          	jal	ra,8000018a <_read>
80006732:	57fd                	li	a5,-1
80006734:	00f51663          	bne	a0,a5,80006740 <_read_r+0x24>
80006738:	8901a783          	lw	a5,-1904(gp) # 90000268 <errno>
8000673c:	c391                	beqz	a5,80006740 <_read_r+0x24>
8000673e:	c01c                	sw	a5,0(s0)
80006740:	40b2                	lw	ra,12(sp)
80006742:	4422                	lw	s0,8(sp)
80006744:	0141                	addi	sp,sp,16
80006746:	8082                	ret

80006748 <__ascii_wctomb>:
__ascii_wctomb():
80006748:	cd91                	beqz	a1,80006764 <__ascii_wctomb+0x1c>
8000674a:	0ff00793          	li	a5,255
8000674e:	00c7f763          	bgeu	a5,a2,8000675c <__ascii_wctomb+0x14>
80006752:	08a00793          	li	a5,138
80006756:	c11c                	sw	a5,0(a0)
80006758:	557d                	li	a0,-1
8000675a:	8082                	ret
8000675c:	00c58023          	sb	a2,0(a1)
80006760:	4505                	li	a0,1
80006762:	8082                	ret
80006764:	4501                	li	a0,0
80006766:	8082                	ret

80006768 <abort>:
abort():
80006768:	1141                	addi	sp,sp,-16
8000676a:	4519                	li	a0,6
8000676c:	c606                	sw	ra,12(sp)
8000676e:	20ad                	jal	800067d8 <raise>
80006770:	4505                	li	a0,1
80006772:	967f90ef          	jal	ra,800000d8 <_exit>

80006776 <_raise_r>:
_raise_r():
80006776:	1101                	addi	sp,sp,-32
80006778:	cc22                	sw	s0,24(sp)
8000677a:	ce06                	sw	ra,28(sp)
8000677c:	47fd                	li	a5,31
8000677e:	842a                	mv	s0,a0
80006780:	00b7f963          	bgeu	a5,a1,80006792 <_raise_r+0x1c>
80006784:	47d9                	li	a5,22
80006786:	c11c                	sw	a5,0(a0)
80006788:	557d                	li	a0,-1
8000678a:	40f2                	lw	ra,28(sp)
8000678c:	4462                	lw	s0,24(sp)
8000678e:	6105                	addi	sp,sp,32
80006790:	8082                	ret
80006792:	417c                	lw	a5,68(a0)
80006794:	862e                	mv	a2,a1
80006796:	c791                	beqz	a5,800067a2 <_raise_r+0x2c>
80006798:	00259713          	slli	a4,a1,0x2
8000679c:	97ba                	add	a5,a5,a4
8000679e:	4398                	lw	a4,0(a5)
800067a0:	eb19                	bnez	a4,800067b6 <_raise_r+0x40>
800067a2:	8522                	mv	a0,s0
800067a4:	c632                	sw	a2,12(sp)
800067a6:	2095                	jal	8000680a <_getpid_r>
800067a8:	85aa                	mv	a1,a0
800067aa:	8522                	mv	a0,s0
800067ac:	4462                	lw	s0,24(sp)
800067ae:	4632                	lw	a2,12(sp)
800067b0:	40f2                	lw	ra,28(sp)
800067b2:	6105                	addi	sp,sp,32
800067b4:	a035                	j	800067e0 <_kill_r>
800067b6:	4685                	li	a3,1
800067b8:	4501                	li	a0,0
800067ba:	fcd708e3          	beq	a4,a3,8000678a <_raise_r+0x14>
800067be:	56fd                	li	a3,-1
800067c0:	00d71663          	bne	a4,a3,800067cc <_raise_r+0x56>
800067c4:	47d9                	li	a5,22
800067c6:	c01c                	sw	a5,0(s0)
800067c8:	4505                	li	a0,1
800067ca:	b7c1                	j	8000678a <_raise_r+0x14>
800067cc:	852e                	mv	a0,a1
800067ce:	0007a023          	sw	zero,0(a5)
800067d2:	9702                	jalr	a4
800067d4:	4501                	li	a0,0
800067d6:	bf55                	j	8000678a <_raise_r+0x14>

800067d8 <raise>:
raise():
800067d8:	85aa                	mv	a1,a0
800067da:	8101a503          	lw	a0,-2032(gp) # 900001e8 <_impure_ptr>
800067de:	bf61                	j	80006776 <_raise_r>

800067e0 <_kill_r>:
_kill_r():
800067e0:	1141                	addi	sp,sp,-16
800067e2:	c422                	sw	s0,8(sp)
800067e4:	842a                	mv	s0,a0
800067e6:	852e                	mv	a0,a1
800067e8:	85b2                	mv	a1,a2
800067ea:	8801a823          	sw	zero,-1904(gp) # 90000268 <errno>
800067ee:	c606                	sw	ra,12(sp)
800067f0:	95ff90ef          	jal	ra,8000014e <_kill>
800067f4:	57fd                	li	a5,-1
800067f6:	00f51663          	bne	a0,a5,80006802 <_kill_r+0x22>
800067fa:	8901a783          	lw	a5,-1904(gp) # 90000268 <errno>
800067fe:	c391                	beqz	a5,80006802 <_kill_r+0x22>
80006800:	c01c                	sw	a5,0(s0)
80006802:	40b2                	lw	ra,12(sp)
80006804:	4422                	lw	s0,8(sp)
80006806:	0141                	addi	sp,sp,16
80006808:	8082                	ret

8000680a <_getpid_r>:
_getpid_r():
8000680a:	921f906f          	j	8000012a <_getpid>

8000680e <__gedf2>:
__gedf2():
/Local/xl_ci/toolchain/riscv-gnu-toolchain/riscv-gcc/libgcc/soft-fp/gedf2.c:43
8000680e:	00100737          	lui	a4,0x100
80006812:	177d                	addi	a4,a4,-1
80006814:	0145d813          	srli	a6,a1,0x14
80006818:	00b778b3          	and	a7,a4,a1
/Local/xl_ci/toolchain/riscv-gnu-toolchain/riscv-gcc/libgcc/soft-fp/gedf2.c:36
8000681c:	87aa                	mv	a5,a0
8000681e:	832a                	mv	t1,a0
/Local/xl_ci/toolchain/riscv-gnu-toolchain/riscv-gcc/libgcc/soft-fp/gedf2.c:43
80006820:	7ff87813          	andi	a6,a6,2047
80006824:	01f5d513          	srli	a0,a1,0x1f
/Local/xl_ci/toolchain/riscv-gnu-toolchain/riscv-gcc/libgcc/soft-fp/gedf2.c:45
80006828:	7ff00e93          	li	t4,2047
/Local/xl_ci/toolchain/riscv-gnu-toolchain/riscv-gcc/libgcc/soft-fp/gedf2.c:44
8000682c:	0146d593          	srli	a1,a3,0x14
80006830:	8f75                	and	a4,a4,a3
80006832:	8e32                	mv	t3,a2
80006834:	7ff5f593          	andi	a1,a1,2047
80006838:	82fd                	srli	a3,a3,0x1f
/Local/xl_ci/toolchain/riscv-gnu-toolchain/riscv-gcc/libgcc/soft-fp/gedf2.c:45
8000683a:	01d81863          	bne	a6,t4,8000684a <__gedf2+0x3c>
/Local/xl_ci/toolchain/riscv-gnu-toolchain/riscv-gcc/libgcc/soft-fp/gedf2.c:45 (discriminator 20)
8000683e:	00f8eeb3          	or	t4,a7,a5
80006842:	060e8463          	beqz	t4,800068aa <__gedf2+0x9c>
/Local/xl_ci/toolchain/riscv-gnu-toolchain/riscv-gcc/libgcc/soft-fp/gedf2.c:45
80006846:	5579                	li	a0,-2
80006848:	8082                	ret
/Local/xl_ci/toolchain/riscv-gnu-toolchain/riscv-gcc/libgcc/soft-fp/gedf2.c:45 (discriminator 23)
8000684a:	01d59663          	bne	a1,t4,80006856 <__gedf2+0x48>
/Local/xl_ci/toolchain/riscv-gnu-toolchain/riscv-gcc/libgcc/soft-fp/gedf2.c:45 (discriminator 24)
8000684e:	00c76eb3          	or	t4,a4,a2
80006852:	fe0e9ae3          	bnez	t4,80006846 <__gedf2+0x38>
/Local/xl_ci/toolchain/riscv-gnu-toolchain/riscv-gcc/libgcc/soft-fp/gedf2.c:45 (discriminator 62)
80006856:	04081c63          	bnez	a6,800068ae <__gedf2+0xa0>
/Local/xl_ci/toolchain/riscv-gnu-toolchain/riscv-gcc/libgcc/soft-fp/gedf2.c:45 (discriminator 63)
8000685a:	00f8e7b3          	or	a5,a7,a5
8000685e:	0017b793          	seqz	a5,a5
80006862:	e199                	bnez	a1,80006868 <__gedf2+0x5a>
/Local/xl_ci/toolchain/riscv-gnu-toolchain/riscv-gcc/libgcc/soft-fp/gedf2.c:45 (discriminator 69)
80006864:	8e59                	or	a2,a2,a4
80006866:	ce0d                	beqz	a2,800068a0 <__gedf2+0x92>
/Local/xl_ci/toolchain/riscv-gnu-toolchain/riscv-gcc/libgcc/soft-fp/gedf2.c:45
80006868:	eb81                	bnez	a5,80006878 <__gedf2+0x6a>
8000686a:	00d51463          	bne	a0,a3,80006872 <__gedf2+0x64>
/Local/xl_ci/toolchain/riscv-gnu-toolchain/riscv-gcc/libgcc/soft-fp/gedf2.c:45 (discriminator 95)
8000686e:	0105d963          	bge	a1,a6,80006880 <__gedf2+0x72>
/Local/xl_ci/toolchain/riscv-gnu-toolchain/riscv-gcc/libgcc/soft-fp/gedf2.c:45 (discriminator 119)
80006872:	c50d                	beqz	a0,8000689c <__gedf2+0x8e>
/Local/xl_ci/toolchain/riscv-gnu-toolchain/riscv-gcc/libgcc/soft-fp/gedf2.c:45
80006874:	557d                	li	a0,-1
80006876:	8082                	ret
/Local/xl_ci/toolchain/riscv-gnu-toolchain/riscv-gcc/libgcc/soft-fp/gedf2.c:45 (discriminator 80)
80006878:	557d                	li	a0,-1
8000687a:	c691                	beqz	a3,80006886 <__gedf2+0x78>
/Local/xl_ci/toolchain/riscv-gnu-toolchain/riscv-gcc/libgcc/soft-fp/gedf2.c:45
8000687c:	8536                	mv	a0,a3
8000687e:	8082                	ret
/Local/xl_ci/toolchain/riscv-gnu-toolchain/riscv-gcc/libgcc/soft-fp/gedf2.c:45 (discriminator 102)
80006880:	00b85463          	bge	a6,a1,80006888 <__gedf2+0x7a>
/Local/xl_ci/toolchain/riscv-gnu-toolchain/riscv-gcc/libgcc/soft-fp/gedf2.c:45 (discriminator 130)
80006884:	d965                	beqz	a0,80006874 <__gedf2+0x66>
/Local/xl_ci/toolchain/riscv-gnu-toolchain/riscv-gcc/libgcc/soft-fp/gedf2.c:49
80006886:	8082                	ret
/Local/xl_ci/toolchain/riscv-gnu-toolchain/riscv-gcc/libgcc/soft-fp/gedf2.c:45 (discriminator 109)
80006888:	ff1765e3          	bltu	a4,a7,80006872 <__gedf2+0x64>
/Local/xl_ci/toolchain/riscv-gnu-toolchain/riscv-gcc/libgcc/soft-fp/gedf2.c:45 (discriminator 116)
8000688c:	00e89c63          	bne	a7,a4,800068a4 <__gedf2+0x96>
/Local/xl_ci/toolchain/riscv-gnu-toolchain/riscv-gcc/libgcc/soft-fp/gedf2.c:45 (discriminator 117)
80006890:	fe6e61e3          	bltu	t3,t1,80006872 <__gedf2+0x64>
/Local/xl_ci/toolchain/riscv-gnu-toolchain/riscv-gcc/libgcc/soft-fp/gedf2.c:45 (discriminator 128)
80006894:	ffc368e3          	bltu	t1,t3,80006884 <__gedf2+0x76>
/Local/xl_ci/toolchain/riscv-gnu-toolchain/riscv-gcc/libgcc/soft-fp/gedf2.c:45
80006898:	4501                	li	a0,0
8000689a:	8082                	ret
8000689c:	4505                	li	a0,1
8000689e:	8082                	ret
800068a0:	ffe5                	bnez	a5,80006898 <__gedf2+0x8a>
800068a2:	bfc1                	j	80006872 <__gedf2+0x64>
800068a4:	fee8e0e3          	bltu	a7,a4,80006884 <__gedf2+0x76>
800068a8:	bfc5                	j	80006898 <__gedf2+0x8a>
800068aa:	fb0582e3          	beq	a1,a6,8000684e <__gedf2+0x40>
800068ae:	fdd5                	bnez	a1,8000686a <__gedf2+0x5c>
800068b0:	4781                	li	a5,0
800068b2:	bf4d                	j	80006864 <__gedf2+0x56>

800068b4 <__fixdfsi>:
__fixdfsi():
/Local/xl_ci/toolchain/riscv-gnu-toolchain/riscv-gcc/libgcc/soft-fp/fixdfsi.c:42
800068b4:	0145d713          	srli	a4,a1,0x14
800068b8:	001006b7          	lui	a3,0x100
800068bc:	fff68793          	addi	a5,a3,-1 # fffff <__stack_size+0xff7ff>
800068c0:	7ff77713          	andi	a4,a4,2047
/Local/xl_ci/toolchain/riscv-gnu-toolchain/riscv-gcc/libgcc/soft-fp/fixdfsi.c:43
800068c4:	3fe00613          	li	a2,1022
/Local/xl_ci/toolchain/riscv-gnu-toolchain/riscv-gcc/libgcc/soft-fp/fixdfsi.c:42
800068c8:	8fed                	and	a5,a5,a1
800068ca:	81fd                	srli	a1,a1,0x1f
/Local/xl_ci/toolchain/riscv-gnu-toolchain/riscv-gcc/libgcc/soft-fp/fixdfsi.c:43
800068cc:	04e65463          	bge	a2,a4,80006914 <__fixdfsi+0x60>
/Local/xl_ci/toolchain/riscv-gnu-toolchain/riscv-gcc/libgcc/soft-fp/fixdfsi.c:43 (discriminator 10)
800068d0:	41d00613          	li	a2,1053
800068d4:	00e65863          	bge	a2,a4,800068e4 <__fixdfsi+0x30>
/Local/xl_ci/toolchain/riscv-gnu-toolchain/riscv-gcc/libgcc/soft-fp/fixdfsi.c:43 (discriminator 14)
800068d8:	80000537          	lui	a0,0x80000
800068dc:	fff54513          	not	a0,a0
800068e0:	952e                	add	a0,a0,a1
800068e2:	8082                	ret
/Local/xl_ci/toolchain/riscv-gnu-toolchain/riscv-gcc/libgcc/soft-fp/fixdfsi.c:43 (discriminator 13)
800068e4:	8fd5                	or	a5,a5,a3
800068e6:	43300693          	li	a3,1075
800068ea:	8e99                	sub	a3,a3,a4
800068ec:	467d                	li	a2,31
800068ee:	00d64d63          	blt	a2,a3,80006908 <__fixdfsi+0x54>
/Local/xl_ci/toolchain/riscv-gnu-toolchain/riscv-gcc/libgcc/soft-fp/fixdfsi.c:43 (discriminator 30)
800068f2:	bed70713          	addi	a4,a4,-1043 # ffbed <__stack_size+0xff3ed>
800068f6:	00e797b3          	sll	a5,a5,a4
800068fa:	00d55533          	srl	a0,a0,a3
800068fe:	8d5d                	or	a0,a0,a5
/Local/xl_ci/toolchain/riscv-gnu-toolchain/riscv-gcc/libgcc/soft-fp/fixdfsi.c:43 (discriminator 43)
80006900:	c999                	beqz	a1,80006916 <__fixdfsi+0x62>
/Local/xl_ci/toolchain/riscv-gnu-toolchain/riscv-gcc/libgcc/soft-fp/fixdfsi.c:43 (discriminator 45)
80006902:	40a00533          	neg	a0,a0
80006906:	8082                	ret
/Local/xl_ci/toolchain/riscv-gnu-toolchain/riscv-gcc/libgcc/soft-fp/fixdfsi.c:43 (discriminator 42)
80006908:	41300513          	li	a0,1043
8000690c:	8d19                	sub	a0,a0,a4
8000690e:	00a7d533          	srl	a0,a5,a0
80006912:	b7fd                	j	80006900 <__fixdfsi+0x4c>
/Local/xl_ci/toolchain/riscv-gnu-toolchain/riscv-gcc/libgcc/soft-fp/fixdfsi.c:43
80006914:	4501                	li	a0,0
/Local/xl_ci/toolchain/riscv-gnu-toolchain/riscv-gcc/libgcc/soft-fp/fixdfsi.c:47 (discriminator 59)
80006916:	8082                	ret

80006918 <__floatunsidf>:
__floatunsidf():
/Local/xl_ci/toolchain/riscv-gnu-toolchain/riscv-gcc/libgcc/soft-fp/floatunsidf.c:37
80006918:	1141                	addi	sp,sp,-16
8000691a:	c422                	sw	s0,8(sp)
8000691c:	c606                	sw	ra,12(sp)
8000691e:	842a                	mv	s0,a0
/Local/xl_ci/toolchain/riscv-gnu-toolchain/riscv-gcc/libgcc/soft-fp/floatunsidf.c:41
80006920:	c129                	beqz	a0,80006962 <__floatunsidf+0x4a>
/Local/xl_ci/toolchain/riscv-gnu-toolchain/riscv-gcc/libgcc/soft-fp/floatunsidf.c:41 (discriminator 6)
80006922:	c51fc0ef          	jal	ra,80003572 <__clzsi2>
80006926:	41e00713          	li	a4,1054
8000692a:	47a9                	li	a5,10
8000692c:	8f09                	sub	a4,a4,a0
8000692e:	02a7c463          	blt	a5,a0,80006956 <__floatunsidf+0x3e>
/Local/xl_ci/toolchain/riscv-gnu-toolchain/riscv-gcc/libgcc/soft-fp/floatunsidf.c:41 (discriminator 23)
80006932:	47ad                	li	a5,11
80006934:	8f89                	sub	a5,a5,a0
80006936:	0555                	addi	a0,a0,21
80006938:	00f457b3          	srl	a5,s0,a5
8000693c:	00a41433          	sll	s0,s0,a0
/Local/xl_ci/toolchain/riscv-gnu-toolchain/riscv-gcc/libgcc/soft-fp/floatunsidf.c:45 (discriminator 126)
80006940:	40b2                	lw	ra,12(sp)
80006942:	8522                	mv	a0,s0
/Local/xl_ci/toolchain/riscv-gnu-toolchain/riscv-gcc/libgcc/soft-fp/floatunsidf.c:42 (discriminator 126)
80006944:	07b2                	slli	a5,a5,0xc
/Local/xl_ci/toolchain/riscv-gnu-toolchain/riscv-gcc/libgcc/soft-fp/floatunsidf.c:45 (discriminator 126)
80006946:	4422                	lw	s0,8(sp)
/Local/xl_ci/toolchain/riscv-gnu-toolchain/riscv-gcc/libgcc/soft-fp/floatunsidf.c:42 (discriminator 126)
80006948:	0752                	slli	a4,a4,0x14
8000694a:	83b1                	srli	a5,a5,0xc
8000694c:	00f766b3          	or	a3,a4,a5
/Local/xl_ci/toolchain/riscv-gnu-toolchain/riscv-gcc/libgcc/soft-fp/floatunsidf.c:45 (discriminator 126)
80006950:	85b6                	mv	a1,a3
80006952:	0141                	addi	sp,sp,16
80006954:	8082                	ret
/Local/xl_ci/toolchain/riscv-gnu-toolchain/riscv-gcc/libgcc/soft-fp/floatunsidf.c:41 (discriminator 24)
80006956:	ff550793          	addi	a5,a0,-11 # 7ffffff5 <_sp+0xeffefff5>
8000695a:	00f417b3          	sll	a5,s0,a5
8000695e:	4401                	li	s0,0
80006960:	b7c5                	j	80006940 <__floatunsidf+0x28>
/Local/xl_ci/toolchain/riscv-gnu-toolchain/riscv-gcc/libgcc/soft-fp/floatunsidf.c:41
80006962:	4781                	li	a5,0
80006964:	4701                	li	a4,0
80006966:	bfe9                	j	80006940 <__floatunsidf+0x28>

80006968 <__trunctfdf2>:
__trunctfdf2():
/Local/xl_ci/toolchain/riscv-gnu-toolchain/riscv-gcc/libgcc/soft-fp/trunctfdf2.c:37
80006968:	7179                	addi	sp,sp,-48
8000696a:	451c                	lw	a5,8(a0)
8000696c:	d422                	sw	s0,40(sp)
8000696e:	4540                	lw	s0,12(a0)
80006970:	4158                	lw	a4,4(a0)
80006972:	4114                	lw	a3,0(a0)
/Local/xl_ci/toolchain/riscv-gnu-toolchain/riscv-gcc/libgcc/soft-fp/trunctfdf2.c:44
80006974:	c43e                	sw	a5,8(sp)
80006976:	cc3e                	sw	a5,24(sp)
80006978:	01041793          	slli	a5,s0,0x10
8000697c:	c23a                	sw	a4,4(sp)
8000697e:	ca3a                	sw	a4,20(sp)
80006980:	83c1                	srli	a5,a5,0x10
80006982:	00141713          	slli	a4,s0,0x1
80006986:	c622                	sw	s0,12(sp)
/Local/xl_ci/toolchain/riscv-gnu-toolchain/riscv-gcc/libgcc/soft-fp/trunctfdf2.c:37
80006988:	d606                	sw	ra,44(sp)
8000698a:	d226                	sw	s1,36(sp)
/Local/xl_ci/toolchain/riscv-gnu-toolchain/riscv-gcc/libgcc/soft-fp/trunctfdf2.c:44
8000698c:	c036                	sw	a3,0(sp)
8000698e:	c836                	sw	a3,16(sp)
80006990:	ce3e                	sw	a5,28(sp)
80006992:	8345                	srli	a4,a4,0x11
80006994:	807d                	srli	s0,s0,0x1f
80006996:	0808                	addi	a0,sp,16
80006998:	0870                	addi	a2,sp,28
/Local/xl_ci/toolchain/riscv-gnu-toolchain/riscv-gcc/libgcc/soft-fp/trunctfdf2.c:44 (discriminator 8)
8000699a:	421c                	lw	a5,0(a2)
8000699c:	ffc62683          	lw	a3,-4(a2)
800069a0:	1671                	addi	a2,a2,-4
800069a2:	078e                	slli	a5,a5,0x3
800069a4:	82f5                	srli	a3,a3,0x1d
800069a6:	8fd5                	or	a5,a5,a3
800069a8:	c25c                	sw	a5,4(a2)
800069aa:	fec518e3          	bne	a0,a2,8000699a <__trunctfdf2+0x32>
/Local/xl_ci/toolchain/riscv-gnu-toolchain/riscv-gcc/libgcc/soft-fp/trunctfdf2.c:44 (discriminator 9)
800069ae:	46c2                	lw	a3,16(sp)
/Local/xl_ci/toolchain/riscv-gnu-toolchain/riscv-gcc/libgcc/soft-fp/trunctfdf2.c:46 (discriminator 9)
800069b0:	00170793          	addi	a5,a4,1
/Local/xl_ci/toolchain/riscv-gnu-toolchain/riscv-gcc/libgcc/soft-fp/trunctfdf2.c:44 (discriminator 9)
800069b4:	00369593          	slli	a1,a3,0x3
/Local/xl_ci/toolchain/riscv-gnu-toolchain/riscv-gcc/libgcc/soft-fp/trunctfdf2.c:46 (discriminator 9)
800069b8:	66a1                	lui	a3,0x8
800069ba:	16f9                	addi	a3,a3,-2
/Local/xl_ci/toolchain/riscv-gnu-toolchain/riscv-gcc/libgcc/soft-fp/trunctfdf2.c:44 (discriminator 9)
800069bc:	c82e                	sw	a1,16(sp)
/Local/xl_ci/toolchain/riscv-gnu-toolchain/riscv-gcc/libgcc/soft-fp/trunctfdf2.c:46 (discriminator 9)
800069be:	8ff5                	and	a5,a5,a3
800069c0:	12078f63          	beqz	a5,80006afe <__trunctfdf2+0x196>
/Local/xl_ci/toolchain/riscv-gnu-toolchain/riscv-gcc/libgcc/soft-fp/trunctfdf2.c:46 (discriminator 1)
800069c4:	77f1                	lui	a5,0xffffc
800069c6:	40078793          	addi	a5,a5,1024 # ffffc400 <_sp+0x6ffec400>
800069ca:	973e                	add	a4,a4,a5
800069cc:	7fe00793          	li	a5,2046
800069d0:	16e7c363          	blt	a5,a4,80006b36 <__trunctfdf2+0x1ce>
/Local/xl_ci/toolchain/riscv-gnu-toolchain/riscv-gcc/libgcc/soft-fp/trunctfdf2.c:46 (discriminator 4)
800069d4:	04e05663          	blez	a4,80006a20 <__trunctfdf2+0xb8>
/Local/xl_ci/toolchain/riscv-gnu-toolchain/riscv-gcc/libgcc/soft-fp/trunctfdf2.c:46
800069d8:	4562                	lw	a0,24(sp)
800069da:	4672                	lw	a2,28(sp)
800069dc:	47d2                	lw	a5,20(sp)
800069de:	01c55693          	srli	a3,a0,0x1c
800069e2:	0612                	slli	a2,a2,0x4
800069e4:	8e55                	or	a2,a2,a3
800069e6:	00479693          	slli	a3,a5,0x4
800069ea:	8ecd                	or	a3,a3,a1
800069ec:	83f1                	srli	a5,a5,0x1c
800069ee:	0512                	slli	a0,a0,0x4
800069f0:	00d036b3          	snez	a3,a3
800069f4:	8fc9                	or	a5,a5,a0
800069f6:	8edd                	or	a3,a3,a5
800069f8:	ca32                	sw	a2,20(sp)
800069fa:	c836                	sw	a3,16(sp)
/Local/xl_ci/toolchain/riscv-gnu-toolchain/riscv-gcc/libgcc/soft-fp/trunctfdf2.c:46 (discriminator 59)
800069fc:	46c2                	lw	a3,16(sp)
800069fe:	47d2                	lw	a5,20(sp)
/Local/xl_ci/toolchain/riscv-gnu-toolchain/riscv-gcc/libgcc/soft-fp/trunctfdf2.c:50 (discriminator 117)
80006a00:	0076f613          	andi	a2,a3,7
80006a04:	12060d63          	beqz	a2,80006b3e <__trunctfdf2+0x1d6>
/Local/xl_ci/toolchain/riscv-gnu-toolchain/riscv-gcc/libgcc/soft-fp/trunctfdf2.c:50 (discriminator 37)
80006a08:	00f6f613          	andi	a2,a3,15
80006a0c:	4591                	li	a1,4
80006a0e:	12b60863          	beq	a2,a1,80006b3e <__trunctfdf2+0x1d6>
/Local/xl_ci/toolchain/riscv-gnu-toolchain/riscv-gcc/libgcc/soft-fp/trunctfdf2.c:50 (discriminator 44)
80006a12:	00468613          	addi	a2,a3,4 # 8004 <__stack_size+0x7804>
80006a16:	00d636b3          	sltu	a3,a2,a3
80006a1a:	97b6                	add	a5,a5,a3
80006a1c:	86b2                	mv	a3,a2
80006a1e:	a205                	j	80006b3e <__trunctfdf2+0x1d6>
/Local/xl_ci/toolchain/riscv-gnu-toolchain/riscv-gcc/libgcc/soft-fp/trunctfdf2.c:46 (discriminator 18)
80006a20:	fcc00793          	li	a5,-52
80006a24:	00f75763          	bge	a4,a5,80006a32 <__trunctfdf2+0xca>
/Local/xl_ci/toolchain/riscv-gnu-toolchain/riscv-gcc/libgcc/soft-fp/trunctfdf2.c:46 (discriminator 20)
80006a28:	ca02                	sw	zero,20(sp)
80006a2a:	4785                	li	a5,1
/Local/xl_ci/toolchain/riscv-gnu-toolchain/riscv-gcc/libgcc/soft-fp/trunctfdf2.c:46 (discriminator 37)
80006a2c:	c83e                	sw	a5,16(sp)
80006a2e:	4701                	li	a4,0
80006a30:	b7f1                	j	800069fc <__trunctfdf2+0x94>
/Local/xl_ci/toolchain/riscv-gnu-toolchain/riscv-gcc/libgcc/soft-fp/trunctfdf2.c:46 (discriminator 21)
80006a32:	47f2                	lw	a5,28(sp)
80006a34:	000808b7          	lui	a7,0x80
/Local/xl_ci/toolchain/riscv-gnu-toolchain/riscv-gcc/libgcc/soft-fp/trunctfdf2.c:44 (discriminator 21)
80006a38:	85aa                	mv	a1,a0
/Local/xl_ci/toolchain/riscv-gnu-toolchain/riscv-gcc/libgcc/soft-fp/trunctfdf2.c:46 (discriminator 21)
80006a3a:	00f8e8b3          	or	a7,a7,a5
80006a3e:	03d00793          	li	a5,61
80006a42:	40e78733          	sub	a4,a5,a4
80006a46:	ce46                	sw	a7,28(sp)
80006a48:	40575793          	srai	a5,a4,0x5
80006a4c:	4681                	li	a3,0
80006a4e:	4481                	li	s1,0
/Local/xl_ci/toolchain/riscv-gnu-toolchain/riscv-gcc/libgcc/soft-fp/trunctfdf2.c:46 (discriminator 25)
80006a50:	0005a803          	lw	a6,0(a1)
80006a54:	0685                	addi	a3,a3,1
80006a56:	0591                	addi	a1,a1,4
80006a58:	0104e4b3          	or	s1,s1,a6
80006a5c:	fed79ae3          	bne	a5,a3,80006a50 <__trunctfdf2+0xe8>
/Local/xl_ci/toolchain/riscv-gnu-toolchain/riscv-gcc/libgcc/soft-fp/trunctfdf2.c:46 (discriminator 26)
80006a60:	8b7d                	andi	a4,a4,31
80006a62:	00279693          	slli	a3,a5,0x2
80006a66:	e30d                	bnez	a4,80006a88 <__trunctfdf2+0x120>
/Local/xl_ci/toolchain/riscv-gnu-toolchain/riscv-gcc/libgcc/soft-fp/trunctfdf2.c:46
80006a68:	458d                	li	a1,3
80006a6a:	8d9d                	sub	a1,a1,a5
/Local/xl_ci/toolchain/riscv-gnu-toolchain/riscv-gcc/libgcc/soft-fp/trunctfdf2.c:46 (discriminator 31)
80006a6c:	00d60833          	add	a6,a2,a3
80006a70:	00082803          	lw	a6,0(a6)
80006a74:	0705                	addi	a4,a4,1
80006a76:	01062023          	sw	a6,0(a2)
80006a7a:	0611                	addi	a2,a2,4
80006a7c:	fee5d8e3          	bge	a1,a4,80006a6c <__trunctfdf2+0x104>
80006a80:	4711                	li	a4,4
80006a82:	40f707b3          	sub	a5,a4,a5
80006a86:	a83d                	j	80006ac4 <__trunctfdf2+0x15c>
80006a88:	5e71                	li	t3,-4
80006a8a:	03c78e33          	mul	t3,a5,t3
/Local/xl_ci/toolchain/riscv-gnu-toolchain/riscv-gcc/libgcc/soft-fp/trunctfdf2.c:46 (discriminator 28)
80006a8e:	1010                	addi	a2,sp,32
80006a90:	9636                	add	a2,a2,a3
80006a92:	ff062603          	lw	a2,-16(a2)
80006a96:	02000813          	li	a6,32
80006a9a:	40e80833          	sub	a6,a6,a4
80006a9e:	01061633          	sll	a2,a2,a6
80006aa2:	8cd1                	or	s1,s1,a2
80006aa4:	460d                	li	a2,3
80006aa6:	96aa                	add	a3,a3,a0
80006aa8:	4301                	li	t1,0
80006aaa:	8e1d                	sub	a2,a2,a5
/Local/xl_ci/toolchain/riscv-gnu-toolchain/riscv-gcc/libgcc/soft-fp/trunctfdf2.c:46 (discriminator 32)
80006aac:	02c34963          	blt	t1,a2,80006ade <__trunctfdf2+0x176>
/Local/xl_ci/toolchain/riscv-gnu-toolchain/riscv-gcc/libgcc/soft-fp/trunctfdf2.c:46 (discriminator 35)
80006ab0:	4691                	li	a3,4
80006ab2:	40f687b3          	sub	a5,a3,a5
80006ab6:	060a                	slli	a2,a2,0x2
80006ab8:	1014                	addi	a3,sp,32
80006aba:	9636                	add	a2,a2,a3
80006abc:	00e8d733          	srl	a4,a7,a4
80006ac0:	fee62823          	sw	a4,-16(a2)
/Local/xl_ci/toolchain/riscv-gnu-toolchain/riscv-gcc/libgcc/soft-fp/trunctfdf2.c:46 (discriminator 37)
80006ac4:	4611                	li	a2,4
80006ac6:	8e1d                	sub	a2,a2,a5
80006ac8:	078a                	slli	a5,a5,0x2
80006aca:	953e                	add	a0,a0,a5
80006acc:	060a                	slli	a2,a2,0x2
80006ace:	4581                	li	a1,0
80006ad0:	c29fe0ef          	jal	ra,800056f8 <memset>
80006ad4:	4742                	lw	a4,16(sp)
80006ad6:	009037b3          	snez	a5,s1
80006ada:	8fd9                	or	a5,a5,a4
80006adc:	bf81                	j	80006a2c <__trunctfdf2+0xc4>
/Local/xl_ci/toolchain/riscv-gnu-toolchain/riscv-gcc/libgcc/soft-fp/trunctfdf2.c:46 (discriminator 34)
80006ade:	428c                	lw	a1,0(a3)
80006ae0:	0046ae83          	lw	t4,4(a3)
80006ae4:	01c68f33          	add	t5,a3,t3
80006ae8:	00e5d5b3          	srl	a1,a1,a4
80006aec:	010e9eb3          	sll	t4,t4,a6
80006af0:	01d5e5b3          	or	a1,a1,t4
80006af4:	00bf2023          	sw	a1,0(t5)
80006af8:	0305                	addi	t1,t1,1
80006afa:	0691                	addi	a3,a3,4
80006afc:	bf45                	j	80006aac <__trunctfdf2+0x144>
/Local/xl_ci/toolchain/riscv-gnu-toolchain/riscv-gcc/libgcc/soft-fp/trunctfdf2.c:46 (discriminator 2)
80006afe:	4652                	lw	a2,20(sp)
80006b00:	47e2                	lw	a5,24(sp)
80006b02:	4572                	lw	a0,28(sp)
80006b04:	00f666b3          	or	a3,a2,a5
80006b08:	8ec9                	or	a3,a3,a0
80006b0a:	8ecd                	or	a3,a3,a1
80006b0c:	e709                	bnez	a4,80006b16 <__trunctfdf2+0x1ae>
/Local/xl_ci/toolchain/riscv-gnu-toolchain/riscv-gcc/libgcc/soft-fp/trunctfdf2.c:46 (discriminator 65)
80006b0e:	00d036b3          	snez	a3,a3
80006b12:	4781                	li	a5,0
80006b14:	b5f5                	j	80006a00 <__trunctfdf2+0x98>
/Local/xl_ci/toolchain/riscv-gnu-toolchain/riscv-gcc/libgcc/soft-fp/trunctfdf2.c:46 (discriminator 62)
80006b16:	c2d1                	beqz	a3,80006b9a <__trunctfdf2+0x232>
/Local/xl_ci/toolchain/riscv-gnu-toolchain/riscv-gcc/libgcc/soft-fp/trunctfdf2.c:46
80006b18:	01c65693          	srli	a3,a2,0x1c
80006b1c:	0512                	slli	a0,a0,0x4
80006b1e:	00479613          	slli	a2,a5,0x4
80006b22:	83f1                	srli	a5,a5,0x1c
80006b24:	00400737          	lui	a4,0x400
80006b28:	8ed1                	or	a3,a3,a2
80006b2a:	8fc9                	or	a5,a5,a0
80006b2c:	8fd9                	or	a5,a5,a4
80006b2e:	9ae1                	andi	a3,a3,-8
80006b30:	7ff00713          	li	a4,2047
80006b34:	b5f1                	j	80006a00 <__trunctfdf2+0x98>
80006b36:	4781                	li	a5,0
80006b38:	4681                	li	a3,0
80006b3a:	7ff00713          	li	a4,2047
/Local/xl_ci/toolchain/riscv-gnu-toolchain/riscv-gcc/libgcc/soft-fp/trunctfdf2.c:50 (discriminator 47)
80006b3e:	00800637          	lui	a2,0x800
80006b42:	8e7d                	and	a2,a2,a5
80006b44:	ca11                	beqz	a2,80006b58 <__trunctfdf2+0x1f0>
/Local/xl_ci/toolchain/riscv-gnu-toolchain/riscv-gcc/libgcc/soft-fp/trunctfdf2.c:50 (discriminator 63)
80006b46:	0705                	addi	a4,a4,1
80006b48:	7ff00613          	li	a2,2047
80006b4c:	04c70963          	beq	a4,a2,80006b9e <__trunctfdf2+0x236>
/Local/xl_ci/toolchain/riscv-gnu-toolchain/riscv-gcc/libgcc/soft-fp/trunctfdf2.c:50
80006b50:	ff800637          	lui	a2,0xff800
80006b54:	167d                	addi	a2,a2,-1
80006b56:	8ff1                	and	a5,a5,a2
/Local/xl_ci/toolchain/riscv-gnu-toolchain/riscv-gcc/libgcc/soft-fp/trunctfdf2.c:50 (discriminator 79)
80006b58:	01d79613          	slli	a2,a5,0x1d
80006b5c:	828d                	srli	a3,a3,0x3
80006b5e:	8ed1                	or	a3,a3,a2
80006b60:	7ff00613          	li	a2,2047
80006b64:	838d                	srli	a5,a5,0x3
80006b66:	00c71963          	bne	a4,a2,80006b78 <__trunctfdf2+0x210>
/Local/xl_ci/toolchain/riscv-gnu-toolchain/riscv-gcc/libgcc/soft-fp/trunctfdf2.c:50 (discriminator 80)
80006b6a:	8edd                	or	a3,a3,a5
80006b6c:	4781                	li	a5,0
80006b6e:	c689                	beqz	a3,80006b78 <__trunctfdf2+0x210>
/Local/xl_ci/toolchain/riscv-gnu-toolchain/riscv-gcc/libgcc/soft-fp/trunctfdf2.c:50
80006b70:	000807b7          	lui	a5,0x80
80006b74:	4681                	li	a3,0
80006b76:	4401                	li	s0,0
/Local/xl_ci/toolchain/riscv-gnu-toolchain/riscv-gcc/libgcc/soft-fp/trunctfdf2.c:50 (discriminator 90)
80006b78:	0752                	slli	a4,a4,0x14
80006b7a:	7ff00637          	lui	a2,0x7ff00
80006b7e:	07b2                	slli	a5,a5,0xc
80006b80:	8f71                	and	a4,a4,a2
80006b82:	83b1                	srli	a5,a5,0xc
80006b84:	047e                	slli	s0,s0,0x1f
80006b86:	8fd9                	or	a5,a5,a4
/Local/xl_ci/toolchain/riscv-gnu-toolchain/riscv-gcc/libgcc/soft-fp/trunctfdf2.c:54 (discriminator 90)
80006b88:	50b2                	lw	ra,44(sp)
/Local/xl_ci/toolchain/riscv-gnu-toolchain/riscv-gcc/libgcc/soft-fp/trunctfdf2.c:50 (discriminator 90)
80006b8a:	0087e733          	or	a4,a5,s0
/Local/xl_ci/toolchain/riscv-gnu-toolchain/riscv-gcc/libgcc/soft-fp/trunctfdf2.c:54 (discriminator 90)
80006b8e:	5422                	lw	s0,40(sp)
80006b90:	5492                	lw	s1,36(sp)
80006b92:	8536                	mv	a0,a3
80006b94:	85ba                	mv	a1,a4
80006b96:	6145                	addi	sp,sp,48
80006b98:	8082                	ret
80006b9a:	4781                	li	a5,0
80006b9c:	bf79                	j	80006b3a <__trunctfdf2+0x1d2>
80006b9e:	4781                	li	a5,0
80006ba0:	4681                	li	a3,0
80006ba2:	bf5d                	j	80006b58 <__trunctfdf2+0x1f0>
