
e203cifar10_test.elf:     file format elf32-littleriscv
e203cifar10_test.elf
architecture: riscv:rv32, flags 0x00000112:
EXEC_P, HAS_SYMS, D_PAGED
start address 0x80000000

Program Header:
    LOAD off    0x00001000 vaddr 0x80000000 paddr 0x80000000 align 2**12
         filesz 0x00009154 memsz 0x00009154 flags rwx
    LOAD off    0x0000b000 vaddr 0x90000000 paddr 0x80009154 align 2**12
         filesz 0x00009014 memsz 0x00009014 flags rw-
    LOAD off    0x00000018 vaddr 0x90009018 paddr 0x90009018 align 2**12
         filesz 0x00000000 memsz 0x0000addc flags rw-
    LOAD off    0x00000800 vaddr 0x9003f800 paddr 0x90013df4 align 2**12
         filesz 0x00000000 memsz 0x00000800 flags rw-

Sections:
Idx Name              Size      VMA       LMA       File off  Algn  Flags
  0 .init             000000c8  80000000  80000000  00001000  2**0  CONTENTS, ALLOC, LOAD, READONLY, CODE
  1 .ilalign          00000000  800000c8  800000c8  000010c8  2**0  ALLOC
  2 .text             000088b6  800000c8  800000c8  000010c8  2**2  CONTENTS, ALLOC, LOAD, READONLY, CODE
  3 .rodata           000007d4  80008980  80008980  00009980  2**3  CONTENTS, ALLOC, LOAD, READONLY, DATA
  4 .lalign           00000000  80009154  80009154  00014014  2**0  CONTENTS
  5 .dalign           00000000  90000000  90000000  00014014  2**0  CONTENTS
  6 .data             00009014  90000000  80009154  0000b000  2**3  CONTENTS, ALLOC, LOAD, DATA
  7 .bss              0000addc  90009018  90009018  00014018  2**3  ALLOC
  8 .stack            00000800  9003f800  90013df4  00014800  2**0  ALLOC
  9 .debug_info       0000785e  00000000  00000000  00014014  2**0  CONTENTS, READONLY, DEBUGGING, OCTETS
 10 .debug_abbrev     0000246c  00000000  00000000  0001b872  2**0  CONTENTS, READONLY, DEBUGGING, OCTETS
 11 .debug_aranges    000005a0  00000000  00000000  0001dce0  2**3  CONTENTS, READONLY, DEBUGGING, OCTETS
 12 .debug_ranges     00001440  00000000  00000000  0001e280  2**0  CONTENTS, READONLY, DEBUGGING, OCTETS
 13 .debug_line       0000b720  00000000  00000000  0001f6c0  2**0  CONTENTS, READONLY, DEBUGGING, OCTETS
 14 .debug_str        00001f31  00000000  00000000  0002ade0  2**0  CONTENTS, READONLY, DEBUGGING, OCTETS
 15 .comment          00000023  00000000  00000000  0002cd11  2**0  CONTENTS, READONLY
 16 .riscv.attributes 00000034  00000000  00000000  0002cd34  2**0  CONTENTS, READONLY
 17 .debug_frame      00000cc4  00000000  00000000  0002cd68  2**2  CONTENTS, READONLY, DEBUGGING, OCTETS
 18 .debug_loc        000085d6  00000000  00000000  0002da2c  2**0  CONTENTS, READONLY, DEBUGGING, OCTETS
SYMBOL TABLE:
80000000 l    d  .init	00000000 .init
800000c8 l    d  .ilalign	00000000 .ilalign
800000c8 l    d  .text	00000000 .text
80008980 l    d  .rodata	00000000 .rodata
80009154 l    d  .lalign	00000000 .lalign
90000000 l    d  .dalign	00000000 .dalign
90000000 l    d  .data	00000000 .data
90009018 l    d  .bss	00000000 .bss
9003f800 l    d  .stack	00000000 .stack
00000000 l    d  .debug_info	00000000 .debug_info
00000000 l    d  .debug_abbrev	00000000 .debug_abbrev
00000000 l    d  .debug_aranges	00000000 .debug_aranges
00000000 l    d  .debug_ranges	00000000 .debug_ranges
00000000 l    d  .debug_line	00000000 .debug_line
00000000 l    d  .debug_str	00000000 .debug_str
00000000 l    d  .comment	00000000 .comment
00000000 l    d  .riscv.attributes	00000000 .riscv.attributes
00000000 l    d  .debug_frame	00000000 .debug_frame
00000000 l    d  .debug_loc	00000000 .debug_loc
00000000 l    df *ABS*	00000000 close.c
00000000 l    df *ABS*	00000000 exit.c
00000000 l    df *ABS*	00000000 fstat.c
00000000 l    df *ABS*	00000000 getpid.c
00000000 l    df *ABS*	00000000 isatty.c
00000000 l    df *ABS*	00000000 kill.c
00000000 l    df *ABS*	00000000 lseek.c
00000000 l    df *ABS*	00000000 read.c
00000000 l    df *ABS*	00000000 sbrk.c
90008fb0 l     O .data	00000004 curbrk.0
00000000 l    df *ABS*	00000000 write.c
00000000 l    df *ABS*	00000000 hbirdv2_gpio.c
00000000 l    df *ABS*	00000000 hbirdv2_uart.c
00000000 l    df *ABS*	00000000 hbirdv2_common.c
00000000 l    df *ABS*	00000000 system_hbirdv2.c
90009044 l     O .bss	0000002c SystemExceptionHandlers
90009070 l     O .bss	00000044 SystemExtInterruptHandlers
900090b4 l     O .bss	00000028 SystemCoreInterruptHandlers
800005e4 l     F .text	0000005a system_default_exception_handler
8000063e l     F .text	00000062 system_default_interrupt_handler
800006a0 l     F .text	00000040 Exception_Init
800006e0 l     F .text	00000070 Interrupt_Init
80000856 l     F .text	00000068 core_exception_handler
00000000 l    df *ABS*	00000000 main.c
90009018 l     O .bss	00000008 start_cycle
90009020 l     O .bss	00000008 end_cycle
90009028 l     O .bss	00000008 cycle
90009030 l     O .bss	00000004 bench_ercd
90000000 l     O .data	00000960 conv1_wt
90000960 l     O .data	00000020 conv1_bias
90000980 l     O .data	00003200 conv2_wt
90003b80 l     O .data	00000010 conv2_bias
90003b90 l     O .data	00003200 conv3_wt
90006d90 l     O .data	00000020 conv3_bias
90006db0 l     O .data	00001400 ip1_wt
900081b0 l     O .data	0000000a ip1_bias
900081bc l     O .data	00000c00 image_data
00000000 l    df *ABS*	00000000 libgcc2.c
00000000 l    df *ABS*	00000000 adddf3.c
00000000 l    df *ABS*	00000000 divdf3.c
00000000 l    df *ABS*	00000000 eqdf2.c
00000000 l    df *ABS*	00000000 ledf2.c
00000000 l    df *ABS*	00000000 muldf3.c
00000000 l    df *ABS*	00000000 subdf3.c
00000000 l    df *ABS*	00000000 unorddf2.c
00000000 l    df *ABS*	00000000 floatsidf.c
00000000 l    df *ABS*	00000000 extendsfdf2.c
00000000 l    df *ABS*	00000000 truncdfsf2.c
00000000 l    df *ABS*	00000000 libgcc2.c
00000000 l    df *ABS*	00000000 atexit.c
00000000 l    df *ABS*	00000000 fini.c
00000000 l    df *ABS*	00000000 init.c
00000000 l    df *ABS*	00000000 nano-vfprintf_float.c
00000000 l    df *ABS*	00000000 nano-vfprintf_i.c
00000000 l    df *ABS*	00000000 printf.c
00000000 l    df *ABS*	00000000 puts.c
00000000 l    df *ABS*	00000000 strlen.c
00000000 l    df *ABS*	00000000 sysisatty.c
00000000 l    df *ABS*	00000000 wbuf.c
00000000 l    df *ABS*	00000000 wsetup.c
00000000 l    df *ABS*	00000000 __atexit.c
90013d68 l     O .bss	0000008c _global_atexit0
00000000 l    df *ABS*	00000000 dtoa.c
80005fd8 l     F .text	0000012c quorem
00000000 l    df *ABS*	00000000 fflush.c
00000000 l    df *ABS*	00000000 findfp.c
80006efc l     F .text	00000068 std
00000000 l    df *ABS*	00000000 fwalk.c
00000000 l    df *ABS*	00000000 localeconv.c
00000000 l    df *ABS*	00000000 makebuf.c
00000000 l    df *ABS*	00000000 malloc.c
00000000 l    df *ABS*	00000000 memchr.c
00000000 l    df *ABS*	00000000 memcpy.c
00000000 l    df *ABS*	00000000 mprec.c
80008fe0 l     O .rodata	0000000c p05.0
00000000 l    df *ABS*	00000000 nano-mallocr.c
00000000 l    df *ABS*	00000000 nano-mallocr.c
00000000 l    df *ABS*	00000000 nano-mallocr.c
00000000 l    df *ABS*	00000000 nano-vfprintf.c
80007dee l     F .text	0000002a __sfputc_r
00000000 l    df *ABS*	00000000 sbrkr.c
00000000 l    df *ABS*	00000000 stdio.c
00000000 l    df *ABS*	00000000 writer.c
00000000 l    df *ABS*	00000000 assert.c
00000000 l    df *ABS*	00000000 closer.c
00000000 l    df *ABS*	00000000 fprintf.c
00000000 l    df *ABS*	00000000 fstatr.c
00000000 l    df *ABS*	00000000 isattyr.c
00000000 l    df *ABS*	00000000 lseekr.c
00000000 l    df *ABS*	00000000 mbtowc_r.c
00000000 l    df *ABS*	00000000 mlock.c
00000000 l    df *ABS*	00000000 readr.c
00000000 l    df *ABS*	00000000 wctomb_r.c
00000000 l    df *ABS*	00000000 abort.c
00000000 l    df *ABS*	00000000 signal.c
00000000 l    df *ABS*	00000000 signalr.c
00000000 l    df *ABS*	00000000 gedf2.c
00000000 l    df *ABS*	00000000 fixdfsi.c
00000000 l    df *ABS*	00000000 floatunsidf.c
00000000 l    df *ABS*	00000000 trunctfdf2.c
00000000 l    df *ABS*	00000000 libgcc2.c
00000000 l    df *ABS*	00000000 locale.c
00000000 l    df *ABS*	00000000 ctype_.c
00000000 l    df *ABS*	00000000 impure.c
90008de4 l     O .data	00000060 impure_data
00000000 l    df *ABS*	00000000 
80009154 l       .rodata	00000000 __fini_array_end
80009154 l       .rodata	00000000 __fini_array_start
80009154 l       .rodata	00000000 __init_array_end
80009154 l       .rodata	00000000 __preinit_array_end
80009154 l       .rodata	00000000 __init_array_start
80009154 l       .rodata	00000000 __preinit_array_start
8000527c g     F .text	000000ec __cvt
900090e8 g     O .bss	00000c80 col_buffer
800082b4 g     F .text	00000028 _isatty_r
80000136  w    F .text	00000010 _getpid
80005c92 g     F .text	000000de _puts_r
800082dc g     F .text	0000002c _lseek_r
80003e40 g     F .text	000000a4 .hidden __eqdf2
8000840a g     F .text	0000002a _kill_r
80005c56 g     F .text	0000003c printf
900097b0 g       .data	00000000 __global_pointer$
8000819e g     F .text	00000036 __sseek
80006fb4 g     F .text	00000066 __sinit
80005d8e g     F .text	000000c6 __swbuf_r
80006f6e g     F .text	00000046 __sfmoreglue
80008344 g     F .text	00000002 __malloc_unlock
800073ca g     F .text	000000ac _Balloc
80002290 g     F .text	000001ce riscv_convolve_HWC_q7_fast
80008438 g     F .text	000000ae .hidden __gtdf2
8000828a g     F .text	0000002a _fstat_r
90009034 g     O .bss	00000004 errno
00000800 g       *ABS*	00000000 __stack_size
80000410 g     F .text	00000044 uart_write
80009154 g       .rodata	00000000 __rt_init_start
90008dbc g     O .data	00000028 cifar10_label
80009154 g       .rodata	00000000 __fsymtab_end
800000c8 g       .ilalign	00000000 _ilm_lma
80007246 g     F .text	000000dc memcpy
80006f64 g     F .text	0000000a _cleanup_r
80004e5c g     F .text	00000066 .hidden __floatsidf
80003ee4 g     F .text	000000ae .hidden __ltdf2
80005d70 g     F .text	00000008 puts
80009154 g       .rodata	00000000 __rt_init_end
90008fb4 g     O .data	00000004 SystemCoreClock
80007222 g     F .text	0000000a malloc
80005d8a g     F .text	00000004 isatty
800083a0 g     F .text	00000062 _raise_r
800000f6  w    F .text	00000040 _fstat
80008206 g     F .text	00000036 __assert_func
800005a0 g     F .text	00000024 get_cpu_freq
80008f18 g     O .rodata	000000c8 __mprec_tens
80008434 g     F .text	00000004 _getpid_r
8000711c g     F .text	0000000a _localeconv_r
80007640 g     F .text	00000036 __i2b
800080f8 g     F .text	00000028 _sbrk_r
80008346 g     F .text	0000002c _read_r
80009154 g       .rodata	00000000 _eilm
80004ec2 g     F .text	000000be .hidden __extendsfdf2
80002f0c g     F .text	000008aa .hidden __adddf3
9003f800 g       .stack	00000000 _heap_end
80000146  w    F .text	00000014 _isatty
90009010 g     O .data	00000004 _global_impure_ptr
90009d68 g     O .bss	0000a000 scratch_buffer
8000521e g     F .text	0000005e __libc_init_array
80002bac g     F .text	00000360 .hidden __udivdi3
80008ef0 g     O .rodata	00000028 __mprec_bigtens
80008392 g     F .text	0000000e abort
800085aa g     F .text	00000050 .hidden __floatunsidf
800001da  w    F .text	0000007c _sbrk
800079ca g     F .text	00000036 __mcmp
80000a48 g     F .text	0000000e _init
800051e8 g     F .text	00000036 __libc_fini_array
80007590 g     F .text	00000046 __hi0bits
800000c8 g       .ilalign	00000000 _ilm
800084e6 g     F .text	000000c4 .hidden __fixdfsi
90008fb8 g     O .data	00000004 image_name
80000918 g     F .text	0000011e _premain_init
80008264 g     F .text	00000026 fprintf
80003ee4 g     F .text	000000ae .hidden __ledf2
80002a7c g     F .text	00000130 riscv_avepool_q7_HWC
800077f4 g     F .text	000000d2 __pow5mult
80008e3c g     O .rodata	00000020 __sf_fake_stderr
80000750 g     F .text	00000106 core_trap_handler
800051a0 g     F .text	0000003c .hidden __clzsi2
80007e18 g     F .text	00000042 __sfputs_r
80000394 g     F .text	0000007c uart_init
8000722c g     F .text	0000001a memchr
80005404  w    F .text	000004d4 _printf_float
80007c80 g     F .text	0000009e _free_r
90009038 g     O .bss	00000004 _global_atexit
90040000 g       .stack	00000000 _sp
80000000 g     F .init	00000000 _start
8000017a  w    F .text	0000001c _lseek
800078c6 g     F .text	00000104 __lshift
80002630 g     F .text	0000030a riscv_fully_connected_q7_opt
800021be g     F .text	000000d2 riscv_softmax_q7
80005f60 g     F .text	00000078 __register_exitproc
80007676 g     F .text	0000017e __multiply
80007b5c g     F .text	000000ee __d2b
8000245e g     F .text	000001b0 riscv_convolve_HWC_q7_RGB
8000823c g     F .text	00000028 _close_r
8000293a g     F .text	00000142 riscv_maxpool_q7_HWC
8000260e g     F .text	00000022 riscv_relu_q7
80005e54 g     F .text	0000010c __swsetup_r
800037b6 g     F .text	0000068a .hidden __divdf3
8000701a g     F .text	00000098 __sfp
80003f92 g     F .text	0000059c .hidden __muldf3
80008120 g     F .text	00000030 __sread
80008342 g     F .text	00000002 __malloc_lock
80006e98 g     F .text	00000064 _fflush_r
80007c4a g     F .text	00000036 _calloc_r
80008e5c g     O .rodata	00000020 __sf_fake_stdin
90009014 g       .bss	00000000 __bss_start
80007322 g     F .text	000000a8 memset
80000a64 g     F .text	0000175a main
800002e0  w      .text	00000000 trap_entry
800081d4 g     F .text	00000006 __sclose
80004f80 g     F .text	00000220 .hidden __truncdfsf2
80006104 g     F .text	00000c4c _dtoa_r
80007d1e g     F .text	000000d0 _malloc_r
80008372 g     F .text	00000020 __ascii_wctomb
80009154 g       .rodata	00000000 __vsymtab_start
800005c4 g     F .text	00000020 SystemInit
80003e40 g     F .text	000000a4 .hidden __nedf2
80000a56 g     F .text	0000000e _fini
80005c56 g     F .text	0000003c iprintf
80008c18 g     O .rodata	00000100 .hidden __clz_tab
80005368 g     F .text	0000009c __exponent
800051dc g     F .text	0000000c atexit
800081da g     F .text	0000002c _write_r
800058d8 g     F .text	0000010c _printf_common
90008fbc g     O .data	00000004 _impure_ptr
80006d50 g     F .text	00000148 __sflush_r
80008308 g     F .text	0000003a __ascii_mbtowc
90000000 g       .dalign	00000000 _data
80009154 g       .rodata	00000000 __vsymtab_end
80000498 g     F .text	00000108 measure_cpu_freq
80007126 g     F .text	0000005c __swhatbuf_r
900090dc g     O .bss	0000000a output_data
80000256  w    F .text	00000088 _write
90009014 g       .bss	00000000 _edata
80000a36 g     F .text	00000012 _postmain_fini
90013df8 g       .bss	00000000 _end
80009154 g       .lalign	00000000 _data_lma
80000454 g     F .text	00000044 uart_read
80008150 g     F .text	0000004e __swrite
80008264 g     F .text	00000026 fiprintf
80007e5a g     F .text	0000029e _vfiprintf_r
800070b2 g     F .text	0000006a _fwalk_reent
80007a00 g     F .text	0000015c __mdiff
8000015a  w    F .text	00000020 _kill
80008e7c g     O .rodata	00000020 __sf_fake_stdout
80009050 g     O .rodata	00000101 _ctype_
800008be g     F .text	0000005a SystemBannerPrint
80000196  w    F .text	00000044 _read
80004de2 g     F .text	0000007a .hidden __unorddf2
800000e4  w    F .text	00000012 _exit
80007182 g     F .text	000000a0 __smakebuf_r
80005d78 g     F .text	00000012 strlen
800059e4 g     F .text	00000272 _printf_i
80008438 g     F .text	000000ae .hidden __gedf2
90009040 g     O .bss	00000004 __malloc_sbrk_start
9000903c g     O .bss	00000004 __malloc_free_list
80009154 g       .rodata	00000000 __fsymtab_start
8000452e g     F .text	000008b4 .hidden __subdf3
80007e5a g     F .text	0000029e _vfprintf_r
800075d6 g     F .text	0000006a __lo0bits
90008e44 g     O .data	0000016c __global_locale
80000358 g     F .text	0000003c gpio_iof_config
800085fa g     F .text	00000384 .hidden __trunctfdf2
80008402 g     F .text	00000008 raise
800000c8  w    F .text	0000001c _close
800074d6 g     F .text	000000ba __multadd
80007476 g     F .text	00000060 _Bfree



Disassembly of section .init:

80000000 <_start>:
_start():
E:\NucleiStudio_Workspace\e203cifar10_test\Debug/../hbird_sdk/SoC/hbirdv2/Common/Source/GCC/startup_hbirdv2.S:40
 * Reset Handler called on controller reset
 */
_start:
    /* ===== Startup Stage 1 ===== */
    /* Disable Global Interrupt */
    csrc CSR_MSTATUS, MSTATUS_MIE
80000000:	30047073          	csrci	mstatus,8
E:\NucleiStudio_Workspace\e203cifar10_test\Debug/../hbird_sdk/SoC/hbirdv2/Common/Source/GCC/startup_hbirdv2.S:42
    /* Disable all interrupts controlled by CSR MIE */
    csrw CSR_MIE, 0x0
80000004:	30405073          	csrwi	mie,0
E:\NucleiStudio_Workspace\e203cifar10_test\Debug/../hbird_sdk/SoC/hbirdv2/Common/Source/GCC/startup_hbirdv2.S:47

    /* Initialize GP and Stack Pointer SP */
    .option push
    .option norelax
    la gp, __global_pointer$
80000008:	10009197          	auipc	gp,0x10009
8000000c:	7a818193          	addi	gp,gp,1960 # 900097b0 <__global_pointer$>
E:\NucleiStudio_Workspace\e203cifar10_test\Debug/../hbird_sdk/SoC/hbirdv2/Common/Source/GCC/startup_hbirdv2.S:49
    .option pop
    la sp, _sp
80000010:	10040117          	auipc	sp,0x10040
80000014:	ff010113          	addi	sp,sp,-16 # 90040000 <_sp>
E:\NucleiStudio_Workspace\e203cifar10_test\Debug/../hbird_sdk/SoC/hbirdv2/Common/Source/GCC/startup_hbirdv2.S:54

    /*
     * Set Trap Entry MTVEC to trap_entry
     */
    la t0, trap_entry
80000018:	00000297          	auipc	t0,0x0
8000001c:	2c828293          	addi	t0,t0,712 # 800002e0 <trap_entry>
E:\NucleiStudio_Workspace\e203cifar10_test\Debug/../hbird_sdk/SoC/hbirdv2/Common/Source/GCC/startup_hbirdv2.S:55
    csrw CSR_MTVEC, t0
80000020:	30529073          	csrw	mtvec,t0
E:\NucleiStudio_Workspace\e203cifar10_test\Debug/../hbird_sdk/SoC/hbirdv2/Common/Source/GCC/startup_hbirdv2.S:58

    /* Direct Mode: All exceptions set pc to BASE. */
    csrc CSR_MTVEC, 0x3
80000024:	3051f073          	csrci	mtvec,3
E:\NucleiStudio_Workspace\e203cifar10_test\Debug/../hbird_sdk/SoC/hbirdv2/Common/Source/GCC/startup_hbirdv2.S:64

    /* ===== Startup Stage 2 ===== */

#ifdef __riscv_flen
    /* Enable FPU */
    li t0, MSTATUS_FS
80000028:	6299                	lui	t0,0x6
E:\NucleiStudio_Workspace\e203cifar10_test\Debug/../hbird_sdk/SoC/hbirdv2/Common/Source/GCC/startup_hbirdv2.S:65
    csrs mstatus, t0
8000002a:	3002a073          	csrs	mstatus,t0
E:\NucleiStudio_Workspace\e203cifar10_test\Debug/../hbird_sdk/SoC/hbirdv2/Common/Source/GCC/startup_hbirdv2.S:66
    csrw fcsr, x0
8000002e:	00301073          	fscsr	zero
E:\NucleiStudio_Workspace\e203cifar10_test\Debug/../hbird_sdk/SoC/hbirdv2/Common/Source/GCC/startup_hbirdv2.S:74
    /* ===== Startup Stage 3 ===== */
    /*
     * Load code section frm FLASH to ILM
     * when code LMA is different with VMA
     */
    la a0, _ilm_lma
80000032:	00000517          	auipc	a0,0x0
80000036:	09650513          	addi	a0,a0,150 # 800000c8 <_close>
E:\NucleiStudio_Workspace\e203cifar10_test\Debug/../hbird_sdk/SoC/hbirdv2/Common/Source/GCC/startup_hbirdv2.S:75
    la a1, _ilm
8000003a:	00000597          	auipc	a1,0x0
8000003e:	08e58593          	addi	a1,a1,142 # 800000c8 <_close>
E:\NucleiStudio_Workspace\e203cifar10_test\Debug/../hbird_sdk/SoC/hbirdv2/Common/Source/GCC/startup_hbirdv2.S:77
    /* If the ILM phy-address same as the logic-address, then quit */
    beq a0, a1, 2f
80000042:	02b50063          	beq	a0,a1,80000062 <_start+0x62>
E:\NucleiStudio_Workspace\e203cifar10_test\Debug/../hbird_sdk/SoC/hbirdv2/Common/Source/GCC/startup_hbirdv2.S:78
    la a2, _eilm
80000046:	00009617          	auipc	a2,0x9
8000004a:	10e60613          	addi	a2,a2,270 # 80009154 <__fsymtab_end>
E:\NucleiStudio_Workspace\e203cifar10_test\Debug/../hbird_sdk/SoC/hbirdv2/Common/Source/GCC/startup_hbirdv2.S:79
    bgeu a1, a2, 2f
8000004e:	00c5fa63          	bgeu	a1,a2,80000062 <_start+0x62>
E:\NucleiStudio_Workspace\e203cifar10_test\Debug/../hbird_sdk/SoC/hbirdv2/Common/Source/GCC/startup_hbirdv2.S:83

1:
    /* Load code section if necessary */
    lw t0, (a0)
80000052:	00052283          	lw	t0,0(a0)
E:\NucleiStudio_Workspace\e203cifar10_test\Debug/../hbird_sdk/SoC/hbirdv2/Common/Source/GCC/startup_hbirdv2.S:84
    sw t0, (a1)
80000056:	0055a023          	sw	t0,0(a1)
E:\NucleiStudio_Workspace\e203cifar10_test\Debug/../hbird_sdk/SoC/hbirdv2/Common/Source/GCC/startup_hbirdv2.S:85
    addi a0, a0, 4
8000005a:	0511                	addi	a0,a0,4
E:\NucleiStudio_Workspace\e203cifar10_test\Debug/../hbird_sdk/SoC/hbirdv2/Common/Source/GCC/startup_hbirdv2.S:86
    addi a1, a1, 4
8000005c:	0591                	addi	a1,a1,4
E:\NucleiStudio_Workspace\e203cifar10_test\Debug/../hbird_sdk/SoC/hbirdv2/Common/Source/GCC/startup_hbirdv2.S:87
    bltu a1, a2, 1b
8000005e:	fec5eae3          	bltu	a1,a2,80000052 <_start+0x52>
E:\NucleiStudio_Workspace\e203cifar10_test\Debug/../hbird_sdk/SoC/hbirdv2/Common/Source/GCC/startup_hbirdv2.S:90
2:
    /* Load data section */
    la a0, _data_lma
80000062:	00009517          	auipc	a0,0x9
80000066:	0f250513          	addi	a0,a0,242 # 80009154 <__fsymtab_end>
E:\NucleiStudio_Workspace\e203cifar10_test\Debug/../hbird_sdk/SoC/hbirdv2/Common/Source/GCC/startup_hbirdv2.S:91
    la a1, _data
8000006a:	10000597          	auipc	a1,0x10000
8000006e:	f9658593          	addi	a1,a1,-106 # 90000000 <conv1_wt>
E:\NucleiStudio_Workspace\e203cifar10_test\Debug/../hbird_sdk/SoC/hbirdv2/Common/Source/GCC/startup_hbirdv2.S:92
    la a2, _edata
80000072:	86418613          	addi	a2,gp,-1948 # 90009014 <__bss_start>
E:\NucleiStudio_Workspace\e203cifar10_test\Debug/../hbird_sdk/SoC/hbirdv2/Common/Source/GCC/startup_hbirdv2.S:93
    bgeu a1, a2, 2f
80000076:	00c5fa63          	bgeu	a1,a2,8000008a <_start+0x8a>
E:\NucleiStudio_Workspace\e203cifar10_test\Debug/../hbird_sdk/SoC/hbirdv2/Common/Source/GCC/startup_hbirdv2.S:95
1:
    lw t0, (a0)
8000007a:	00052283          	lw	t0,0(a0)
E:\NucleiStudio_Workspace\e203cifar10_test\Debug/../hbird_sdk/SoC/hbirdv2/Common/Source/GCC/startup_hbirdv2.S:96
    sw t0, (a1)
8000007e:	0055a023          	sw	t0,0(a1)
E:\NucleiStudio_Workspace\e203cifar10_test\Debug/../hbird_sdk/SoC/hbirdv2/Common/Source/GCC/startup_hbirdv2.S:97
    addi a0, a0, 4
80000082:	0511                	addi	a0,a0,4
E:\NucleiStudio_Workspace\e203cifar10_test\Debug/../hbird_sdk/SoC/hbirdv2/Common/Source/GCC/startup_hbirdv2.S:98
    addi a1, a1, 4
80000084:	0591                	addi	a1,a1,4
E:\NucleiStudio_Workspace\e203cifar10_test\Debug/../hbird_sdk/SoC/hbirdv2/Common/Source/GCC/startup_hbirdv2.S:99
    bltu a1, a2, 1b
80000086:	fec5eae3          	bltu	a1,a2,8000007a <_start+0x7a>
E:\NucleiStudio_Workspace\e203cifar10_test\Debug/../hbird_sdk/SoC/hbirdv2/Common/Source/GCC/startup_hbirdv2.S:102
2:
    /* Clear bss section */
    la a0, __bss_start
8000008a:	86418513          	addi	a0,gp,-1948 # 90009014 <__bss_start>
E:\NucleiStudio_Workspace\e203cifar10_test\Debug/../hbird_sdk/SoC/hbirdv2/Common/Source/GCC/startup_hbirdv2.S:103
    la a1, _end
8000008e:	10014597          	auipc	a1,0x10014
80000092:	d6a58593          	addi	a1,a1,-662 # 90013df8 <_end>
E:\NucleiStudio_Workspace\e203cifar10_test\Debug/../hbird_sdk/SoC/hbirdv2/Common/Source/GCC/startup_hbirdv2.S:104
    bgeu a0, a1, 2f
80000096:	00b57763          	bgeu	a0,a1,800000a4 <_start+0xa4>
E:\NucleiStudio_Workspace\e203cifar10_test\Debug/../hbird_sdk/SoC/hbirdv2/Common/Source/GCC/startup_hbirdv2.S:106
1:
    sw zero, (a0)
8000009a:	00052023          	sw	zero,0(a0)
E:\NucleiStudio_Workspace\e203cifar10_test\Debug/../hbird_sdk/SoC/hbirdv2/Common/Source/GCC/startup_hbirdv2.S:107
    addi a0, a0, 4
8000009e:	0511                	addi	a0,a0,4
E:\NucleiStudio_Workspace\e203cifar10_test\Debug/../hbird_sdk/SoC/hbirdv2/Common/Source/GCC/startup_hbirdv2.S:108
    bltu a0, a1, 1b
800000a0:	feb56de3          	bltu	a0,a1,8000009a <_start+0x9a>
E:\NucleiStudio_Workspace\e203cifar10_test\Debug/../hbird_sdk/SoC/hbirdv2/Common/Source/GCC/startup_hbirdv2.S:115

    /*
     * Call vendor defined SystemInit to
     * initialize the micro-controller system
     */
    call SystemInit
800000a4:	2305                	jal	800005c4 <SystemInit>
E:\NucleiStudio_Workspace\e203cifar10_test\Debug/../hbird_sdk/SoC/hbirdv2/Common/Source/GCC/startup_hbirdv2.S:118

    /* Call global constructors */
    la a0, __libc_fini_array
800000a6:	00005517          	auipc	a0,0x5
800000aa:	14250513          	addi	a0,a0,322 # 800051e8 <__libc_fini_array>
E:\NucleiStudio_Workspace\e203cifar10_test\Debug/../hbird_sdk/SoC/hbirdv2/Common/Source/GCC/startup_hbirdv2.S:119
    call atexit
800000ae:	12e050ef          	jal	ra,800051dc <atexit>
E:\NucleiStudio_Workspace\e203cifar10_test\Debug/../hbird_sdk/SoC/hbirdv2/Common/Source/GCC/startup_hbirdv2.S:121
    /* Call C/C++ constructor start up code */
    call __libc_init_array
800000b2:	16c050ef          	jal	ra,8000521e <__libc_init_array>
E:\NucleiStudio_Workspace\e203cifar10_test\Debug/../hbird_sdk/SoC/hbirdv2/Common/Source/GCC/startup_hbirdv2.S:124

    /* do pre-init steps before main */
    call _premain_init
800000b6:	063000ef          	jal	ra,80000918 <_premain_init>
E:\NucleiStudio_Workspace\e203cifar10_test\Debug/../hbird_sdk/SoC/hbirdv2/Common/Source/GCC/startup_hbirdv2.S:127
    /* ===== Call Main Function  ===== */
    /* argc = argv = 0 */
    li a0, 0
800000ba:	4501                	li	a0,0
E:\NucleiStudio_Workspace\e203cifar10_test\Debug/../hbird_sdk/SoC/hbirdv2/Common/Source/GCC/startup_hbirdv2.S:128
    li a1, 0
800000bc:	4581                	li	a1,0
E:\NucleiStudio_Workspace\e203cifar10_test\Debug/../hbird_sdk/SoC/hbirdv2/Common/Source/GCC/startup_hbirdv2.S:134

#ifdef RTOS_RTTHREAD
    // Call entry function when using RT-Thread
    call entry
#else
    call main
800000be:	1a7000ef          	jal	ra,80000a64 <main>
E:\NucleiStudio_Workspace\e203cifar10_test\Debug/../hbird_sdk/SoC/hbirdv2/Common/Source/GCC/startup_hbirdv2.S:137
#endif
    /* do post-main steps after main */
    call _postmain_fini
800000c2:	175000ef          	jal	ra,80000a36 <_postmain_fini>
E:\NucleiStudio_Workspace\e203cifar10_test\Debug/../hbird_sdk/SoC/hbirdv2/Common/Source/GCC/startup_hbirdv2.S:140

1:
    j 1b
800000c6:	a001                	j	800000c6 <_start+0xc6>

Disassembly of section .text:

800000c8 <_close>:
_close():
E:\NucleiStudio_Workspace\e203cifar10_test\Debug/../hbird_sdk/SoC/hbirdv2/Common/Source/Stubs/close.c:9

#undef errno
extern int errno;

__WEAK int _close(int fd)
{
800000c8:	1101                	addi	sp,sp,-32
800000ca:	ce22                	sw	s0,28(sp)
800000cc:	1000                	addi	s0,sp,32
800000ce:	fea42623          	sw	a0,-20(s0)
E:\NucleiStudio_Workspace\e203cifar10_test\Debug/../hbird_sdk/SoC/hbirdv2/Common/Source/Stubs/close.c:10
    errno = EBADF;
800000d2:	88418793          	addi	a5,gp,-1916 # 90009034 <errno>
800000d6:	4725                	li	a4,9
800000d8:	c398                	sw	a4,0(a5)
E:\NucleiStudio_Workspace\e203cifar10_test\Debug/../hbird_sdk/SoC/hbirdv2/Common/Source/Stubs/close.c:11
    return -1;
800000da:	57fd                	li	a5,-1
E:\NucleiStudio_Workspace\e203cifar10_test\Debug/../hbird_sdk/SoC/hbirdv2/Common/Source/Stubs/close.c:12
}
800000dc:	853e                	mv	a0,a5
800000de:	4472                	lw	s0,28(sp)
800000e0:	6105                	addi	sp,sp,32
800000e2:	8082                	ret

800000e4 <_exit>:
_exit():
E:\NucleiStudio_Workspace\e203cifar10_test\Debug/../hbird_sdk/SoC/hbirdv2/Common/Source/Stubs/exit.c:5
/* See LICENSE of license details. */
#include "hbird_sdk_soc.h"

__WEAK void _exit(int fd)
{
800000e4:	1101                	addi	sp,sp,-32
800000e6:	ce22                	sw	s0,28(sp)
800000e8:	1000                	addi	s0,sp,32
800000ea:	fea42623          	sw	a0,-20(s0)
__WFI():
E:\NucleiStudio_Workspace\e203cifar10_test\hbird_sdk\NMSIS\Core\Include/core_feature_base.h:598 (discriminator 1)
 * the hardware platform that suitable interrupts should
 * preferentially be routed to this hart.
 */
__STATIC_FORCEINLINE void __WFI(void)
{
    __ASM volatile("wfi");
800000ee:	10500073          	wfi
E:\NucleiStudio_Workspace\e203cifar10_test\hbird_sdk\NMSIS\Core\Include/core_feature_base.h:599 (discriminator 1)
}
800000f2:	0001                	nop
_exit():
E:\NucleiStudio_Workspace\e203cifar10_test\Debug/../hbird_sdk/SoC/hbirdv2/Common/Source/Stubs/exit.c:7 (discriminator 1)
    while(1) {
        __WFI();
800000f4:	bfed                	j	800000ee <_exit+0xa>

800000f6 <_fstat>:
_fstat():
E:\NucleiStudio_Workspace\e203cifar10_test\Debug/../hbird_sdk/SoC/hbirdv2/Common/Source/Stubs/fstat.c:11

#undef errno
extern int errno;

__WEAK int _fstat(int file, struct stat *st)
{
800000f6:	1101                	addi	sp,sp,-32
800000f8:	ce22                	sw	s0,28(sp)
800000fa:	1000                	addi	s0,sp,32
800000fc:	fea42623          	sw	a0,-20(s0)
80000100:	feb42423          	sw	a1,-24(s0)
E:\NucleiStudio_Workspace\e203cifar10_test\Debug/../hbird_sdk/SoC/hbirdv2/Common/Source/Stubs/fstat.c:12
    if ((STDOUT_FILENO == file) || (STDERR_FILENO == file)) {
80000104:	fec42703          	lw	a4,-20(s0)
80000108:	4785                	li	a5,1
8000010a:	00f70763          	beq	a4,a5,80000118 <_fstat+0x22>
E:\NucleiStudio_Workspace\e203cifar10_test\Debug/../hbird_sdk/SoC/hbirdv2/Common/Source/Stubs/fstat.c:12 (discriminator 1)
8000010e:	fec42703          	lw	a4,-20(s0)
80000112:	4789                	li	a5,2
80000114:	00f71863          	bne	a4,a5,80000124 <_fstat+0x2e>
E:\NucleiStudio_Workspace\e203cifar10_test\Debug/../hbird_sdk/SoC/hbirdv2/Common/Source/Stubs/fstat.c:13
        st->st_mode = S_IFCHR;
80000118:	fe842783          	lw	a5,-24(s0)
8000011c:	6709                	lui	a4,0x2
8000011e:	c3d8                	sw	a4,4(a5)
E:\NucleiStudio_Workspace\e203cifar10_test\Debug/../hbird_sdk/SoC/hbirdv2/Common/Source/Stubs/fstat.c:14
        return 0;
80000120:	4781                	li	a5,0
80000122:	a031                	j	8000012e <_fstat+0x38>
E:\NucleiStudio_Workspace\e203cifar10_test\Debug/../hbird_sdk/SoC/hbirdv2/Common/Source/Stubs/fstat.c:16
    } else {
        errno = EBADF;
80000124:	88418793          	addi	a5,gp,-1916 # 90009034 <errno>
80000128:	4725                	li	a4,9
8000012a:	c398                	sw	a4,0(a5)
E:\NucleiStudio_Workspace\e203cifar10_test\Debug/../hbird_sdk/SoC/hbirdv2/Common/Source/Stubs/fstat.c:17
        return -1;
8000012c:	57fd                	li	a5,-1
E:\NucleiStudio_Workspace\e203cifar10_test\Debug/../hbird_sdk/SoC/hbirdv2/Common/Source/Stubs/fstat.c:19
    }
}
8000012e:	853e                	mv	a0,a5
80000130:	4472                	lw	s0,28(sp)
80000132:	6105                	addi	sp,sp,32
80000134:	8082                	ret

80000136 <_getpid>:
_getpid():
E:\NucleiStudio_Workspace\e203cifar10_test\Debug/../hbird_sdk/SoC/hbirdv2/Common/Source/Stubs/getpid.c:6
/* See LICENSE of license details. */
#include "hbird_sdk_soc.h"
#include <errno.h>

__WEAK int _getpid(void)
{
80000136:	1141                	addi	sp,sp,-16
80000138:	c622                	sw	s0,12(sp)
8000013a:	0800                	addi	s0,sp,16
E:\NucleiStudio_Workspace\e203cifar10_test\Debug/../hbird_sdk/SoC/hbirdv2/Common/Source/Stubs/getpid.c:7
    return 1;
8000013c:	4785                	li	a5,1
E:\NucleiStudio_Workspace\e203cifar10_test\Debug/../hbird_sdk/SoC/hbirdv2/Common/Source/Stubs/getpid.c:8
}
8000013e:	853e                	mv	a0,a5
80000140:	4432                	lw	s0,12(sp)
80000142:	0141                	addi	sp,sp,16
80000144:	8082                	ret

80000146 <_isatty>:
_isatty():
E:\NucleiStudio_Workspace\e203cifar10_test\Debug/../hbird_sdk/SoC/hbirdv2/Common/Source/Stubs/isatty.c:6
/* See LICENSE of license details. */
#include "hbird_sdk_soc.h"
#include <unistd.h>

__WEAK int _isatty(int fd)
{
80000146:	1101                	addi	sp,sp,-32
80000148:	ce22                	sw	s0,28(sp)
8000014a:	1000                	addi	s0,sp,32
8000014c:	fea42623          	sw	a0,-20(s0)
E:\NucleiStudio_Workspace\e203cifar10_test\Debug/../hbird_sdk/SoC/hbirdv2/Common/Source/Stubs/isatty.c:7
    return 1;
80000150:	4785                	li	a5,1
E:\NucleiStudio_Workspace\e203cifar10_test\Debug/../hbird_sdk/SoC/hbirdv2/Common/Source/Stubs/isatty.c:8
}
80000152:	853e                	mv	a0,a5
80000154:	4472                	lw	s0,28(sp)
80000156:	6105                	addi	sp,sp,32
80000158:	8082                	ret

8000015a <_kill>:
_kill():
E:\NucleiStudio_Workspace\e203cifar10_test\Debug/../hbird_sdk/SoC/hbirdv2/Common/Source/Stubs/kill.c:8
#include <errno.h>
#undef errno
extern int errno;

__WEAK int _kill(int pid, int sig)
{
8000015a:	1101                	addi	sp,sp,-32
8000015c:	ce22                	sw	s0,28(sp)
8000015e:	1000                	addi	s0,sp,32
80000160:	fea42623          	sw	a0,-20(s0)
80000164:	feb42423          	sw	a1,-24(s0)
E:\NucleiStudio_Workspace\e203cifar10_test\Debug/../hbird_sdk/SoC/hbirdv2/Common/Source/Stubs/kill.c:9
    errno = EINVAL;
80000168:	88418793          	addi	a5,gp,-1916 # 90009034 <errno>
8000016c:	4759                	li	a4,22
8000016e:	c398                	sw	a4,0(a5)
E:\NucleiStudio_Workspace\e203cifar10_test\Debug/../hbird_sdk/SoC/hbirdv2/Common/Source/Stubs/kill.c:10
    return -1;
80000170:	57fd                	li	a5,-1
E:\NucleiStudio_Workspace\e203cifar10_test\Debug/../hbird_sdk/SoC/hbirdv2/Common/Source/Stubs/kill.c:11
}
80000172:	853e                	mv	a0,a5
80000174:	4472                	lw	s0,28(sp)
80000176:	6105                	addi	sp,sp,32
80000178:	8082                	ret

8000017a <_lseek>:
_lseek():
E:\NucleiStudio_Workspace\e203cifar10_test\Debug/../hbird_sdk/SoC/hbirdv2/Common/Source/Stubs/lseek.c:9

#undef errno
extern int errno;

__WEAK int _lseek(int file, int offset, int whence)
{
8000017a:	1101                	addi	sp,sp,-32
8000017c:	ce22                	sw	s0,28(sp)
8000017e:	1000                	addi	s0,sp,32
80000180:	fea42623          	sw	a0,-20(s0)
80000184:	feb42423          	sw	a1,-24(s0)
80000188:	fec42223          	sw	a2,-28(s0)
E:\NucleiStudio_Workspace\e203cifar10_test\Debug/../hbird_sdk/SoC/hbirdv2/Common/Source/Stubs/lseek.c:10
    return 0;
8000018c:	4781                	li	a5,0
E:\NucleiStudio_Workspace\e203cifar10_test\Debug/../hbird_sdk/SoC/hbirdv2/Common/Source/Stubs/lseek.c:11
}
8000018e:	853e                	mv	a0,a5
80000190:	4472                	lw	s0,28(sp)
80000192:	6105                	addi	sp,sp,32
80000194:	8082                	ret

80000196 <_read>:
_read():
E:\NucleiStudio_Workspace\e203cifar10_test\Debug/../hbird_sdk/SoC/hbirdv2/Common/Source/Stubs/read.c:11
#include "hbird_sdk_hal.h"

// #define UART_AUTO_ECHO

__WEAK ssize_t _read(int fd, void* ptr, size_t len)
{
80000196:	7179                	addi	sp,sp,-48
80000198:	d606                	sw	ra,44(sp)
8000019a:	d422                	sw	s0,40(sp)
8000019c:	1800                	addi	s0,sp,48
8000019e:	fca42e23          	sw	a0,-36(s0)
800001a2:	fcb42c23          	sw	a1,-40(s0)
800001a6:	fcc42a23          	sw	a2,-44(s0)
E:\NucleiStudio_Workspace\e203cifar10_test\Debug/../hbird_sdk/SoC/hbirdv2/Common/Source/Stubs/read.c:12
    if (fd != STDIN_FILENO) {
800001aa:	fdc42783          	lw	a5,-36(s0)
800001ae:	c399                	beqz	a5,800001b4 <_read+0x1e>
E:\NucleiStudio_Workspace\e203cifar10_test\Debug/../hbird_sdk/SoC/hbirdv2/Common/Source/Stubs/read.c:13
        return -1;
800001b0:	57fd                	li	a5,-1
800001b2:	a839                	j	800001d0 <_read+0x3a>
E:\NucleiStudio_Workspace\e203cifar10_test\Debug/../hbird_sdk/SoC/hbirdv2/Common/Source/Stubs/read.c:16
    }

    uint8_t *readbuf = (uint8_t *)ptr;
800001b4:	fd842783          	lw	a5,-40(s0)
800001b8:	fef42623          	sw	a5,-20(s0)
E:\NucleiStudio_Workspace\e203cifar10_test\Debug/../hbird_sdk/SoC/hbirdv2/Common/Source/Stubs/read.c:17
    readbuf[0] = uart_read(SOC_DEBUG_UART);
800001bc:	10013537          	lui	a0,0x10013
800001c0:	2c51                	jal	80000454 <uart_read>
800001c2:	87aa                	mv	a5,a0
800001c4:	873e                	mv	a4,a5
800001c6:	fec42783          	lw	a5,-20(s0)
800001ca:	00e78023          	sb	a4,0(a5)
E:\NucleiStudio_Workspace\e203cifar10_test\Debug/../hbird_sdk/SoC/hbirdv2/Common/Source/Stubs/read.c:21
#ifdef UART_AUTO_ECHO
    uart_write(SOC_DEBUG_UART, readbuf[0]);
#endif
    return 1;
800001ce:	4785                	li	a5,1
E:\NucleiStudio_Workspace\e203cifar10_test\Debug/../hbird_sdk/SoC/hbirdv2/Common/Source/Stubs/read.c:22
}
800001d0:	853e                	mv	a0,a5
800001d2:	50b2                	lw	ra,44(sp)
800001d4:	5422                	lw	s0,40(sp)
800001d6:	6145                	addi	sp,sp,48
800001d8:	8082                	ret

800001da <_sbrk>:
_sbrk():
E:\NucleiStudio_Workspace\e203cifar10_test\Debug/../hbird_sdk/SoC/hbirdv2/Common/Source/Stubs/sbrk.c:8
#include <stdint.h>
#include <stddef.h>
#include <unistd.h>

__WEAK void *_sbrk(ptrdiff_t incr)
{
800001da:	1101                	addi	sp,sp,-32
800001dc:	ce22                	sw	s0,28(sp)
800001de:	1000                	addi	s0,sp,32
800001e0:	fea42623          	sw	a0,-20(s0)
E:\NucleiStudio_Workspace\e203cifar10_test\Debug/../hbird_sdk/SoC/hbirdv2/Common/Source/Stubs/sbrk.c:13
    extern char _end[];
    extern char _heap_end[];
    static char *curbrk = _end;

    if ((curbrk + incr < _end) || (curbrk + incr > _heap_end)) {
800001e4:	10009797          	auipc	a5,0x10009
800001e8:	dcc78793          	addi	a5,a5,-564 # 90008fb0 <curbrk.0>
800001ec:	4398                	lw	a4,0(a5)
800001ee:	fec42783          	lw	a5,-20(s0)
800001f2:	973e                	add	a4,a4,a5
800001f4:	10014797          	auipc	a5,0x10014
800001f8:	c0478793          	addi	a5,a5,-1020 # 90013df8 <_end>
800001fc:	02f76063          	bltu	a4,a5,8000021c <_sbrk+0x42>
E:\NucleiStudio_Workspace\e203cifar10_test\Debug/../hbird_sdk/SoC/hbirdv2/Common/Source/Stubs/sbrk.c:13 (discriminator 1)
80000200:	10009797          	auipc	a5,0x10009
80000204:	db078793          	addi	a5,a5,-592 # 90008fb0 <curbrk.0>
80000208:	4398                	lw	a4,0(a5)
8000020a:	fec42783          	lw	a5,-20(s0)
8000020e:	973e                	add	a4,a4,a5
80000210:	1003f797          	auipc	a5,0x1003f
80000214:	5f078793          	addi	a5,a5,1520 # 9003f800 <_heap_end>
80000218:	00e7f463          	bgeu	a5,a4,80000220 <_sbrk+0x46>
E:\NucleiStudio_Workspace\e203cifar10_test\Debug/../hbird_sdk/SoC/hbirdv2/Common/Source/Stubs/sbrk.c:14
        return (void *)(-1);
8000021c:	57fd                	li	a5,-1
8000021e:	a805                	j	8000024e <_sbrk+0x74>
E:\NucleiStudio_Workspace\e203cifar10_test\Debug/../hbird_sdk/SoC/hbirdv2/Common/Source/Stubs/sbrk.c:17
    }

    curbrk += incr;
80000220:	10009797          	auipc	a5,0x10009
80000224:	d9078793          	addi	a5,a5,-624 # 90008fb0 <curbrk.0>
80000228:	4398                	lw	a4,0(a5)
8000022a:	fec42783          	lw	a5,-20(s0)
8000022e:	973e                	add	a4,a4,a5
80000230:	10009797          	auipc	a5,0x10009
80000234:	d8078793          	addi	a5,a5,-640 # 90008fb0 <curbrk.0>
80000238:	c398                	sw	a4,0(a5)
E:\NucleiStudio_Workspace\e203cifar10_test\Debug/../hbird_sdk/SoC/hbirdv2/Common/Source/Stubs/sbrk.c:18
    return (void *)(curbrk - incr);
8000023a:	10009797          	auipc	a5,0x10009
8000023e:	d7678793          	addi	a5,a5,-650 # 90008fb0 <curbrk.0>
80000242:	4398                	lw	a4,0(a5)
80000244:	fec42783          	lw	a5,-20(s0)
80000248:	40f007b3          	neg	a5,a5
8000024c:	97ba                	add	a5,a5,a4
E:\NucleiStudio_Workspace\e203cifar10_test\Debug/../hbird_sdk/SoC/hbirdv2/Common/Source/Stubs/sbrk.c:19
}
8000024e:	853e                	mv	a0,a5
80000250:	4472                	lw	s0,28(sp)
80000252:	6105                	addi	sp,sp,32
80000254:	8082                	ret

80000256 <_write>:
_write():
E:\NucleiStudio_Workspace\e203cifar10_test\Debug/../hbird_sdk/SoC/hbirdv2/Common/Source/Stubs/write.c:9
#include <unistd.h>
#include <sys/types.h>
#include <hbird_sdk_hal.h>

__WEAK ssize_t _write(int fd, const void* ptr, size_t len)
{
80000256:	7179                	addi	sp,sp,-48
80000258:	d606                	sw	ra,44(sp)
8000025a:	d422                	sw	s0,40(sp)
8000025c:	1800                	addi	s0,sp,48
8000025e:	fca42e23          	sw	a0,-36(s0)
80000262:	fcb42c23          	sw	a1,-40(s0)
80000266:	fcc42a23          	sw	a2,-44(s0)
E:\NucleiStudio_Workspace\e203cifar10_test\Debug/../hbird_sdk/SoC/hbirdv2/Common/Source/Stubs/write.c:10
    if (!isatty(fd)) {
8000026a:	fdc42503          	lw	a0,-36(s0)
8000026e:	31d050ef          	jal	ra,80005d8a <isatty>
80000272:	87aa                	mv	a5,a0
80000274:	e399                	bnez	a5,8000027a <_write+0x24>
E:\NucleiStudio_Workspace\e203cifar10_test\Debug/../hbird_sdk/SoC/hbirdv2/Common/Source/Stubs/write.c:11
        return -1;
80000276:	57fd                	li	a5,-1
80000278:	a8b1                	j	800002d4 <_write+0x7e>
E:\NucleiStudio_Workspace\e203cifar10_test\Debug/../hbird_sdk/SoC/hbirdv2/Common/Source/Stubs/write.c:14
    }

    const uint8_t *writebuf = (const uint8_t *)ptr;
8000027a:	fd842783          	lw	a5,-40(s0)
8000027e:	fef42423          	sw	a5,-24(s0)
E:\NucleiStudio_Workspace\e203cifar10_test\Debug/../hbird_sdk/SoC/hbirdv2/Common/Source/Stubs/write.c:15
    for (size_t i = 0; i < len; i++) {
80000282:	fe042623          	sw	zero,-20(s0)
80000286:	a83d                	j	800002c4 <_write+0x6e>
E:\NucleiStudio_Workspace\e203cifar10_test\Debug/../hbird_sdk/SoC/hbirdv2/Common/Source/Stubs/write.c:16
        if (writebuf[i] == '\n') {
80000288:	fe842703          	lw	a4,-24(s0)
8000028c:	fec42783          	lw	a5,-20(s0)
80000290:	97ba                	add	a5,a5,a4
80000292:	0007c703          	lbu	a4,0(a5)
80000296:	47a9                	li	a5,10
80000298:	00f71663          	bne	a4,a5,800002a4 <_write+0x4e>
E:\NucleiStudio_Workspace\e203cifar10_test\Debug/../hbird_sdk/SoC/hbirdv2/Common/Source/Stubs/write.c:17
            uart_write(SOC_DEBUG_UART, '\r');
8000029c:	45b5                	li	a1,13
8000029e:	10013537          	lui	a0,0x10013
800002a2:	22bd                	jal	80000410 <uart_write>
E:\NucleiStudio_Workspace\e203cifar10_test\Debug/../hbird_sdk/SoC/hbirdv2/Common/Source/Stubs/write.c:19 (discriminator 2)
        }
        uart_write(SOC_DEBUG_UART, writebuf[i]);
800002a4:	fe842703          	lw	a4,-24(s0)
800002a8:	fec42783          	lw	a5,-20(s0)
800002ac:	97ba                	add	a5,a5,a4
800002ae:	0007c783          	lbu	a5,0(a5)
800002b2:	85be                	mv	a1,a5
800002b4:	10013537          	lui	a0,0x10013
800002b8:	2aa1                	jal	80000410 <uart_write>
E:\NucleiStudio_Workspace\e203cifar10_test\Debug/../hbird_sdk/SoC/hbirdv2/Common/Source/Stubs/write.c:15 (discriminator 2)
    for (size_t i = 0; i < len; i++) {
800002ba:	fec42783          	lw	a5,-20(s0)
800002be:	0785                	addi	a5,a5,1
800002c0:	fef42623          	sw	a5,-20(s0)
E:\NucleiStudio_Workspace\e203cifar10_test\Debug/../hbird_sdk/SoC/hbirdv2/Common/Source/Stubs/write.c:15 (discriminator 1)
800002c4:	fec42703          	lw	a4,-20(s0)
800002c8:	fd442783          	lw	a5,-44(s0)
800002cc:	faf76ee3          	bltu	a4,a5,80000288 <_write+0x32>
E:\NucleiStudio_Workspace\e203cifar10_test\Debug/../hbird_sdk/SoC/hbirdv2/Common/Source/Stubs/write.c:21
    }
    return len;
800002d0:	fd442783          	lw	a5,-44(s0)
E:\NucleiStudio_Workspace\e203cifar10_test\Debug/../hbird_sdk/SoC/hbirdv2/Common/Source/Stubs/write.c:22
}
800002d4:	853e                	mv	a0,a5
800002d6:	50b2                	lw	ra,44(sp)
800002d8:	5422                	lw	s0,40(sp)
800002da:	6145                	addi	sp,sp,48
800002dc:	8082                	ret
	...

800002e0 <trap_entry>:
trap_entry():
E:\NucleiStudio_Workspace\e203cifar10_test\Debug/../hbird_sdk/SoC/hbirdv2/Common/Source/GCC/intexc_hbirdv2.S:159
.align 2
.global trap_entry
.weak trap_entry
trap_entry:
    /* Save the caller saving registers (context) */
    SAVE_CONTEXT
800002e0:	715d                	addi	sp,sp,-80
800002e2:	c006                	sw	ra,0(sp)
800002e4:	c212                	sw	tp,4(sp)
800002e6:	c416                	sw	t0,8(sp)
800002e8:	c61a                	sw	t1,12(sp)
800002ea:	c81e                	sw	t2,16(sp)
800002ec:	ca2a                	sw	a0,20(sp)
800002ee:	cc2e                	sw	a1,24(sp)
800002f0:	ce32                	sw	a2,28(sp)
800002f2:	d036                	sw	a3,32(sp)
800002f4:	d23a                	sw	a4,36(sp)
800002f6:	d43e                	sw	a5,40(sp)
800002f8:	dc42                	sw	a6,56(sp)
800002fa:	de46                	sw	a7,60(sp)
800002fc:	c0f2                	sw	t3,64(sp)
800002fe:	c2f6                	sw	t4,68(sp)
80000300:	c4fa                	sw	t5,72(sp)
80000302:	c6fe                	sw	t6,76(sp)
E:\NucleiStudio_Workspace\e203cifar10_test\Debug/../hbird_sdk/SoC/hbirdv2/Common/Source/GCC/intexc_hbirdv2.S:161
    /* Save the necessary CSR registers */
    SAVE_CSR_CONTEXT
80000304:	341022f3          	csrr	t0,mepc
80000308:	d616                	sw	t0,44(sp)
8000030a:	342022f3          	csrr	t0,mcause
8000030e:	d816                	sw	t0,48(sp)
80000310:	300022f3          	csrr	t0,mstatus
80000314:	da16                	sw	t0,52(sp)
E:\NucleiStudio_Workspace\e203cifar10_test\Debug/../hbird_sdk/SoC/hbirdv2/Common/Source/GCC/intexc_hbirdv2.S:168
    /*
     * Set the exception handler function arguments
     * argument 1: mcause value
     * argument 2: current stack point(SP) value
     */
    csrr a0, mcause
80000316:	34202573          	csrr	a0,mcause
E:\NucleiStudio_Workspace\e203cifar10_test\Debug/../hbird_sdk/SoC/hbirdv2/Common/Source/GCC/intexc_hbirdv2.S:169
    mv a1, sp
8000031a:	858a                	mv	a1,sp
E:\NucleiStudio_Workspace\e203cifar10_test\Debug/../hbird_sdk/SoC/hbirdv2/Common/Source/GCC/intexc_hbirdv2.S:175
    /*
     * TODO: Call the trap handler function
     * By default, the function template is provided in
     * system_Device.c, you can adjust it as you want
     */
    call core_trap_handler
8000031c:	2915                	jal	80000750 <core_trap_handler>
E:\NucleiStudio_Workspace\e203cifar10_test\Debug/../hbird_sdk/SoC/hbirdv2/Common/Source/GCC/intexc_hbirdv2.S:178

    /* Restore the necessary CSR registers */
    RESTORE_CSR_CONTEXT
8000031e:	52b2                	lw	t0,44(sp)
80000320:	34129073          	csrw	mepc,t0
80000324:	52c2                	lw	t0,48(sp)
80000326:	34229073          	csrw	mcause,t0
8000032a:	52d2                	lw	t0,52(sp)
8000032c:	30029073          	csrw	mstatus,t0
E:\NucleiStudio_Workspace\e203cifar10_test\Debug/../hbird_sdk/SoC/hbirdv2/Common/Source/GCC/intexc_hbirdv2.S:180
    /* Restore the caller saving registers (context) */
    RESTORE_CONTEXT
80000330:	4082                	lw	ra,0(sp)
80000332:	4212                	lw	tp,4(sp)
80000334:	42a2                	lw	t0,8(sp)
80000336:	4332                	lw	t1,12(sp)
80000338:	43c2                	lw	t2,16(sp)
8000033a:	4552                	lw	a0,20(sp)
8000033c:	45e2                	lw	a1,24(sp)
8000033e:	4672                	lw	a2,28(sp)
80000340:	5682                	lw	a3,32(sp)
80000342:	5712                	lw	a4,36(sp)
80000344:	57a2                	lw	a5,40(sp)
80000346:	5862                	lw	a6,56(sp)
80000348:	58f2                	lw	a7,60(sp)
8000034a:	4e06                	lw	t3,64(sp)
8000034c:	4e96                	lw	t4,68(sp)
8000034e:	4f26                	lw	t5,72(sp)
80000350:	4fb6                	lw	t6,76(sp)
80000352:	6161                	addi	sp,sp,80
E:\NucleiStudio_Workspace\e203cifar10_test\Debug/../hbird_sdk/SoC/hbirdv2/Common/Source/GCC/intexc_hbirdv2.S:183

    /* Return to regular code */
    mret
80000354:	30200073          	mret

80000358 <gpio_iof_config>:
gpio_iof_config():
E:\NucleiStudio_Workspace\e203cifar10_test\Debug/../hbird_sdk/SoC/hbirdv2/Common/Source/Drivers/hbirdv2_gpio.c:5
#include "hbirdv2.h"
#include "hbirdv2_gpio.h"

int32_t gpio_iof_config(GPIO_TypeDef *gpio, uint32_t mask)
{
80000358:	1101                	addi	sp,sp,-32
8000035a:	ce22                	sw	s0,28(sp)
8000035c:	1000                	addi	s0,sp,32
8000035e:	fea42623          	sw	a0,-20(s0)
80000362:	feb42423          	sw	a1,-24(s0)
E:\NucleiStudio_Workspace\e203cifar10_test\Debug/../hbird_sdk/SoC/hbirdv2/Common/Source/Drivers/hbirdv2_gpio.c:6
    if (__RARELY(gpio == NULL)) {
80000366:	fec42783          	lw	a5,-20(s0)
8000036a:	0017b793          	seqz	a5,a5
8000036e:	0ff7f793          	zext.b	a5,a5
80000372:	c399                	beqz	a5,80000378 <gpio_iof_config+0x20>
E:\NucleiStudio_Workspace\e203cifar10_test\Debug/../hbird_sdk/SoC/hbirdv2/Common/Source/Drivers/hbirdv2_gpio.c:7
        return -1;
80000374:	57fd                	li	a5,-1
80000376:	a819                	j	8000038c <gpio_iof_config+0x34>
E:\NucleiStudio_Workspace\e203cifar10_test\Debug/../hbird_sdk/SoC/hbirdv2/Common/Source/Drivers/hbirdv2_gpio.c:9
    }
    gpio->IOFCFG |= mask;
80000378:	fec42783          	lw	a5,-20(s0)
8000037c:	4fd8                	lw	a4,28(a5)
8000037e:	fe842783          	lw	a5,-24(s0)
80000382:	8f5d                	or	a4,a4,a5
80000384:	fec42783          	lw	a5,-20(s0)
80000388:	cfd8                	sw	a4,28(a5)
E:\NucleiStudio_Workspace\e203cifar10_test\Debug/../hbird_sdk/SoC/hbirdv2/Common/Source/Drivers/hbirdv2_gpio.c:11

    return 0;
8000038a:	4781                	li	a5,0
E:\NucleiStudio_Workspace\e203cifar10_test\Debug/../hbird_sdk/SoC/hbirdv2/Common/Source/Drivers/hbirdv2_gpio.c:12
}
8000038c:	853e                	mv	a0,a5
8000038e:	4472                	lw	s0,28(sp)
80000390:	6105                	addi	sp,sp,32
80000392:	8082                	ret

80000394 <uart_init>:
uart_init():
E:\NucleiStudio_Workspace\e203cifar10_test\Debug/../hbird_sdk/SoC/hbirdv2/Common/Source/Drivers/hbirdv2_uart.c:5
#include "hbirdv2.h"
#include "hbirdv2_uart.h"

int32_t uart_init(UART_TypeDef *uart, uint32_t baudrate)
{
80000394:	7179                	addi	sp,sp,-48
80000396:	d622                	sw	s0,44(sp)
80000398:	1800                	addi	s0,sp,48
8000039a:	fca42e23          	sw	a0,-36(s0)
8000039e:	fcb42c23          	sw	a1,-40(s0)
E:\NucleiStudio_Workspace\e203cifar10_test\Debug/../hbird_sdk/SoC/hbirdv2/Common/Source/Drivers/hbirdv2_uart.c:6
    if (__RARELY(uart == NULL)) {
800003a2:	fdc42783          	lw	a5,-36(s0)
800003a6:	0017b793          	seqz	a5,a5
800003aa:	0ff7f793          	zext.b	a5,a5
800003ae:	c399                	beqz	a5,800003b4 <uart_init+0x20>
E:\NucleiStudio_Workspace\e203cifar10_test\Debug/../hbird_sdk/SoC/hbirdv2/Common/Source/Drivers/hbirdv2_uart.c:7
        return -1;
800003b0:	57fd                	li	a5,-1
800003b2:	a899                	j	80000408 <uart_init+0x74>
E:\NucleiStudio_Workspace\e203cifar10_test\Debug/../hbird_sdk/SoC/hbirdv2/Common/Source/Drivers/hbirdv2_uart.c:10
    }

    unsigned int uart_div = SystemCoreClock / baudrate - 1;
800003b4:	10009797          	auipc	a5,0x10009
800003b8:	c0078793          	addi	a5,a5,-1024 # 90008fb4 <SystemCoreClock>
800003bc:	4398                	lw	a4,0(a5)
800003be:	fd842783          	lw	a5,-40(s0)
800003c2:	02f757b3          	divu	a5,a4,a5
800003c6:	17fd                	addi	a5,a5,-1
800003c8:	fef42623          	sw	a5,-20(s0)
E:\NucleiStudio_Workspace\e203cifar10_test\Debug/../hbird_sdk/SoC/hbirdv2/Common/Source/Drivers/hbirdv2_uart.c:11
    uart->LCR = 0x80;
800003cc:	fdc42783          	lw	a5,-36(s0)
800003d0:	08000713          	li	a4,128
800003d4:	c7d8                	sw	a4,12(a5)
E:\NucleiStudio_Workspace\e203cifar10_test\Debug/../hbird_sdk/SoC/hbirdv2/Common/Source/Drivers/hbirdv2_uart.c:12
    uart->DLM = (uart_div >> 8) & 0xFF;
800003d6:	fec42783          	lw	a5,-20(s0)
800003da:	83a1                	srli	a5,a5,0x8
800003dc:	0ff7f713          	zext.b	a4,a5
800003e0:	fdc42783          	lw	a5,-36(s0)
800003e4:	c3d8                	sw	a4,4(a5)
E:\NucleiStudio_Workspace\e203cifar10_test\Debug/../hbird_sdk/SoC/hbirdv2/Common/Source/Drivers/hbirdv2_uart.c:13
    uart->DLL = uart_div        & 0xFF;
800003e6:	fec42783          	lw	a5,-20(s0)
800003ea:	0ff7f713          	zext.b	a4,a5
800003ee:	fdc42783          	lw	a5,-36(s0)
800003f2:	c398                	sw	a4,0(a5)
E:\NucleiStudio_Workspace\e203cifar10_test\Debug/../hbird_sdk/SoC/hbirdv2/Common/Source/Drivers/hbirdv2_uart.c:14
    uart->FCR = 0xC6;
800003f4:	fdc42783          	lw	a5,-36(s0)
800003f8:	0c600713          	li	a4,198
800003fc:	c798                	sw	a4,8(a5)
E:\NucleiStudio_Workspace\e203cifar10_test\Debug/../hbird_sdk/SoC/hbirdv2/Common/Source/Drivers/hbirdv2_uart.c:15
    uart->LCR = 0x03;
800003fe:	fdc42783          	lw	a5,-36(s0)
80000402:	470d                	li	a4,3
80000404:	c7d8                	sw	a4,12(a5)
E:\NucleiStudio_Workspace\e203cifar10_test\Debug/../hbird_sdk/SoC/hbirdv2/Common/Source/Drivers/hbirdv2_uart.c:17

    return 0;
80000406:	4781                	li	a5,0
E:\NucleiStudio_Workspace\e203cifar10_test\Debug/../hbird_sdk/SoC/hbirdv2/Common/Source/Drivers/hbirdv2_uart.c:18
}
80000408:	853e                	mv	a0,a5
8000040a:	5432                	lw	s0,44(sp)
8000040c:	6145                	addi	sp,sp,48
8000040e:	8082                	ret

80000410 <uart_write>:
uart_write():
E:\NucleiStudio_Workspace\e203cifar10_test\Debug/../hbird_sdk/SoC/hbirdv2/Common/Source/Drivers/hbirdv2_uart.c:67

    return 0;
}

int32_t uart_write(UART_TypeDef *uart, uint8_t val)
{
80000410:	1101                	addi	sp,sp,-32
80000412:	ce22                	sw	s0,28(sp)
80000414:	1000                	addi	s0,sp,32
80000416:	fea42623          	sw	a0,-20(s0)
8000041a:	87ae                	mv	a5,a1
8000041c:	fef405a3          	sb	a5,-21(s0)
E:\NucleiStudio_Workspace\e203cifar10_test\Debug/../hbird_sdk/SoC/hbirdv2/Common/Source/Drivers/hbirdv2_uart.c:68
    if (__RARELY(uart == NULL)) {
80000420:	fec42783          	lw	a5,-20(s0)
80000424:	0017b793          	seqz	a5,a5
80000428:	0ff7f793          	zext.b	a5,a5
8000042c:	c399                	beqz	a5,80000432 <uart_write+0x22>
E:\NucleiStudio_Workspace\e203cifar10_test\Debug/../hbird_sdk/SoC/hbirdv2/Common/Source/Drivers/hbirdv2_uart.c:69
        return -1;
8000042e:	57fd                	li	a5,-1
80000430:	a831                	j	8000044c <uart_write+0x3c>
E:\NucleiStudio_Workspace\e203cifar10_test\Debug/../hbird_sdk/SoC/hbirdv2/Common/Source/Drivers/hbirdv2_uart.c:73
    }
#ifndef SIMULATION_SPIKE
#ifndef SIMULATION_XLSPIKE
    while ((uart->LSR & 0x20) == 0);
80000432:	0001                	nop
E:\NucleiStudio_Workspace\e203cifar10_test\Debug/../hbird_sdk/SoC/hbirdv2/Common/Source/Drivers/hbirdv2_uart.c:73 (discriminator 1)
80000434:	fec42783          	lw	a5,-20(s0)
80000438:	4bdc                	lw	a5,20(a5)
8000043a:	0207f793          	andi	a5,a5,32
8000043e:	dbfd                	beqz	a5,80000434 <uart_write+0x24>
E:\NucleiStudio_Workspace\e203cifar10_test\Debug/../hbird_sdk/SoC/hbirdv2/Common/Source/Drivers/hbirdv2_uart.c:75
#endif
    uart->THR = val;
80000440:	feb44703          	lbu	a4,-21(s0)
80000444:	fec42783          	lw	a5,-20(s0)
80000448:	c398                	sw	a4,0(a5)
E:\NucleiStudio_Workspace\e203cifar10_test\Debug/../hbird_sdk/SoC/hbirdv2/Common/Source/Drivers/hbirdv2_uart.c:80
#else
    extern void htif_putc(char ch);
    htif_putc(val);
#endif
    return 0;
8000044a:	4781                	li	a5,0
E:\NucleiStudio_Workspace\e203cifar10_test\Debug/../hbird_sdk/SoC/hbirdv2/Common/Source/Drivers/hbirdv2_uart.c:81
}
8000044c:	853e                	mv	a0,a5
8000044e:	4472                	lw	s0,28(sp)
80000450:	6105                	addi	sp,sp,32
80000452:	8082                	ret

80000454 <uart_read>:
uart_read():
E:\NucleiStudio_Workspace\e203cifar10_test\Debug/../hbird_sdk/SoC/hbirdv2/Common/Source/Drivers/hbirdv2_uart.c:84

uint8_t uart_read(UART_TypeDef *uart)
{
80000454:	7179                	addi	sp,sp,-48
80000456:	d622                	sw	s0,44(sp)
80000458:	1800                	addi	s0,sp,48
8000045a:	fca42e23          	sw	a0,-36(s0)
E:\NucleiStudio_Workspace\e203cifar10_test\Debug/../hbird_sdk/SoC/hbirdv2/Common/Source/Drivers/hbirdv2_uart.c:86
    uint32_t reg;
    if (__RARELY(uart == NULL)) {
8000045e:	fdc42783          	lw	a5,-36(s0)
80000462:	0017b793          	seqz	a5,a5
80000466:	0ff7f793          	zext.b	a5,a5
8000046a:	c781                	beqz	a5,80000472 <uart_read+0x1e>
E:\NucleiStudio_Workspace\e203cifar10_test\Debug/../hbird_sdk/SoC/hbirdv2/Common/Source/Drivers/hbirdv2_uart.c:87
        return -1;
8000046c:	0ff00793          	li	a5,255
80000470:	a005                	j	80000490 <uart_read+0x3c>
E:\NucleiStudio_Workspace\e203cifar10_test\Debug/../hbird_sdk/SoC/hbirdv2/Common/Source/Drivers/hbirdv2_uart.c:90
    }
    
    while ((uart->LSR & 0x1) == 0);
80000472:	0001                	nop
E:\NucleiStudio_Workspace\e203cifar10_test\Debug/../hbird_sdk/SoC/hbirdv2/Common/Source/Drivers/hbirdv2_uart.c:90 (discriminator 1)
80000474:	fdc42783          	lw	a5,-36(s0)
80000478:	4bdc                	lw	a5,20(a5)
8000047a:	8b85                	andi	a5,a5,1
8000047c:	dfe5                	beqz	a5,80000474 <uart_read+0x20>
E:\NucleiStudio_Workspace\e203cifar10_test\Debug/../hbird_sdk/SoC/hbirdv2/Common/Source/Drivers/hbirdv2_uart.c:91
    reg = uart->RBR;
8000047e:	fdc42783          	lw	a5,-36(s0)
80000482:	439c                	lw	a5,0(a5)
80000484:	fef42623          	sw	a5,-20(s0)
E:\NucleiStudio_Workspace\e203cifar10_test\Debug/../hbird_sdk/SoC/hbirdv2/Common/Source/Drivers/hbirdv2_uart.c:93
    
    return (uint8_t)(reg & 0xFF);
80000488:	fec42783          	lw	a5,-20(s0)
8000048c:	0ff7f793          	zext.b	a5,a5
E:\NucleiStudio_Workspace\e203cifar10_test\Debug/../hbird_sdk/SoC/hbirdv2/Common/Source/Drivers/hbirdv2_uart.c:94
}
80000490:	853e                	mv	a0,a5
80000492:	5432                	lw	s0,44(sp)
80000494:	6145                	addi	sp,sp,48
80000496:	8082                	ret

80000498 <measure_cpu_freq>:
measure_cpu_freq():
E:\NucleiStudio_Workspace\e203cifar10_test\Debug/../hbird_sdk/SoC/hbirdv2/Common/Source/hbirdv2_common.c:9
{
    return SOC_TIMER_FREQ;
}

uint32_t measure_cpu_freq(uint32_t n)
{
80000498:	7139                	addi	sp,sp,-64
8000049a:	de06                	sw	ra,60(sp)
8000049c:	dc22                	sw	s0,56(sp)
8000049e:	da26                	sw	s1,52(sp)
800004a0:	0080                	addi	s0,sp,64
800004a2:	fca42623          	sw	a0,-52(s0)
get_timer_freq():
E:\NucleiStudio_Workspace\e203cifar10_test\Debug/../hbird_sdk/SoC/hbirdv2/Common/Source/hbirdv2_common.c:5
    return SOC_TIMER_FREQ;
800004a6:	6621                	lui	a2,0x8
800004a8:	4681                	li	a3,0
measure_cpu_freq():
E:\NucleiStudio_Workspace\e203cifar10_test\Debug/../hbird_sdk/SoC/hbirdv2/Common/Source/hbirdv2_common.c:12
    uint32_t start_mcycle, delta_mcycle;
    uint32_t start_mtime, delta_mtime;
    uint64_t mtime_freq = get_timer_freq();
800004aa:	fec42423          	sw	a2,-24(s0)
800004ae:	fed42623          	sw	a3,-20(s0)
SysTimer_GetLoadValue():
E:\NucleiStudio_Workspace\e203cifar10_test\hbird_sdk\NMSIS\Core\Include/core_feature_timer.h:106
 * - Load value is 64bits wide.
 * - \ref SysTimer_SetLoadValue
 */
__STATIC_FORCEINLINE uint64_t SysTimer_GetLoadValue(void)
{
    return SysTimer->MTIME;
800004b2:	02000637          	lui	a2,0x2000
800004b6:	66b1                	lui	a3,0xc
800004b8:	96b2                	add	a3,a3,a2
800004ba:	ff86a603          	lw	a2,-8(a3) # bff8 <__stack_size+0xb7f8>
800004be:	ffc6a683          	lw	a3,-4(a3)
measure_cpu_freq():
E:\NucleiStudio_Workspace\e203cifar10_test\Debug/../hbird_sdk/SoC/hbirdv2/Common/Source/hbirdv2_common.c:15

    // Don't start measuruing until we see an mtime tick
    uint32_t tmp = (uint32_t)SysTimer_GetLoadValue();
800004c2:	fec42223          	sw	a2,-28(s0)
SysTimer_GetLoadValue():
E:\NucleiStudio_Workspace\e203cifar10_test\hbird_sdk\NMSIS\Core\Include/core_feature_timer.h:106 (discriminator 1)
800004c6:	02000637          	lui	a2,0x2000
800004ca:	66b1                	lui	a3,0xc
800004cc:	96b2                	add	a3,a3,a2
800004ce:	ff86a603          	lw	a2,-8(a3) # bff8 <__stack_size+0xb7f8>
800004d2:	ffc6a683          	lw	a3,-4(a3)
measure_cpu_freq():
E:\NucleiStudio_Workspace\e203cifar10_test\Debug/../hbird_sdk/SoC/hbirdv2/Common/Source/hbirdv2_common.c:17 (discriminator 1)
    do {
        start_mtime = (uint32_t)SysTimer_GetLoadValue();
800004d6:	fec42023          	sw	a2,-32(s0)
E:\NucleiStudio_Workspace\e203cifar10_test\Debug/../hbird_sdk/SoC/hbirdv2/Common/Source/hbirdv2_common.c:18 (discriminator 1)
        start_mcycle = __RV_CSR_READ(CSR_MCYCLE);
800004da:	b00026f3          	csrr	a3,mcycle
800004de:	80b6                	mv	ra,a3
800004e0:	8686                	mv	a3,ra
800004e2:	fcd42e23          	sw	a3,-36(s0)
E:\NucleiStudio_Workspace\e203cifar10_test\Debug/../hbird_sdk/SoC/hbirdv2/Common/Source/hbirdv2_common.c:19 (discriminator 1)
    } while (start_mtime == tmp);
800004e6:	fe042603          	lw	a2,-32(s0)
800004ea:	fe442683          	lw	a3,-28(s0)
800004ee:	fcd60ce3          	beq	a2,a3,800004c6 <measure_cpu_freq+0x2e>
SysTimer_GetLoadValue():
E:\NucleiStudio_Workspace\e203cifar10_test\hbird_sdk\NMSIS\Core\Include/core_feature_timer.h:106 (discriminator 1)
800004f2:	02000637          	lui	a2,0x2000
800004f6:	66b1                	lui	a3,0xc
800004f8:	96b2                	add	a3,a3,a2
800004fa:	ff86a603          	lw	a2,-8(a3) # bff8 <__stack_size+0xb7f8>
800004fe:	ffc6a683          	lw	a3,-4(a3)
measure_cpu_freq():
E:\NucleiStudio_Workspace\e203cifar10_test\Debug/../hbird_sdk/SoC/hbirdv2/Common/Source/hbirdv2_common.c:22 (discriminator 1)

    do {
        delta_mtime = (uint32_t)SysTimer_GetLoadValue() - start_mtime;
80000502:	fe042683          	lw	a3,-32(s0)
80000506:	40d606b3          	sub	a3,a2,a3
8000050a:	fcd42c23          	sw	a3,-40(s0)
E:\NucleiStudio_Workspace\e203cifar10_test\Debug/../hbird_sdk/SoC/hbirdv2/Common/Source/hbirdv2_common.c:23 (discriminator 1)
        delta_mcycle = __RV_CSR_READ(CSR_MCYCLE) - start_mcycle;
8000050e:	b00026f3          	csrr	a3,mcycle
80000512:	80b6                	mv	ra,a3
80000514:	8606                	mv	a2,ra
80000516:	fdc42683          	lw	a3,-36(s0)
8000051a:	40d606b3          	sub	a3,a2,a3
8000051e:	fcd42a23          	sw	a3,-44(s0)
E:\NucleiStudio_Workspace\e203cifar10_test\Debug/../hbird_sdk/SoC/hbirdv2/Common/Source/hbirdv2_common.c:24 (discriminator 1)
    } while (delta_mtime < n);
80000522:	fd842603          	lw	a2,-40(s0)
80000526:	fcc42683          	lw	a3,-52(s0)
8000052a:	fcd664e3          	bltu	a2,a3,800004f2 <measure_cpu_freq+0x5a>
E:\NucleiStudio_Workspace\e203cifar10_test\Debug/../hbird_sdk/SoC/hbirdv2/Common/Source/hbirdv2_common.c:26

    return (delta_mcycle / delta_mtime) * mtime_freq
8000052e:	fd442603          	lw	a2,-44(s0)
80000532:	fd842683          	lw	a3,-40(s0)
80000536:	02d65633          	divu	a2,a2,a3
E:\NucleiStudio_Workspace\e203cifar10_test\Debug/../hbird_sdk/SoC/hbirdv2/Common/Source/hbirdv2_common.c:27
           + ((delta_mcycle % delta_mtime) * mtime_freq) / delta_mtime;
8000053a:	fe842683          	lw	a3,-24(s0)
8000053e:	02d604b3          	mul	s1,a2,a3
80000542:	fd442603          	lw	a2,-44(s0)
80000546:	fd842683          	lw	a3,-40(s0)
8000054a:	02d676b3          	remu	a3,a2,a3
8000054e:	8736                	mv	a4,a3
80000550:	4781                	li	a5,0
80000552:	fe842683          	lw	a3,-24(s0)
80000556:	02f68633          	mul	a2,a3,a5
8000055a:	fec42683          	lw	a3,-20(s0)
8000055e:	02e686b3          	mul	a3,a3,a4
80000562:	9636                	add	a2,a2,a3
80000564:	fe842683          	lw	a3,-24(s0)
80000568:	02e685b3          	mul	a1,a3,a4
8000056c:	02e6b8b3          	mulhu	a7,a3,a4
80000570:	882e                	mv	a6,a1
80000572:	011607b3          	add	a5,a2,a7
80000576:	88be                	mv	a7,a5
80000578:	fd842783          	lw	a5,-40(s0)
8000057c:	833e                	mv	t1,a5
8000057e:	4381                	li	t2,0
80000580:	861a                	mv	a2,t1
80000582:	869e                	mv	a3,t2
80000584:	8542                	mv	a0,a6
80000586:	85c6                	mv	a1,a7
80000588:	624020ef          	jal	ra,80002bac <__udivdi3>
8000058c:	872a                	mv	a4,a0
8000058e:	87ae                	mv	a5,a1
80000590:	87ba                	mv	a5,a4
80000592:	97a6                	add	a5,a5,s1
E:\NucleiStudio_Workspace\e203cifar10_test\Debug/../hbird_sdk/SoC/hbirdv2/Common/Source/hbirdv2_common.c:28
}
80000594:	853e                	mv	a0,a5
80000596:	50f2                	lw	ra,60(sp)
80000598:	5462                	lw	s0,56(sp)
8000059a:	54d2                	lw	s1,52(sp)
8000059c:	6121                	addi	sp,sp,64
8000059e:	8082                	ret

800005a0 <get_cpu_freq>:
get_cpu_freq():
E:\NucleiStudio_Workspace\e203cifar10_test\Debug/../hbird_sdk/SoC/hbirdv2/Common/Source/hbirdv2_common.c:31

uint32_t get_cpu_freq(void)
{
800005a0:	1101                	addi	sp,sp,-32
800005a2:	ce06                	sw	ra,28(sp)
800005a4:	cc22                	sw	s0,24(sp)
800005a6:	1000                	addi	s0,sp,32
E:\NucleiStudio_Workspace\e203cifar10_test\Debug/../hbird_sdk/SoC/hbirdv2/Common/Source/hbirdv2_common.c:35
    uint32_t cpu_freq;

    // warm up
    measure_cpu_freq(1);
800005a8:	4505                	li	a0,1
800005aa:	35fd                	jal	80000498 <measure_cpu_freq>
E:\NucleiStudio_Workspace\e203cifar10_test\Debug/../hbird_sdk/SoC/hbirdv2/Common/Source/hbirdv2_common.c:37
    // measure for real
    cpu_freq = measure_cpu_freq(100);
800005ac:	06400513          	li	a0,100
800005b0:	35e5                	jal	80000498 <measure_cpu_freq>
800005b2:	fea42623          	sw	a0,-20(s0)
E:\NucleiStudio_Workspace\e203cifar10_test\Debug/../hbird_sdk/SoC/hbirdv2/Common/Source/hbirdv2_common.c:39

    return cpu_freq;
800005b6:	fec42783          	lw	a5,-20(s0)
E:\NucleiStudio_Workspace\e203cifar10_test\Debug/../hbird_sdk/SoC/hbirdv2/Common/Source/hbirdv2_common.c:40
}
800005ba:	853e                	mv	a0,a5
800005bc:	40f2                	lw	ra,28(sp)
800005be:	4462                	lw	s0,24(sp)
800005c0:	6105                	addi	sp,sp,32
800005c2:	8082                	ret

800005c4 <SystemInit>:
SystemInit():
E:\NucleiStudio_Workspace\e203cifar10_test\Debug/../hbird_sdk/SoC/hbirdv2/Common/Source/system_hbirdv2.c:120
 * oscillator (PLL) that is part of the microcontroller device. For systems
 * with a variable clock speed, it updates the variable \ref SystemCoreClock.
 * SystemInit is called from the file <b>startup<i>_device</i></b>.
 */
void SystemInit (void)
{
800005c4:	1141                	addi	sp,sp,-16
800005c6:	c622                	sw	s0,12(sp)
800005c8:	0800                	addi	s0,sp,16
E:\NucleiStudio_Workspace\e203cifar10_test\Debug/../hbird_sdk/SoC/hbirdv2/Common/Source/system_hbirdv2.c:125
    /* ToDo: add code to initialize the system
     * Warn: do not use global variables because this function is called before
     * reaching pre-main. RW section maybe overwritten afterwards.
     */
    SystemCoreClock = SYSTEM_CLOCK;
800005ca:	10009797          	auipc	a5,0x10009
800005ce:	9ea78793          	addi	a5,a5,-1558 # 90008fb4 <SystemCoreClock>
800005d2:	04c4b737          	lui	a4,0x4c4b
800005d6:	40070713          	addi	a4,a4,1024 # 4c4b400 <__stack_size+0x4c4ac00>
800005da:	c398                	sw	a4,0(a5)
E:\NucleiStudio_Workspace\e203cifar10_test\Debug/../hbird_sdk/SoC/hbirdv2/Common/Source/system_hbirdv2.c:126
}
800005dc:	0001                	nop
800005de:	4432                	lw	s0,12(sp)
800005e0:	0141                	addi	sp,sp,16
800005e2:	8082                	ret

800005e4 <system_default_exception_handler>:
system_default_exception_handler():
E:\NucleiStudio_Workspace\e203cifar10_test\Debug/../hbird_sdk/SoC/hbirdv2/Common/Source/system_hbirdv2.c:168
 * \details
 * This function provided a default exception handling code for all exception ids.
 * By default, It will just print some information for debug, Vendor can customize it according to its requirements.
 */
static void system_default_exception_handler(unsigned long mcause, unsigned long sp)
{
800005e4:	1101                	addi	sp,sp,-32
800005e6:	ce06                	sw	ra,28(sp)
800005e8:	cc22                	sw	s0,24(sp)
800005ea:	1000                	addi	s0,sp,32
800005ec:	fea42623          	sw	a0,-20(s0)
800005f0:	feb42423          	sw	a1,-24(s0)
E:\NucleiStudio_Workspace\e203cifar10_test\Debug/../hbird_sdk/SoC/hbirdv2/Common/Source/system_hbirdv2.c:170
    /* TODO: Uncomment this if you have implement printf function */
    printf("Trap in Exception\r\n");
800005f4:	00008517          	auipc	a0,0x8
800005f8:	38c50513          	addi	a0,a0,908 # 80008980 <__trunctfdf2+0x386>
800005fc:	774050ef          	jal	ra,80005d70 <puts>
E:\NucleiStudio_Workspace\e203cifar10_test\Debug/../hbird_sdk/SoC/hbirdv2/Common/Source/system_hbirdv2.c:171
    printf("MCAUSE: 0x%lx\r\n", mcause);
80000600:	fec42583          	lw	a1,-20(s0)
80000604:	00008517          	auipc	a0,0x8
80000608:	39050513          	addi	a0,a0,912 # 80008994 <__trunctfdf2+0x39a>
8000060c:	64a050ef          	jal	ra,80005c56 <iprintf>
E:\NucleiStudio_Workspace\e203cifar10_test\Debug/../hbird_sdk/SoC/hbirdv2/Common/Source/system_hbirdv2.c:172
    printf("MEPC  : 0x%lx\r\n", __RV_CSR_READ(CSR_MEPC));
80000610:	341027f3          	csrr	a5,mepc
80000614:	80be                	mv	ra,a5
80000616:	8786                	mv	a5,ra
80000618:	85be                	mv	a1,a5
8000061a:	00008517          	auipc	a0,0x8
8000061e:	38a50513          	addi	a0,a0,906 # 800089a4 <__trunctfdf2+0x3aa>
80000622:	634050ef          	jal	ra,80005c56 <iprintf>
E:\NucleiStudio_Workspace\e203cifar10_test\Debug/../hbird_sdk/SoC/hbirdv2/Common/Source/system_hbirdv2.c:173
    printf("MTVAL : 0x%lx\r\n", __RV_CSR_READ(CSR_MBADADDR));
80000626:	343027f3          	csrr	a5,mtval
8000062a:	80be                	mv	ra,a5
8000062c:	8786                	mv	a5,ra
8000062e:	85be                	mv	a1,a5
80000630:	00008517          	auipc	a0,0x8
80000634:	38450513          	addi	a0,a0,900 # 800089b4 <__trunctfdf2+0x3ba>
80000638:	61e050ef          	jal	ra,80005c56 <iprintf>
E:\NucleiStudio_Workspace\e203cifar10_test\Debug/../hbird_sdk/SoC/hbirdv2/Common/Source/system_hbirdv2.c:174 (discriminator 1)
    while(1);
8000063c:	a001                	j	8000063c <system_default_exception_handler+0x58>

8000063e <system_default_interrupt_handler>:
system_default_interrupt_handler():
E:\NucleiStudio_Workspace\e203cifar10_test\Debug/../hbird_sdk/SoC/hbirdv2/Common/Source/system_hbirdv2.c:183
 * \brief      System Default Interrupt Handler
 * \details
 * This function provided a default interrupt handling code for all interrupt ids.
 */
static void system_default_interrupt_handler(unsigned long mcause, unsigned long sp)
{
8000063e:	1101                	addi	sp,sp,-32
80000640:	ce06                	sw	ra,28(sp)
80000642:	cc22                	sw	s0,24(sp)
80000644:	1000                	addi	s0,sp,32
80000646:	fea42623          	sw	a0,-20(s0)
8000064a:	feb42423          	sw	a1,-24(s0)
E:\NucleiStudio_Workspace\e203cifar10_test\Debug/../hbird_sdk/SoC/hbirdv2/Common/Source/system_hbirdv2.c:185
    /* TODO: Uncomment this if you have implement printf function */
    printf("Trap in Interrupt\r\n");
8000064e:	00008517          	auipc	a0,0x8
80000652:	37650513          	addi	a0,a0,886 # 800089c4 <__trunctfdf2+0x3ca>
80000656:	71a050ef          	jal	ra,80005d70 <puts>
E:\NucleiStudio_Workspace\e203cifar10_test\Debug/../hbird_sdk/SoC/hbirdv2/Common/Source/system_hbirdv2.c:186
    printf("MCAUSE: 0x%lx\r\n", mcause);
8000065a:	fec42583          	lw	a1,-20(s0)
8000065e:	00008517          	auipc	a0,0x8
80000662:	33650513          	addi	a0,a0,822 # 80008994 <__trunctfdf2+0x39a>
80000666:	5f0050ef          	jal	ra,80005c56 <iprintf>
E:\NucleiStudio_Workspace\e203cifar10_test\Debug/../hbird_sdk/SoC/hbirdv2/Common/Source/system_hbirdv2.c:187
    printf("MEPC  : 0x%lx\r\n", __RV_CSR_READ(CSR_MEPC));
8000066a:	341027f3          	csrr	a5,mepc
8000066e:	80be                	mv	ra,a5
80000670:	8786                	mv	a5,ra
80000672:	85be                	mv	a1,a5
80000674:	00008517          	auipc	a0,0x8
80000678:	33050513          	addi	a0,a0,816 # 800089a4 <__trunctfdf2+0x3aa>
8000067c:	5da050ef          	jal	ra,80005c56 <iprintf>
E:\NucleiStudio_Workspace\e203cifar10_test\Debug/../hbird_sdk/SoC/hbirdv2/Common/Source/system_hbirdv2.c:188
    printf("MTVAL : 0x%lx\r\n", __RV_CSR_READ(CSR_MBADADDR));
80000680:	343027f3          	csrr	a5,mtval
80000684:	80be                	mv	ra,a5
80000686:	8786                	mv	a5,ra
80000688:	85be                	mv	a1,a5
8000068a:	00008517          	auipc	a0,0x8
8000068e:	32a50513          	addi	a0,a0,810 # 800089b4 <__trunctfdf2+0x3ba>
80000692:	5c4050ef          	jal	ra,80005c56 <iprintf>
E:\NucleiStudio_Workspace\e203cifar10_test\Debug/../hbird_sdk/SoC/hbirdv2/Common/Source/system_hbirdv2.c:189
}
80000696:	0001                	nop
80000698:	40f2                	lw	ra,28(sp)
8000069a:	4462                	lw	s0,24(sp)
8000069c:	6105                	addi	sp,sp,32
8000069e:	8082                	ret

800006a0 <Exception_Init>:
Exception_Init():
E:\NucleiStudio_Workspace\e203cifar10_test\Debug/../hbird_sdk/SoC/hbirdv2/Common/Source/system_hbirdv2.c:199
 * The core exception handler for each exception id will be initialized to \ref system_default_exception_handler.
 * \note
 * Called in \ref _init function, used to initialize default exception handlers for all exception IDs
 */
static void Exception_Init(void)
{
800006a0:	1101                	addi	sp,sp,-32
800006a2:	ce22                	sw	s0,28(sp)
800006a4:	1000                	addi	s0,sp,32
E:\NucleiStudio_Workspace\e203cifar10_test\Debug/../hbird_sdk/SoC/hbirdv2/Common/Source/system_hbirdv2.c:200
    for (int i = 0; i < MAX_SYSTEM_EXCEPTION_NUM; i++) {
800006a6:	fe042623          	sw	zero,-20(s0)
800006aa:	a00d                	j	800006cc <Exception_Init+0x2c>
E:\NucleiStudio_Workspace\e203cifar10_test\Debug/../hbird_sdk/SoC/hbirdv2/Common/Source/system_hbirdv2.c:201 (discriminator 3)
        SystemExceptionHandlers[i] = (unsigned long)system_default_exception_handler;
800006ac:	00000717          	auipc	a4,0x0
800006b0:	f3870713          	addi	a4,a4,-200 # 800005e4 <system_default_exception_handler>
800006b4:	89418693          	addi	a3,gp,-1900 # 90009044 <SystemExceptionHandlers>
800006b8:	fec42783          	lw	a5,-20(s0)
800006bc:	078a                	slli	a5,a5,0x2
800006be:	97b6                	add	a5,a5,a3
800006c0:	c398                	sw	a4,0(a5)
E:\NucleiStudio_Workspace\e203cifar10_test\Debug/../hbird_sdk/SoC/hbirdv2/Common/Source/system_hbirdv2.c:200 (discriminator 3)
    for (int i = 0; i < MAX_SYSTEM_EXCEPTION_NUM; i++) {
800006c2:	fec42783          	lw	a5,-20(s0)
800006c6:	0785                	addi	a5,a5,1
800006c8:	fef42623          	sw	a5,-20(s0)
E:\NucleiStudio_Workspace\e203cifar10_test\Debug/../hbird_sdk/SoC/hbirdv2/Common/Source/system_hbirdv2.c:200 (discriminator 1)
800006cc:	fec42703          	lw	a4,-20(s0)
800006d0:	47a9                	li	a5,10
800006d2:	fce7dde3          	bge	a5,a4,800006ac <Exception_Init+0xc>
E:\NucleiStudio_Workspace\e203cifar10_test\Debug/../hbird_sdk/SoC/hbirdv2/Common/Source/system_hbirdv2.c:203
    }
}
800006d6:	0001                	nop
800006d8:	0001                	nop
800006da:	4472                	lw	s0,28(sp)
800006dc:	6105                	addi	sp,sp,32
800006de:	8082                	ret

800006e0 <Interrupt_Init>:
Interrupt_Init():
E:\NucleiStudio_Workspace\e203cifar10_test\Debug/../hbird_sdk/SoC/hbirdv2/Common/Source/system_hbirdv2.c:213
 * The interrupt handler for each exception id will be initialized to \ref system_default_interrupt_handler.
 * \note
 * Called in \ref _init function, used to initialize default interrupt handlers for all interrupt IDs
 */
static void Interrupt_Init(void)
{
800006e0:	1101                	addi	sp,sp,-32
800006e2:	ce22                	sw	s0,28(sp)
800006e4:	1000                	addi	s0,sp,32
E:\NucleiStudio_Workspace\e203cifar10_test\Debug/../hbird_sdk/SoC/hbirdv2/Common/Source/system_hbirdv2.c:215
    int i;
    for (i = 0; i < __PLIC_INTNUM; i++) {
800006e6:	fe042623          	sw	zero,-20(s0)
800006ea:	a00d                	j	8000070c <Interrupt_Init+0x2c>
E:\NucleiStudio_Workspace\e203cifar10_test\Debug/../hbird_sdk/SoC/hbirdv2/Common/Source/system_hbirdv2.c:216 (discriminator 3)
        SystemExtInterruptHandlers[i] = (unsigned long)system_default_interrupt_handler;
800006ec:	00000717          	auipc	a4,0x0
800006f0:	f5270713          	addi	a4,a4,-174 # 8000063e <system_default_interrupt_handler>
800006f4:	8c018693          	addi	a3,gp,-1856 # 90009070 <SystemExtInterruptHandlers>
800006f8:	fec42783          	lw	a5,-20(s0)
800006fc:	078a                	slli	a5,a5,0x2
800006fe:	97b6                	add	a5,a5,a3
80000700:	c398                	sw	a4,0(a5)
E:\NucleiStudio_Workspace\e203cifar10_test\Debug/../hbird_sdk/SoC/hbirdv2/Common/Source/system_hbirdv2.c:215 (discriminator 3)
    for (i = 0; i < __PLIC_INTNUM; i++) {
80000702:	fec42783          	lw	a5,-20(s0)
80000706:	0785                	addi	a5,a5,1
80000708:	fef42623          	sw	a5,-20(s0)
E:\NucleiStudio_Workspace\e203cifar10_test\Debug/../hbird_sdk/SoC/hbirdv2/Common/Source/system_hbirdv2.c:215 (discriminator 1)
8000070c:	fec42703          	lw	a4,-20(s0)
80000710:	47c1                	li	a5,16
80000712:	fce7dde3          	bge	a5,a4,800006ec <Interrupt_Init+0xc>
E:\NucleiStudio_Workspace\e203cifar10_test\Debug/../hbird_sdk/SoC/hbirdv2/Common/Source/system_hbirdv2.c:218
    }
    for (i = 0; i < 10; i++) {
80000716:	fe042623          	sw	zero,-20(s0)
8000071a:	a00d                	j	8000073c <Interrupt_Init+0x5c>
E:\NucleiStudio_Workspace\e203cifar10_test\Debug/../hbird_sdk/SoC/hbirdv2/Common/Source/system_hbirdv2.c:219 (discriminator 3)
        SystemCoreInterruptHandlers[i] = (unsigned long)system_default_interrupt_handler;
8000071c:	00000717          	auipc	a4,0x0
80000720:	f2270713          	addi	a4,a4,-222 # 8000063e <system_default_interrupt_handler>
80000724:	90418693          	addi	a3,gp,-1788 # 900090b4 <SystemCoreInterruptHandlers>
80000728:	fec42783          	lw	a5,-20(s0)
8000072c:	078a                	slli	a5,a5,0x2
8000072e:	97b6                	add	a5,a5,a3
80000730:	c398                	sw	a4,0(a5)
E:\NucleiStudio_Workspace\e203cifar10_test\Debug/../hbird_sdk/SoC/hbirdv2/Common/Source/system_hbirdv2.c:218 (discriminator 3)
    for (i = 0; i < 10; i++) {
80000732:	fec42783          	lw	a5,-20(s0)
80000736:	0785                	addi	a5,a5,1
80000738:	fef42623          	sw	a5,-20(s0)
E:\NucleiStudio_Workspace\e203cifar10_test\Debug/../hbird_sdk/SoC/hbirdv2/Common/Source/system_hbirdv2.c:218 (discriminator 1)
8000073c:	fec42703          	lw	a4,-20(s0)
80000740:	47a5                	li	a5,9
80000742:	fce7dde3          	bge	a5,a4,8000071c <Interrupt_Init+0x3c>
E:\NucleiStudio_Workspace\e203cifar10_test\Debug/../hbird_sdk/SoC/hbirdv2/Common/Source/system_hbirdv2.c:221
    }
}
80000746:	0001                	nop
80000748:	0001                	nop
8000074a:	4472                	lw	s0,28(sp)
8000074c:	6105                	addi	sp,sp,32
8000074e:	8082                	ret

80000750 <core_trap_handler>:
core_trap_handler():
E:\NucleiStudio_Workspace\e203cifar10_test\Debug/../hbird_sdk/SoC/hbirdv2/Common/Source/system_hbirdv2.c:322
 * - If you want to register core exception handler, please use \ref Exception_Register_EXC
 * - If you want to register core interrupt handler, please use \ref Interrupt_Register_CoreIRQ
 * - If you want to register external interrupt handler, please use \ref Interrupt_Register_ExtIRQ
 */
uint32_t core_trap_handler(unsigned long mcause, unsigned long sp)
{
80000750:	7139                	addi	sp,sp,-64
80000752:	de06                	sw	ra,60(sp)
80000754:	dc22                	sw	s0,56(sp)
80000756:	da26                	sw	s1,52(sp)
80000758:	0080                	addi	s0,sp,64
8000075a:	fca42623          	sw	a0,-52(s0)
8000075e:	fcb42423          	sw	a1,-56(s0)
E:\NucleiStudio_Workspace\e203cifar10_test\Debug/../hbird_sdk/SoC/hbirdv2/Common/Source/system_hbirdv2.c:323
    if (mcause & MCAUSE_INTERRUPT) {
80000762:	fcc42783          	lw	a5,-52(s0)
80000766:	0c07dc63          	bgez	a5,8000083e <core_trap_handler+0xee>
E:\NucleiStudio_Workspace\e203cifar10_test\Debug/../hbird_sdk/SoC/hbirdv2/Common/Source/system_hbirdv2.c:324
        INT_HANDLER int_handler = NULL;
8000076a:	fe042623          	sw	zero,-20(s0)
E:\NucleiStudio_Workspace\e203cifar10_test\Debug/../hbird_sdk/SoC/hbirdv2/Common/Source/system_hbirdv2.c:325
        uint32_t irqn = (uint32_t)(mcause & 0X00000fff);
8000076e:	fcc42703          	lw	a4,-52(s0)
80000772:	6785                	lui	a5,0x1
80000774:	17fd                	addi	a5,a5,-1
80000776:	8ff9                	and	a5,a5,a4
80000778:	fef42423          	sw	a5,-24(s0)
E:\NucleiStudio_Workspace\e203cifar10_test\Debug/../hbird_sdk/SoC/hbirdv2/Common/Source/system_hbirdv2.c:326
        if (irqn == IRQ_M_EXT) {
8000077c:	fe842703          	lw	a4,-24(s0)
80000780:	47ad                	li	a5,11
80000782:	08f71963          	bne	a4,a5,80000814 <core_trap_handler+0xc4>
PLIC_ClaimInterrupt():
E:\NucleiStudio_Workspace\e203cifar10_test\hbird_sdk\NMSIS\Core\Include/core_feature_plic.h:273
 * \sa
 * - \ref PLIC_CompleteInterrupt
 */
__STATIC_FORCEINLINE uint32_t PLIC_ClaimInterrupt(void)
{
    uint32_t hartid = __RV_CSR_READ(CSR_MHARTID);
80000786:	f14027f3          	csrr	a5,mhartid
8000078a:	84be                	mv	s1,a5
8000078c:	87a6                	mv	a5,s1
8000078e:	fef42223          	sw	a5,-28(s0)
E:\NucleiStudio_Workspace\e203cifar10_test\hbird_sdk\NMSIS\Core\Include/core_feature_plic.h:275
    volatile uint32_t *claim_reg = (uint32_t *)((PLIC_BASE) + PLIC_CLAIM_OFFSET + \
                    + (hartid << PLIC_CLAIM_SHIFT_PER_TARGET));
80000792:	fe442783          	lw	a5,-28(s0)
80000796:	00c79713          	slli	a4,a5,0xc
E:\NucleiStudio_Workspace\e203cifar10_test\hbird_sdk\NMSIS\Core\Include/core_feature_plic.h:274
    volatile uint32_t *claim_reg = (uint32_t *)((PLIC_BASE) + PLIC_CLAIM_OFFSET + \
8000079a:	0c2007b7          	lui	a5,0xc200
8000079e:	0791                	addi	a5,a5,4
800007a0:	97ba                	add	a5,a5,a4
800007a2:	fef42023          	sw	a5,-32(s0)
E:\NucleiStudio_Workspace\e203cifar10_test\hbird_sdk\NMSIS\Core\Include/core_feature_plic.h:277

    return (*claim_reg);
800007a6:	fe042783          	lw	a5,-32(s0)
800007aa:	439c                	lw	a5,0(a5)
core_trap_handler():
E:\NucleiStudio_Workspace\e203cifar10_test\Debug/../hbird_sdk/SoC/hbirdv2/Common/Source/system_hbirdv2.c:328
#if defined(__PLIC_PRESENT) && __PLIC_PRESENT == 1
            irqn = PLIC_ClaimInterrupt();
800007ac:	fef42423          	sw	a5,-24(s0)
E:\NucleiStudio_Workspace\e203cifar10_test\Debug/../hbird_sdk/SoC/hbirdv2/Common/Source/system_hbirdv2.c:329
            if (irqn < __PLIC_INTNUM) {
800007b0:	fe842703          	lw	a4,-24(s0)
800007b4:	47c1                	li	a5,16
800007b6:	08e7e263          	bltu	a5,a4,8000083a <core_trap_handler+0xea>
E:\NucleiStudio_Workspace\e203cifar10_test\Debug/../hbird_sdk/SoC/hbirdv2/Common/Source/system_hbirdv2.c:330
                int_handler = (INT_HANDLER)(SystemExtInterruptHandlers[irqn]);
800007ba:	8c018713          	addi	a4,gp,-1856 # 90009070 <SystemExtInterruptHandlers>
800007be:	fe842783          	lw	a5,-24(s0)
800007c2:	078a                	slli	a5,a5,0x2
800007c4:	97ba                	add	a5,a5,a4
800007c6:	439c                	lw	a5,0(a5)
800007c8:	fef42623          	sw	a5,-20(s0)
E:\NucleiStudio_Workspace\e203cifar10_test\Debug/../hbird_sdk/SoC/hbirdv2/Common/Source/system_hbirdv2.c:331
                if (int_handler != NULL) {
800007cc:	fec42783          	lw	a5,-20(s0)
800007d0:	cb81                	beqz	a5,800007e0 <core_trap_handler+0x90>
E:\NucleiStudio_Workspace\e203cifar10_test\Debug/../hbird_sdk/SoC/hbirdv2/Common/Source/system_hbirdv2.c:332
                    int_handler(mcause, sp);
800007d2:	fec42783          	lw	a5,-20(s0)
800007d6:	fc842583          	lw	a1,-56(s0)
800007da:	fcc42503          	lw	a0,-52(s0)
800007de:	9782                	jalr	a5
800007e0:	fe842783          	lw	a5,-24(s0)
800007e4:	fcf42e23          	sw	a5,-36(s0)
PLIC_CompleteInterrupt():
E:\NucleiStudio_Workspace\e203cifar10_test\hbird_sdk\NMSIS\Core\Include/core_feature_plic.h:298
 * \sa
 * - \ref PLIC_ClaimInterrupt
 */
__STATIC_FORCEINLINE void PLIC_CompleteInterrupt(uint32_t source)
{
    uint32_t hartid = __RV_CSR_READ(CSR_MHARTID);
800007e8:	f14027f3          	csrr	a5,mhartid
800007ec:	84be                	mv	s1,a5
800007ee:	87a6                	mv	a5,s1
800007f0:	fcf42c23          	sw	a5,-40(s0)
E:\NucleiStudio_Workspace\e203cifar10_test\hbird_sdk\NMSIS\Core\Include/core_feature_plic.h:300
    volatile uint32_t *complete_reg = (uint32_t *)((PLIC_BASE) + PLIC_CLAIM_OFFSET + \
                    + (hartid << PLIC_CLAIM_SHIFT_PER_TARGET));
800007f4:	fd842783          	lw	a5,-40(s0)
800007f8:	00c79713          	slli	a4,a5,0xc
E:\NucleiStudio_Workspace\e203cifar10_test\hbird_sdk\NMSIS\Core\Include/core_feature_plic.h:299
    volatile uint32_t *complete_reg = (uint32_t *)((PLIC_BASE) + PLIC_CLAIM_OFFSET + \
800007fc:	0c2007b7          	lui	a5,0xc200
80000800:	0791                	addi	a5,a5,4
80000802:	97ba                	add	a5,a5,a4
80000804:	fcf42a23          	sw	a5,-44(s0)
E:\NucleiStudio_Workspace\e203cifar10_test\hbird_sdk\NMSIS\Core\Include/core_feature_plic.h:302

    *complete_reg = source;
80000808:	fd442783          	lw	a5,-44(s0)
8000080c:	fdc42703          	lw	a4,-36(s0)
80000810:	c398                	sw	a4,0(a5)
E:\NucleiStudio_Workspace\e203cifar10_test\hbird_sdk\NMSIS\Core\Include/core_feature_plic.h:303
}
80000812:	a025                	j	8000083a <core_trap_handler+0xea>
core_trap_handler():
E:\NucleiStudio_Workspace\e203cifar10_test\Debug/../hbird_sdk/SoC/hbirdv2/Common/Source/system_hbirdv2.c:338
                }
                PLIC_CompleteInterrupt(irqn);
            }
#endif
        } else {
            int_handler = (INT_HANDLER)(SystemCoreInterruptHandlers[irqn]);
80000814:	90418713          	addi	a4,gp,-1788 # 900090b4 <SystemCoreInterruptHandlers>
80000818:	fe842783          	lw	a5,-24(s0)
8000081c:	078a                	slli	a5,a5,0x2
8000081e:	97ba                	add	a5,a5,a4
80000820:	439c                	lw	a5,0(a5)
80000822:	fef42623          	sw	a5,-20(s0)
E:\NucleiStudio_Workspace\e203cifar10_test\Debug/../hbird_sdk/SoC/hbirdv2/Common/Source/system_hbirdv2.c:339
            if (int_handler != NULL) {
80000826:	fec42783          	lw	a5,-20(s0)
8000082a:	cb81                	beqz	a5,8000083a <core_trap_handler+0xea>
E:\NucleiStudio_Workspace\e203cifar10_test\Debug/../hbird_sdk/SoC/hbirdv2/Common/Source/system_hbirdv2.c:340
                int_handler(mcause, sp);
8000082c:	fec42783          	lw	a5,-20(s0)
80000830:	fc842583          	lw	a1,-56(s0)
80000834:	fcc42503          	lw	a0,-52(s0)
80000838:	9782                	jalr	a5
E:\NucleiStudio_Workspace\e203cifar10_test\Debug/../hbird_sdk/SoC/hbirdv2/Common/Source/system_hbirdv2.c:343
            }
        }
        return 0;
8000083a:	4781                	li	a5,0
8000083c:	a039                	j	8000084a <core_trap_handler+0xfa>
E:\NucleiStudio_Workspace\e203cifar10_test\Debug/../hbird_sdk/SoC/hbirdv2/Common/Source/system_hbirdv2.c:345
    } else {
        return core_exception_handler(mcause, sp);
8000083e:	fc842583          	lw	a1,-56(s0)
80000842:	fcc42503          	lw	a0,-52(s0)
80000846:	2801                	jal	80000856 <core_exception_handler>
80000848:	87aa                	mv	a5,a0
E:\NucleiStudio_Workspace\e203cifar10_test\Debug/../hbird_sdk/SoC/hbirdv2/Common/Source/system_hbirdv2.c:347
    }
}
8000084a:	853e                	mv	a0,a5
8000084c:	50f2                	lw	ra,60(sp)
8000084e:	5462                	lw	s0,56(sp)
80000850:	54d2                	lw	s1,52(sp)
80000852:	6121                	addi	sp,sp,64
80000854:	8082                	ret

80000856 <core_exception_handler>:
core_exception_handler():
E:\NucleiStudio_Workspace\e203cifar10_test\Debug/../hbird_sdk/SoC/hbirdv2/Common/Source/system_hbirdv2.c:361
 *   for exception entry function, Silicon Vendor could modify the implementation.
 * - For the core_exception_handler template, we provided exception register function \ref Exception_Register_EXC
 *   which can help developer to register your exception handler for specific exception number.
 */
static uint32_t core_exception_handler(unsigned long mcause, unsigned long sp)
{
80000856:	7179                	addi	sp,sp,-48
80000858:	d606                	sw	ra,44(sp)
8000085a:	d422                	sw	s0,40(sp)
8000085c:	1800                	addi	s0,sp,48
8000085e:	fca42e23          	sw	a0,-36(s0)
80000862:	fcb42c23          	sw	a1,-40(s0)
E:\NucleiStudio_Workspace\e203cifar10_test\Debug/../hbird_sdk/SoC/hbirdv2/Common/Source/system_hbirdv2.c:362
    uint32_t EXCn = (uint32_t)(mcause & 0X00000fff);
80000866:	fdc42703          	lw	a4,-36(s0)
8000086a:	6785                	lui	a5,0x1
8000086c:	17fd                	addi	a5,a5,-1
8000086e:	8ff9                	and	a5,a5,a4
80000870:	fef42423          	sw	a5,-24(s0)
E:\NucleiStudio_Workspace\e203cifar10_test\Debug/../hbird_sdk/SoC/hbirdv2/Common/Source/system_hbirdv2.c:365
    EXC_HANDLER exc_handler;

    if ((EXCn < MAX_SYSTEM_EXCEPTION_NUM) && (EXCn >= 0)) {
80000874:	fe842703          	lw	a4,-24(s0)
80000878:	47a9                	li	a5,10
8000087a:	00e7ec63          	bltu	a5,a4,80000892 <core_exception_handler+0x3c>
E:\NucleiStudio_Workspace\e203cifar10_test\Debug/../hbird_sdk/SoC/hbirdv2/Common/Source/system_hbirdv2.c:366
        exc_handler = (EXC_HANDLER)SystemExceptionHandlers[EXCn];
8000087e:	89418713          	addi	a4,gp,-1900 # 90009044 <SystemExceptionHandlers>
80000882:	fe842783          	lw	a5,-24(s0)
80000886:	078a                	slli	a5,a5,0x2
80000888:	97ba                	add	a5,a5,a4
8000088a:	439c                	lw	a5,0(a5)
8000088c:	fef42623          	sw	a5,-20(s0)
80000890:	a039                	j	8000089e <core_exception_handler+0x48>
E:\NucleiStudio_Workspace\e203cifar10_test\Debug/../hbird_sdk/SoC/hbirdv2/Common/Source/system_hbirdv2.c:368
    } else {
        exc_handler = (EXC_HANDLER)system_default_exception_handler;
80000892:	00000797          	auipc	a5,0x0
80000896:	d5278793          	addi	a5,a5,-686 # 800005e4 <system_default_exception_handler>
8000089a:	fef42623          	sw	a5,-20(s0)
E:\NucleiStudio_Workspace\e203cifar10_test\Debug/../hbird_sdk/SoC/hbirdv2/Common/Source/system_hbirdv2.c:370
    }
    if (exc_handler != NULL) {
8000089e:	fec42783          	lw	a5,-20(s0)
800008a2:	cb81                	beqz	a5,800008b2 <core_exception_handler+0x5c>
E:\NucleiStudio_Workspace\e203cifar10_test\Debug/../hbird_sdk/SoC/hbirdv2/Common/Source/system_hbirdv2.c:371
        exc_handler(mcause, sp);
800008a4:	fec42783          	lw	a5,-20(s0)
800008a8:	fd842583          	lw	a1,-40(s0)
800008ac:	fdc42503          	lw	a0,-36(s0)
800008b0:	9782                	jalr	a5
E:\NucleiStudio_Workspace\e203cifar10_test\Debug/../hbird_sdk/SoC/hbirdv2/Common/Source/system_hbirdv2.c:373
    }
    return 0;
800008b2:	4781                	li	a5,0
E:\NucleiStudio_Workspace\e203cifar10_test\Debug/../hbird_sdk/SoC/hbirdv2/Common/Source/system_hbirdv2.c:374
}
800008b4:	853e                	mv	a0,a5
800008b6:	50b2                	lw	ra,44(sp)
800008b8:	5422                	lw	s0,40(sp)
800008ba:	6145                	addi	sp,sp,48
800008bc:	8082                	ret

800008be <SystemBannerPrint>:
SystemBannerPrint():
E:\NucleiStudio_Workspace\e203cifar10_test\Debug/../hbird_sdk/SoC/hbirdv2/Common/Source/system_hbirdv2.c:379
/** @} */ /* End of Doxygen Group NMSIS_Core_ExceptionAndNMI */

/** Banner Print for HummingBird SDK */
void SystemBannerPrint(void)
{
800008be:	1141                	addi	sp,sp,-16
800008c0:	c606                	sw	ra,12(sp)
800008c2:	c422                	sw	s0,8(sp)
800008c4:	0800                	addi	s0,sp,16
E:\NucleiStudio_Workspace\e203cifar10_test\Debug/../hbird_sdk/SoC/hbirdv2/Common/Source/system_hbirdv2.c:381
#if defined(HBIRD_BANNER) && (HBIRD_BANNER == 1)
    printf("HummingBird SDK Build Time: %s, %s\r\n", __DATE__, __TIME__);
800008c6:	00008617          	auipc	a2,0x8
800008ca:	11260613          	addi	a2,a2,274 # 800089d8 <__trunctfdf2+0x3de>
800008ce:	00008597          	auipc	a1,0x8
800008d2:	11658593          	addi	a1,a1,278 # 800089e4 <__trunctfdf2+0x3ea>
800008d6:	00008517          	auipc	a0,0x8
800008da:	11a50513          	addi	a0,a0,282 # 800089f0 <__trunctfdf2+0x3f6>
800008de:	378050ef          	jal	ra,80005c56 <iprintf>
E:\NucleiStudio_Workspace\e203cifar10_test\Debug/../hbird_sdk/SoC/hbirdv2/Common/Source/system_hbirdv2.c:383
#ifdef DOWNLOAD_MODE_STRING
    printf("Download Mode: %s\r\n", DOWNLOAD_MODE_STRING);
800008e2:	00008597          	auipc	a1,0x8
800008e6:	13658593          	addi	a1,a1,310 # 80008a18 <__trunctfdf2+0x41e>
800008ea:	00008517          	auipc	a0,0x8
800008ee:	13250513          	addi	a0,a0,306 # 80008a1c <__trunctfdf2+0x422>
800008f2:	364050ef          	jal	ra,80005c56 <iprintf>
E:\NucleiStudio_Workspace\e203cifar10_test\Debug/../hbird_sdk/SoC/hbirdv2/Common/Source/system_hbirdv2.c:385
#endif
    printf("CPU Frequency %lu Hz\r\n", SystemCoreClock);
800008f6:	10008797          	auipc	a5,0x10008
800008fa:	6be78793          	addi	a5,a5,1726 # 90008fb4 <SystemCoreClock>
800008fe:	439c                	lw	a5,0(a5)
80000900:	85be                	mv	a1,a5
80000902:	00008517          	auipc	a0,0x8
80000906:	12e50513          	addi	a0,a0,302 # 80008a30 <__trunctfdf2+0x436>
8000090a:	34c050ef          	jal	ra,80005c56 <iprintf>
E:\NucleiStudio_Workspace\e203cifar10_test\Debug/../hbird_sdk/SoC/hbirdv2/Common/Source/system_hbirdv2.c:387
#endif
}
8000090e:	0001                	nop
80000910:	40b2                	lw	ra,12(sp)
80000912:	4422                	lw	s0,8(sp)
80000914:	0141                	addi	sp,sp,16
80000916:	8082                	ret

80000918 <_premain_init>:
_premain_init():
E:\NucleiStudio_Workspace\e203cifar10_test\Debug/../hbird_sdk/SoC/hbirdv2/Common/Source/system_hbirdv2.c:464
 * For RISC-V gnu toolchain, _init function might not be called
 * by __libc_init_array function, so we defined a new function
 * to do initialization
 */
void _premain_init(void)
{
80000918:	7139                	addi	sp,sp,-64
8000091a:	de06                	sw	ra,60(sp)
8000091c:	dc22                	sw	s0,56(sp)
8000091e:	da26                	sw	s1,52(sp)
80000920:	0080                	addi	s0,sp,64
E:\NucleiStudio_Workspace\e203cifar10_test\Debug/../hbird_sdk/SoC/hbirdv2/Common/Source/system_hbirdv2.c:466
    /* TODO: Add your own initialization code here, called before main */
    SystemCoreClock = get_cpu_freq();
80000922:	39bd                	jal	800005a0 <get_cpu_freq>
80000924:	872a                	mv	a4,a0
80000926:	10008797          	auipc	a5,0x10008
8000092a:	68e78793          	addi	a5,a5,1678 # 90008fb4 <SystemCoreClock>
8000092e:	c398                	sw	a4,0(a5)
E:\NucleiStudio_Workspace\e203cifar10_test\Debug/../hbird_sdk/SoC/hbirdv2/Common/Source/system_hbirdv2.c:468
#if ! defined(SIMULATION_SPIKE) && ! defined(SIMULATION_XLSPIKE)
    gpio_iof_config(GPIOA, IOF_UART_MASK);
80000930:	000305b7          	lui	a1,0x30
80000934:	10012537          	lui	a0,0x10012
80000938:	3405                	jal	80000358 <gpio_iof_config>
E:\NucleiStudio_Workspace\e203cifar10_test\Debug/../hbird_sdk/SoC/hbirdv2/Common/Source/system_hbirdv2.c:469
    uart_init(SOC_DEBUG_UART, 115200);
8000093a:	67f1                	lui	a5,0x1c
8000093c:	20078593          	addi	a1,a5,512 # 1c200 <__stack_size+0x1ba00>
80000940:	10013537          	lui	a0,0x10013
80000944:	3c81                	jal	80000394 <uart_init>
E:\NucleiStudio_Workspace\e203cifar10_test\Debug/../hbird_sdk/SoC/hbirdv2/Common/Source/system_hbirdv2.c:472
#endif
    /* Display banner after UART initialized */
    SystemBannerPrint();
80000946:	3fa5                	jal	800008be <SystemBannerPrint>
E:\NucleiStudio_Workspace\e203cifar10_test\Debug/../hbird_sdk/SoC/hbirdv2/Common/Source/system_hbirdv2.c:474
    /* Initialize exception default handlers */
    Exception_Init();
80000948:	3ba1                	jal	800006a0 <Exception_Init>
E:\NucleiStudio_Workspace\e203cifar10_test\Debug/../hbird_sdk/SoC/hbirdv2/Common/Source/system_hbirdv2.c:476
    /* Initialize Interrupt default handlers */
    Interrupt_Init();
8000094a:	3b59                	jal	800006e0 <Interrupt_Init>
8000094c:	47c5                	li	a5,17
8000094e:	fef42623          	sw	a5,-20(s0)
PLIC_Init():
E:\NucleiStudio_Workspace\e203cifar10_test\hbird_sdk\NMSIS\Core\Include/core_feature_plic.h:318
 */
__STATIC_FORCEINLINE void PLIC_Init(uint32_t num_sources)
{
    uint32_t i;

    for (i = 0; i < num_sources; i ++) {
80000952:	fe042423          	sw	zero,-24(s0)
80000956:	a861                	j	800009ee <_premain_init+0xd6>
80000958:	fe842783          	lw	a5,-24(s0)
8000095c:	fef42223          	sw	a5,-28(s0)
PLIC_DisableInterrupt():
E:\NucleiStudio_Workspace\e203cifar10_test\hbird_sdk\NMSIS\Core\Include/core_feature_plic.h:191
    uint32_t hartid = __RV_CSR_READ(CSR_MHARTID);
80000960:	f14027f3          	csrr	a5,mhartid
80000964:	84be                	mv	s1,a5
80000966:	87a6                	mv	a5,s1
80000968:	fef42023          	sw	a5,-32(s0)
E:\NucleiStudio_Workspace\e203cifar10_test\hbird_sdk\NMSIS\Core\Include/core_feature_plic.h:193
                    (hartid << PLIC_ENABLE_SHIFT_PER_TARGET) + (source >> 5) * 4);
8000096c:	fe042783          	lw	a5,-32(s0)
80000970:	00779713          	slli	a4,a5,0x7
80000974:	fe442783          	lw	a5,-28(s0)
80000978:	8395                	srli	a5,a5,0x5
8000097a:	078a                	slli	a5,a5,0x2
8000097c:	973e                	add	a4,a4,a5
8000097e:	0c0027b7          	lui	a5,0xc002
80000982:	97ba                	add	a5,a5,a4
E:\NucleiStudio_Workspace\e203cifar10_test\hbird_sdk\NMSIS\Core\Include/core_feature_plic.h:192
    volatile uint32_t *enable_reg = (uint32_t *)((PLIC_BASE) + PLIC_ENABLE_OFFSET + \
80000984:	fcf42e23          	sw	a5,-36(s0)
E:\NucleiStudio_Workspace\e203cifar10_test\hbird_sdk\NMSIS\Core\Include/core_feature_plic.h:195
    uint32_t current = *enable_reg;
80000988:	fdc42783          	lw	a5,-36(s0)
8000098c:	439c                	lw	a5,0(a5)
8000098e:	fcf42c23          	sw	a5,-40(s0)
E:\NucleiStudio_Workspace\e203cifar10_test\hbird_sdk\NMSIS\Core\Include/core_feature_plic.h:196
    current = current & (~(1<<(source&0x1F)));
80000992:	fe442783          	lw	a5,-28(s0)
80000996:	8bfd                	andi	a5,a5,31
80000998:	4705                	li	a4,1
8000099a:	00f717b3          	sll	a5,a4,a5
8000099e:	fff7c793          	not	a5,a5
800009a2:	873e                	mv	a4,a5
800009a4:	fd842783          	lw	a5,-40(s0)
800009a8:	8ff9                	and	a5,a5,a4
800009aa:	fcf42c23          	sw	a5,-40(s0)
E:\NucleiStudio_Workspace\e203cifar10_test\hbird_sdk\NMSIS\Core\Include/core_feature_plic.h:197
    *enable_reg = current;
800009ae:	fdc42783          	lw	a5,-36(s0)
800009b2:	fd842703          	lw	a4,-40(s0)
800009b6:	c398                	sw	a4,0(a5)
E:\NucleiStudio_Workspace\e203cifar10_test\hbird_sdk\NMSIS\Core\Include/core_feature_plic.h:198
}
800009b8:	0001                	nop
800009ba:	fe842783          	lw	a5,-24(s0)
800009be:	fcf42a23          	sw	a5,-44(s0)
800009c2:	fc042823          	sw	zero,-48(s0)
PLIC_SetPriority():
E:\NucleiStudio_Workspace\e203cifar10_test\hbird_sdk\NMSIS\Core\Include/core_feature_plic.h:235
                    + (source << PLIC_PRIORITY_SHIFT_PER_SOURCE));
800009c6:	fd442783          	lw	a5,-44(s0)
800009ca:	00279713          	slli	a4,a5,0x2
E:\NucleiStudio_Workspace\e203cifar10_test\hbird_sdk\NMSIS\Core\Include/core_feature_plic.h:234
    volatile uint32_t *priority_reg = (uint32_t *)((PLIC_BASE) + PLIC_PRIORITY_OFFSET + \
800009ce:	0c0007b7          	lui	a5,0xc000
800009d2:	97ba                	add	a5,a5,a4
800009d4:	fcf42623          	sw	a5,-52(s0)
E:\NucleiStudio_Workspace\e203cifar10_test\hbird_sdk\NMSIS\Core\Include/core_feature_plic.h:237
    *priority_reg = priority;
800009d8:	fcc42783          	lw	a5,-52(s0)
800009dc:	fd042703          	lw	a4,-48(s0)
800009e0:	c398                	sw	a4,0(a5)
E:\NucleiStudio_Workspace\e203cifar10_test\hbird_sdk\NMSIS\Core\Include/core_feature_plic.h:238
}
800009e2:	0001                	nop
PLIC_Init():
E:\NucleiStudio_Workspace\e203cifar10_test\hbird_sdk\NMSIS\Core\Include/core_feature_plic.h:318
    for (i = 0; i < num_sources; i ++) {
800009e4:	fe842783          	lw	a5,-24(s0)
800009e8:	0785                	addi	a5,a5,1
800009ea:	fef42423          	sw	a5,-24(s0)
800009ee:	fec42703          	lw	a4,-20(s0)
800009f2:	fe842783          	lw	a5,-24(s0)
800009f6:	f6e7e1e3          	bltu	a5,a4,80000958 <_premain_init+0x40>
800009fa:	fc042423          	sw	zero,-56(s0)
PLIC_SetThreshold():
E:\NucleiStudio_Workspace\e203cifar10_test\hbird_sdk\NMSIS\Core\Include/core_feature_plic.h:135
    uint32_t hartid = __RV_CSR_READ(CSR_MHARTID);
800009fe:	f14027f3          	csrr	a5,mhartid
80000a02:	84be                	mv	s1,a5
80000a04:	87a6                	mv	a5,s1
80000a06:	fcf42223          	sw	a5,-60(s0)
E:\NucleiStudio_Workspace\e203cifar10_test\hbird_sdk\NMSIS\Core\Include/core_feature_plic.h:137
                    PLIC_THRESHOLD_OFFSET + (hartid << PLIC_THRESHOLD_SHIFT_PER_TARGET));
80000a0a:	fc442783          	lw	a5,-60(s0)
80000a0e:	00c79713          	slli	a4,a5,0xc
80000a12:	0c2007b7          	lui	a5,0xc200
80000a16:	97ba                	add	a5,a5,a4
E:\NucleiStudio_Workspace\e203cifar10_test\hbird_sdk\NMSIS\Core\Include/core_feature_plic.h:136
    volatile uint32_t *thresh_reg = (uint32_t *)((PLIC_BASE) + \
80000a18:	fcf42023          	sw	a5,-64(s0)
E:\NucleiStudio_Workspace\e203cifar10_test\hbird_sdk\NMSIS\Core\Include/core_feature_plic.h:139
    *thresh_reg = thresh;
80000a1c:	fc042783          	lw	a5,-64(s0)
80000a20:	fc842703          	lw	a4,-56(s0)
80000a24:	c398                	sw	a4,0(a5)
E:\NucleiStudio_Workspace\e203cifar10_test\hbird_sdk\NMSIS\Core\Include/core_feature_plic.h:140
}
80000a26:	0001                	nop
PLIC_Init():
E:\NucleiStudio_Workspace\e203cifar10_test\hbird_sdk\NMSIS\Core\Include/core_feature_plic.h:323
        PLIC_DisableInterrupt(i);
        PLIC_SetPriority(i, 0);
    }
    PLIC_SetThreshold(0);
}
80000a28:	0001                	nop
_premain_init():
E:\NucleiStudio_Workspace\e203cifar10_test\Debug/../hbird_sdk/SoC/hbirdv2/Common/Source/system_hbirdv2.c:481
#if defined(__PLIC_PRESENT) && __PLIC_PRESENT == 1
    /* PLIC initilization */
    PLIC_Init(__PLIC_INTNUM);
#endif
}
80000a2a:	0001                	nop
80000a2c:	50f2                	lw	ra,60(sp)
80000a2e:	5462                	lw	s0,56(sp)
80000a30:	54d2                	lw	s1,52(sp)
80000a32:	6121                	addi	sp,sp,64
80000a34:	8082                	ret

80000a36 <_postmain_fini>:
_postmain_fini():
E:\NucleiStudio_Workspace\e203cifar10_test\Debug/../hbird_sdk/SoC/hbirdv2/Common/Source/system_hbirdv2.c:492
 * For RISC-V gnu toolchain, _fini function might not be called
 * by __libc_fini_array function, so we defined a new function
 * to do initialization
 */
void _postmain_fini(int status)
{
80000a36:	1101                	addi	sp,sp,-32
80000a38:	ce22                	sw	s0,28(sp)
80000a3a:	1000                	addi	s0,sp,32
80000a3c:	fea42623          	sw	a0,-20(s0)
E:\NucleiStudio_Workspace\e203cifar10_test\Debug/../hbird_sdk/SoC/hbirdv2/Common/Source/system_hbirdv2.c:507
#ifdef SIMULATION_RTL
extern void rtlsim_exit(int status);
    rtlsim_exit(status);
#endif

}
80000a40:	0001                	nop
80000a42:	4472                	lw	s0,28(sp)
80000a44:	6105                	addi	sp,sp,32
80000a46:	8082                	ret

80000a48 <_init>:
_init():
E:\NucleiStudio_Workspace\e203cifar10_test\Debug/../hbird_sdk/SoC/hbirdv2/Common/Source/system_hbirdv2.c:519
 * error init.c:(.text.__libc_init_array+0x26): undefined reference to `_init'
 * \note
 * Please use \ref _premain_init function now
 */
void _init(void)
{
80000a48:	1141                	addi	sp,sp,-16
80000a4a:	c622                	sw	s0,12(sp)
80000a4c:	0800                	addi	s0,sp,16
E:\NucleiStudio_Workspace\e203cifar10_test\Debug/../hbird_sdk/SoC/hbirdv2/Common/Source/system_hbirdv2.c:521
    /* Don't put any code here, please use _premain_init now */
}
80000a4e:	0001                	nop
80000a50:	4432                	lw	s0,12(sp)
80000a52:	0141                	addi	sp,sp,16
80000a54:	8082                	ret

80000a56 <_fini>:
_fini():
E:\NucleiStudio_Workspace\e203cifar10_test\Debug/../hbird_sdk/SoC/hbirdv2/Common/Source/system_hbirdv2.c:533
 * error fini.c:(.text.__libc_fini_array+0x28): undefined reference to `_fini'
 * \note
 * Please use \ref _postmain_fini function now
 */
void _fini(void)
{
80000a56:	1141                	addi	sp,sp,-16
80000a58:	c622                	sw	s0,12(sp)
80000a5a:	0800                	addi	s0,sp,16
E:\NucleiStudio_Workspace\e203cifar10_test\Debug/../hbird_sdk/SoC/hbirdv2/Common/Source/system_hbirdv2.c:536
    /* Don't put any code here, please use _postmain_fini now */

}
80000a5c:	0001                	nop
80000a5e:	4432                	lw	s0,12(sp)
80000a60:	0141                	addi	sp,sp,16
80000a62:	8082                	ret

80000a64 <main>:
main():
E:\NucleiStudio_Workspace\e203cifar10_test\Debug/../application/main.c:88
const char* cifar10_label[] = {"Plane", "Car", "Bird", "Cat", "Deer", "Dog", "Frog", "Horse", "Ship", "Truck"};

//BENCH_DECLARE_VAR();

int main()
{
80000a64:	b4010113          	addi	sp,sp,-1216
80000a68:	4a112e23          	sw	ra,1212(sp)
80000a6c:	4a812c23          	sw	s0,1208(sp)
80000a70:	4a912a23          	sw	s1,1204(sp)
80000a74:	4b212823          	sw	s2,1200(sp)
80000a78:	4b312623          	sw	s3,1196(sp)
80000a7c:	4b412423          	sw	s4,1192(sp)
80000a80:	4b512223          	sw	s5,1188(sp)
80000a84:	4b612023          	sw	s6,1184(sp)
80000a88:	49712e23          	sw	s7,1180(sp)
80000a8c:	49812c23          	sw	s8,1176(sp)
80000a90:	49912a23          	sw	s9,1172(sp)
80000a94:	49a12823          	sw	s10,1168(sp)
80000a98:	49b12623          	sw	s11,1164(sp)
80000a9c:	4c010413          	addi	s0,sp,1216
E:\NucleiStudio_Workspace\e203cifar10_test\Debug/../application/main.c:93
  #ifdef RTE_Compiler_EventRecorder
  EventRecorderInitialize (EventRecordAll, 1);  // initialize and start Event Recorder
  #endif

  printf("start execution cnn to classify image %s\n", image_name);
80000aa0:	10008797          	auipc	a5,0x10008
80000aa4:	51878793          	addi	a5,a5,1304 # 90008fb8 <image_name>
80000aa8:	439c                	lw	a5,0(a5)
80000aaa:	85be                	mv	a1,a5
80000aac:	00008517          	auipc	a0,0x8
80000ab0:	fe850513          	addi	a0,a0,-24 # 80008a94 <__trunctfdf2+0x49a>
80000ab4:	1a2050ef          	jal	ra,80005c56 <iprintf>
E:\NucleiStudio_Workspace\e203cifar10_test\Debug/../application/main.c:96
  /* start the execution */

  q7_t     *img_buffer1 = scratch_buffer;
80000ab8:	10009797          	auipc	a5,0x10009
80000abc:	2b078793          	addi	a5,a5,688 # 90009d68 <scratch_buffer>
80000ac0:	faf42a23          	sw	a5,-76(s0)
E:\NucleiStudio_Workspace\e203cifar10_test\Debug/../application/main.c:97
  q7_t     *img_buffer2 = img_buffer1 + 32 * 32 * 32;
80000ac4:	fb442703          	lw	a4,-76(s0)
80000ac8:	67a1                	lui	a5,0x8
80000aca:	97ba                	add	a5,a5,a4
80000acc:	faf42823          	sw	a5,-80(s0)
__get_rv_cycle():
E:\NucleiStudio_Workspace\e203cifar10_test\hbird_sdk\NMSIS\Core\Include/core_feature_base.h:492
    high0 = __RV_CSR_READ(CSR_MCYCLEH);
80000ad0:	b80027f3          	csrr	a5,mcycleh
80000ad4:	80be                	mv	ra,a5
80000ad6:	8786                	mv	a5,ra
80000ad8:	d8f42423          	sw	a5,-632(s0)
E:\NucleiStudio_Workspace\e203cifar10_test\hbird_sdk\NMSIS\Core\Include/core_feature_base.h:493
    low = __RV_CSR_READ(CSR_MCYCLE);
80000adc:	b00027f3          	csrr	a5,mcycle
80000ae0:	80be                	mv	ra,a5
80000ae2:	8786                	mv	a5,ra
80000ae4:	d8f42223          	sw	a5,-636(s0)
E:\NucleiStudio_Workspace\e203cifar10_test\hbird_sdk\NMSIS\Core\Include/core_feature_base.h:494
    high = __RV_CSR_READ(CSR_MCYCLEH);
80000ae8:	b80027f3          	csrr	a5,mcycleh
80000aec:	80be                	mv	ra,a5
80000aee:	8786                	mv	a5,ra
80000af0:	d8f42023          	sw	a5,-640(s0)
E:\NucleiStudio_Workspace\e203cifar10_test\hbird_sdk\NMSIS\Core\Include/core_feature_base.h:495
    if (high0 != high) {
80000af4:	d8842703          	lw	a4,-632(s0)
80000af8:	d8042783          	lw	a5,-640(s0)
80000afc:	00f70863          	beq	a4,a5,80000b0c <main+0xa8>
E:\NucleiStudio_Workspace\e203cifar10_test\hbird_sdk\NMSIS\Core\Include/core_feature_base.h:496
        low = __RV_CSR_READ(CSR_MCYCLE);
80000b00:	b00027f3          	csrr	a5,mcycle
80000b04:	80be                	mv	ra,a5
80000b06:	8786                	mv	a5,ra
80000b08:	d8f42223          	sw	a5,-636(s0)
E:\NucleiStudio_Workspace\e203cifar10_test\hbird_sdk\NMSIS\Core\Include/core_feature_base.h:498
    full = (((uint64_t)high) << 32) | low;
80000b0c:	d8042783          	lw	a5,-640(s0)
80000b10:	8b3e                	mv	s6,a5
80000b12:	4b81                	li	s7,0
80000b14:	000b1993          	slli	s3,s6,0x0
80000b18:	4901                	li	s2,0
80000b1a:	d8442783          	lw	a5,-636(s0)
80000b1e:	8a3e                	mv	s4,a5
80000b20:	4a81                	li	s5,0
80000b22:	014967b3          	or	a5,s2,s4
80000b26:	faf42023          	sw	a5,-96(s0)
80000b2a:	0159e7b3          	or	a5,s3,s5
80000b2e:	faf42223          	sw	a5,-92(s0)
E:\NucleiStudio_Workspace\e203cifar10_test\hbird_sdk\NMSIS\Core\Include/core_feature_base.h:499
    return full;
80000b32:	fa042603          	lw	a2,-96(s0)
80000b36:	fa442683          	lw	a3,-92(s0)
main():
E:\NucleiStudio_Workspace\e203cifar10_test\Debug/../application/main.c:102

//  BENCH_INIT();

  /* input pre-processing */
  BENCH_START(preprocess);
80000b3a:	86818793          	addi	a5,gp,-1944 # 90009018 <start_cycle>
80000b3e:	c390                	sw	a2,0(a5)
80000b40:	c3d4                	sw	a3,4(a5)
80000b42:	88018793          	addi	a5,gp,-1920 # 90009030 <bench_ercd>
80000b46:	0007a023          	sw	zero,0(a5) # 8000 <__stack_size+0x7800>
E:\NucleiStudio_Workspace\e203cifar10_test\Debug/../application/main.c:103
  int mean_data[3] = INPUT_MEAN_SHIFT;
80000b4a:	07d00793          	li	a5,125
80000b4e:	eaf42623          	sw	a5,-340(s0)
80000b52:	07b00793          	li	a5,123
80000b56:	eaf42823          	sw	a5,-336(s0)
80000b5a:	07200793          	li	a5,114
80000b5e:	eaf42a23          	sw	a5,-332(s0)
E:\NucleiStudio_Workspace\e203cifar10_test\Debug/../application/main.c:104
  unsigned int scale_data[3] = INPUT_RIGHT_SHIFT;
80000b62:	47a1                	li	a5,8
80000b64:	eaf42023          	sw	a5,-352(s0)
80000b68:	47a1                	li	a5,8
80000b6a:	eaf42223          	sw	a5,-348(s0)
80000b6e:	47a1                	li	a5,8
80000b70:	eaf42423          	sw	a5,-344(s0)
E:\NucleiStudio_Workspace\e203cifar10_test\Debug/../application/main.c:105
  for (int i=0;i<32*32*3; i+=3) {
80000b74:	fa042e23          	sw	zero,-68(s0)
80000b78:	ac0d                	j	80000daa <main+0x346>
E:\NucleiStudio_Workspace\e203cifar10_test\Debug/../application/main.c:106 (discriminator 3)
    img_buffer2[i] =   (q7_t)__SSAT( ((((int)image_data[i]   - mean_data[0])<<7) + (0x1<<(scale_data[0]-1)))
80000b7a:	10007717          	auipc	a4,0x10007
80000b7e:	64270713          	addi	a4,a4,1602 # 900081bc <image_data>
80000b82:	fbc42783          	lw	a5,-68(s0)
80000b86:	97ba                	add	a5,a5,a4
80000b88:	0007c783          	lbu	a5,0(a5)
80000b8c:	873e                	mv	a4,a5
80000b8e:	eac42783          	lw	a5,-340(s0)
80000b92:	40f707b3          	sub	a5,a4,a5
80000b96:	00779693          	slli	a3,a5,0x7
80000b9a:	ea042783          	lw	a5,-352(s0)
80000b9e:	fff78713          	addi	a4,a5,-1
80000ba2:	4785                	li	a5,1
80000ba4:	00e797b3          	sll	a5,a5,a4
80000ba8:	00f68733          	add	a4,a3,a5
E:\NucleiStudio_Workspace\e203cifar10_test\Debug/../application/main.c:107 (discriminator 3)
                             >> scale_data[0], 8);
80000bac:	ea042783          	lw	a5,-352(s0)
80000bb0:	40f757b3          	sra	a5,a4,a5
80000bb4:	f6f42e23          	sw	a5,-132(s0)
80000bb8:	47a1                	li	a5,8
80000bba:	f6f42c23          	sw	a5,-136(s0)
__SSAT():
E:\NucleiStudio_Workspace\e203cifar10_test\hbird_sdk\NMSIS\Core\Include/core_compatiable.h:74 (discriminator 3)
 * \param [in]    sat  Bit position to saturate to (1..32)
 * \return             Saturated value
 */
__STATIC_FORCEINLINE int32_t __SSAT(int32_t val, uint32_t sat)
{
    if ((sat >= 1U) && (sat <= 32U)) {
80000bbe:	f7842783          	lw	a5,-136(s0)
80000bc2:	cba9                	beqz	a5,80000c14 <main+0x1b0>
E:\NucleiStudio_Workspace\e203cifar10_test\hbird_sdk\NMSIS\Core\Include/core_compatiable.h:74
80000bc4:	f7842703          	lw	a4,-136(s0)
80000bc8:	02000793          	li	a5,32
80000bcc:	04e7e463          	bltu	a5,a4,80000c14 <main+0x1b0>
E:\NucleiStudio_Workspace\e203cifar10_test\hbird_sdk\NMSIS\Core\Include/core_compatiable.h:75
        const int32_t max = (int32_t)((1U << (sat - 1U)) - 1U);
80000bd0:	f7842783          	lw	a5,-136(s0)
80000bd4:	fff78713          	addi	a4,a5,-1
80000bd8:	4785                	li	a5,1
80000bda:	00e797b3          	sll	a5,a5,a4
80000bde:	17fd                	addi	a5,a5,-1
80000be0:	f6f42a23          	sw	a5,-140(s0)
E:\NucleiStudio_Workspace\e203cifar10_test\hbird_sdk\NMSIS\Core\Include/core_compatiable.h:76
        const int32_t min = -1 - max ;
80000be4:	f7442783          	lw	a5,-140(s0)
80000be8:	fff7c793          	not	a5,a5
80000bec:	f6f42823          	sw	a5,-144(s0)
E:\NucleiStudio_Workspace\e203cifar10_test\hbird_sdk\NMSIS\Core\Include/core_compatiable.h:77
        if (val > max) {
80000bf0:	f7c42703          	lw	a4,-132(s0)
80000bf4:	f7442783          	lw	a5,-140(s0)
80000bf8:	00e7d563          	bge	a5,a4,80000c02 <main+0x19e>
E:\NucleiStudio_Workspace\e203cifar10_test\hbird_sdk\NMSIS\Core\Include/core_compatiable.h:78
            return max;
80000bfc:	f7442683          	lw	a3,-140(s0)
80000c00:	a821                	j	80000c18 <main+0x1b4>
E:\NucleiStudio_Workspace\e203cifar10_test\hbird_sdk\NMSIS\Core\Include/core_compatiable.h:79
        } else if (val < min) {
80000c02:	f7c42703          	lw	a4,-132(s0)
80000c06:	f7042783          	lw	a5,-144(s0)
80000c0a:	00f75563          	bge	a4,a5,80000c14 <main+0x1b0>
E:\NucleiStudio_Workspace\e203cifar10_test\hbird_sdk\NMSIS\Core\Include/core_compatiable.h:80
            return min;
80000c0e:	f7042683          	lw	a3,-144(s0)
80000c12:	a019                	j	80000c18 <main+0x1b4>
E:\NucleiStudio_Workspace\e203cifar10_test\hbird_sdk\NMSIS\Core\Include/core_compatiable.h:83
        }
    }
    return val;
80000c14:	f7c42683          	lw	a3,-132(s0)
main():
E:\NucleiStudio_Workspace\e203cifar10_test\Debug/../application/main.c:106
    img_buffer2[i] =   (q7_t)__SSAT( ((((int)image_data[i]   - mean_data[0])<<7) + (0x1<<(scale_data[0]-1)))
80000c18:	fbc42703          	lw	a4,-68(s0)
80000c1c:	fb042783          	lw	a5,-80(s0)
80000c20:	973e                	add	a4,a4,a5
80000c22:	01869793          	slli	a5,a3,0x18
80000c26:	87e1                	srai	a5,a5,0x18
80000c28:	00f70023          	sb	a5,0(a4)
E:\NucleiStudio_Workspace\e203cifar10_test\Debug/../application/main.c:108
    img_buffer2[i+1] = (q7_t)__SSAT( ((((int)image_data[i+1] - mean_data[1])<<7) + (0x1<<(scale_data[1]-1)))
80000c2c:	fbc42783          	lw	a5,-68(s0)
80000c30:	00178713          	addi	a4,a5,1
80000c34:	10007797          	auipc	a5,0x10007
80000c38:	58878793          	addi	a5,a5,1416 # 900081bc <image_data>
80000c3c:	97ba                	add	a5,a5,a4
80000c3e:	0007c783          	lbu	a5,0(a5)
80000c42:	873e                	mv	a4,a5
80000c44:	eb042783          	lw	a5,-336(s0)
80000c48:	40f707b3          	sub	a5,a4,a5
80000c4c:	00779693          	slli	a3,a5,0x7
80000c50:	ea442783          	lw	a5,-348(s0)
80000c54:	fff78713          	addi	a4,a5,-1
80000c58:	4785                	li	a5,1
80000c5a:	00e797b3          	sll	a5,a5,a4
80000c5e:	00f68733          	add	a4,a3,a5
E:\NucleiStudio_Workspace\e203cifar10_test\Debug/../application/main.c:109
                             >> scale_data[1], 8);
80000c62:	ea442783          	lw	a5,-348(s0)
80000c66:	40f757b3          	sra	a5,a4,a5
80000c6a:	f8f42623          	sw	a5,-116(s0)
80000c6e:	47a1                	li	a5,8
80000c70:	f8f42423          	sw	a5,-120(s0)
__SSAT():
E:\NucleiStudio_Workspace\e203cifar10_test\hbird_sdk\NMSIS\Core\Include/core_compatiable.h:74
    if ((sat >= 1U) && (sat <= 32U)) {
80000c74:	f8842783          	lw	a5,-120(s0)
80000c78:	cba9                	beqz	a5,80000cca <main+0x266>
80000c7a:	f8842703          	lw	a4,-120(s0)
80000c7e:	02000793          	li	a5,32
80000c82:	04e7e463          	bltu	a5,a4,80000cca <main+0x266>
E:\NucleiStudio_Workspace\e203cifar10_test\hbird_sdk\NMSIS\Core\Include/core_compatiable.h:75
        const int32_t max = (int32_t)((1U << (sat - 1U)) - 1U);
80000c86:	f8842783          	lw	a5,-120(s0)
80000c8a:	fff78713          	addi	a4,a5,-1
80000c8e:	4785                	li	a5,1
80000c90:	00e797b3          	sll	a5,a5,a4
80000c94:	17fd                	addi	a5,a5,-1
80000c96:	f8f42223          	sw	a5,-124(s0)
E:\NucleiStudio_Workspace\e203cifar10_test\hbird_sdk\NMSIS\Core\Include/core_compatiable.h:76
        const int32_t min = -1 - max ;
80000c9a:	f8442783          	lw	a5,-124(s0)
80000c9e:	fff7c793          	not	a5,a5
80000ca2:	f8f42023          	sw	a5,-128(s0)
E:\NucleiStudio_Workspace\e203cifar10_test\hbird_sdk\NMSIS\Core\Include/core_compatiable.h:77
        if (val > max) {
80000ca6:	f8c42703          	lw	a4,-116(s0)
80000caa:	f8442783          	lw	a5,-124(s0)
80000cae:	00e7d563          	bge	a5,a4,80000cb8 <main+0x254>
E:\NucleiStudio_Workspace\e203cifar10_test\hbird_sdk\NMSIS\Core\Include/core_compatiable.h:78
            return max;
80000cb2:	f8442683          	lw	a3,-124(s0)
80000cb6:	a821                	j	80000cce <main+0x26a>
E:\NucleiStudio_Workspace\e203cifar10_test\hbird_sdk\NMSIS\Core\Include/core_compatiable.h:79
        } else if (val < min) {
80000cb8:	f8c42703          	lw	a4,-116(s0)
80000cbc:	f8042783          	lw	a5,-128(s0)
80000cc0:	00f75563          	bge	a4,a5,80000cca <main+0x266>
E:\NucleiStudio_Workspace\e203cifar10_test\hbird_sdk\NMSIS\Core\Include/core_compatiable.h:80
            return min;
80000cc4:	f8042683          	lw	a3,-128(s0)
80000cc8:	a019                	j	80000cce <main+0x26a>
E:\NucleiStudio_Workspace\e203cifar10_test\hbird_sdk\NMSIS\Core\Include/core_compatiable.h:83
    return val;
80000cca:	f8c42683          	lw	a3,-116(s0)
main():
E:\NucleiStudio_Workspace\e203cifar10_test\Debug/../application/main.c:108
    img_buffer2[i+1] = (q7_t)__SSAT( ((((int)image_data[i+1] - mean_data[1])<<7) + (0x1<<(scale_data[1]-1)))
80000cce:	fbc42783          	lw	a5,-68(s0)
80000cd2:	00178713          	addi	a4,a5,1
80000cd6:	fb042783          	lw	a5,-80(s0)
80000cda:	973e                	add	a4,a4,a5
80000cdc:	01869793          	slli	a5,a3,0x18
80000ce0:	87e1                	srai	a5,a5,0x18
80000ce2:	00f70023          	sb	a5,0(a4)
E:\NucleiStudio_Workspace\e203cifar10_test\Debug/../application/main.c:110
    img_buffer2[i+2] = (q7_t)__SSAT( ((((int)image_data[i+2] - mean_data[2])<<7) + (0x1<<(scale_data[2]-1)))
80000ce6:	fbc42783          	lw	a5,-68(s0)
80000cea:	00278713          	addi	a4,a5,2
80000cee:	10007797          	auipc	a5,0x10007
80000cf2:	4ce78793          	addi	a5,a5,1230 # 900081bc <image_data>
80000cf6:	97ba                	add	a5,a5,a4
80000cf8:	0007c783          	lbu	a5,0(a5)
80000cfc:	873e                	mv	a4,a5
80000cfe:	eb442783          	lw	a5,-332(s0)
80000d02:	40f707b3          	sub	a5,a4,a5
80000d06:	00779693          	slli	a3,a5,0x7
80000d0a:	ea842783          	lw	a5,-344(s0)
80000d0e:	fff78713          	addi	a4,a5,-1
80000d12:	4785                	li	a5,1
80000d14:	00e797b3          	sll	a5,a5,a4
80000d18:	00f68733          	add	a4,a3,a5
E:\NucleiStudio_Workspace\e203cifar10_test\Debug/../application/main.c:111
                             >> scale_data[2], 8);
80000d1c:	ea842783          	lw	a5,-344(s0)
80000d20:	40f757b3          	sra	a5,a4,a5
80000d24:	f8f42e23          	sw	a5,-100(s0)
80000d28:	47a1                	li	a5,8
80000d2a:	f8f42c23          	sw	a5,-104(s0)
__SSAT():
E:\NucleiStudio_Workspace\e203cifar10_test\hbird_sdk\NMSIS\Core\Include/core_compatiable.h:74
    if ((sat >= 1U) && (sat <= 32U)) {
80000d2e:	f9842783          	lw	a5,-104(s0)
80000d32:	cba9                	beqz	a5,80000d84 <main+0x320>
80000d34:	f9842703          	lw	a4,-104(s0)
80000d38:	02000793          	li	a5,32
80000d3c:	04e7e463          	bltu	a5,a4,80000d84 <main+0x320>
E:\NucleiStudio_Workspace\e203cifar10_test\hbird_sdk\NMSIS\Core\Include/core_compatiable.h:75
        const int32_t max = (int32_t)((1U << (sat - 1U)) - 1U);
80000d40:	f9842783          	lw	a5,-104(s0)
80000d44:	fff78713          	addi	a4,a5,-1
80000d48:	4785                	li	a5,1
80000d4a:	00e797b3          	sll	a5,a5,a4
80000d4e:	17fd                	addi	a5,a5,-1
80000d50:	f8f42a23          	sw	a5,-108(s0)
E:\NucleiStudio_Workspace\e203cifar10_test\hbird_sdk\NMSIS\Core\Include/core_compatiable.h:76
        const int32_t min = -1 - max ;
80000d54:	f9442783          	lw	a5,-108(s0)
80000d58:	fff7c793          	not	a5,a5
80000d5c:	f8f42823          	sw	a5,-112(s0)
E:\NucleiStudio_Workspace\e203cifar10_test\hbird_sdk\NMSIS\Core\Include/core_compatiable.h:77
        if (val > max) {
80000d60:	f9c42703          	lw	a4,-100(s0)
80000d64:	f9442783          	lw	a5,-108(s0)
80000d68:	00e7d563          	bge	a5,a4,80000d72 <main+0x30e>
E:\NucleiStudio_Workspace\e203cifar10_test\hbird_sdk\NMSIS\Core\Include/core_compatiable.h:78
            return max;
80000d6c:	f9442683          	lw	a3,-108(s0)
80000d70:	a821                	j	80000d88 <main+0x324>
E:\NucleiStudio_Workspace\e203cifar10_test\hbird_sdk\NMSIS\Core\Include/core_compatiable.h:79
        } else if (val < min) {
80000d72:	f9c42703          	lw	a4,-100(s0)
80000d76:	f9042783          	lw	a5,-112(s0)
80000d7a:	00f75563          	bge	a4,a5,80000d84 <main+0x320>
E:\NucleiStudio_Workspace\e203cifar10_test\hbird_sdk\NMSIS\Core\Include/core_compatiable.h:80
            return min;
80000d7e:	f9042683          	lw	a3,-112(s0)
80000d82:	a019                	j	80000d88 <main+0x324>
E:\NucleiStudio_Workspace\e203cifar10_test\hbird_sdk\NMSIS\Core\Include/core_compatiable.h:83
    return val;
80000d84:	f9c42683          	lw	a3,-100(s0)
main():
E:\NucleiStudio_Workspace\e203cifar10_test\Debug/../application/main.c:110
    img_buffer2[i+2] = (q7_t)__SSAT( ((((int)image_data[i+2] - mean_data[2])<<7) + (0x1<<(scale_data[2]-1)))
80000d88:	fbc42783          	lw	a5,-68(s0)
80000d8c:	00278713          	addi	a4,a5,2
80000d90:	fb042783          	lw	a5,-80(s0)
80000d94:	973e                	add	a4,a4,a5
80000d96:	01869793          	slli	a5,a3,0x18
80000d9a:	87e1                	srai	a5,a5,0x18
80000d9c:	00f70023          	sb	a5,0(a4)
E:\NucleiStudio_Workspace\e203cifar10_test\Debug/../application/main.c:105
  for (int i=0;i<32*32*3; i+=3) {
80000da0:	fbc42783          	lw	a5,-68(s0)
80000da4:	078d                	addi	a5,a5,3
80000da6:	faf42e23          	sw	a5,-68(s0)
E:\NucleiStudio_Workspace\e203cifar10_test\Debug/../application/main.c:105 (discriminator 1)
80000daa:	fbc42703          	lw	a4,-68(s0)
80000dae:	6785                	lui	a5,0x1
80000db0:	bff78793          	addi	a5,a5,-1025 # bff <__stack_size+0x3ff>
80000db4:	dce7d3e3          	bge	a5,a4,80000b7a <main+0x116>
__get_rv_cycle():
E:\NucleiStudio_Workspace\e203cifar10_test\hbird_sdk\NMSIS\Core\Include/core_feature_base.h:492
    high0 = __RV_CSR_READ(CSR_MCYCLEH);
80000db8:	b80027f3          	csrr	a5,mcycleh
80000dbc:	80be                	mv	ra,a5
80000dbe:	8786                	mv	a5,ra
80000dc0:	e8f42e23          	sw	a5,-356(s0)
E:\NucleiStudio_Workspace\e203cifar10_test\hbird_sdk\NMSIS\Core\Include/core_feature_base.h:493
    low = __RV_CSR_READ(CSR_MCYCLE);
80000dc4:	b00027f3          	csrr	a5,mcycle
80000dc8:	80be                	mv	ra,a5
80000dca:	8786                	mv	a5,ra
80000dcc:	e8f42c23          	sw	a5,-360(s0)
E:\NucleiStudio_Workspace\e203cifar10_test\hbird_sdk\NMSIS\Core\Include/core_feature_base.h:494
    high = __RV_CSR_READ(CSR_MCYCLEH);
80000dd0:	b80027f3          	csrr	a5,mcycleh
80000dd4:	80be                	mv	ra,a5
80000dd6:	8786                	mv	a5,ra
80000dd8:	e8f42a23          	sw	a5,-364(s0)
E:\NucleiStudio_Workspace\e203cifar10_test\hbird_sdk\NMSIS\Core\Include/core_feature_base.h:495
    if (high0 != high) {
80000ddc:	e9c42703          	lw	a4,-356(s0)
80000de0:	e9442783          	lw	a5,-364(s0)
80000de4:	00f70863          	beq	a4,a5,80000df4 <main+0x390>
E:\NucleiStudio_Workspace\e203cifar10_test\hbird_sdk\NMSIS\Core\Include/core_feature_base.h:496
        low = __RV_CSR_READ(CSR_MCYCLE);
80000de8:	b00027f3          	csrr	a5,mcycle
80000dec:	80be                	mv	ra,a5
80000dee:	8786                	mv	a5,ra
80000df0:	e8f42c23          	sw	a5,-360(s0)
E:\NucleiStudio_Workspace\e203cifar10_test\hbird_sdk\NMSIS\Core\Include/core_feature_base.h:498
    full = (((uint64_t)high) << 32) | low;
80000df4:	e9442783          	lw	a5,-364(s0)
80000df8:	b6f42823          	sw	a5,-1168(s0)
80000dfc:	b6042a23          	sw	zero,-1164(s0)
80000e00:	b7042783          	lw	a5,-1168(s0)
80000e04:	00079c93          	slli	s9,a5,0x0
80000e08:	4c01                	li	s8,0
80000e0a:	e9842783          	lw	a5,-360(s0)
80000e0e:	b6f42423          	sw	a5,-1176(s0)
80000e12:	b6042623          	sw	zero,-1172(s0)
80000e16:	b6842683          	lw	a3,-1176(s0)
80000e1a:	b6c42703          	lw	a4,-1172(s0)
80000e1e:	87b6                	mv	a5,a3
80000e20:	00fc67b3          	or	a5,s8,a5
80000e24:	eaf42c23          	sw	a5,-328(s0)
80000e28:	87ba                	mv	a5,a4
80000e2a:	00fce7b3          	or	a5,s9,a5
80000e2e:	eaf42e23          	sw	a5,-324(s0)
E:\NucleiStudio_Workspace\e203cifar10_test\hbird_sdk\NMSIS\Core\Include/core_feature_base.h:499
    return full;
80000e32:	eb842603          	lw	a2,-328(s0)
80000e36:	ebc42683          	lw	a3,-324(s0)
main():
E:\NucleiStudio_Workspace\e203cifar10_test\Debug/../application/main.c:113
  }
  BENCH_END(preprocess);
80000e3a:	87018793          	addi	a5,gp,-1936 # 90009020 <end_cycle>
80000e3e:	c390                	sw	a2,0(a5)
80000e40:	c3d4                	sw	a3,4(a5)
80000e42:	87018793          	addi	a5,gp,-1936 # 90009020 <end_cycle>
80000e46:	4390                	lw	a2,0(a5)
80000e48:	43d4                	lw	a3,4(a5)
80000e4a:	86818793          	addi	a5,gp,-1944 # 90009018 <start_cycle>
80000e4e:	4398                	lw	a4,0(a5)
80000e50:	43dc                	lw	a5,4(a5)
80000e52:	40e60833          	sub	a6,a2,a4
80000e56:	85c2                	mv	a1,a6
80000e58:	00b635b3          	sltu	a1,a2,a1
80000e5c:	40f688b3          	sub	a7,a3,a5
80000e60:	40b887b3          	sub	a5,a7,a1
80000e64:	88be                	mv	a7,a5
80000e66:	8642                	mv	a2,a6
80000e68:	86c6                	mv	a3,a7
80000e6a:	87818793          	addi	a5,gp,-1928 # 90009028 <cycle>
80000e6e:	c390                	sw	a2,0(a5)
80000e70:	c3d4                	sw	a3,4(a5)
80000e72:	87818793          	addi	a5,gp,-1928 # 90009028 <cycle>
80000e76:	4398                	lw	a4,0(a5)
80000e78:	43dc                	lw	a5,4(a5)
80000e7a:	863a                	mv	a2,a4
80000e7c:	86be                	mv	a3,a5
80000e7e:	00008597          	auipc	a1,0x8
80000e82:	c4258593          	addi	a1,a1,-958 # 80008ac0 <__trunctfdf2+0x4c6>
80000e86:	00008517          	auipc	a0,0x8
80000e8a:	c4650513          	addi	a0,a0,-954 # 80008acc <__trunctfdf2+0x4d2>
80000e8e:	5c9040ef          	jal	ra,80005c56 <iprintf>
__get_rv_cycle():
E:\NucleiStudio_Workspace\e203cifar10_test\hbird_sdk\NMSIS\Core\Include/core_feature_base.h:492
    high0 = __RV_CSR_READ(CSR_MCYCLEH);
80000e92:	b80027f3          	csrr	a5,mcycleh
80000e96:	80be                	mv	ra,a5
80000e98:	8786                	mv	a5,ra
80000e9a:	e8f42823          	sw	a5,-368(s0)
E:\NucleiStudio_Workspace\e203cifar10_test\hbird_sdk\NMSIS\Core\Include/core_feature_base.h:493
    low = __RV_CSR_READ(CSR_MCYCLE);
80000e9e:	b00027f3          	csrr	a5,mcycle
80000ea2:	80be                	mv	ra,a5
80000ea4:	8786                	mv	a5,ra
80000ea6:	e8f42623          	sw	a5,-372(s0)
E:\NucleiStudio_Workspace\e203cifar10_test\hbird_sdk\NMSIS\Core\Include/core_feature_base.h:494
    high = __RV_CSR_READ(CSR_MCYCLEH);
80000eaa:	b80027f3          	csrr	a5,mcycleh
80000eae:	80be                	mv	ra,a5
80000eb0:	8786                	mv	a5,ra
80000eb2:	e8f42423          	sw	a5,-376(s0)
E:\NucleiStudio_Workspace\e203cifar10_test\hbird_sdk\NMSIS\Core\Include/core_feature_base.h:495
    if (high0 != high) {
80000eb6:	e9042703          	lw	a4,-368(s0)
80000eba:	e8842783          	lw	a5,-376(s0)
80000ebe:	00f70863          	beq	a4,a5,80000ece <main+0x46a>
E:\NucleiStudio_Workspace\e203cifar10_test\hbird_sdk\NMSIS\Core\Include/core_feature_base.h:496
        low = __RV_CSR_READ(CSR_MCYCLE);
80000ec2:	b00027f3          	csrr	a5,mcycle
80000ec6:	80be                	mv	ra,a5
80000ec8:	8786                	mv	a5,ra
80000eca:	e8f42623          	sw	a5,-372(s0)
E:\NucleiStudio_Workspace\e203cifar10_test\hbird_sdk\NMSIS\Core\Include/core_feature_base.h:498
    full = (((uint64_t)high) << 32) | low;
80000ece:	e8842783          	lw	a5,-376(s0)
80000ed2:	b8f42023          	sw	a5,-1152(s0)
80000ed6:	b8042223          	sw	zero,-1148(s0)
80000eda:	b8042783          	lw	a5,-1152(s0)
80000ede:	00079d93          	slli	s11,a5,0x0
80000ee2:	4d01                	li	s10,0
80000ee4:	e8c42783          	lw	a5,-372(s0)
80000ee8:	b6f42c23          	sw	a5,-1160(s0)
80000eec:	b6042e23          	sw	zero,-1156(s0)
80000ef0:	b7842683          	lw	a3,-1160(s0)
80000ef4:	b7c42703          	lw	a4,-1156(s0)
80000ef8:	87b6                	mv	a5,a3
80000efa:	00fd67b3          	or	a5,s10,a5
80000efe:	ecf42023          	sw	a5,-320(s0)
80000f02:	87ba                	mv	a5,a4
80000f04:	00fde7b3          	or	a5,s11,a5
80000f08:	ecf42223          	sw	a5,-316(s0)
E:\NucleiStudio_Workspace\e203cifar10_test\hbird_sdk\NMSIS\Core\Include/core_feature_base.h:499
    return full;
80000f0c:	ec042603          	lw	a2,-320(s0)
80000f10:	ec442683          	lw	a3,-316(s0)
main():
E:\NucleiStudio_Workspace\e203cifar10_test\Debug/../application/main.c:115

  BENCH_START(riscv_convolve_HWC_q7_RGB);
80000f14:	86818793          	addi	a5,gp,-1944 # 90009018 <start_cycle>
80000f18:	c390                	sw	a2,0(a5)
80000f1a:	c3d4                	sw	a3,4(a5)
80000f1c:	88018793          	addi	a5,gp,-1920 # 90009030 <bench_ercd>
80000f20:	0007a023          	sw	zero,0(a5)
E:\NucleiStudio_Workspace\e203cifar10_test\Debug/../application/main.c:117
  // conv1 img_buffer2 -> img_buffer1
  riscv_convolve_HWC_q7_RGB(img_buffer2, CONV1_IM_DIM, CONV1_IM_CH, conv1_wt, CONV1_OUT_CH, CONV1_KER_DIM, CONV1_PADDING,
80000f24:	cc02                	sw	zero,24(sp)
80000f26:	10008797          	auipc	a5,0x10008
80000f2a:	1c278793          	addi	a5,a5,450 # 900090e8 <col_buffer>
80000f2e:	ca3e                	sw	a5,20(sp)
80000f30:	02000793          	li	a5,32
80000f34:	c83e                	sw	a5,16(sp)
80000f36:	fb442783          	lw	a5,-76(s0)
80000f3a:	c63e                	sw	a5,12(sp)
80000f3c:	47a5                	li	a5,9
80000f3e:	c43e                	sw	a5,8(sp)
80000f40:	4799                	li	a5,6
80000f42:	c23e                	sw	a5,4(sp)
80000f44:	10000797          	auipc	a5,0x10000
80000f48:	a1c78793          	addi	a5,a5,-1508 # 90000960 <conv1_bias>
80000f4c:	c03e                	sw	a5,0(sp)
80000f4e:	4885                	li	a7,1
80000f50:	4809                	li	a6,2
80000f52:	4795                	li	a5,5
80000f54:	02000713          	li	a4,32
80000f58:	0ffff697          	auipc	a3,0xffff
80000f5c:	0a868693          	addi	a3,a3,168 # 90000000 <conv1_wt>
80000f60:	460d                	li	a2,3
80000f62:	02000593          	li	a1,32
80000f66:	fb042503          	lw	a0,-80(s0)
80000f6a:	4f4010ef          	jal	ra,8000245e <riscv_convolve_HWC_q7_RGB>
__get_rv_cycle():
E:\NucleiStudio_Workspace\e203cifar10_test\hbird_sdk\NMSIS\Core\Include/core_feature_base.h:492
    high0 = __RV_CSR_READ(CSR_MCYCLEH);
80000f6e:	b80027f3          	csrr	a5,mcycleh
80000f72:	80be                	mv	ra,a5
80000f74:	8786                	mv	a5,ra
80000f76:	e8f42223          	sw	a5,-380(s0)
E:\NucleiStudio_Workspace\e203cifar10_test\hbird_sdk\NMSIS\Core\Include/core_feature_base.h:493
    low = __RV_CSR_READ(CSR_MCYCLE);
80000f7a:	b00027f3          	csrr	a5,mcycle
80000f7e:	80be                	mv	ra,a5
80000f80:	8786                	mv	a5,ra
80000f82:	e8f42023          	sw	a5,-384(s0)
E:\NucleiStudio_Workspace\e203cifar10_test\hbird_sdk\NMSIS\Core\Include/core_feature_base.h:494
    high = __RV_CSR_READ(CSR_MCYCLEH);
80000f86:	b80027f3          	csrr	a5,mcycleh
80000f8a:	80be                	mv	ra,a5
80000f8c:	8786                	mv	a5,ra
80000f8e:	e6f42e23          	sw	a5,-388(s0)
E:\NucleiStudio_Workspace\e203cifar10_test\hbird_sdk\NMSIS\Core\Include/core_feature_base.h:495
    if (high0 != high) {
80000f92:	e8442703          	lw	a4,-380(s0)
80000f96:	e7c42783          	lw	a5,-388(s0)
80000f9a:	00f70863          	beq	a4,a5,80000faa <main+0x546>
E:\NucleiStudio_Workspace\e203cifar10_test\hbird_sdk\NMSIS\Core\Include/core_feature_base.h:496
        low = __RV_CSR_READ(CSR_MCYCLE);
80000f9e:	b00027f3          	csrr	a5,mcycle
80000fa2:	80be                	mv	ra,a5
80000fa4:	8786                	mv	a5,ra
80000fa6:	e8f42023          	sw	a5,-384(s0)
E:\NucleiStudio_Workspace\e203cifar10_test\hbird_sdk\NMSIS\Core\Include/core_feature_base.h:498
    full = (((uint64_t)high) << 32) | low;
80000faa:	e7c42783          	lw	a5,-388(s0)
80000fae:	b8f42c23          	sw	a5,-1128(s0)
80000fb2:	b8042e23          	sw	zero,-1124(s0)
80000fb6:	b9842783          	lw	a5,-1128(s0)
80000fba:	00079793          	slli	a5,a5,0x0
80000fbe:	b8f42a23          	sw	a5,-1132(s0)
80000fc2:	b8042823          	sw	zero,-1136(s0)
80000fc6:	e8042783          	lw	a5,-384(s0)
80000fca:	b8f42423          	sw	a5,-1144(s0)
80000fce:	b8042623          	sw	zero,-1140(s0)
80000fd2:	b9042583          	lw	a1,-1136(s0)
80000fd6:	b9442603          	lw	a2,-1132(s0)
80000fda:	87ae                	mv	a5,a1
80000fdc:	b8842683          	lw	a3,-1144(s0)
80000fe0:	b8c42703          	lw	a4,-1140(s0)
80000fe4:	8536                	mv	a0,a3
80000fe6:	8fc9                	or	a5,a5,a0
80000fe8:	ecf42423          	sw	a5,-312(s0)
80000fec:	87b2                	mv	a5,a2
80000fee:	8fd9                	or	a5,a5,a4
80000ff0:	ecf42623          	sw	a5,-308(s0)
E:\NucleiStudio_Workspace\e203cifar10_test\hbird_sdk\NMSIS\Core\Include/core_feature_base.h:499
    return full;
80000ff4:	ec842603          	lw	a2,-312(s0)
80000ff8:	ecc42683          	lw	a3,-308(s0)
main():
E:\NucleiStudio_Workspace\e203cifar10_test\Debug/../application/main.c:120
                          CONV1_STRIDE, conv1_bias, CONV1_BIAS_LSHIFT, CONV1_OUT_RSHIFT, img_buffer1, CONV1_OUT_DIM,
                          (q15_t *) col_buffer, NULL);
  BENCH_END(riscv_convolve_HWC_q7_RGB);
80000ffc:	87018793          	addi	a5,gp,-1936 # 90009020 <end_cycle>
80001000:	c390                	sw	a2,0(a5)
80001002:	c3d4                	sw	a3,4(a5)
80001004:	87018793          	addi	a5,gp,-1936 # 90009020 <end_cycle>
80001008:	4390                	lw	a2,0(a5)
8000100a:	43d4                	lw	a3,4(a5)
8000100c:	86818793          	addi	a5,gp,-1944 # 90009018 <start_cycle>
80001010:	4398                	lw	a4,0(a5)
80001012:	43dc                	lw	a5,4(a5)
80001014:	40e60833          	sub	a6,a2,a4
80001018:	85c2                	mv	a1,a6
8000101a:	00b635b3          	sltu	a1,a2,a1
8000101e:	40f688b3          	sub	a7,a3,a5
80001022:	40b887b3          	sub	a5,a7,a1
80001026:	88be                	mv	a7,a5
80001028:	8642                	mv	a2,a6
8000102a:	86c6                	mv	a3,a7
8000102c:	87818793          	addi	a5,gp,-1928 # 90009028 <cycle>
80001030:	c390                	sw	a2,0(a5)
80001032:	c3d4                	sw	a3,4(a5)
80001034:	87818793          	addi	a5,gp,-1928 # 90009028 <cycle>
80001038:	4398                	lw	a4,0(a5)
8000103a:	43dc                	lw	a5,4(a5)
8000103c:	863a                	mv	a2,a4
8000103e:	86be                	mv	a3,a5
80001040:	00008597          	auipc	a1,0x8
80001044:	a9c58593          	addi	a1,a1,-1380 # 80008adc <__trunctfdf2+0x4e2>
80001048:	00008517          	auipc	a0,0x8
8000104c:	a8450513          	addi	a0,a0,-1404 # 80008acc <__trunctfdf2+0x4d2>
80001050:	407040ef          	jal	ra,80005c56 <iprintf>
__get_rv_cycle():
E:\NucleiStudio_Workspace\e203cifar10_test\hbird_sdk\NMSIS\Core\Include/core_feature_base.h:492
    high0 = __RV_CSR_READ(CSR_MCYCLEH);
80001054:	b80027f3          	csrr	a5,mcycleh
80001058:	80be                	mv	ra,a5
8000105a:	8786                	mv	a5,ra
8000105c:	e6f42c23          	sw	a5,-392(s0)
E:\NucleiStudio_Workspace\e203cifar10_test\hbird_sdk\NMSIS\Core\Include/core_feature_base.h:493
    low = __RV_CSR_READ(CSR_MCYCLE);
80001060:	b00027f3          	csrr	a5,mcycle
80001064:	80be                	mv	ra,a5
80001066:	8786                	mv	a5,ra
80001068:	e6f42a23          	sw	a5,-396(s0)
E:\NucleiStudio_Workspace\e203cifar10_test\hbird_sdk\NMSIS\Core\Include/core_feature_base.h:494
    high = __RV_CSR_READ(CSR_MCYCLEH);
8000106c:	b80027f3          	csrr	a5,mcycleh
80001070:	80be                	mv	ra,a5
80001072:	8786                	mv	a5,ra
80001074:	e6f42823          	sw	a5,-400(s0)
E:\NucleiStudio_Workspace\e203cifar10_test\hbird_sdk\NMSIS\Core\Include/core_feature_base.h:495
    if (high0 != high) {
80001078:	e7842703          	lw	a4,-392(s0)
8000107c:	e7042783          	lw	a5,-400(s0)
80001080:	00f70863          	beq	a4,a5,80001090 <main+0x62c>
E:\NucleiStudio_Workspace\e203cifar10_test\hbird_sdk\NMSIS\Core\Include/core_feature_base.h:496
        low = __RV_CSR_READ(CSR_MCYCLE);
80001084:	b00027f3          	csrr	a5,mcycle
80001088:	80be                	mv	ra,a5
8000108a:	8786                	mv	a5,ra
8000108c:	e6f42a23          	sw	a5,-396(s0)
E:\NucleiStudio_Workspace\e203cifar10_test\hbird_sdk\NMSIS\Core\Include/core_feature_base.h:498
    full = (((uint64_t)high) << 32) | low;
80001090:	e7042783          	lw	a5,-400(s0)
80001094:	baf42823          	sw	a5,-1104(s0)
80001098:	ba042a23          	sw	zero,-1100(s0)
8000109c:	bb042783          	lw	a5,-1104(s0)
800010a0:	00079793          	slli	a5,a5,0x0
800010a4:	baf42623          	sw	a5,-1108(s0)
800010a8:	ba042423          	sw	zero,-1112(s0)
800010ac:	e7442783          	lw	a5,-396(s0)
800010b0:	baf42023          	sw	a5,-1120(s0)
800010b4:	ba042223          	sw	zero,-1116(s0)
800010b8:	ba842583          	lw	a1,-1112(s0)
800010bc:	bac42603          	lw	a2,-1108(s0)
800010c0:	87ae                	mv	a5,a1
800010c2:	ba042683          	lw	a3,-1120(s0)
800010c6:	ba442703          	lw	a4,-1116(s0)
800010ca:	8536                	mv	a0,a3
800010cc:	8fc9                	or	a5,a5,a0
800010ce:	ecf42823          	sw	a5,-304(s0)
800010d2:	87b2                	mv	a5,a2
800010d4:	8fd9                	or	a5,a5,a4
800010d6:	ecf42a23          	sw	a5,-300(s0)
E:\NucleiStudio_Workspace\e203cifar10_test\hbird_sdk\NMSIS\Core\Include/core_feature_base.h:499
    return full;
800010da:	ed042603          	lw	a2,-304(s0)
800010de:	ed442683          	lw	a3,-300(s0)
main():
E:\NucleiStudio_Workspace\e203cifar10_test\Debug/../application/main.c:122

  BENCH_START(riscv_relu_q7);
800010e2:	86818793          	addi	a5,gp,-1944 # 90009018 <start_cycle>
800010e6:	c390                	sw	a2,0(a5)
800010e8:	c3d4                	sw	a3,4(a5)
800010ea:	88018793          	addi	a5,gp,-1920 # 90009030 <bench_ercd>
800010ee:	0007a023          	sw	zero,0(a5)
E:\NucleiStudio_Workspace\e203cifar10_test\Debug/../application/main.c:123
  riscv_relu_q7(img_buffer1, CONV1_OUT_DIM * CONV1_OUT_DIM * CONV1_OUT_CH);
800010f2:	65a1                	lui	a1,0x8
800010f4:	fb442503          	lw	a0,-76(s0)
800010f8:	516010ef          	jal	ra,8000260e <riscv_relu_q7>
__get_rv_cycle():
E:\NucleiStudio_Workspace\e203cifar10_test\hbird_sdk\NMSIS\Core\Include/core_feature_base.h:492
    high0 = __RV_CSR_READ(CSR_MCYCLEH);
800010fc:	b80027f3          	csrr	a5,mcycleh
80001100:	80be                	mv	ra,a5
80001102:	8786                	mv	a5,ra
80001104:	e6f42623          	sw	a5,-404(s0)
E:\NucleiStudio_Workspace\e203cifar10_test\hbird_sdk\NMSIS\Core\Include/core_feature_base.h:493
    low = __RV_CSR_READ(CSR_MCYCLE);
80001108:	b00027f3          	csrr	a5,mcycle
8000110c:	80be                	mv	ra,a5
8000110e:	8786                	mv	a5,ra
80001110:	e6f42423          	sw	a5,-408(s0)
E:\NucleiStudio_Workspace\e203cifar10_test\hbird_sdk\NMSIS\Core\Include/core_feature_base.h:494
    high = __RV_CSR_READ(CSR_MCYCLEH);
80001114:	b80027f3          	csrr	a5,mcycleh
80001118:	80be                	mv	ra,a5
8000111a:	8786                	mv	a5,ra
8000111c:	e6f42223          	sw	a5,-412(s0)
E:\NucleiStudio_Workspace\e203cifar10_test\hbird_sdk\NMSIS\Core\Include/core_feature_base.h:495
    if (high0 != high) {
80001120:	e6c42703          	lw	a4,-404(s0)
80001124:	e6442783          	lw	a5,-412(s0)
80001128:	00f70863          	beq	a4,a5,80001138 <main+0x6d4>
E:\NucleiStudio_Workspace\e203cifar10_test\hbird_sdk\NMSIS\Core\Include/core_feature_base.h:496
        low = __RV_CSR_READ(CSR_MCYCLE);
8000112c:	b00027f3          	csrr	a5,mcycle
80001130:	80be                	mv	ra,a5
80001132:	8786                	mv	a5,ra
80001134:	e6f42423          	sw	a5,-408(s0)
E:\NucleiStudio_Workspace\e203cifar10_test\hbird_sdk\NMSIS\Core\Include/core_feature_base.h:498
    full = (((uint64_t)high) << 32) | low;
80001138:	e6442783          	lw	a5,-412(s0)
8000113c:	bcf42423          	sw	a5,-1080(s0)
80001140:	bc042623          	sw	zero,-1076(s0)
80001144:	bc842783          	lw	a5,-1080(s0)
80001148:	00079793          	slli	a5,a5,0x0
8000114c:	bcf42223          	sw	a5,-1084(s0)
80001150:	bc042023          	sw	zero,-1088(s0)
80001154:	e6842783          	lw	a5,-408(s0)
80001158:	baf42c23          	sw	a5,-1096(s0)
8000115c:	ba042e23          	sw	zero,-1092(s0)
80001160:	bc042583          	lw	a1,-1088(s0)
80001164:	bc442603          	lw	a2,-1084(s0)
80001168:	87ae                	mv	a5,a1
8000116a:	bb842683          	lw	a3,-1096(s0)
8000116e:	bbc42703          	lw	a4,-1092(s0)
80001172:	8536                	mv	a0,a3
80001174:	8fc9                	or	a5,a5,a0
80001176:	ecf42c23          	sw	a5,-296(s0)
8000117a:	87b2                	mv	a5,a2
8000117c:	8fd9                	or	a5,a5,a4
8000117e:	ecf42e23          	sw	a5,-292(s0)
E:\NucleiStudio_Workspace\e203cifar10_test\hbird_sdk\NMSIS\Core\Include/core_feature_base.h:499
    return full;
80001182:	ed842603          	lw	a2,-296(s0)
80001186:	edc42683          	lw	a3,-292(s0)
main():
E:\NucleiStudio_Workspace\e203cifar10_test\Debug/../application/main.c:124
  BENCH_END(riscv_relu_q7);
8000118a:	87018793          	addi	a5,gp,-1936 # 90009020 <end_cycle>
8000118e:	c390                	sw	a2,0(a5)
80001190:	c3d4                	sw	a3,4(a5)
80001192:	87018793          	addi	a5,gp,-1936 # 90009020 <end_cycle>
80001196:	4390                	lw	a2,0(a5)
80001198:	43d4                	lw	a3,4(a5)
8000119a:	86818793          	addi	a5,gp,-1944 # 90009018 <start_cycle>
8000119e:	4398                	lw	a4,0(a5)
800011a0:	43dc                	lw	a5,4(a5)
800011a2:	40e60833          	sub	a6,a2,a4
800011a6:	85c2                	mv	a1,a6
800011a8:	00b635b3          	sltu	a1,a2,a1
800011ac:	40f688b3          	sub	a7,a3,a5
800011b0:	40b887b3          	sub	a5,a7,a1
800011b4:	88be                	mv	a7,a5
800011b6:	8642                	mv	a2,a6
800011b8:	86c6                	mv	a3,a7
800011ba:	87818793          	addi	a5,gp,-1928 # 90009028 <cycle>
800011be:	c390                	sw	a2,0(a5)
800011c0:	c3d4                	sw	a3,4(a5)
800011c2:	87818793          	addi	a5,gp,-1928 # 90009028 <cycle>
800011c6:	4398                	lw	a4,0(a5)
800011c8:	43dc                	lw	a5,4(a5)
800011ca:	863a                	mv	a2,a4
800011cc:	86be                	mv	a3,a5
800011ce:	00008597          	auipc	a1,0x8
800011d2:	92a58593          	addi	a1,a1,-1750 # 80008af8 <__trunctfdf2+0x4fe>
800011d6:	00008517          	auipc	a0,0x8
800011da:	8f650513          	addi	a0,a0,-1802 # 80008acc <__trunctfdf2+0x4d2>
800011de:	279040ef          	jal	ra,80005c56 <iprintf>
__get_rv_cycle():
E:\NucleiStudio_Workspace\e203cifar10_test\hbird_sdk\NMSIS\Core\Include/core_feature_base.h:492
    high0 = __RV_CSR_READ(CSR_MCYCLEH);
800011e2:	b80027f3          	csrr	a5,mcycleh
800011e6:	80be                	mv	ra,a5
800011e8:	8786                	mv	a5,ra
800011ea:	e6f42023          	sw	a5,-416(s0)
E:\NucleiStudio_Workspace\e203cifar10_test\hbird_sdk\NMSIS\Core\Include/core_feature_base.h:493
    low = __RV_CSR_READ(CSR_MCYCLE);
800011ee:	b00027f3          	csrr	a5,mcycle
800011f2:	80be                	mv	ra,a5
800011f4:	8786                	mv	a5,ra
800011f6:	e4f42e23          	sw	a5,-420(s0)
E:\NucleiStudio_Workspace\e203cifar10_test\hbird_sdk\NMSIS\Core\Include/core_feature_base.h:494
    high = __RV_CSR_READ(CSR_MCYCLEH);
800011fa:	b80027f3          	csrr	a5,mcycleh
800011fe:	80be                	mv	ra,a5
80001200:	8786                	mv	a5,ra
80001202:	e4f42c23          	sw	a5,-424(s0)
E:\NucleiStudio_Workspace\e203cifar10_test\hbird_sdk\NMSIS\Core\Include/core_feature_base.h:495
    if (high0 != high) {
80001206:	e6042703          	lw	a4,-416(s0)
8000120a:	e5842783          	lw	a5,-424(s0)
8000120e:	00f70863          	beq	a4,a5,8000121e <main+0x7ba>
E:\NucleiStudio_Workspace\e203cifar10_test\hbird_sdk\NMSIS\Core\Include/core_feature_base.h:496
        low = __RV_CSR_READ(CSR_MCYCLE);
80001212:	b00027f3          	csrr	a5,mcycle
80001216:	80be                	mv	ra,a5
80001218:	8786                	mv	a5,ra
8000121a:	e4f42e23          	sw	a5,-420(s0)
E:\NucleiStudio_Workspace\e203cifar10_test\hbird_sdk\NMSIS\Core\Include/core_feature_base.h:498
    full = (((uint64_t)high) << 32) | low;
8000121e:	e5842783          	lw	a5,-424(s0)
80001222:	bef42023          	sw	a5,-1056(s0)
80001226:	be042223          	sw	zero,-1052(s0)
8000122a:	be042783          	lw	a5,-1056(s0)
8000122e:	00079793          	slli	a5,a5,0x0
80001232:	bcf42e23          	sw	a5,-1060(s0)
80001236:	bc042c23          	sw	zero,-1064(s0)
8000123a:	e5c42783          	lw	a5,-420(s0)
8000123e:	bcf42823          	sw	a5,-1072(s0)
80001242:	bc042a23          	sw	zero,-1068(s0)
80001246:	bd842583          	lw	a1,-1064(s0)
8000124a:	bdc42603          	lw	a2,-1060(s0)
8000124e:	87ae                	mv	a5,a1
80001250:	bd042683          	lw	a3,-1072(s0)
80001254:	bd442703          	lw	a4,-1068(s0)
80001258:	8536                	mv	a0,a3
8000125a:	8fc9                	or	a5,a5,a0
8000125c:	eef42023          	sw	a5,-288(s0)
80001260:	87b2                	mv	a5,a2
80001262:	8fd9                	or	a5,a5,a4
80001264:	eef42223          	sw	a5,-284(s0)
E:\NucleiStudio_Workspace\e203cifar10_test\hbird_sdk\NMSIS\Core\Include/core_feature_base.h:499
    return full;
80001268:	ee042603          	lw	a2,-288(s0)
8000126c:	ee442683          	lw	a3,-284(s0)
main():
E:\NucleiStudio_Workspace\e203cifar10_test\Debug/../application/main.c:126

  BENCH_START(riscv_maxpool_q7_HWC);
80001270:	86818793          	addi	a5,gp,-1944 # 90009018 <start_cycle>
80001274:	c390                	sw	a2,0(a5)
80001276:	c3d4                	sw	a3,4(a5)
80001278:	88018793          	addi	a5,gp,-1920 # 90009030 <bench_ercd>
8000127c:	0007a023          	sw	zero,0(a5)
E:\NucleiStudio_Workspace\e203cifar10_test\Debug/../application/main.c:128
  // pool1 img_buffer1 -> img_buffer2
  riscv_maxpool_q7_HWC(img_buffer1, CONV1_OUT_DIM, CONV1_OUT_CH, POOL1_KER_DIM,
80001280:	fb042783          	lw	a5,-80(s0)
80001284:	c03e                	sw	a5,0(sp)
80001286:	4881                	li	a7,0
80001288:	4841                	li	a6,16
8000128a:	4789                	li	a5,2
8000128c:	4701                	li	a4,0
8000128e:	468d                	li	a3,3
80001290:	02000613          	li	a2,32
80001294:	02000593          	li	a1,32
80001298:	fb442503          	lw	a0,-76(s0)
8000129c:	69e010ef          	jal	ra,8000293a <riscv_maxpool_q7_HWC>
__get_rv_cycle():
E:\NucleiStudio_Workspace\e203cifar10_test\hbird_sdk\NMSIS\Core\Include/core_feature_base.h:492
    high0 = __RV_CSR_READ(CSR_MCYCLEH);
800012a0:	b80027f3          	csrr	a5,mcycleh
800012a4:	80be                	mv	ra,a5
800012a6:	8786                	mv	a5,ra
800012a8:	e4f42a23          	sw	a5,-428(s0)
E:\NucleiStudio_Workspace\e203cifar10_test\hbird_sdk\NMSIS\Core\Include/core_feature_base.h:493
    low = __RV_CSR_READ(CSR_MCYCLE);
800012ac:	b00027f3          	csrr	a5,mcycle
800012b0:	80be                	mv	ra,a5
800012b2:	8786                	mv	a5,ra
800012b4:	e4f42823          	sw	a5,-432(s0)
E:\NucleiStudio_Workspace\e203cifar10_test\hbird_sdk\NMSIS\Core\Include/core_feature_base.h:494
    high = __RV_CSR_READ(CSR_MCYCLEH);
800012b8:	b80027f3          	csrr	a5,mcycleh
800012bc:	80be                	mv	ra,a5
800012be:	8786                	mv	a5,ra
800012c0:	e4f42623          	sw	a5,-436(s0)
E:\NucleiStudio_Workspace\e203cifar10_test\hbird_sdk\NMSIS\Core\Include/core_feature_base.h:495
    if (high0 != high) {
800012c4:	e5442703          	lw	a4,-428(s0)
800012c8:	e4c42783          	lw	a5,-436(s0)
800012cc:	00f70863          	beq	a4,a5,800012dc <main+0x878>
E:\NucleiStudio_Workspace\e203cifar10_test\hbird_sdk\NMSIS\Core\Include/core_feature_base.h:496
        low = __RV_CSR_READ(CSR_MCYCLE);
800012d0:	b00027f3          	csrr	a5,mcycle
800012d4:	80be                	mv	ra,a5
800012d6:	8786                	mv	a5,ra
800012d8:	e4f42823          	sw	a5,-432(s0)
E:\NucleiStudio_Workspace\e203cifar10_test\hbird_sdk\NMSIS\Core\Include/core_feature_base.h:498
    full = (((uint64_t)high) << 32) | low;
800012dc:	e4c42783          	lw	a5,-436(s0)
800012e0:	bef42c23          	sw	a5,-1032(s0)
800012e4:	be042e23          	sw	zero,-1028(s0)
800012e8:	bf842783          	lw	a5,-1032(s0)
800012ec:	00079793          	slli	a5,a5,0x0
800012f0:	bef42a23          	sw	a5,-1036(s0)
800012f4:	be042823          	sw	zero,-1040(s0)
800012f8:	e5042783          	lw	a5,-432(s0)
800012fc:	bef42423          	sw	a5,-1048(s0)
80001300:	be042623          	sw	zero,-1044(s0)
80001304:	bf042583          	lw	a1,-1040(s0)
80001308:	bf442603          	lw	a2,-1036(s0)
8000130c:	87ae                	mv	a5,a1
8000130e:	be842683          	lw	a3,-1048(s0)
80001312:	bec42703          	lw	a4,-1044(s0)
80001316:	8536                	mv	a0,a3
80001318:	8fc9                	or	a5,a5,a0
8000131a:	eef42423          	sw	a5,-280(s0)
8000131e:	87b2                	mv	a5,a2
80001320:	8fd9                	or	a5,a5,a4
80001322:	eef42623          	sw	a5,-276(s0)
E:\NucleiStudio_Workspace\e203cifar10_test\hbird_sdk\NMSIS\Core\Include/core_feature_base.h:499
    return full;
80001326:	ee842603          	lw	a2,-280(s0)
8000132a:	eec42683          	lw	a3,-276(s0)
main():
E:\NucleiStudio_Workspace\e203cifar10_test\Debug/../application/main.c:130
                     POOL1_PADDING, POOL1_STRIDE, POOL1_OUT_DIM, NULL, img_buffer2);
  BENCH_END(riscv_maxpool_q7_HWC);
8000132e:	87018793          	addi	a5,gp,-1936 # 90009020 <end_cycle>
80001332:	c390                	sw	a2,0(a5)
80001334:	c3d4                	sw	a3,4(a5)
80001336:	87018793          	addi	a5,gp,-1936 # 90009020 <end_cycle>
8000133a:	4390                	lw	a2,0(a5)
8000133c:	43d4                	lw	a3,4(a5)
8000133e:	86818793          	addi	a5,gp,-1944 # 90009018 <start_cycle>
80001342:	4398                	lw	a4,0(a5)
80001344:	43dc                	lw	a5,4(a5)
80001346:	40e60833          	sub	a6,a2,a4
8000134a:	85c2                	mv	a1,a6
8000134c:	00b635b3          	sltu	a1,a2,a1
80001350:	40f688b3          	sub	a7,a3,a5
80001354:	40b887b3          	sub	a5,a7,a1
80001358:	88be                	mv	a7,a5
8000135a:	8642                	mv	a2,a6
8000135c:	86c6                	mv	a3,a7
8000135e:	87818793          	addi	a5,gp,-1928 # 90009028 <cycle>
80001362:	c390                	sw	a2,0(a5)
80001364:	c3d4                	sw	a3,4(a5)
80001366:	87818793          	addi	a5,gp,-1928 # 90009028 <cycle>
8000136a:	4398                	lw	a4,0(a5)
8000136c:	43dc                	lw	a5,4(a5)
8000136e:	863a                	mv	a2,a4
80001370:	86be                	mv	a3,a5
80001372:	00007597          	auipc	a1,0x7
80001376:	79658593          	addi	a1,a1,1942 # 80008b08 <__trunctfdf2+0x50e>
8000137a:	00007517          	auipc	a0,0x7
8000137e:	75250513          	addi	a0,a0,1874 # 80008acc <__trunctfdf2+0x4d2>
80001382:	0d5040ef          	jal	ra,80005c56 <iprintf>
__get_rv_cycle():
E:\NucleiStudio_Workspace\e203cifar10_test\hbird_sdk\NMSIS\Core\Include/core_feature_base.h:492
    high0 = __RV_CSR_READ(CSR_MCYCLEH);
80001386:	b80027f3          	csrr	a5,mcycleh
8000138a:	80be                	mv	ra,a5
8000138c:	8786                	mv	a5,ra
8000138e:	e4f42423          	sw	a5,-440(s0)
E:\NucleiStudio_Workspace\e203cifar10_test\hbird_sdk\NMSIS\Core\Include/core_feature_base.h:493
    low = __RV_CSR_READ(CSR_MCYCLE);
80001392:	b00027f3          	csrr	a5,mcycle
80001396:	80be                	mv	ra,a5
80001398:	8786                	mv	a5,ra
8000139a:	e4f42223          	sw	a5,-444(s0)
E:\NucleiStudio_Workspace\e203cifar10_test\hbird_sdk\NMSIS\Core\Include/core_feature_base.h:494
    high = __RV_CSR_READ(CSR_MCYCLEH);
8000139e:	b80027f3          	csrr	a5,mcycleh
800013a2:	80be                	mv	ra,a5
800013a4:	8786                	mv	a5,ra
800013a6:	e4f42023          	sw	a5,-448(s0)
E:\NucleiStudio_Workspace\e203cifar10_test\hbird_sdk\NMSIS\Core\Include/core_feature_base.h:495
    if (high0 != high) {
800013aa:	e4842703          	lw	a4,-440(s0)
800013ae:	e4042783          	lw	a5,-448(s0)
800013b2:	00f70863          	beq	a4,a5,800013c2 <main+0x95e>
E:\NucleiStudio_Workspace\e203cifar10_test\hbird_sdk\NMSIS\Core\Include/core_feature_base.h:496
        low = __RV_CSR_READ(CSR_MCYCLE);
800013b6:	b00027f3          	csrr	a5,mcycle
800013ba:	80be                	mv	ra,a5
800013bc:	8786                	mv	a5,ra
800013be:	e4f42223          	sw	a5,-444(s0)
E:\NucleiStudio_Workspace\e203cifar10_test\hbird_sdk\NMSIS\Core\Include/core_feature_base.h:498
    full = (((uint64_t)high) << 32) | low;
800013c2:	e4042783          	lw	a5,-448(s0)
800013c6:	c0f42823          	sw	a5,-1008(s0)
800013ca:	c0042a23          	sw	zero,-1004(s0)
800013ce:	c1042783          	lw	a5,-1008(s0)
800013d2:	00079793          	slli	a5,a5,0x0
800013d6:	c0f42623          	sw	a5,-1012(s0)
800013da:	c0042423          	sw	zero,-1016(s0)
800013de:	e4442783          	lw	a5,-444(s0)
800013e2:	c0f42023          	sw	a5,-1024(s0)
800013e6:	c0042223          	sw	zero,-1020(s0)
800013ea:	c0842583          	lw	a1,-1016(s0)
800013ee:	c0c42603          	lw	a2,-1012(s0)
800013f2:	87ae                	mv	a5,a1
800013f4:	c0042683          	lw	a3,-1024(s0)
800013f8:	c0442703          	lw	a4,-1020(s0)
800013fc:	8536                	mv	a0,a3
800013fe:	8fc9                	or	a5,a5,a0
80001400:	eef42823          	sw	a5,-272(s0)
80001404:	87b2                	mv	a5,a2
80001406:	8fd9                	or	a5,a5,a4
80001408:	eef42a23          	sw	a5,-268(s0)
E:\NucleiStudio_Workspace\e203cifar10_test\hbird_sdk\NMSIS\Core\Include/core_feature_base.h:499
    return full;
8000140c:	ef042603          	lw	a2,-272(s0)
80001410:	ef442683          	lw	a3,-268(s0)
main():
E:\NucleiStudio_Workspace\e203cifar10_test\Debug/../application/main.c:132

  BENCH_START(riscv_convolve_HWC_q7_fast);
80001414:	86818793          	addi	a5,gp,-1944 # 90009018 <start_cycle>
80001418:	c390                	sw	a2,0(a5)
8000141a:	c3d4                	sw	a3,4(a5)
8000141c:	88018793          	addi	a5,gp,-1920 # 90009030 <bench_ercd>
80001420:	0007a023          	sw	zero,0(a5)
E:\NucleiStudio_Workspace\e203cifar10_test\Debug/../application/main.c:134
  // conv2 img_buffer2 -> img_buffer1
  riscv_convolve_HWC_q7_fast(img_buffer2, CONV2_IM_DIM, CONV2_IM_CH, conv2_wt, CONV2_OUT_CH, CONV2_KER_DIM,
80001424:	cc02                	sw	zero,24(sp)
80001426:	10008797          	auipc	a5,0x10008
8000142a:	cc278793          	addi	a5,a5,-830 # 900090e8 <col_buffer>
8000142e:	ca3e                	sw	a5,20(sp)
80001430:	47c1                	li	a5,16
80001432:	c83e                	sw	a5,16(sp)
80001434:	fb442783          	lw	a5,-76(s0)
80001438:	c63e                	sw	a5,12(sp)
8000143a:	47a5                	li	a5,9
8000143c:	c43e                	sw	a5,8(sp)
8000143e:	4791                	li	a5,4
80001440:	c23e                	sw	a5,4(sp)
80001442:	10002797          	auipc	a5,0x10002
80001446:	73e78793          	addi	a5,a5,1854 # 90003b80 <conv2_bias>
8000144a:	c03e                	sw	a5,0(sp)
8000144c:	4885                	li	a7,1
8000144e:	4809                	li	a6,2
80001450:	4795                	li	a5,5
80001452:	4741                	li	a4,16
80001454:	0ffff697          	auipc	a3,0xffff
80001458:	52c68693          	addi	a3,a3,1324 # 90000980 <conv2_wt>
8000145c:	02000613          	li	a2,32
80001460:	45c1                	li	a1,16
80001462:	fb042503          	lw	a0,-80(s0)
80001466:	62b000ef          	jal	ra,80002290 <riscv_convolve_HWC_q7_fast>
__get_rv_cycle():
E:\NucleiStudio_Workspace\e203cifar10_test\hbird_sdk\NMSIS\Core\Include/core_feature_base.h:492
    high0 = __RV_CSR_READ(CSR_MCYCLEH);
8000146a:	b80027f3          	csrr	a5,mcycleh
8000146e:	80be                	mv	ra,a5
80001470:	8786                	mv	a5,ra
80001472:	e2f42e23          	sw	a5,-452(s0)
E:\NucleiStudio_Workspace\e203cifar10_test\hbird_sdk\NMSIS\Core\Include/core_feature_base.h:493
    low = __RV_CSR_READ(CSR_MCYCLE);
80001476:	b00027f3          	csrr	a5,mcycle
8000147a:	80be                	mv	ra,a5
8000147c:	8786                	mv	a5,ra
8000147e:	e2f42c23          	sw	a5,-456(s0)
E:\NucleiStudio_Workspace\e203cifar10_test\hbird_sdk\NMSIS\Core\Include/core_feature_base.h:494
    high = __RV_CSR_READ(CSR_MCYCLEH);
80001482:	b80027f3          	csrr	a5,mcycleh
80001486:	80be                	mv	ra,a5
80001488:	8786                	mv	a5,ra
8000148a:	e2f42a23          	sw	a5,-460(s0)
E:\NucleiStudio_Workspace\e203cifar10_test\hbird_sdk\NMSIS\Core\Include/core_feature_base.h:495
    if (high0 != high) {
8000148e:	e3c42703          	lw	a4,-452(s0)
80001492:	e3442783          	lw	a5,-460(s0)
80001496:	00f70863          	beq	a4,a5,800014a6 <main+0xa42>
E:\NucleiStudio_Workspace\e203cifar10_test\hbird_sdk\NMSIS\Core\Include/core_feature_base.h:496
        low = __RV_CSR_READ(CSR_MCYCLE);
8000149a:	b00027f3          	csrr	a5,mcycle
8000149e:	80be                	mv	ra,a5
800014a0:	8786                	mv	a5,ra
800014a2:	e2f42c23          	sw	a5,-456(s0)
E:\NucleiStudio_Workspace\e203cifar10_test\hbird_sdk\NMSIS\Core\Include/core_feature_base.h:498
    full = (((uint64_t)high) << 32) | low;
800014a6:	e3442783          	lw	a5,-460(s0)
800014aa:	c2f42423          	sw	a5,-984(s0)
800014ae:	c2042623          	sw	zero,-980(s0)
800014b2:	c2842783          	lw	a5,-984(s0)
800014b6:	00079793          	slli	a5,a5,0x0
800014ba:	c2f42223          	sw	a5,-988(s0)
800014be:	c2042023          	sw	zero,-992(s0)
800014c2:	e3842783          	lw	a5,-456(s0)
800014c6:	c0f42c23          	sw	a5,-1000(s0)
800014ca:	c0042e23          	sw	zero,-996(s0)
800014ce:	c2042583          	lw	a1,-992(s0)
800014d2:	c2442603          	lw	a2,-988(s0)
800014d6:	87ae                	mv	a5,a1
800014d8:	c1842683          	lw	a3,-1000(s0)
800014dc:	c1c42703          	lw	a4,-996(s0)
800014e0:	8536                	mv	a0,a3
800014e2:	8fc9                	or	a5,a5,a0
800014e4:	eef42c23          	sw	a5,-264(s0)
800014e8:	87b2                	mv	a5,a2
800014ea:	8fd9                	or	a5,a5,a4
800014ec:	eef42e23          	sw	a5,-260(s0)
E:\NucleiStudio_Workspace\e203cifar10_test\hbird_sdk\NMSIS\Core\Include/core_feature_base.h:499
    return full;
800014f0:	ef842603          	lw	a2,-264(s0)
800014f4:	efc42683          	lw	a3,-260(s0)
main():
E:\NucleiStudio_Workspace\e203cifar10_test\Debug/../application/main.c:137
                           CONV2_PADDING, CONV2_STRIDE, conv2_bias, CONV2_BIAS_LSHIFT, CONV2_OUT_RSHIFT, img_buffer1,
                           CONV2_OUT_DIM, (q15_t *) col_buffer, NULL);
  BENCH_END(riscv_convolve_HWC_q7_fast);
800014f8:	87018793          	addi	a5,gp,-1936 # 90009020 <end_cycle>
800014fc:	c390                	sw	a2,0(a5)
800014fe:	c3d4                	sw	a3,4(a5)
80001500:	87018793          	addi	a5,gp,-1936 # 90009020 <end_cycle>
80001504:	4390                	lw	a2,0(a5)
80001506:	43d4                	lw	a3,4(a5)
80001508:	86818793          	addi	a5,gp,-1944 # 90009018 <start_cycle>
8000150c:	4398                	lw	a4,0(a5)
8000150e:	43dc                	lw	a5,4(a5)
80001510:	40e60833          	sub	a6,a2,a4
80001514:	85c2                	mv	a1,a6
80001516:	00b635b3          	sltu	a1,a2,a1
8000151a:	40f688b3          	sub	a7,a3,a5
8000151e:	40b887b3          	sub	a5,a7,a1
80001522:	88be                	mv	a7,a5
80001524:	8642                	mv	a2,a6
80001526:	86c6                	mv	a3,a7
80001528:	87818793          	addi	a5,gp,-1928 # 90009028 <cycle>
8000152c:	c390                	sw	a2,0(a5)
8000152e:	c3d4                	sw	a3,4(a5)
80001530:	87818793          	addi	a5,gp,-1928 # 90009028 <cycle>
80001534:	4398                	lw	a4,0(a5)
80001536:	43dc                	lw	a5,4(a5)
80001538:	863a                	mv	a2,a4
8000153a:	86be                	mv	a3,a5
8000153c:	00007597          	auipc	a1,0x7
80001540:	5e458593          	addi	a1,a1,1508 # 80008b20 <__trunctfdf2+0x526>
80001544:	00007517          	auipc	a0,0x7
80001548:	58850513          	addi	a0,a0,1416 # 80008acc <__trunctfdf2+0x4d2>
8000154c:	70a040ef          	jal	ra,80005c56 <iprintf>
__get_rv_cycle():
E:\NucleiStudio_Workspace\e203cifar10_test\hbird_sdk\NMSIS\Core\Include/core_feature_base.h:492
    high0 = __RV_CSR_READ(CSR_MCYCLEH);
80001550:	b80027f3          	csrr	a5,mcycleh
80001554:	80be                	mv	ra,a5
80001556:	8786                	mv	a5,ra
80001558:	e2f42823          	sw	a5,-464(s0)
E:\NucleiStudio_Workspace\e203cifar10_test\hbird_sdk\NMSIS\Core\Include/core_feature_base.h:493
    low = __RV_CSR_READ(CSR_MCYCLE);
8000155c:	b00027f3          	csrr	a5,mcycle
80001560:	80be                	mv	ra,a5
80001562:	8786                	mv	a5,ra
80001564:	e2f42623          	sw	a5,-468(s0)
E:\NucleiStudio_Workspace\e203cifar10_test\hbird_sdk\NMSIS\Core\Include/core_feature_base.h:494
    high = __RV_CSR_READ(CSR_MCYCLEH);
80001568:	b80027f3          	csrr	a5,mcycleh
8000156c:	80be                	mv	ra,a5
8000156e:	8786                	mv	a5,ra
80001570:	e2f42423          	sw	a5,-472(s0)
E:\NucleiStudio_Workspace\e203cifar10_test\hbird_sdk\NMSIS\Core\Include/core_feature_base.h:495
    if (high0 != high) {
80001574:	e3042703          	lw	a4,-464(s0)
80001578:	e2842783          	lw	a5,-472(s0)
8000157c:	00f70863          	beq	a4,a5,8000158c <main+0xb28>
E:\NucleiStudio_Workspace\e203cifar10_test\hbird_sdk\NMSIS\Core\Include/core_feature_base.h:496
        low = __RV_CSR_READ(CSR_MCYCLE);
80001580:	b00027f3          	csrr	a5,mcycle
80001584:	80be                	mv	ra,a5
80001586:	8786                	mv	a5,ra
80001588:	e2f42623          	sw	a5,-468(s0)
E:\NucleiStudio_Workspace\e203cifar10_test\hbird_sdk\NMSIS\Core\Include/core_feature_base.h:498
    full = (((uint64_t)high) << 32) | low;
8000158c:	e2842783          	lw	a5,-472(s0)
80001590:	c4f42023          	sw	a5,-960(s0)
80001594:	c4042223          	sw	zero,-956(s0)
80001598:	c4042783          	lw	a5,-960(s0)
8000159c:	00079793          	slli	a5,a5,0x0
800015a0:	c2f42e23          	sw	a5,-964(s0)
800015a4:	c2042c23          	sw	zero,-968(s0)
800015a8:	e2c42783          	lw	a5,-468(s0)
800015ac:	c2f42823          	sw	a5,-976(s0)
800015b0:	c2042a23          	sw	zero,-972(s0)
800015b4:	c3842583          	lw	a1,-968(s0)
800015b8:	c3c42603          	lw	a2,-964(s0)
800015bc:	87ae                	mv	a5,a1
800015be:	c3042683          	lw	a3,-976(s0)
800015c2:	c3442703          	lw	a4,-972(s0)
800015c6:	8536                	mv	a0,a3
800015c8:	8fc9                	or	a5,a5,a0
800015ca:	f0f42023          	sw	a5,-256(s0)
800015ce:	87b2                	mv	a5,a2
800015d0:	8fd9                	or	a5,a5,a4
800015d2:	f0f42223          	sw	a5,-252(s0)
E:\NucleiStudio_Workspace\e203cifar10_test\hbird_sdk\NMSIS\Core\Include/core_feature_base.h:499
    return full;
800015d6:	f0042603          	lw	a2,-256(s0)
800015da:	f0442683          	lw	a3,-252(s0)
main():
E:\NucleiStudio_Workspace\e203cifar10_test\Debug/../application/main.c:139

  BENCH_START(riscv_relu_q7);
800015de:	86818793          	addi	a5,gp,-1944 # 90009018 <start_cycle>
800015e2:	c390                	sw	a2,0(a5)
800015e4:	c3d4                	sw	a3,4(a5)
800015e6:	88018793          	addi	a5,gp,-1920 # 90009030 <bench_ercd>
800015ea:	0007a023          	sw	zero,0(a5)
E:\NucleiStudio_Workspace\e203cifar10_test\Debug/../application/main.c:140
  riscv_relu_q7(img_buffer1, CONV2_OUT_DIM * CONV2_OUT_DIM * CONV2_OUT_CH);
800015ee:	6585                	lui	a1,0x1
800015f0:	fb442503          	lw	a0,-76(s0)
800015f4:	01a010ef          	jal	ra,8000260e <riscv_relu_q7>
__get_rv_cycle():
E:\NucleiStudio_Workspace\e203cifar10_test\hbird_sdk\NMSIS\Core\Include/core_feature_base.h:492
    high0 = __RV_CSR_READ(CSR_MCYCLEH);
800015f8:	b80027f3          	csrr	a5,mcycleh
800015fc:	80be                	mv	ra,a5
800015fe:	8786                	mv	a5,ra
80001600:	e2f42223          	sw	a5,-476(s0)
E:\NucleiStudio_Workspace\e203cifar10_test\hbird_sdk\NMSIS\Core\Include/core_feature_base.h:493
    low = __RV_CSR_READ(CSR_MCYCLE);
80001604:	b00027f3          	csrr	a5,mcycle
80001608:	80be                	mv	ra,a5
8000160a:	8786                	mv	a5,ra
8000160c:	e2f42023          	sw	a5,-480(s0)
E:\NucleiStudio_Workspace\e203cifar10_test\hbird_sdk\NMSIS\Core\Include/core_feature_base.h:494
    high = __RV_CSR_READ(CSR_MCYCLEH);
80001610:	b80027f3          	csrr	a5,mcycleh
80001614:	80be                	mv	ra,a5
80001616:	8786                	mv	a5,ra
80001618:	e0f42e23          	sw	a5,-484(s0)
E:\NucleiStudio_Workspace\e203cifar10_test\hbird_sdk\NMSIS\Core\Include/core_feature_base.h:495
    if (high0 != high) {
8000161c:	e2442703          	lw	a4,-476(s0)
80001620:	e1c42783          	lw	a5,-484(s0)
80001624:	00f70863          	beq	a4,a5,80001634 <main+0xbd0>
E:\NucleiStudio_Workspace\e203cifar10_test\hbird_sdk\NMSIS\Core\Include/core_feature_base.h:496
        low = __RV_CSR_READ(CSR_MCYCLE);
80001628:	b00027f3          	csrr	a5,mcycle
8000162c:	80be                	mv	ra,a5
8000162e:	8786                	mv	a5,ra
80001630:	e2f42023          	sw	a5,-480(s0)
E:\NucleiStudio_Workspace\e203cifar10_test\hbird_sdk\NMSIS\Core\Include/core_feature_base.h:498
    full = (((uint64_t)high) << 32) | low;
80001634:	e1c42783          	lw	a5,-484(s0)
80001638:	c4f42c23          	sw	a5,-936(s0)
8000163c:	c4042e23          	sw	zero,-932(s0)
80001640:	c5842783          	lw	a5,-936(s0)
80001644:	00079793          	slli	a5,a5,0x0
80001648:	c4f42a23          	sw	a5,-940(s0)
8000164c:	c4042823          	sw	zero,-944(s0)
80001650:	e2042783          	lw	a5,-480(s0)
80001654:	c4f42423          	sw	a5,-952(s0)
80001658:	c4042623          	sw	zero,-948(s0)
8000165c:	c5042583          	lw	a1,-944(s0)
80001660:	c5442603          	lw	a2,-940(s0)
80001664:	87ae                	mv	a5,a1
80001666:	c4842683          	lw	a3,-952(s0)
8000166a:	c4c42703          	lw	a4,-948(s0)
8000166e:	8536                	mv	a0,a3
80001670:	8fc9                	or	a5,a5,a0
80001672:	f0f42423          	sw	a5,-248(s0)
80001676:	87b2                	mv	a5,a2
80001678:	8fd9                	or	a5,a5,a4
8000167a:	f0f42623          	sw	a5,-244(s0)
E:\NucleiStudio_Workspace\e203cifar10_test\hbird_sdk\NMSIS\Core\Include/core_feature_base.h:499
    return full;
8000167e:	f0842603          	lw	a2,-248(s0)
80001682:	f0c42683          	lw	a3,-244(s0)
main():
E:\NucleiStudio_Workspace\e203cifar10_test\Debug/../application/main.c:141
  BENCH_END(riscv_relu_q7);
80001686:	87018793          	addi	a5,gp,-1936 # 90009020 <end_cycle>
8000168a:	c390                	sw	a2,0(a5)
8000168c:	c3d4                	sw	a3,4(a5)
8000168e:	87018793          	addi	a5,gp,-1936 # 90009020 <end_cycle>
80001692:	4390                	lw	a2,0(a5)
80001694:	43d4                	lw	a3,4(a5)
80001696:	86818793          	addi	a5,gp,-1944 # 90009018 <start_cycle>
8000169a:	4398                	lw	a4,0(a5)
8000169c:	43dc                	lw	a5,4(a5)
8000169e:	40e60833          	sub	a6,a2,a4
800016a2:	85c2                	mv	a1,a6
800016a4:	00b635b3          	sltu	a1,a2,a1
800016a8:	40f688b3          	sub	a7,a3,a5
800016ac:	40b887b3          	sub	a5,a7,a1
800016b0:	88be                	mv	a7,a5
800016b2:	8642                	mv	a2,a6
800016b4:	86c6                	mv	a3,a7
800016b6:	87818793          	addi	a5,gp,-1928 # 90009028 <cycle>
800016ba:	c390                	sw	a2,0(a5)
800016bc:	c3d4                	sw	a3,4(a5)
800016be:	87818793          	addi	a5,gp,-1928 # 90009028 <cycle>
800016c2:	4398                	lw	a4,0(a5)
800016c4:	43dc                	lw	a5,4(a5)
800016c6:	863a                	mv	a2,a4
800016c8:	86be                	mv	a3,a5
800016ca:	00007597          	auipc	a1,0x7
800016ce:	42e58593          	addi	a1,a1,1070 # 80008af8 <__trunctfdf2+0x4fe>
800016d2:	00007517          	auipc	a0,0x7
800016d6:	3fa50513          	addi	a0,a0,1018 # 80008acc <__trunctfdf2+0x4d2>
800016da:	57c040ef          	jal	ra,80005c56 <iprintf>
__get_rv_cycle():
E:\NucleiStudio_Workspace\e203cifar10_test\hbird_sdk\NMSIS\Core\Include/core_feature_base.h:492
    high0 = __RV_CSR_READ(CSR_MCYCLEH);
800016de:	b80027f3          	csrr	a5,mcycleh
800016e2:	80be                	mv	ra,a5
800016e4:	8786                	mv	a5,ra
800016e6:	e0f42c23          	sw	a5,-488(s0)
E:\NucleiStudio_Workspace\e203cifar10_test\hbird_sdk\NMSIS\Core\Include/core_feature_base.h:493
    low = __RV_CSR_READ(CSR_MCYCLE);
800016ea:	b00027f3          	csrr	a5,mcycle
800016ee:	80be                	mv	ra,a5
800016f0:	8786                	mv	a5,ra
800016f2:	e0f42a23          	sw	a5,-492(s0)
E:\NucleiStudio_Workspace\e203cifar10_test\hbird_sdk\NMSIS\Core\Include/core_feature_base.h:494
    high = __RV_CSR_READ(CSR_MCYCLEH);
800016f6:	b80027f3          	csrr	a5,mcycleh
800016fa:	80be                	mv	ra,a5
800016fc:	8786                	mv	a5,ra
800016fe:	e0f42823          	sw	a5,-496(s0)
E:\NucleiStudio_Workspace\e203cifar10_test\hbird_sdk\NMSIS\Core\Include/core_feature_base.h:495
    if (high0 != high) {
80001702:	e1842703          	lw	a4,-488(s0)
80001706:	e1042783          	lw	a5,-496(s0)
8000170a:	00f70863          	beq	a4,a5,8000171a <main+0xcb6>
E:\NucleiStudio_Workspace\e203cifar10_test\hbird_sdk\NMSIS\Core\Include/core_feature_base.h:496
        low = __RV_CSR_READ(CSR_MCYCLE);
8000170e:	b00027f3          	csrr	a5,mcycle
80001712:	80be                	mv	ra,a5
80001714:	8786                	mv	a5,ra
80001716:	e0f42a23          	sw	a5,-492(s0)
E:\NucleiStudio_Workspace\e203cifar10_test\hbird_sdk\NMSIS\Core\Include/core_feature_base.h:498
    full = (((uint64_t)high) << 32) | low;
8000171a:	e1042783          	lw	a5,-496(s0)
8000171e:	c6f42823          	sw	a5,-912(s0)
80001722:	c6042a23          	sw	zero,-908(s0)
80001726:	c7042783          	lw	a5,-912(s0)
8000172a:	00079793          	slli	a5,a5,0x0
8000172e:	c6f42623          	sw	a5,-916(s0)
80001732:	c6042423          	sw	zero,-920(s0)
80001736:	e1442783          	lw	a5,-492(s0)
8000173a:	c6f42023          	sw	a5,-928(s0)
8000173e:	c6042223          	sw	zero,-924(s0)
80001742:	c6842583          	lw	a1,-920(s0)
80001746:	c6c42603          	lw	a2,-916(s0)
8000174a:	87ae                	mv	a5,a1
8000174c:	c6042683          	lw	a3,-928(s0)
80001750:	c6442703          	lw	a4,-924(s0)
80001754:	8536                	mv	a0,a3
80001756:	8fc9                	or	a5,a5,a0
80001758:	f0f42823          	sw	a5,-240(s0)
8000175c:	87b2                	mv	a5,a2
8000175e:	8fd9                	or	a5,a5,a4
80001760:	f0f42a23          	sw	a5,-236(s0)
E:\NucleiStudio_Workspace\e203cifar10_test\hbird_sdk\NMSIS\Core\Include/core_feature_base.h:499
    return full;
80001764:	f1042603          	lw	a2,-240(s0)
80001768:	f1442683          	lw	a3,-236(s0)
main():
E:\NucleiStudio_Workspace\e203cifar10_test\Debug/../application/main.c:143

  BENCH_START(riscv_maxpool_q7_HWC);
8000176c:	86818793          	addi	a5,gp,-1944 # 90009018 <start_cycle>
80001770:	c390                	sw	a2,0(a5)
80001772:	c3d4                	sw	a3,4(a5)
80001774:	88018793          	addi	a5,gp,-1920 # 90009030 <bench_ercd>
80001778:	0007a023          	sw	zero,0(a5)
E:\NucleiStudio_Workspace\e203cifar10_test\Debug/../application/main.c:145
  // pool2 img_buffer1 -> img_buffer2
  riscv_maxpool_q7_HWC(img_buffer1, CONV2_OUT_DIM, CONV2_OUT_CH, POOL2_KER_DIM,
8000177c:	fb042783          	lw	a5,-80(s0)
80001780:	c03e                	sw	a5,0(sp)
80001782:	10008897          	auipc	a7,0x10008
80001786:	96688893          	addi	a7,a7,-1690 # 900090e8 <col_buffer>
8000178a:	4821                	li	a6,8
8000178c:	4789                	li	a5,2
8000178e:	4701                	li	a4,0
80001790:	468d                	li	a3,3
80001792:	4641                	li	a2,16
80001794:	45c1                	li	a1,16
80001796:	fb442503          	lw	a0,-76(s0)
8000179a:	1a0010ef          	jal	ra,8000293a <riscv_maxpool_q7_HWC>
__get_rv_cycle():
E:\NucleiStudio_Workspace\e203cifar10_test\hbird_sdk\NMSIS\Core\Include/core_feature_base.h:492
    high0 = __RV_CSR_READ(CSR_MCYCLEH);
8000179e:	b80027f3          	csrr	a5,mcycleh
800017a2:	80be                	mv	ra,a5
800017a4:	8786                	mv	a5,ra
800017a6:	e0f42623          	sw	a5,-500(s0)
E:\NucleiStudio_Workspace\e203cifar10_test\hbird_sdk\NMSIS\Core\Include/core_feature_base.h:493
    low = __RV_CSR_READ(CSR_MCYCLE);
800017aa:	b00027f3          	csrr	a5,mcycle
800017ae:	80be                	mv	ra,a5
800017b0:	8786                	mv	a5,ra
800017b2:	e0f42423          	sw	a5,-504(s0)
E:\NucleiStudio_Workspace\e203cifar10_test\hbird_sdk\NMSIS\Core\Include/core_feature_base.h:494
    high = __RV_CSR_READ(CSR_MCYCLEH);
800017b6:	b80027f3          	csrr	a5,mcycleh
800017ba:	80be                	mv	ra,a5
800017bc:	8786                	mv	a5,ra
800017be:	e0f42223          	sw	a5,-508(s0)
E:\NucleiStudio_Workspace\e203cifar10_test\hbird_sdk\NMSIS\Core\Include/core_feature_base.h:495
    if (high0 != high) {
800017c2:	e0c42703          	lw	a4,-500(s0)
800017c6:	e0442783          	lw	a5,-508(s0)
800017ca:	00f70863          	beq	a4,a5,800017da <main+0xd76>
E:\NucleiStudio_Workspace\e203cifar10_test\hbird_sdk\NMSIS\Core\Include/core_feature_base.h:496
        low = __RV_CSR_READ(CSR_MCYCLE);
800017ce:	b00027f3          	csrr	a5,mcycle
800017d2:	80be                	mv	ra,a5
800017d4:	8786                	mv	a5,ra
800017d6:	e0f42423          	sw	a5,-504(s0)
E:\NucleiStudio_Workspace\e203cifar10_test\hbird_sdk\NMSIS\Core\Include/core_feature_base.h:498
    full = (((uint64_t)high) << 32) | low;
800017da:	e0442783          	lw	a5,-508(s0)
800017de:	c8f42423          	sw	a5,-888(s0)
800017e2:	c8042623          	sw	zero,-884(s0)
800017e6:	c8842783          	lw	a5,-888(s0)
800017ea:	00079793          	slli	a5,a5,0x0
800017ee:	c8f42223          	sw	a5,-892(s0)
800017f2:	c8042023          	sw	zero,-896(s0)
800017f6:	e0842783          	lw	a5,-504(s0)
800017fa:	c6f42c23          	sw	a5,-904(s0)
800017fe:	c6042e23          	sw	zero,-900(s0)
80001802:	c8042583          	lw	a1,-896(s0)
80001806:	c8442603          	lw	a2,-892(s0)
8000180a:	87ae                	mv	a5,a1
8000180c:	c7842683          	lw	a3,-904(s0)
80001810:	c7c42703          	lw	a4,-900(s0)
80001814:	8536                	mv	a0,a3
80001816:	8fc9                	or	a5,a5,a0
80001818:	f0f42c23          	sw	a5,-232(s0)
8000181c:	87b2                	mv	a5,a2
8000181e:	8fd9                	or	a5,a5,a4
80001820:	f0f42e23          	sw	a5,-228(s0)
E:\NucleiStudio_Workspace\e203cifar10_test\hbird_sdk\NMSIS\Core\Include/core_feature_base.h:499
    return full;
80001824:	f1842603          	lw	a2,-232(s0)
80001828:	f1c42683          	lw	a3,-228(s0)
main():
E:\NucleiStudio_Workspace\e203cifar10_test\Debug/../application/main.c:147
                     POOL2_PADDING, POOL2_STRIDE, POOL2_OUT_DIM, col_buffer, img_buffer2);
  BENCH_END(riscv_maxpool_q7_HWC);
8000182c:	87018793          	addi	a5,gp,-1936 # 90009020 <end_cycle>
80001830:	c390                	sw	a2,0(a5)
80001832:	c3d4                	sw	a3,4(a5)
80001834:	87018793          	addi	a5,gp,-1936 # 90009020 <end_cycle>
80001838:	4390                	lw	a2,0(a5)
8000183a:	43d4                	lw	a3,4(a5)
8000183c:	86818793          	addi	a5,gp,-1944 # 90009018 <start_cycle>
80001840:	4398                	lw	a4,0(a5)
80001842:	43dc                	lw	a5,4(a5)
80001844:	40e60833          	sub	a6,a2,a4
80001848:	85c2                	mv	a1,a6
8000184a:	00b635b3          	sltu	a1,a2,a1
8000184e:	40f688b3          	sub	a7,a3,a5
80001852:	40b887b3          	sub	a5,a7,a1
80001856:	88be                	mv	a7,a5
80001858:	8642                	mv	a2,a6
8000185a:	86c6                	mv	a3,a7
8000185c:	87818793          	addi	a5,gp,-1928 # 90009028 <cycle>
80001860:	c390                	sw	a2,0(a5)
80001862:	c3d4                	sw	a3,4(a5)
80001864:	87818793          	addi	a5,gp,-1928 # 90009028 <cycle>
80001868:	4398                	lw	a4,0(a5)
8000186a:	43dc                	lw	a5,4(a5)
8000186c:	863a                	mv	a2,a4
8000186e:	86be                	mv	a3,a5
80001870:	00007597          	auipc	a1,0x7
80001874:	29858593          	addi	a1,a1,664 # 80008b08 <__trunctfdf2+0x50e>
80001878:	00007517          	auipc	a0,0x7
8000187c:	25450513          	addi	a0,a0,596 # 80008acc <__trunctfdf2+0x4d2>
80001880:	3d6040ef          	jal	ra,80005c56 <iprintf>
__get_rv_cycle():
E:\NucleiStudio_Workspace\e203cifar10_test\hbird_sdk\NMSIS\Core\Include/core_feature_base.h:492
    high0 = __RV_CSR_READ(CSR_MCYCLEH);
80001884:	b80027f3          	csrr	a5,mcycleh
80001888:	80be                	mv	ra,a5
8000188a:	8786                	mv	a5,ra
8000188c:	e0f42023          	sw	a5,-512(s0)
E:\NucleiStudio_Workspace\e203cifar10_test\hbird_sdk\NMSIS\Core\Include/core_feature_base.h:493
    low = __RV_CSR_READ(CSR_MCYCLE);
80001890:	b00027f3          	csrr	a5,mcycle
80001894:	80be                	mv	ra,a5
80001896:	8786                	mv	a5,ra
80001898:	def42e23          	sw	a5,-516(s0)
E:\NucleiStudio_Workspace\e203cifar10_test\hbird_sdk\NMSIS\Core\Include/core_feature_base.h:494
    high = __RV_CSR_READ(CSR_MCYCLEH);
8000189c:	b80027f3          	csrr	a5,mcycleh
800018a0:	80be                	mv	ra,a5
800018a2:	8786                	mv	a5,ra
800018a4:	def42c23          	sw	a5,-520(s0)
E:\NucleiStudio_Workspace\e203cifar10_test\hbird_sdk\NMSIS\Core\Include/core_feature_base.h:495
    if (high0 != high) {
800018a8:	e0042703          	lw	a4,-512(s0)
800018ac:	df842783          	lw	a5,-520(s0)
800018b0:	00f70863          	beq	a4,a5,800018c0 <main+0xe5c>
E:\NucleiStudio_Workspace\e203cifar10_test\hbird_sdk\NMSIS\Core\Include/core_feature_base.h:496
        low = __RV_CSR_READ(CSR_MCYCLE);
800018b4:	b00027f3          	csrr	a5,mcycle
800018b8:	80be                	mv	ra,a5
800018ba:	8786                	mv	a5,ra
800018bc:	def42e23          	sw	a5,-516(s0)
E:\NucleiStudio_Workspace\e203cifar10_test\hbird_sdk\NMSIS\Core\Include/core_feature_base.h:498
    full = (((uint64_t)high) << 32) | low;
800018c0:	df842783          	lw	a5,-520(s0)
800018c4:	caf42023          	sw	a5,-864(s0)
800018c8:	ca042223          	sw	zero,-860(s0)
800018cc:	ca042783          	lw	a5,-864(s0)
800018d0:	00079793          	slli	a5,a5,0x0
800018d4:	c8f42e23          	sw	a5,-868(s0)
800018d8:	c8042c23          	sw	zero,-872(s0)
800018dc:	dfc42783          	lw	a5,-516(s0)
800018e0:	c8f42823          	sw	a5,-880(s0)
800018e4:	c8042a23          	sw	zero,-876(s0)
800018e8:	c9842583          	lw	a1,-872(s0)
800018ec:	c9c42603          	lw	a2,-868(s0)
800018f0:	87ae                	mv	a5,a1
800018f2:	c9042683          	lw	a3,-880(s0)
800018f6:	c9442703          	lw	a4,-876(s0)
800018fa:	8536                	mv	a0,a3
800018fc:	8fc9                	or	a5,a5,a0
800018fe:	f2f42023          	sw	a5,-224(s0)
80001902:	87b2                	mv	a5,a2
80001904:	8fd9                	or	a5,a5,a4
80001906:	f2f42223          	sw	a5,-220(s0)
E:\NucleiStudio_Workspace\e203cifar10_test\hbird_sdk\NMSIS\Core\Include/core_feature_base.h:499
    return full;
8000190a:	f2042703          	lw	a4,-224(s0)
8000190e:	f2442783          	lw	a5,-220(s0)
main():
E:\NucleiStudio_Workspace\e203cifar10_test\Debug/../application/main.c:149

  BENCH_START(riscv_convolve_HWC_q7_fast);
80001912:	86818693          	addi	a3,gp,-1944 # 90009018 <start_cycle>
80001916:	c298                	sw	a4,0(a3)
80001918:	c2dc                	sw	a5,4(a3)
8000191a:	88018793          	addi	a5,gp,-1920 # 90009030 <bench_ercd>
8000191e:	0007a023          	sw	zero,0(a5)
E:\NucleiStudio_Workspace\e203cifar10_test\Debug/../application/main.c:151
  // conv3 img_buffer2 -> img_buffer1
  riscv_convolve_HWC_q7_fast(img_buffer2, CONV3_IM_DIM, CONV3_IM_CH, conv3_wt, CONV3_OUT_CH, CONV3_KER_DIM,
80001922:	cc02                	sw	zero,24(sp)
80001924:	10007797          	auipc	a5,0x10007
80001928:	7c478793          	addi	a5,a5,1988 # 900090e8 <col_buffer>
8000192c:	ca3e                	sw	a5,20(sp)
8000192e:	47a1                	li	a5,8
80001930:	c83e                	sw	a5,16(sp)
80001932:	fb442783          	lw	a5,-76(s0)
80001936:	c63e                	sw	a5,12(sp)
80001938:	479d                	li	a5,7
8000193a:	c43e                	sw	a5,8(sp)
8000193c:	4785                	li	a5,1
8000193e:	c23e                	sw	a5,4(sp)
80001940:	10005797          	auipc	a5,0x10005
80001944:	45078793          	addi	a5,a5,1104 # 90006d90 <conv3_bias>
80001948:	c03e                	sw	a5,0(sp)
8000194a:	4885                	li	a7,1
8000194c:	4809                	li	a6,2
8000194e:	4795                	li	a5,5
80001950:	02000713          	li	a4,32
80001954:	10002697          	auipc	a3,0x10002
80001958:	23c68693          	addi	a3,a3,572 # 90003b90 <conv3_wt>
8000195c:	4641                	li	a2,16
8000195e:	45a1                	li	a1,8
80001960:	fb042503          	lw	a0,-80(s0)
80001964:	12d000ef          	jal	ra,80002290 <riscv_convolve_HWC_q7_fast>
__get_rv_cycle():
E:\NucleiStudio_Workspace\e203cifar10_test\hbird_sdk\NMSIS\Core\Include/core_feature_base.h:492
    high0 = __RV_CSR_READ(CSR_MCYCLEH);
80001968:	b80027f3          	csrr	a5,mcycleh
8000196c:	80be                	mv	ra,a5
8000196e:	8786                	mv	a5,ra
80001970:	def42a23          	sw	a5,-524(s0)
E:\NucleiStudio_Workspace\e203cifar10_test\hbird_sdk\NMSIS\Core\Include/core_feature_base.h:493
    low = __RV_CSR_READ(CSR_MCYCLE);
80001974:	b00027f3          	csrr	a5,mcycle
80001978:	80be                	mv	ra,a5
8000197a:	8786                	mv	a5,ra
8000197c:	def42823          	sw	a5,-528(s0)
E:\NucleiStudio_Workspace\e203cifar10_test\hbird_sdk\NMSIS\Core\Include/core_feature_base.h:494
    high = __RV_CSR_READ(CSR_MCYCLEH);
80001980:	b80027f3          	csrr	a5,mcycleh
80001984:	80be                	mv	ra,a5
80001986:	8786                	mv	a5,ra
80001988:	def42623          	sw	a5,-532(s0)
E:\NucleiStudio_Workspace\e203cifar10_test\hbird_sdk\NMSIS\Core\Include/core_feature_base.h:495
    if (high0 != high) {
8000198c:	df442703          	lw	a4,-524(s0)
80001990:	dec42783          	lw	a5,-532(s0)
80001994:	00f70863          	beq	a4,a5,800019a4 <main+0xf40>
E:\NucleiStudio_Workspace\e203cifar10_test\hbird_sdk\NMSIS\Core\Include/core_feature_base.h:496
        low = __RV_CSR_READ(CSR_MCYCLE);
80001998:	b00027f3          	csrr	a5,mcycle
8000199c:	80be                	mv	ra,a5
8000199e:	8786                	mv	a5,ra
800019a0:	def42823          	sw	a5,-528(s0)
E:\NucleiStudio_Workspace\e203cifar10_test\hbird_sdk\NMSIS\Core\Include/core_feature_base.h:498
    full = (((uint64_t)high) << 32) | low;
800019a4:	dec42783          	lw	a5,-532(s0)
800019a8:	caf42c23          	sw	a5,-840(s0)
800019ac:	ca042e23          	sw	zero,-836(s0)
800019b0:	cb842783          	lw	a5,-840(s0)
800019b4:	00079793          	slli	a5,a5,0x0
800019b8:	caf42a23          	sw	a5,-844(s0)
800019bc:	ca042823          	sw	zero,-848(s0)
800019c0:	df042783          	lw	a5,-528(s0)
800019c4:	caf42423          	sw	a5,-856(s0)
800019c8:	ca042623          	sw	zero,-852(s0)
800019cc:	cb042583          	lw	a1,-848(s0)
800019d0:	cb442603          	lw	a2,-844(s0)
800019d4:	87ae                	mv	a5,a1
800019d6:	ca842683          	lw	a3,-856(s0)
800019da:	cac42703          	lw	a4,-852(s0)
800019de:	8536                	mv	a0,a3
800019e0:	8fc9                	or	a5,a5,a0
800019e2:	f2f42423          	sw	a5,-216(s0)
800019e6:	87b2                	mv	a5,a2
800019e8:	8fd9                	or	a5,a5,a4
800019ea:	f2f42623          	sw	a5,-212(s0)
E:\NucleiStudio_Workspace\e203cifar10_test\hbird_sdk\NMSIS\Core\Include/core_feature_base.h:499
    return full;
800019ee:	f2842703          	lw	a4,-216(s0)
800019f2:	f2c42783          	lw	a5,-212(s0)
main():
E:\NucleiStudio_Workspace\e203cifar10_test\Debug/../application/main.c:154
                           CONV3_PADDING, CONV3_STRIDE, conv3_bias, CONV3_BIAS_LSHIFT, CONV3_OUT_RSHIFT, img_buffer1,
                           CONV3_OUT_DIM, (q15_t *) col_buffer, NULL);
  BENCH_END(riscv_convolve_HWC_q7_fast);
800019f6:	87018693          	addi	a3,gp,-1936 # 90009020 <end_cycle>
800019fa:	c298                	sw	a4,0(a3)
800019fc:	c2dc                	sw	a5,4(a3)
800019fe:	87018793          	addi	a5,gp,-1936 # 90009020 <end_cycle>
80001a02:	4398                	lw	a4,0(a5)
80001a04:	43dc                	lw	a5,4(a5)
80001a06:	86818693          	addi	a3,gp,-1944 # 90009018 <start_cycle>
80001a0a:	4288                	lw	a0,0(a3)
80001a0c:	42cc                	lw	a1,4(a3)
80001a0e:	40a70633          	sub	a2,a4,a0
80001a12:	8832                	mv	a6,a2
80001a14:	01073833          	sltu	a6,a4,a6
80001a18:	40b786b3          	sub	a3,a5,a1
80001a1c:	410687b3          	sub	a5,a3,a6
80001a20:	86be                	mv	a3,a5
80001a22:	8732                	mv	a4,a2
80001a24:	87b6                	mv	a5,a3
80001a26:	87818693          	addi	a3,gp,-1928 # 90009028 <cycle>
80001a2a:	c298                	sw	a4,0(a3)
80001a2c:	c2dc                	sw	a5,4(a3)
80001a2e:	87818793          	addi	a5,gp,-1928 # 90009028 <cycle>
80001a32:	4398                	lw	a4,0(a5)
80001a34:	43dc                	lw	a5,4(a5)
80001a36:	863a                	mv	a2,a4
80001a38:	86be                	mv	a3,a5
80001a3a:	00007597          	auipc	a1,0x7
80001a3e:	0e658593          	addi	a1,a1,230 # 80008b20 <__trunctfdf2+0x526>
80001a42:	00007517          	auipc	a0,0x7
80001a46:	08a50513          	addi	a0,a0,138 # 80008acc <__trunctfdf2+0x4d2>
80001a4a:	20c040ef          	jal	ra,80005c56 <iprintf>
__get_rv_cycle():
E:\NucleiStudio_Workspace\e203cifar10_test\hbird_sdk\NMSIS\Core\Include/core_feature_base.h:492
    high0 = __RV_CSR_READ(CSR_MCYCLEH);
80001a4e:	b80027f3          	csrr	a5,mcycleh
80001a52:	80be                	mv	ra,a5
80001a54:	8786                	mv	a5,ra
80001a56:	def42423          	sw	a5,-536(s0)
E:\NucleiStudio_Workspace\e203cifar10_test\hbird_sdk\NMSIS\Core\Include/core_feature_base.h:493
    low = __RV_CSR_READ(CSR_MCYCLE);
80001a5a:	b00027f3          	csrr	a5,mcycle
80001a5e:	80be                	mv	ra,a5
80001a60:	8786                	mv	a5,ra
80001a62:	def42223          	sw	a5,-540(s0)
E:\NucleiStudio_Workspace\e203cifar10_test\hbird_sdk\NMSIS\Core\Include/core_feature_base.h:494
    high = __RV_CSR_READ(CSR_MCYCLEH);
80001a66:	b80027f3          	csrr	a5,mcycleh
80001a6a:	80be                	mv	ra,a5
80001a6c:	8786                	mv	a5,ra
80001a6e:	def42023          	sw	a5,-544(s0)
E:\NucleiStudio_Workspace\e203cifar10_test\hbird_sdk\NMSIS\Core\Include/core_feature_base.h:495
    if (high0 != high) {
80001a72:	de842703          	lw	a4,-536(s0)
80001a76:	de042783          	lw	a5,-544(s0)
80001a7a:	00f70863          	beq	a4,a5,80001a8a <main+0x1026>
E:\NucleiStudio_Workspace\e203cifar10_test\hbird_sdk\NMSIS\Core\Include/core_feature_base.h:496
        low = __RV_CSR_READ(CSR_MCYCLE);
80001a7e:	b00027f3          	csrr	a5,mcycle
80001a82:	80be                	mv	ra,a5
80001a84:	8786                	mv	a5,ra
80001a86:	def42223          	sw	a5,-540(s0)
E:\NucleiStudio_Workspace\e203cifar10_test\hbird_sdk\NMSIS\Core\Include/core_feature_base.h:498
    full = (((uint64_t)high) << 32) | low;
80001a8a:	de042783          	lw	a5,-544(s0)
80001a8e:	ccf42823          	sw	a5,-816(s0)
80001a92:	cc042a23          	sw	zero,-812(s0)
80001a96:	cd042783          	lw	a5,-816(s0)
80001a9a:	00079793          	slli	a5,a5,0x0
80001a9e:	ccf42623          	sw	a5,-820(s0)
80001aa2:	cc042423          	sw	zero,-824(s0)
80001aa6:	de442783          	lw	a5,-540(s0)
80001aaa:	ccf42023          	sw	a5,-832(s0)
80001aae:	cc042223          	sw	zero,-828(s0)
80001ab2:	cc842583          	lw	a1,-824(s0)
80001ab6:	ccc42603          	lw	a2,-820(s0)
80001aba:	87ae                	mv	a5,a1
80001abc:	cc042683          	lw	a3,-832(s0)
80001ac0:	cc442703          	lw	a4,-828(s0)
80001ac4:	8536                	mv	a0,a3
80001ac6:	8fc9                	or	a5,a5,a0
80001ac8:	f2f42823          	sw	a5,-208(s0)
80001acc:	87b2                	mv	a5,a2
80001ace:	8fd9                	or	a5,a5,a4
80001ad0:	f2f42a23          	sw	a5,-204(s0)
E:\NucleiStudio_Workspace\e203cifar10_test\hbird_sdk\NMSIS\Core\Include/core_feature_base.h:499
    return full;
80001ad4:	f3042703          	lw	a4,-208(s0)
80001ad8:	f3442783          	lw	a5,-204(s0)
main():
E:\NucleiStudio_Workspace\e203cifar10_test\Debug/../application/main.c:156

  BENCH_START(riscv_relu_q7);
80001adc:	86818693          	addi	a3,gp,-1944 # 90009018 <start_cycle>
80001ae0:	c298                	sw	a4,0(a3)
80001ae2:	c2dc                	sw	a5,4(a3)
80001ae4:	88018793          	addi	a5,gp,-1920 # 90009030 <bench_ercd>
80001ae8:	0007a023          	sw	zero,0(a5)
E:\NucleiStudio_Workspace\e203cifar10_test\Debug/../application/main.c:157
  riscv_relu_q7(img_buffer1, CONV3_OUT_DIM * CONV3_OUT_DIM * CONV3_OUT_CH);
80001aec:	6785                	lui	a5,0x1
80001aee:	80078593          	addi	a1,a5,-2048 # 800 <__stack_size>
80001af2:	fb442503          	lw	a0,-76(s0)
80001af6:	319000ef          	jal	ra,8000260e <riscv_relu_q7>
__get_rv_cycle():
E:\NucleiStudio_Workspace\e203cifar10_test\hbird_sdk\NMSIS\Core\Include/core_feature_base.h:492
    high0 = __RV_CSR_READ(CSR_MCYCLEH);
80001afa:	b80027f3          	csrr	a5,mcycleh
80001afe:	80be                	mv	ra,a5
80001b00:	8786                	mv	a5,ra
80001b02:	dcf42e23          	sw	a5,-548(s0)
E:\NucleiStudio_Workspace\e203cifar10_test\hbird_sdk\NMSIS\Core\Include/core_feature_base.h:493
    low = __RV_CSR_READ(CSR_MCYCLE);
80001b06:	b00027f3          	csrr	a5,mcycle
80001b0a:	80be                	mv	ra,a5
80001b0c:	8786                	mv	a5,ra
80001b0e:	dcf42c23          	sw	a5,-552(s0)
E:\NucleiStudio_Workspace\e203cifar10_test\hbird_sdk\NMSIS\Core\Include/core_feature_base.h:494
    high = __RV_CSR_READ(CSR_MCYCLEH);
80001b12:	b80027f3          	csrr	a5,mcycleh
80001b16:	80be                	mv	ra,a5
80001b18:	8786                	mv	a5,ra
80001b1a:	dcf42a23          	sw	a5,-556(s0)
E:\NucleiStudio_Workspace\e203cifar10_test\hbird_sdk\NMSIS\Core\Include/core_feature_base.h:495
    if (high0 != high) {
80001b1e:	ddc42703          	lw	a4,-548(s0)
80001b22:	dd442783          	lw	a5,-556(s0)
80001b26:	00f70863          	beq	a4,a5,80001b36 <main+0x10d2>
E:\NucleiStudio_Workspace\e203cifar10_test\hbird_sdk\NMSIS\Core\Include/core_feature_base.h:496
        low = __RV_CSR_READ(CSR_MCYCLE);
80001b2a:	b00027f3          	csrr	a5,mcycle
80001b2e:	80be                	mv	ra,a5
80001b30:	8786                	mv	a5,ra
80001b32:	dcf42c23          	sw	a5,-552(s0)
E:\NucleiStudio_Workspace\e203cifar10_test\hbird_sdk\NMSIS\Core\Include/core_feature_base.h:498
    full = (((uint64_t)high) << 32) | low;
80001b36:	dd442783          	lw	a5,-556(s0)
80001b3a:	cef42423          	sw	a5,-792(s0)
80001b3e:	ce042623          	sw	zero,-788(s0)
80001b42:	ce842783          	lw	a5,-792(s0)
80001b46:	00079793          	slli	a5,a5,0x0
80001b4a:	cef42223          	sw	a5,-796(s0)
80001b4e:	ce042023          	sw	zero,-800(s0)
80001b52:	dd842783          	lw	a5,-552(s0)
80001b56:	ccf42c23          	sw	a5,-808(s0)
80001b5a:	cc042e23          	sw	zero,-804(s0)
80001b5e:	ce042583          	lw	a1,-800(s0)
80001b62:	ce442603          	lw	a2,-796(s0)
80001b66:	87ae                	mv	a5,a1
80001b68:	cd842683          	lw	a3,-808(s0)
80001b6c:	cdc42703          	lw	a4,-804(s0)
80001b70:	8536                	mv	a0,a3
80001b72:	8fc9                	or	a5,a5,a0
80001b74:	f2f42c23          	sw	a5,-200(s0)
80001b78:	87b2                	mv	a5,a2
80001b7a:	8fd9                	or	a5,a5,a4
80001b7c:	f2f42e23          	sw	a5,-196(s0)
E:\NucleiStudio_Workspace\e203cifar10_test\hbird_sdk\NMSIS\Core\Include/core_feature_base.h:499
    return full;
80001b80:	f3842703          	lw	a4,-200(s0)
80001b84:	f3c42783          	lw	a5,-196(s0)
main():
E:\NucleiStudio_Workspace\e203cifar10_test\Debug/../application/main.c:158
  BENCH_END(riscv_relu_q7);
80001b88:	87018693          	addi	a3,gp,-1936 # 90009020 <end_cycle>
80001b8c:	c298                	sw	a4,0(a3)
80001b8e:	c2dc                	sw	a5,4(a3)
80001b90:	87018793          	addi	a5,gp,-1936 # 90009020 <end_cycle>
80001b94:	4398                	lw	a4,0(a5)
80001b96:	43dc                	lw	a5,4(a5)
80001b98:	86818693          	addi	a3,gp,-1944 # 90009018 <start_cycle>
80001b9c:	4288                	lw	a0,0(a3)
80001b9e:	42cc                	lw	a1,4(a3)
80001ba0:	40a70633          	sub	a2,a4,a0
80001ba4:	8832                	mv	a6,a2
80001ba6:	01073833          	sltu	a6,a4,a6
80001baa:	40b786b3          	sub	a3,a5,a1
80001bae:	410687b3          	sub	a5,a3,a6
80001bb2:	86be                	mv	a3,a5
80001bb4:	8732                	mv	a4,a2
80001bb6:	87b6                	mv	a5,a3
80001bb8:	87818693          	addi	a3,gp,-1928 # 90009028 <cycle>
80001bbc:	c298                	sw	a4,0(a3)
80001bbe:	c2dc                	sw	a5,4(a3)
80001bc0:	87818793          	addi	a5,gp,-1928 # 90009028 <cycle>
80001bc4:	4398                	lw	a4,0(a5)
80001bc6:	43dc                	lw	a5,4(a5)
80001bc8:	863a                	mv	a2,a4
80001bca:	86be                	mv	a3,a5
80001bcc:	00007597          	auipc	a1,0x7
80001bd0:	f2c58593          	addi	a1,a1,-212 # 80008af8 <__trunctfdf2+0x4fe>
80001bd4:	00007517          	auipc	a0,0x7
80001bd8:	ef850513          	addi	a0,a0,-264 # 80008acc <__trunctfdf2+0x4d2>
80001bdc:	07a040ef          	jal	ra,80005c56 <iprintf>
__get_rv_cycle():
E:\NucleiStudio_Workspace\e203cifar10_test\hbird_sdk\NMSIS\Core\Include/core_feature_base.h:492
    high0 = __RV_CSR_READ(CSR_MCYCLEH);
80001be0:	b80027f3          	csrr	a5,mcycleh
80001be4:	80be                	mv	ra,a5
80001be6:	8786                	mv	a5,ra
80001be8:	dcf42823          	sw	a5,-560(s0)
E:\NucleiStudio_Workspace\e203cifar10_test\hbird_sdk\NMSIS\Core\Include/core_feature_base.h:493
    low = __RV_CSR_READ(CSR_MCYCLE);
80001bec:	b00027f3          	csrr	a5,mcycle
80001bf0:	80be                	mv	ra,a5
80001bf2:	8786                	mv	a5,ra
80001bf4:	dcf42623          	sw	a5,-564(s0)
E:\NucleiStudio_Workspace\e203cifar10_test\hbird_sdk\NMSIS\Core\Include/core_feature_base.h:494
    high = __RV_CSR_READ(CSR_MCYCLEH);
80001bf8:	b80027f3          	csrr	a5,mcycleh
80001bfc:	80be                	mv	ra,a5
80001bfe:	8786                	mv	a5,ra
80001c00:	dcf42423          	sw	a5,-568(s0)
E:\NucleiStudio_Workspace\e203cifar10_test\hbird_sdk\NMSIS\Core\Include/core_feature_base.h:495
    if (high0 != high) {
80001c04:	dd042703          	lw	a4,-560(s0)
80001c08:	dc842783          	lw	a5,-568(s0)
80001c0c:	00f70863          	beq	a4,a5,80001c1c <main+0x11b8>
E:\NucleiStudio_Workspace\e203cifar10_test\hbird_sdk\NMSIS\Core\Include/core_feature_base.h:496
        low = __RV_CSR_READ(CSR_MCYCLE);
80001c10:	b00027f3          	csrr	a5,mcycle
80001c14:	80be                	mv	ra,a5
80001c16:	8786                	mv	a5,ra
80001c18:	dcf42623          	sw	a5,-564(s0)
E:\NucleiStudio_Workspace\e203cifar10_test\hbird_sdk\NMSIS\Core\Include/core_feature_base.h:498
    full = (((uint64_t)high) << 32) | low;
80001c1c:	dc842783          	lw	a5,-568(s0)
80001c20:	d0f42023          	sw	a5,-768(s0)
80001c24:	d0042223          	sw	zero,-764(s0)
80001c28:	d0042783          	lw	a5,-768(s0)
80001c2c:	00079793          	slli	a5,a5,0x0
80001c30:	cef42e23          	sw	a5,-772(s0)
80001c34:	ce042c23          	sw	zero,-776(s0)
80001c38:	dcc42783          	lw	a5,-564(s0)
80001c3c:	cef42823          	sw	a5,-784(s0)
80001c40:	ce042a23          	sw	zero,-780(s0)
80001c44:	cf842583          	lw	a1,-776(s0)
80001c48:	cfc42603          	lw	a2,-772(s0)
80001c4c:	87ae                	mv	a5,a1
80001c4e:	cf042683          	lw	a3,-784(s0)
80001c52:	cf442703          	lw	a4,-780(s0)
80001c56:	8536                	mv	a0,a3
80001c58:	8fc9                	or	a5,a5,a0
80001c5a:	f4f42023          	sw	a5,-192(s0)
80001c5e:	87b2                	mv	a5,a2
80001c60:	8fd9                	or	a5,a5,a4
80001c62:	f4f42223          	sw	a5,-188(s0)
E:\NucleiStudio_Workspace\e203cifar10_test\hbird_sdk\NMSIS\Core\Include/core_feature_base.h:499
    return full;
80001c66:	f4042703          	lw	a4,-192(s0)
80001c6a:	f4442783          	lw	a5,-188(s0)
main():
E:\NucleiStudio_Workspace\e203cifar10_test\Debug/../application/main.c:160

  BENCH_START(riscv_maxpool_q7_HWC);
80001c6e:	86818693          	addi	a3,gp,-1944 # 90009018 <start_cycle>
80001c72:	c298                	sw	a4,0(a3)
80001c74:	c2dc                	sw	a5,4(a3)
80001c76:	88018793          	addi	a5,gp,-1920 # 90009030 <bench_ercd>
80001c7a:	0007a023          	sw	zero,0(a5)
E:\NucleiStudio_Workspace\e203cifar10_test\Debug/../application/main.c:162
  // pool3 img_buffer-> img_buffer2
  riscv_maxpool_q7_HWC(img_buffer1, CONV3_OUT_DIM, CONV3_OUT_CH, POOL3_KER_DIM,
80001c7e:	fb042783          	lw	a5,-80(s0)
80001c82:	c03e                	sw	a5,0(sp)
80001c84:	10007897          	auipc	a7,0x10007
80001c88:	46488893          	addi	a7,a7,1124 # 900090e8 <col_buffer>
80001c8c:	4811                	li	a6,4
80001c8e:	4789                	li	a5,2
80001c90:	4701                	li	a4,0
80001c92:	468d                	li	a3,3
80001c94:	02000613          	li	a2,32
80001c98:	45a1                	li	a1,8
80001c9a:	fb442503          	lw	a0,-76(s0)
80001c9e:	49d000ef          	jal	ra,8000293a <riscv_maxpool_q7_HWC>
__get_rv_cycle():
E:\NucleiStudio_Workspace\e203cifar10_test\hbird_sdk\NMSIS\Core\Include/core_feature_base.h:492
    high0 = __RV_CSR_READ(CSR_MCYCLEH);
80001ca2:	b80027f3          	csrr	a5,mcycleh
80001ca6:	80be                	mv	ra,a5
80001ca8:	8786                	mv	a5,ra
80001caa:	dcf42223          	sw	a5,-572(s0)
E:\NucleiStudio_Workspace\e203cifar10_test\hbird_sdk\NMSIS\Core\Include/core_feature_base.h:493
    low = __RV_CSR_READ(CSR_MCYCLE);
80001cae:	b00027f3          	csrr	a5,mcycle
80001cb2:	80be                	mv	ra,a5
80001cb4:	8786                	mv	a5,ra
80001cb6:	dcf42023          	sw	a5,-576(s0)
E:\NucleiStudio_Workspace\e203cifar10_test\hbird_sdk\NMSIS\Core\Include/core_feature_base.h:494
    high = __RV_CSR_READ(CSR_MCYCLEH);
80001cba:	b80027f3          	csrr	a5,mcycleh
80001cbe:	80be                	mv	ra,a5
80001cc0:	8786                	mv	a5,ra
80001cc2:	daf42e23          	sw	a5,-580(s0)
E:\NucleiStudio_Workspace\e203cifar10_test\hbird_sdk\NMSIS\Core\Include/core_feature_base.h:495
    if (high0 != high) {
80001cc6:	dc442703          	lw	a4,-572(s0)
80001cca:	dbc42783          	lw	a5,-580(s0)
80001cce:	00f70863          	beq	a4,a5,80001cde <main+0x127a>
E:\NucleiStudio_Workspace\e203cifar10_test\hbird_sdk\NMSIS\Core\Include/core_feature_base.h:496
        low = __RV_CSR_READ(CSR_MCYCLE);
80001cd2:	b00027f3          	csrr	a5,mcycle
80001cd6:	80be                	mv	ra,a5
80001cd8:	8786                	mv	a5,ra
80001cda:	dcf42023          	sw	a5,-576(s0)
E:\NucleiStudio_Workspace\e203cifar10_test\hbird_sdk\NMSIS\Core\Include/core_feature_base.h:498
    full = (((uint64_t)high) << 32) | low;
80001cde:	dbc42783          	lw	a5,-580(s0)
80001ce2:	d0f42c23          	sw	a5,-744(s0)
80001ce6:	d0042e23          	sw	zero,-740(s0)
80001cea:	d1842783          	lw	a5,-744(s0)
80001cee:	00079793          	slli	a5,a5,0x0
80001cf2:	d0f42a23          	sw	a5,-748(s0)
80001cf6:	d0042823          	sw	zero,-752(s0)
80001cfa:	dc042783          	lw	a5,-576(s0)
80001cfe:	d0f42423          	sw	a5,-760(s0)
80001d02:	d0042623          	sw	zero,-756(s0)
80001d06:	d1042583          	lw	a1,-752(s0)
80001d0a:	d1442603          	lw	a2,-748(s0)
80001d0e:	87ae                	mv	a5,a1
80001d10:	d0842683          	lw	a3,-760(s0)
80001d14:	d0c42703          	lw	a4,-756(s0)
80001d18:	8536                	mv	a0,a3
80001d1a:	8fc9                	or	a5,a5,a0
80001d1c:	f4f42423          	sw	a5,-184(s0)
80001d20:	87b2                	mv	a5,a2
80001d22:	8fd9                	or	a5,a5,a4
80001d24:	f4f42623          	sw	a5,-180(s0)
E:\NucleiStudio_Workspace\e203cifar10_test\hbird_sdk\NMSIS\Core\Include/core_feature_base.h:499
    return full;
80001d28:	f4842703          	lw	a4,-184(s0)
80001d2c:	f4c42783          	lw	a5,-180(s0)
main():
E:\NucleiStudio_Workspace\e203cifar10_test\Debug/../application/main.c:164
                     POOL3_PADDING, POOL3_STRIDE, POOL3_OUT_DIM, col_buffer, img_buffer2);
  BENCH_END(riscv_maxpool_q7_HWC);
80001d30:	87018693          	addi	a3,gp,-1936 # 90009020 <end_cycle>
80001d34:	c298                	sw	a4,0(a3)
80001d36:	c2dc                	sw	a5,4(a3)
80001d38:	87018793          	addi	a5,gp,-1936 # 90009020 <end_cycle>
80001d3c:	4398                	lw	a4,0(a5)
80001d3e:	43dc                	lw	a5,4(a5)
80001d40:	86818693          	addi	a3,gp,-1944 # 90009018 <start_cycle>
80001d44:	4288                	lw	a0,0(a3)
80001d46:	42cc                	lw	a1,4(a3)
80001d48:	40a70633          	sub	a2,a4,a0
80001d4c:	8832                	mv	a6,a2
80001d4e:	01073833          	sltu	a6,a4,a6
80001d52:	40b786b3          	sub	a3,a5,a1
80001d56:	410687b3          	sub	a5,a3,a6
80001d5a:	86be                	mv	a3,a5
80001d5c:	8732                	mv	a4,a2
80001d5e:	87b6                	mv	a5,a3
80001d60:	87818693          	addi	a3,gp,-1928 # 90009028 <cycle>
80001d64:	c298                	sw	a4,0(a3)
80001d66:	c2dc                	sw	a5,4(a3)
80001d68:	87818793          	addi	a5,gp,-1928 # 90009028 <cycle>
80001d6c:	4398                	lw	a4,0(a5)
80001d6e:	43dc                	lw	a5,4(a5)
80001d70:	863a                	mv	a2,a4
80001d72:	86be                	mv	a3,a5
80001d74:	00007597          	auipc	a1,0x7
80001d78:	d9458593          	addi	a1,a1,-620 # 80008b08 <__trunctfdf2+0x50e>
80001d7c:	00007517          	auipc	a0,0x7
80001d80:	d5050513          	addi	a0,a0,-688 # 80008acc <__trunctfdf2+0x4d2>
80001d84:	6d3030ef          	jal	ra,80005c56 <iprintf>
__get_rv_cycle():
E:\NucleiStudio_Workspace\e203cifar10_test\hbird_sdk\NMSIS\Core\Include/core_feature_base.h:492
    high0 = __RV_CSR_READ(CSR_MCYCLEH);
80001d88:	b80027f3          	csrr	a5,mcycleh
80001d8c:	80be                	mv	ra,a5
80001d8e:	8786                	mv	a5,ra
80001d90:	daf42c23          	sw	a5,-584(s0)
E:\NucleiStudio_Workspace\e203cifar10_test\hbird_sdk\NMSIS\Core\Include/core_feature_base.h:493
    low = __RV_CSR_READ(CSR_MCYCLE);
80001d94:	b00027f3          	csrr	a5,mcycle
80001d98:	80be                	mv	ra,a5
80001d9a:	8786                	mv	a5,ra
80001d9c:	daf42a23          	sw	a5,-588(s0)
E:\NucleiStudio_Workspace\e203cifar10_test\hbird_sdk\NMSIS\Core\Include/core_feature_base.h:494
    high = __RV_CSR_READ(CSR_MCYCLEH);
80001da0:	b80027f3          	csrr	a5,mcycleh
80001da4:	80be                	mv	ra,a5
80001da6:	8786                	mv	a5,ra
80001da8:	daf42823          	sw	a5,-592(s0)
E:\NucleiStudio_Workspace\e203cifar10_test\hbird_sdk\NMSIS\Core\Include/core_feature_base.h:495
    if (high0 != high) {
80001dac:	db842703          	lw	a4,-584(s0)
80001db0:	db042783          	lw	a5,-592(s0)
80001db4:	00f70863          	beq	a4,a5,80001dc4 <main+0x1360>
E:\NucleiStudio_Workspace\e203cifar10_test\hbird_sdk\NMSIS\Core\Include/core_feature_base.h:496
        low = __RV_CSR_READ(CSR_MCYCLE);
80001db8:	b00027f3          	csrr	a5,mcycle
80001dbc:	80be                	mv	ra,a5
80001dbe:	8786                	mv	a5,ra
80001dc0:	daf42a23          	sw	a5,-588(s0)
E:\NucleiStudio_Workspace\e203cifar10_test\hbird_sdk\NMSIS\Core\Include/core_feature_base.h:498
    full = (((uint64_t)high) << 32) | low;
80001dc4:	db042783          	lw	a5,-592(s0)
80001dc8:	d2f42823          	sw	a5,-720(s0)
80001dcc:	d2042a23          	sw	zero,-716(s0)
80001dd0:	d3042783          	lw	a5,-720(s0)
80001dd4:	00079793          	slli	a5,a5,0x0
80001dd8:	d2f42623          	sw	a5,-724(s0)
80001ddc:	d2042423          	sw	zero,-728(s0)
80001de0:	db442783          	lw	a5,-588(s0)
80001de4:	d2f42023          	sw	a5,-736(s0)
80001de8:	d2042223          	sw	zero,-732(s0)
80001dec:	d2842583          	lw	a1,-728(s0)
80001df0:	d2c42603          	lw	a2,-724(s0)
80001df4:	87ae                	mv	a5,a1
80001df6:	d2042683          	lw	a3,-736(s0)
80001dfa:	d2442703          	lw	a4,-732(s0)
80001dfe:	8536                	mv	a0,a3
80001e00:	8fc9                	or	a5,a5,a0
80001e02:	f4f42823          	sw	a5,-176(s0)
80001e06:	87b2                	mv	a5,a2
80001e08:	8fd9                	or	a5,a5,a4
80001e0a:	f4f42a23          	sw	a5,-172(s0)
E:\NucleiStudio_Workspace\e203cifar10_test\hbird_sdk\NMSIS\Core\Include/core_feature_base.h:499
    return full;
80001e0e:	f5042703          	lw	a4,-176(s0)
80001e12:	f5442783          	lw	a5,-172(s0)
main():
E:\NucleiStudio_Workspace\e203cifar10_test\Debug/../application/main.c:166

  BENCH_START(riscv_fully_connected_q7_opt);
80001e16:	86818693          	addi	a3,gp,-1944 # 90009018 <start_cycle>
80001e1a:	c298                	sw	a4,0(a3)
80001e1c:	c2dc                	sw	a5,4(a3)
80001e1e:	88018793          	addi	a5,gp,-1920 # 90009030 <bench_ercd>
80001e22:	0007a023          	sw	zero,0(a5)
E:\NucleiStudio_Workspace\e203cifar10_test\Debug/../application/main.c:167
  riscv_fully_connected_q7_opt(img_buffer2, ip1_wt, IP1_DIM, IP1_OUT, IP1_BIAS_LSHIFT, IP1_OUT_RSHIFT, ip1_bias,
80001e26:	fb442783          	lw	a5,-76(s0)
80001e2a:	c03e                	sw	a5,0(sp)
80001e2c:	92c18893          	addi	a7,gp,-1748 # 900090dc <output_data>
80001e30:	10006817          	auipc	a6,0x10006
80001e34:	38080813          	addi	a6,a6,896 # 900081b0 <ip1_bias>
80001e38:	47a1                	li	a5,8
80001e3a:	4705                	li	a4,1
80001e3c:	46a9                	li	a3,10
80001e3e:	20000613          	li	a2,512
80001e42:	10005597          	auipc	a1,0x10005
80001e46:	f6e58593          	addi	a1,a1,-146 # 90006db0 <ip1_wt>
80001e4a:	fb042503          	lw	a0,-80(s0)
80001e4e:	7e2000ef          	jal	ra,80002630 <riscv_fully_connected_q7_opt>
__get_rv_cycle():
E:\NucleiStudio_Workspace\e203cifar10_test\hbird_sdk\NMSIS\Core\Include/core_feature_base.h:492
    high0 = __RV_CSR_READ(CSR_MCYCLEH);
80001e52:	b80027f3          	csrr	a5,mcycleh
80001e56:	80be                	mv	ra,a5
80001e58:	8786                	mv	a5,ra
80001e5a:	daf42623          	sw	a5,-596(s0)
E:\NucleiStudio_Workspace\e203cifar10_test\hbird_sdk\NMSIS\Core\Include/core_feature_base.h:493
    low = __RV_CSR_READ(CSR_MCYCLE);
80001e5e:	b00027f3          	csrr	a5,mcycle
80001e62:	80be                	mv	ra,a5
80001e64:	8786                	mv	a5,ra
80001e66:	daf42423          	sw	a5,-600(s0)
E:\NucleiStudio_Workspace\e203cifar10_test\hbird_sdk\NMSIS\Core\Include/core_feature_base.h:494
    high = __RV_CSR_READ(CSR_MCYCLEH);
80001e6a:	b80027f3          	csrr	a5,mcycleh
80001e6e:	80be                	mv	ra,a5
80001e70:	8786                	mv	a5,ra
80001e72:	daf42223          	sw	a5,-604(s0)
E:\NucleiStudio_Workspace\e203cifar10_test\hbird_sdk\NMSIS\Core\Include/core_feature_base.h:495
    if (high0 != high) {
80001e76:	dac42703          	lw	a4,-596(s0)
80001e7a:	da442783          	lw	a5,-604(s0)
80001e7e:	00f70863          	beq	a4,a5,80001e8e <main+0x142a>
E:\NucleiStudio_Workspace\e203cifar10_test\hbird_sdk\NMSIS\Core\Include/core_feature_base.h:496
        low = __RV_CSR_READ(CSR_MCYCLE);
80001e82:	b00027f3          	csrr	a5,mcycle
80001e86:	80be                	mv	ra,a5
80001e88:	8786                	mv	a5,ra
80001e8a:	daf42423          	sw	a5,-600(s0)
E:\NucleiStudio_Workspace\e203cifar10_test\hbird_sdk\NMSIS\Core\Include/core_feature_base.h:498
    full = (((uint64_t)high) << 32) | low;
80001e8e:	da442783          	lw	a5,-604(s0)
80001e92:	d4f42423          	sw	a5,-696(s0)
80001e96:	d4042623          	sw	zero,-692(s0)
80001e9a:	d4842783          	lw	a5,-696(s0)
80001e9e:	00079793          	slli	a5,a5,0x0
80001ea2:	d4f42223          	sw	a5,-700(s0)
80001ea6:	d4042023          	sw	zero,-704(s0)
80001eaa:	da842783          	lw	a5,-600(s0)
80001eae:	d2f42c23          	sw	a5,-712(s0)
80001eb2:	d2042e23          	sw	zero,-708(s0)
80001eb6:	d4042583          	lw	a1,-704(s0)
80001eba:	d4442603          	lw	a2,-700(s0)
80001ebe:	87ae                	mv	a5,a1
80001ec0:	d3842683          	lw	a3,-712(s0)
80001ec4:	d3c42703          	lw	a4,-708(s0)
80001ec8:	8536                	mv	a0,a3
80001eca:	8fc9                	or	a5,a5,a0
80001ecc:	f4f42c23          	sw	a5,-168(s0)
80001ed0:	87b2                	mv	a5,a2
80001ed2:	8fd9                	or	a5,a5,a4
80001ed4:	f4f42e23          	sw	a5,-164(s0)
E:\NucleiStudio_Workspace\e203cifar10_test\hbird_sdk\NMSIS\Core\Include/core_feature_base.h:499
    return full;
80001ed8:	f5842703          	lw	a4,-168(s0)
80001edc:	f5c42783          	lw	a5,-164(s0)
main():
E:\NucleiStudio_Workspace\e203cifar10_test\Debug/../application/main.c:169
                             output_data, (q15_t *) img_buffer1);
  BENCH_END(riscv_fully_connected_q7_opt);
80001ee0:	87018693          	addi	a3,gp,-1936 # 90009020 <end_cycle>
80001ee4:	c298                	sw	a4,0(a3)
80001ee6:	c2dc                	sw	a5,4(a3)
80001ee8:	87018793          	addi	a5,gp,-1936 # 90009020 <end_cycle>
80001eec:	4398                	lw	a4,0(a5)
80001eee:	43dc                	lw	a5,4(a5)
80001ef0:	86818693          	addi	a3,gp,-1944 # 90009018 <start_cycle>
80001ef4:	4288                	lw	a0,0(a3)
80001ef6:	42cc                	lw	a1,4(a3)
80001ef8:	40a70633          	sub	a2,a4,a0
80001efc:	8832                	mv	a6,a2
80001efe:	01073833          	sltu	a6,a4,a6
80001f02:	40b786b3          	sub	a3,a5,a1
80001f06:	410687b3          	sub	a5,a3,a6
80001f0a:	86be                	mv	a3,a5
80001f0c:	8732                	mv	a4,a2
80001f0e:	87b6                	mv	a5,a3
80001f10:	87818693          	addi	a3,gp,-1928 # 90009028 <cycle>
80001f14:	c298                	sw	a4,0(a3)
80001f16:	c2dc                	sw	a5,4(a3)
80001f18:	87818793          	addi	a5,gp,-1928 # 90009028 <cycle>
80001f1c:	4398                	lw	a4,0(a5)
80001f1e:	43dc                	lw	a5,4(a5)
80001f20:	863a                	mv	a2,a4
80001f22:	86be                	mv	a3,a5
80001f24:	00007597          	auipc	a1,0x7
80001f28:	c1858593          	addi	a1,a1,-1000 # 80008b3c <__trunctfdf2+0x542>
80001f2c:	00007517          	auipc	a0,0x7
80001f30:	ba050513          	addi	a0,a0,-1120 # 80008acc <__trunctfdf2+0x4d2>
80001f34:	523030ef          	jal	ra,80005c56 <iprintf>
__get_rv_cycle():
E:\NucleiStudio_Workspace\e203cifar10_test\hbird_sdk\NMSIS\Core\Include/core_feature_base.h:492
    high0 = __RV_CSR_READ(CSR_MCYCLEH);
80001f38:	b80027f3          	csrr	a5,mcycleh
80001f3c:	80be                	mv	ra,a5
80001f3e:	8786                	mv	a5,ra
80001f40:	daf42023          	sw	a5,-608(s0)
E:\NucleiStudio_Workspace\e203cifar10_test\hbird_sdk\NMSIS\Core\Include/core_feature_base.h:493
    low = __RV_CSR_READ(CSR_MCYCLE);
80001f44:	b00027f3          	csrr	a5,mcycle
80001f48:	80be                	mv	ra,a5
80001f4a:	8786                	mv	a5,ra
80001f4c:	d8f42e23          	sw	a5,-612(s0)
E:\NucleiStudio_Workspace\e203cifar10_test\hbird_sdk\NMSIS\Core\Include/core_feature_base.h:494
    high = __RV_CSR_READ(CSR_MCYCLEH);
80001f50:	b80027f3          	csrr	a5,mcycleh
80001f54:	80be                	mv	ra,a5
80001f56:	8786                	mv	a5,ra
80001f58:	d8f42c23          	sw	a5,-616(s0)
E:\NucleiStudio_Workspace\e203cifar10_test\hbird_sdk\NMSIS\Core\Include/core_feature_base.h:495
    if (high0 != high) {
80001f5c:	da042703          	lw	a4,-608(s0)
80001f60:	d9842783          	lw	a5,-616(s0)
80001f64:	00f70863          	beq	a4,a5,80001f74 <main+0x1510>
E:\NucleiStudio_Workspace\e203cifar10_test\hbird_sdk\NMSIS\Core\Include/core_feature_base.h:496
        low = __RV_CSR_READ(CSR_MCYCLE);
80001f68:	b00027f3          	csrr	a5,mcycle
80001f6c:	80be                	mv	ra,a5
80001f6e:	8786                	mv	a5,ra
80001f70:	d8f42e23          	sw	a5,-612(s0)
E:\NucleiStudio_Workspace\e203cifar10_test\hbird_sdk\NMSIS\Core\Include/core_feature_base.h:498
    full = (((uint64_t)high) << 32) | low;
80001f74:	d9842783          	lw	a5,-616(s0)
80001f78:	d6f42023          	sw	a5,-672(s0)
80001f7c:	d6042223          	sw	zero,-668(s0)
80001f80:	d6042783          	lw	a5,-672(s0)
80001f84:	00079793          	slli	a5,a5,0x0
80001f88:	d4f42e23          	sw	a5,-676(s0)
80001f8c:	d4042c23          	sw	zero,-680(s0)
80001f90:	d9c42783          	lw	a5,-612(s0)
80001f94:	d4f42823          	sw	a5,-688(s0)
80001f98:	d4042a23          	sw	zero,-684(s0)
80001f9c:	d5842583          	lw	a1,-680(s0)
80001fa0:	d5c42603          	lw	a2,-676(s0)
80001fa4:	87ae                	mv	a5,a1
80001fa6:	d5042683          	lw	a3,-688(s0)
80001faa:	d5442703          	lw	a4,-684(s0)
80001fae:	8536                	mv	a0,a3
80001fb0:	8fc9                	or	a5,a5,a0
80001fb2:	f6f42023          	sw	a5,-160(s0)
80001fb6:	87b2                	mv	a5,a2
80001fb8:	8fd9                	or	a5,a5,a4
80001fba:	f6f42223          	sw	a5,-156(s0)
E:\NucleiStudio_Workspace\e203cifar10_test\hbird_sdk\NMSIS\Core\Include/core_feature_base.h:499
    return full;
80001fbe:	f6042703          	lw	a4,-160(s0)
80001fc2:	f6442783          	lw	a5,-156(s0)
main():
E:\NucleiStudio_Workspace\e203cifar10_test\Debug/../application/main.c:171

  BENCH_START(riscv_softmax_q7);
80001fc6:	86818693          	addi	a3,gp,-1944 # 90009018 <start_cycle>
80001fca:	c298                	sw	a4,0(a3)
80001fcc:	c2dc                	sw	a5,4(a3)
80001fce:	88018793          	addi	a5,gp,-1920 # 90009030 <bench_ercd>
80001fd2:	0007a023          	sw	zero,0(a5)
E:\NucleiStudio_Workspace\e203cifar10_test\Debug/../application/main.c:172
  riscv_softmax_q7(output_data, 10, output_data);
80001fd6:	92c18613          	addi	a2,gp,-1748 # 900090dc <output_data>
80001fda:	45a9                	li	a1,10
80001fdc:	92c18513          	addi	a0,gp,-1748 # 900090dc <output_data>
80001fe0:	2af9                	jal	800021be <riscv_softmax_q7>
__get_rv_cycle():
E:\NucleiStudio_Workspace\e203cifar10_test\hbird_sdk\NMSIS\Core\Include/core_feature_base.h:492
    high0 = __RV_CSR_READ(CSR_MCYCLEH);
80001fe2:	b80027f3          	csrr	a5,mcycleh
80001fe6:	80be                	mv	ra,a5
80001fe8:	8786                	mv	a5,ra
80001fea:	d8f42a23          	sw	a5,-620(s0)
E:\NucleiStudio_Workspace\e203cifar10_test\hbird_sdk\NMSIS\Core\Include/core_feature_base.h:493
    low = __RV_CSR_READ(CSR_MCYCLE);
80001fee:	b00027f3          	csrr	a5,mcycle
80001ff2:	80be                	mv	ra,a5
80001ff4:	8786                	mv	a5,ra
80001ff6:	d8f42823          	sw	a5,-624(s0)
E:\NucleiStudio_Workspace\e203cifar10_test\hbird_sdk\NMSIS\Core\Include/core_feature_base.h:494
    high = __RV_CSR_READ(CSR_MCYCLEH);
80001ffa:	b80027f3          	csrr	a5,mcycleh
80001ffe:	80be                	mv	ra,a5
80002000:	8786                	mv	a5,ra
80002002:	d8f42623          	sw	a5,-628(s0)
E:\NucleiStudio_Workspace\e203cifar10_test\hbird_sdk\NMSIS\Core\Include/core_feature_base.h:495
    if (high0 != high) {
80002006:	d9442703          	lw	a4,-620(s0)
8000200a:	d8c42783          	lw	a5,-628(s0)
8000200e:	00f70863          	beq	a4,a5,8000201e <main+0x15ba>
E:\NucleiStudio_Workspace\e203cifar10_test\hbird_sdk\NMSIS\Core\Include/core_feature_base.h:496
        low = __RV_CSR_READ(CSR_MCYCLE);
80002012:	b00027f3          	csrr	a5,mcycle
80002016:	80be                	mv	ra,a5
80002018:	8786                	mv	a5,ra
8000201a:	d8f42823          	sw	a5,-624(s0)
E:\NucleiStudio_Workspace\e203cifar10_test\hbird_sdk\NMSIS\Core\Include/core_feature_base.h:498
    full = (((uint64_t)high) << 32) | low;
8000201e:	d8c42783          	lw	a5,-628(s0)
80002022:	d6f42c23          	sw	a5,-648(s0)
80002026:	d6042e23          	sw	zero,-644(s0)
8000202a:	d7842783          	lw	a5,-648(s0)
8000202e:	00079793          	slli	a5,a5,0x0
80002032:	d6f42a23          	sw	a5,-652(s0)
80002036:	d6042823          	sw	zero,-656(s0)
8000203a:	d9042783          	lw	a5,-624(s0)
8000203e:	d6f42423          	sw	a5,-664(s0)
80002042:	d6042623          	sw	zero,-660(s0)
80002046:	d7042583          	lw	a1,-656(s0)
8000204a:	d7442603          	lw	a2,-652(s0)
8000204e:	87ae                	mv	a5,a1
80002050:	d6842683          	lw	a3,-664(s0)
80002054:	d6c42703          	lw	a4,-660(s0)
80002058:	8536                	mv	a0,a3
8000205a:	8fc9                	or	a5,a5,a0
8000205c:	f6f42423          	sw	a5,-152(s0)
80002060:	87b2                	mv	a5,a2
80002062:	8fd9                	or	a5,a5,a4
80002064:	f6f42623          	sw	a5,-148(s0)
E:\NucleiStudio_Workspace\e203cifar10_test\hbird_sdk\NMSIS\Core\Include/core_feature_base.h:499
    return full;
80002068:	f6842703          	lw	a4,-152(s0)
8000206c:	f6c42783          	lw	a5,-148(s0)
main():
E:\NucleiStudio_Workspace\e203cifar10_test\Debug/../application/main.c:173
  BENCH_END(riscv_softmax_q7);
80002070:	87018693          	addi	a3,gp,-1936 # 90009020 <end_cycle>
80002074:	c298                	sw	a4,0(a3)
80002076:	c2dc                	sw	a5,4(a3)
80002078:	87018793          	addi	a5,gp,-1936 # 90009020 <end_cycle>
8000207c:	4398                	lw	a4,0(a5)
8000207e:	43dc                	lw	a5,4(a5)
80002080:	86818693          	addi	a3,gp,-1944 # 90009018 <start_cycle>
80002084:	4288                	lw	a0,0(a3)
80002086:	42cc                	lw	a1,4(a3)
80002088:	40a70633          	sub	a2,a4,a0
8000208c:	8832                	mv	a6,a2
8000208e:	01073833          	sltu	a6,a4,a6
80002092:	40b786b3          	sub	a3,a5,a1
80002096:	410687b3          	sub	a5,a3,a6
8000209a:	86be                	mv	a3,a5
8000209c:	8732                	mv	a4,a2
8000209e:	87b6                	mv	a5,a3
800020a0:	87818693          	addi	a3,gp,-1928 # 90009028 <cycle>
800020a4:	c298                	sw	a4,0(a3)
800020a6:	c2dc                	sw	a5,4(a3)
800020a8:	87818793          	addi	a5,gp,-1928 # 90009028 <cycle>
800020ac:	4398                	lw	a4,0(a5)
800020ae:	43dc                	lw	a5,4(a5)
800020b0:	863a                	mv	a2,a4
800020b2:	86be                	mv	a3,a5
800020b4:	00007597          	auipc	a1,0x7
800020b8:	aa858593          	addi	a1,a1,-1368 # 80008b5c <__trunctfdf2+0x562>
800020bc:	00007517          	auipc	a0,0x7
800020c0:	a1050513          	addi	a0,a0,-1520 # 80008acc <__trunctfdf2+0x4d2>
800020c4:	393030ef          	jal	ra,80005c56 <iprintf>
E:\NucleiStudio_Workspace\e203cifar10_test\Debug/../application/main.c:175

  float confidence = 0.0;
800020c8:	fa042623          	sw	zero,-84(s0)
E:\NucleiStudio_Workspace\e203cifar10_test\Debug/../application/main.c:176
  for (int i = 0; i < 10; i++) {
800020cc:	fa042c23          	sw	zero,-72(s0)
800020d0:	a05d                	j	80002176 <main+0x1712>
E:\NucleiStudio_Workspace\e203cifar10_test\Debug/../application/main.c:177 (discriminator 3)
      confidence = (output_data[i]/127.0)*100;
800020d2:	92c18713          	addi	a4,gp,-1748 # 900090dc <output_data>
800020d6:	fb842783          	lw	a5,-72(s0)
800020da:	97ba                	add	a5,a5,a4
800020dc:	00078783          	lb	a5,0(a5)
800020e0:	853e                	mv	a0,a5
800020e2:	57b020ef          	jal	ra,80004e5c <__floatsidf>
800020e6:	872a                	mv	a4,a0
800020e8:	87ae                	mv	a5,a1
800020ea:	00007697          	auipc	a3,0x7
800020ee:	aa668693          	addi	a3,a3,-1370 # 80008b90 <__trunctfdf2+0x596>
800020f2:	4290                	lw	a2,0(a3)
800020f4:	42d4                	lw	a3,4(a3)
800020f6:	853a                	mv	a0,a4
800020f8:	85be                	mv	a1,a5
800020fa:	6bc010ef          	jal	ra,800037b6 <__divdf3>
800020fe:	872a                	mv	a4,a0
80002100:	87ae                	mv	a5,a1
80002102:	853a                	mv	a0,a4
80002104:	85be                	mv	a1,a5
80002106:	00007797          	auipc	a5,0x7
8000210a:	a9278793          	addi	a5,a5,-1390 # 80008b98 <__trunctfdf2+0x59e>
8000210e:	4390                	lw	a2,0(a5)
80002110:	43d4                	lw	a3,4(a5)
80002112:	681010ef          	jal	ra,80003f92 <__muldf3>
80002116:	872a                	mv	a4,a0
80002118:	87ae                	mv	a5,a1
8000211a:	853a                	mv	a0,a4
8000211c:	85be                	mv	a1,a5
8000211e:	663020ef          	jal	ra,80004f80 <__truncdfsf2>
80002122:	20a507d3          	fmv.s	fa5,fa0
80002126:	faf42627          	fsw	fa5,-84(s0)
E:\NucleiStudio_Workspace\e203cifar10_test\Debug/../application/main.c:179 (discriminator 3)
      printf("label %d: %d, %s, %.2f%%\n", \
              i, output_data[i], cifar10_label[i], confidence);
8000212a:	92c18713          	addi	a4,gp,-1748 # 900090dc <output_data>
8000212e:	fb842783          	lw	a5,-72(s0)
80002132:	97ba                	add	a5,a5,a4
80002134:	00078783          	lb	a5,0(a5)
E:\NucleiStudio_Workspace\e203cifar10_test\Debug/../application/main.c:178 (discriminator 3)
      printf("label %d: %d, %s, %.2f%%\n", \
80002138:	893e                	mv	s2,a5
8000213a:	10007717          	auipc	a4,0x10007
8000213e:	c8270713          	addi	a4,a4,-894 # 90008dbc <cifar10_label>
80002142:	fb842783          	lw	a5,-72(s0)
80002146:	078a                	slli	a5,a5,0x2
80002148:	97ba                	add	a5,a5,a4
8000214a:	4384                	lw	s1,0(a5)
8000214c:	fac42507          	flw	fa0,-84(s0)
80002150:	573020ef          	jal	ra,80004ec2 <__extendsfdf2>
80002154:	872a                	mv	a4,a0
80002156:	87ae                	mv	a5,a1
80002158:	86a6                	mv	a3,s1
8000215a:	864a                	mv	a2,s2
8000215c:	fb842583          	lw	a1,-72(s0)
80002160:	00007517          	auipc	a0,0x7
80002164:	a1050513          	addi	a0,a0,-1520 # 80008b70 <__trunctfdf2+0x576>
80002168:	2ef030ef          	jal	ra,80005c56 <iprintf>
E:\NucleiStudio_Workspace\e203cifar10_test\Debug/../application/main.c:176 (discriminator 3)
  for (int i = 0; i < 10; i++) {
8000216c:	fb842783          	lw	a5,-72(s0)
80002170:	0785                	addi	a5,a5,1
80002172:	faf42c23          	sw	a5,-72(s0)
E:\NucleiStudio_Workspace\e203cifar10_test\Debug/../application/main.c:176 (discriminator 1)
80002176:	fb842703          	lw	a4,-72(s0)
8000217a:	47a5                	li	a5,9
8000217c:	f4e7dbe3          	bge	a5,a4,800020d2 <main+0x166e>
E:\NucleiStudio_Workspace\e203cifar10_test\Debug/../application/main.c:181
  }
  return 0;
80002180:	4781                	li	a5,0
E:\NucleiStudio_Workspace\e203cifar10_test\Debug/../application/main.c:182
}
80002182:	853e                	mv	a0,a5
80002184:	4bc12083          	lw	ra,1212(sp)
80002188:	4b812403          	lw	s0,1208(sp)
8000218c:	4b412483          	lw	s1,1204(sp)
80002190:	4b012903          	lw	s2,1200(sp)
80002194:	4ac12983          	lw	s3,1196(sp)
80002198:	4a812a03          	lw	s4,1192(sp)
8000219c:	4a412a83          	lw	s5,1188(sp)
800021a0:	4a012b03          	lw	s6,1184(sp)
800021a4:	49c12b83          	lw	s7,1180(sp)
800021a8:	49812c03          	lw	s8,1176(sp)
800021ac:	49412c83          	lw	s9,1172(sp)
800021b0:	49012d03          	lw	s10,1168(sp)
800021b4:	48c12d83          	lw	s11,1164(sp)
800021b8:	4c010113          	addi	sp,sp,1216
800021bc:	8082                	ret

800021be <riscv_softmax_q7>:
riscv_softmax_q7():
800021be:	c9e1                	beqz	a1,8000228e <riscv_softmax_q7+0xd0>
800021c0:	eff00713          	li	a4,-257
800021c4:	4781                	li	a5,0
800021c6:	00f506b3          	add	a3,a0,a5
800021ca:	00068683          	lb	a3,0(a3)
800021ce:	01069813          	slli	a6,a3,0x10
800021d2:	41085813          	srai	a6,a6,0x10
800021d6:	00e85363          	bge	a6,a4,800021dc <riscv_softmax_q7+0x1e>
800021da:	86ba                	mv	a3,a4
800021dc:	0785                	addi	a5,a5,1
800021de:	07c2                	slli	a5,a5,0x10
800021e0:	01069713          	slli	a4,a3,0x10
800021e4:	87c1                	srai	a5,a5,0x10
800021e6:	8741                	srai	a4,a4,0x10
800021e8:	fcb7cfe3          	blt	a5,a1,800021c6 <riscv_softmax_q7+0x8>
800021ec:	1761                	addi	a4,a4,-8
800021ee:	0742                	slli	a4,a4,0x10
800021f0:	8741                	srai	a4,a4,0x10
800021f2:	4781                	li	a5,0
800021f4:	4881                	li	a7,0
800021f6:	437d                	li	t1,31
800021f8:	4e05                	li	t3,1
800021fa:	00f506b3          	add	a3,a0,a5
800021fe:	00068683          	lb	a3,0(a3)
80002202:	00d75d63          	bge	a4,a3,8000221c <riscv_softmax_q7+0x5e>
80002206:	8e99                	sub	a3,a3,a4
80002208:	80000837          	lui	a6,0x80000
8000220c:	00d34763          	blt	t1,a3,8000221a <riscv_softmax_q7+0x5c>
80002210:	4805                	li	a6,1
80002212:	0006c463          	bltz	a3,8000221a <riscv_softmax_q7+0x5c>
80002216:	00de1833          	sll	a6,t3,a3
8000221a:	98c2                	add	a7,a7,a6
8000221c:	0785                	addi	a5,a5,1
8000221e:	07c2                	slli	a5,a5,0x10
80002220:	87c1                	srai	a5,a5,0x10
80002222:	fcb7cce3          	blt	a5,a1,800021fa <riscv_softmax_q7+0x3c>
80002226:	00100337          	lui	t1,0x100
8000222a:	03134333          	div	t1,t1,a7
8000222e:	4781                	li	a5,0
80002230:	00d70293          	addi	t0,a4,13
80002234:	4ffd                	li	t6,31
80002236:	f8000f13          	li	t5,-128
8000223a:	07f00e93          	li	t4,127
8000223e:	41f35e13          	srai	t3,t1,0x1f
80002242:	00f506b3          	add	a3,a0,a5
80002246:	00068683          	lb	a3,0(a3)
8000224a:	00f608b3          	add	a7,a2,a5
8000224e:	02d75d63          	bge	a4,a3,80002288 <riscv_softmax_q7+0xca>
80002252:	40d286b3          	sub	a3,t0,a3
80002256:	8872                	mv	a6,t3
80002258:	00dfc763          	blt	t6,a3,80002266 <riscv_softmax_q7+0xa8>
8000225c:	881a                	mv	a6,t1
8000225e:	0006c463          	bltz	a3,80002266 <riscv_softmax_q7+0xa8>
80002262:	40d35833          	sra	a6,t1,a3
80002266:	86c2                	mv	a3,a6
80002268:	01e85463          	bge	a6,t5,80002270 <riscv_softmax_q7+0xb2>
8000226c:	f8000693          	li	a3,-128
80002270:	00ded463          	bge	t4,a3,80002278 <riscv_softmax_q7+0xba>
80002274:	07f00693          	li	a3,127
80002278:	00d88023          	sb	a3,0(a7)
8000227c:	0785                	addi	a5,a5,1
8000227e:	07c2                	slli	a5,a5,0x10
80002280:	87c1                	srai	a5,a5,0x10
80002282:	fcb7c0e3          	blt	a5,a1,80002242 <riscv_softmax_q7+0x84>
80002286:	8082                	ret
80002288:	00088023          	sb	zero,0(a7)
8000228c:	bfc5                	j	8000227c <riscv_softmax_q7+0xbe>
8000228e:	9002                	ebreak

80002290 <riscv_convolve_HWC_q7_fast>:
riscv_convolve_HWC_q7_fast():
80002290:	711d                	addi	sp,sp,-96
80002292:	c4d6                	sw	s5,72(sp)
80002294:	8aba                	mv	s5,a4
80002296:	8332                	mv	t1,a2
80002298:	00367713          	andi	a4,a2,3
8000229c:	001af613          	andi	a2,s5,1
800022a0:	8f51                	or	a4,a4,a2
800022a2:	06415603          	lhu	a2,100(sp)
800022a6:	da6a                	sw	s10,52(sp)
800022a8:	cea2                	sw	s0,92(sp)
800022aa:	ca32                	sw	a2,20(sp)
800022ac:	06815603          	lhu	a2,104(sp)
800022b0:	cca6                	sw	s1,88(sp)
800022b2:	caca                	sw	s2,84(sp)
800022b4:	c8ce                	sw	s3,80(sp)
800022b6:	c6d2                	sw	s4,76(sp)
800022b8:	c2da                	sw	s6,68(sp)
800022ba:	c0de                	sw	s7,64(sp)
800022bc:	de62                	sw	s8,60(sp)
800022be:	dc66                	sw	s9,56(sp)
800022c0:	d86e                	sw	s11,48(sp)
800022c2:	c632                	sw	a2,12(sp)
800022c4:	d646                	sw	a7,44(sp)
800022c6:	07015d03          	lhu	s10,112(sp)
800022ca:	18071863          	bnez	a4,8000245a <riscv_convolve_HWC_q7_fast+0x1ca>
800022ce:	160a8763          	beqz	s5,8000243c <riscv_convolve_HWC_q7_fast+0x1ac>
800022d2:	02f78733          	mul	a4,a5,a5
800022d6:	8e3e                	mv	t3,a5
800022d8:	4632                	lw	a2,12(sp)
800022da:	8bb6                	mv	s7,a3
800022dc:	fff30793          	addi	a5,t1,-1 # fffff <__stack_size+0xff7ff>
800022e0:	4685                	li	a3,1
800022e2:	00c696b3          	sll	a3,a3,a2
800022e6:	41000833          	neg	a6,a6
800022ea:	07c2                	slli	a5,a5,0x10
800022ec:	5c86                	lw	s9,96(sp)
800022ee:	02670733          	mul	a4,a4,t1
800022f2:	00150a13          	addi	s4,a0,1
800022f6:	83c1                	srli	a5,a5,0x10
800022f8:	8685                	srai	a3,a3,0x1
800022fa:	8b2a                	mv	s6,a0
800022fc:	8fae                	mv	t6,a1
800022fe:	c836                	sw	a3,16(sp)
80002300:	c202                	sw	zero,4(sp)
80002302:	cc02                	sw	zero,24(sp)
80002304:	9a3e                	add	s4,s4,a5
80002306:	026e0933          	mul	s2,t3,t1
8000230a:	d43a                	sw	a4,40(sp)
8000230c:	0ff87713          	zext.b	a4,a6
80002310:	d23a                	sw	a4,36(sp)
80002312:	100d0963          	beqz	s10,80002424 <riscv_convolve_HWC_q7_fast+0x194>
80002316:	5792                	lw	a5,36(sp)
80002318:	02c14d83          	lbu	s11,44(sp)
8000231c:	d002                	sw	zero,32(sp)
8000231e:	c43e                	sw	a5,8(sp)
80002320:	ce02                	sw	zero,28(sp)
80002322:	47f2                	lw	a5,28(sp)
80002324:	5f12                	lw	t5,36(sp)
80002326:	4c01                	li	s8,0
80002328:	035789b3          	mul	s3,a5,s5
8000232c:	47e2                	lw	a5,24(sp)
8000232e:	99be                	add	s3,s3,a5
80002330:	57b6                	lw	a5,108(sp)
80002332:	99be                	add	s3,s3,a5
80002334:	47d2                	lw	a5,20(sp)
80002336:	000c8883          	lb	a7,0(s9)
8000233a:	00f898b3          	sll	a7,a7,a5
8000233e:	47c2                	lw	a5,16(sp)
80002340:	98be                	add	a7,a7,a5
80002342:	080e0363          	beqz	t3,800023c8 <riscv_convolve_HWC_q7_fast+0x138>
80002346:	4392                	lw	t2,4(sp)
80002348:	42a2                	lw	t0,8(sp)
8000234a:	4401                	li	s0,0
8000234c:	01829613          	slli	a2,t0,0x18
80002350:	8661                	srai	a2,a2,0x18
80002352:	03f604b3          	mul	s1,a2,t6
80002356:	869e                	mv	a3,t2
80002358:	4701                	li	a4,0
8000235a:	00064c63          	bltz	a2,80002372 <riscv_convolve_HWC_q7_fast+0xe2>
8000235e:	00ef07b3          	add	a5,t5,a4
80002362:	07e2                	slli	a5,a5,0x18
80002364:	87e1                	srai	a5,a5,0x18
80002366:	0007c663          	bltz	a5,80002372 <riscv_convolve_HWC_q7_fast+0xe2>
8000236a:	01f65463          	bge	a2,t6,80002372 <riscv_convolve_HWC_q7_fast+0xe2>
8000236e:	03f7c763          	blt	a5,t6,8000239c <riscv_convolve_HWC_q7_fast+0x10c>
80002372:	00170793          	addi	a5,a4,1
80002376:	07c2                	slli	a5,a5,0x10
80002378:	83c1                	srli	a5,a5,0x10
8000237a:	969a                	add	a3,a3,t1
8000237c:	00fe0463          	beq	t3,a5,80002384 <riscv_convolve_HWC_q7_fast+0xf4>
80002380:	873e                	mv	a4,a5
80002382:	bfe1                	j	8000235a <riscv_convolve_HWC_q7_fast+0xca>
80002384:	00140793          	addi	a5,s0,1
80002388:	0285                	addi	t0,t0,1
8000238a:	07c2                	slli	a5,a5,0x10
8000238c:	83c1                	srli	a5,a5,0x10
8000238e:	0ff2f293          	zext.b	t0,t0
80002392:	93ca                	add	t2,t2,s2
80002394:	02870a63          	beq	a4,s0,800023c8 <riscv_convolve_HWC_q7_fast+0x138>
80002398:	843e                	mv	s0,a5
8000239a:	bf4d                	j	8000234c <riscv_convolve_HWC_q7_fast+0xbc>
8000239c:	fc030be3          	beqz	t1,80002372 <riscv_convolve_HWC_q7_fast+0xe2>
800023a0:	97a6                	add	a5,a5,s1
800023a2:	026787b3          	mul	a5,a5,t1
800023a6:	00db8833          	add	a6,s7,a3
800023aa:	00fb05b3          	add	a1,s6,a5
800023ae:	97d2                	add	a5,a5,s4
800023b0:	00058503          	lb	a0,0(a1)
800023b4:	00080e83          	lb	t4,0(a6) # 80000000 <_sp+0xeffc0000>
800023b8:	0585                	addi	a1,a1,1
800023ba:	0805                	addi	a6,a6,1
800023bc:	03d50533          	mul	a0,a0,t4
800023c0:	98aa                	add	a7,a7,a0
800023c2:	fef597e3          	bne	a1,a5,800023b0 <riscv_convolve_HWC_q7_fast+0x120>
800023c6:	b775                	j	80002372 <riscv_convolve_HWC_q7_fast+0xe2>
800023c8:	47b2                	lw	a5,12(sp)
800023ca:	40f8d8b3          	sra	a7,a7,a5
800023ce:	f8000793          	li	a5,-128
800023d2:	00f8d463          	bge	a7,a5,800023da <riscv_convolve_HWC_q7_fast+0x14a>
800023d6:	f8000893          	li	a7,-128
800023da:	07f00793          	li	a5,127
800023de:	0117d463          	bge	a5,a7,800023e6 <riscv_convolve_HWC_q7_fast+0x156>
800023e2:	07f00893          	li	a7,127
800023e6:	001c0793          	addi	a5,s8,1
800023ea:	07c2                	slli	a5,a5,0x10
800023ec:	01198023          	sb	a7,0(s3)
800023f0:	9f6e                	add	t5,t5,s11
800023f2:	83c1                	srli	a5,a5,0x10
800023f4:	99d6                	add	s3,s3,s5
800023f6:	0fff7f13          	zext.b	t5,t5
800023fa:	00fd0463          	beq	s10,a5,80002402 <riscv_convolve_HWC_q7_fast+0x172>
800023fe:	8c3e                	mv	s8,a5
80002400:	bf15                	j	80002334 <riscv_convolve_HWC_q7_fast+0xa4>
80002402:	4722                	lw	a4,8(sp)
80002404:	4672                	lw	a2,28(sp)
80002406:	5682                	lw	a3,32(sp)
80002408:	976e                	add	a4,a4,s11
8000240a:	966a                	add	a2,a2,s10
8000240c:	00168793          	addi	a5,a3,1
80002410:	0ff77713          	zext.b	a4,a4
80002414:	07c2                	slli	a5,a5,0x10
80002416:	ce32                	sw	a2,28(sp)
80002418:	c43a                	sw	a4,8(sp)
8000241a:	83c1                	srli	a5,a5,0x10
8000241c:	01868463          	beq	a3,s8,80002424 <riscv_convolve_HWC_q7_fast+0x194>
80002420:	d03e                	sw	a5,32(sp)
80002422:	b701                	j	80002322 <riscv_convolve_HWC_q7_fast+0x92>
80002424:	47e2                	lw	a5,24(sp)
80002426:	4712                	lw	a4,4(sp)
80002428:	56a2                	lw	a3,40(sp)
8000242a:	0785                	addi	a5,a5,1
8000242c:	cc3e                	sw	a5,24(sp)
8000242e:	9736                	add	a4,a4,a3
80002430:	07c2                	slli	a5,a5,0x10
80002432:	83c1                	srli	a5,a5,0x10
80002434:	c23a                	sw	a4,4(sp)
80002436:	0c85                	addi	s9,s9,1
80002438:	ed57ede3          	bltu	a5,s5,80002312 <riscv_convolve_HWC_q7_fast+0x82>
8000243c:	4501                	li	a0,0
8000243e:	4476                	lw	s0,92(sp)
80002440:	44e6                	lw	s1,88(sp)
80002442:	4956                	lw	s2,84(sp)
80002444:	49c6                	lw	s3,80(sp)
80002446:	4a36                	lw	s4,76(sp)
80002448:	4aa6                	lw	s5,72(sp)
8000244a:	4b16                	lw	s6,68(sp)
8000244c:	4b86                	lw	s7,64(sp)
8000244e:	5c72                	lw	s8,60(sp)
80002450:	5ce2                	lw	s9,56(sp)
80002452:	5d52                	lw	s10,52(sp)
80002454:	5dc2                	lw	s11,48(sp)
80002456:	6125                	addi	sp,sp,96
80002458:	8082                	ret
8000245a:	5575                	li	a0,-3
8000245c:	b7cd                	j	8000243e <riscv_convolve_HWC_q7_fast+0x1ae>

8000245e <riscv_convolve_HWC_q7_RGB>:
riscv_convolve_HWC_q7_RGB():
8000245e:	711d                	addi	sp,sp,-96
80002460:	cea2                	sw	s0,92(sp)
80002462:	06415403          	lhu	s0,100(sp)
80002466:	da6a                	sw	s10,52(sp)
80002468:	d86e                	sw	s11,48(sp)
8000246a:	cca6                	sw	s1,88(sp)
8000246c:	caca                	sw	s2,84(sp)
8000246e:	c8ce                	sw	s3,80(sp)
80002470:	c6d2                	sw	s4,76(sp)
80002472:	c4d6                	sw	s5,72(sp)
80002474:	c2da                	sw	s6,68(sp)
80002476:	c0de                	sw	s7,64(sp)
80002478:	de62                	sw	s8,60(sp)
8000247a:	dc66                	sw	s9,56(sp)
8000247c:	430d                	li	t1,3
8000247e:	cc22                	sw	s0,24(sp)
80002480:	06815d83          	lhu	s11,104(sp)
80002484:	07015d03          	lhu	s10,112(sp)
80002488:	18661163          	bne	a2,t1,8000260a <riscv_convolve_HWC_q7_RGB+0x1ac>
8000248c:	8bba                	mv	s7,a4
8000248e:	14070f63          	beqz	a4,800025ec <riscv_convolve_HWC_q7_RGB+0x18e>
80002492:	02f78733          	mul	a4,a5,a5
80002496:	8936                	mv	s2,a3
80002498:	86be                	mv	a3,a5
8000249a:	4785                	li	a5,1
8000249c:	01b797b3          	sll	a5,a5,s11
800024a0:	8785                	srai	a5,a5,0x1
800024a2:	ca3e                	sw	a5,20(sp)
800024a4:	41000833          	neg	a6,a6
800024a8:	5c86                	lw	s9,96(sp)
800024aa:	8a2a                	mv	s4,a0
800024ac:	00171793          	slli	a5,a4,0x1
800024b0:	97ba                	add	a5,a5,a4
800024b2:	d63e                	sw	a5,44(sp)
800024b4:	0ff8f793          	zext.b	a5,a7
800024b8:	00169493          	slli	s1,a3,0x1
800024bc:	c83e                	sw	a5,16(sp)
800024be:	0ff87793          	zext.b	a5,a6
800024c2:	852e                	mv	a0,a1
800024c4:	94b6                	add	s1,s1,a3
800024c6:	c602                	sw	zero,12(sp)
800024c8:	ce02                	sw	zero,28(sp)
800024ca:	d43e                	sw	a5,40(sp)
800024cc:	003a0a93          	addi	s5,s4,3
800024d0:	100d0263          	beqz	s10,800025d4 <riscv_convolve_HWC_q7_RGB+0x176>
800024d4:	5c22                	lw	s8,40(sp)
800024d6:	d002                	sw	zero,32(sp)
800024d8:	d202                	sw	zero,36(sp)
800024da:	5782                	lw	a5,32(sp)
800024dc:	55a2                	lw	a1,40(sp)
800024de:	4b01                	li	s6,0
800024e0:	037789b3          	mul	s3,a5,s7
800024e4:	47f2                	lw	a5,28(sp)
800024e6:	99be                	add	s3,s3,a5
800024e8:	57b6                	lw	a5,108(sp)
800024ea:	99be                	add	s3,s3,a5
800024ec:	47e2                	lw	a5,24(sp)
800024ee:	000c8e83          	lb	t4,0(s9)
800024f2:	00fe9eb3          	sll	t4,t4,a5
800024f6:	47d2                	lw	a5,20(sp)
800024f8:	9ebe                	add	t4,t4,a5
800024fa:	caa9                	beqz	a3,8000254c <riscv_convolve_HWC_q7_RGB+0xee>
800024fc:	4fb2                	lw	t6,12(sp)
800024fe:	88e2                	mv	a7,s8
80002500:	4801                	li	a6,0
80002502:	01889713          	slli	a4,a7,0x18
80002506:	8761                	srai	a4,a4,0x18
80002508:	02a70433          	mul	s0,a4,a0
8000250c:	4781                	li	a5,0
8000250e:	01f903b3          	add	t2,s2,t6
80002512:	00074d63          	bltz	a4,8000252c <riscv_convolve_HWC_q7_RGB+0xce>
80002516:	00f58333          	add	t1,a1,a5
8000251a:	0362                	slli	t1,t1,0x18
8000251c:	41835313          	srai	t1,t1,0x18
80002520:	00034663          	bltz	t1,8000252c <riscv_convolve_HWC_q7_RGB+0xce>
80002524:	00a75463          	bge	a4,a0,8000252c <riscv_convolve_HWC_q7_RGB+0xce>
80002528:	04a34f63          	blt	t1,a0,80002586 <riscv_convolve_HWC_q7_RGB+0x128>
8000252c:	0785                	addi	a5,a5,1
8000252e:	01079613          	slli	a2,a5,0x10
80002532:	8241                	srli	a2,a2,0x10
80002534:	fcd66fe3          	bltu	a2,a3,80002512 <riscv_convolve_HWC_q7_RGB+0xb4>
80002538:	0805                	addi	a6,a6,1
8000253a:	0842                	slli	a6,a6,0x10
8000253c:	0885                	addi	a7,a7,1
8000253e:	01085813          	srli	a6,a6,0x10
80002542:	0ff8f893          	zext.b	a7,a7
80002546:	9fa6                	add	t6,t6,s1
80002548:	fb069de3          	bne	a3,a6,80002502 <riscv_convolve_HWC_q7_RGB+0xa4>
8000254c:	41bedeb3          	sra	t4,t4,s11
80002550:	f8000793          	li	a5,-128
80002554:	00fed463          	bge	t4,a5,8000255c <riscv_convolve_HWC_q7_RGB+0xfe>
80002558:	f8000e93          	li	t4,-128
8000255c:	07f00793          	li	a5,127
80002560:	01d7d463          	bge	a5,t4,80002568 <riscv_convolve_HWC_q7_RGB+0x10a>
80002564:	07f00e93          	li	t4,127
80002568:	4742                	lw	a4,16(sp)
8000256a:	001b0793          	addi	a5,s6,1
8000256e:	07c2                	slli	a5,a5,0x10
80002570:	01d98023          	sb	t4,0(s3)
80002574:	95ba                	add	a1,a1,a4
80002576:	83c1                	srli	a5,a5,0x10
80002578:	99de                	add	s3,s3,s7
8000257a:	0ff5f593          	zext.b	a1,a1
8000257e:	02fd0b63          	beq	s10,a5,800025b4 <riscv_convolve_HWC_q7_RGB+0x156>
80002582:	8b3e                	mv	s6,a5
80002584:	b7a5                	j	800024ec <riscv_convolve_HWC_q7_RGB+0x8e>
80002586:	9322                	add	t1,t1,s0
80002588:	00131f13          	slli	t5,t1,0x1
8000258c:	00179613          	slli	a2,a5,0x1
80002590:	9f1a                	add	t5,t5,t1
80002592:	963e                	add	a2,a2,a5
80002594:	01ea0333          	add	t1,s4,t5
80002598:	961e                	add	a2,a2,t2
8000259a:	9f56                	add	t5,t5,s5
8000259c:	00030e03          	lb	t3,0(t1)
800025a0:	00060283          	lb	t0,0(a2)
800025a4:	0305                	addi	t1,t1,1
800025a6:	0605                	addi	a2,a2,1
800025a8:	025e0e33          	mul	t3,t3,t0
800025ac:	9ef2                	add	t4,t4,t3
800025ae:	fe6f17e3          	bne	t5,t1,8000259c <riscv_convolve_HWC_q7_RGB+0x13e>
800025b2:	bfad                	j	8000252c <riscv_convolve_HWC_q7_RGB+0xce>
800025b4:	4642                	lw	a2,16(sp)
800025b6:	5712                	lw	a4,36(sp)
800025b8:	9c32                	add	s8,s8,a2
800025ba:	5602                	lw	a2,32(sp)
800025bc:	00170793          	addi	a5,a4,1
800025c0:	07c2                	slli	a5,a5,0x10
800025c2:	966a                	add	a2,a2,s10
800025c4:	d032                	sw	a2,32(sp)
800025c6:	83c1                	srli	a5,a5,0x10
800025c8:	0ffc7c13          	zext.b	s8,s8
800025cc:	00eb0463          	beq	s6,a4,800025d4 <riscv_convolve_HWC_q7_RGB+0x176>
800025d0:	d23e                	sw	a5,36(sp)
800025d2:	b721                	j	800024da <riscv_convolve_HWC_q7_RGB+0x7c>
800025d4:	47f2                	lw	a5,28(sp)
800025d6:	4732                	lw	a4,12(sp)
800025d8:	5632                	lw	a2,44(sp)
800025da:	0785                	addi	a5,a5,1
800025dc:	ce3e                	sw	a5,28(sp)
800025de:	9732                	add	a4,a4,a2
800025e0:	07c2                	slli	a5,a5,0x10
800025e2:	83c1                	srli	a5,a5,0x10
800025e4:	c63a                	sw	a4,12(sp)
800025e6:	0c85                	addi	s9,s9,1
800025e8:	ef77e4e3          	bltu	a5,s7,800024d0 <riscv_convolve_HWC_q7_RGB+0x72>
800025ec:	4501                	li	a0,0
800025ee:	4476                	lw	s0,92(sp)
800025f0:	44e6                	lw	s1,88(sp)
800025f2:	4956                	lw	s2,84(sp)
800025f4:	49c6                	lw	s3,80(sp)
800025f6:	4a36                	lw	s4,76(sp)
800025f8:	4aa6                	lw	s5,72(sp)
800025fa:	4b16                	lw	s6,68(sp)
800025fc:	4b86                	lw	s7,64(sp)
800025fe:	5c72                	lw	s8,60(sp)
80002600:	5ce2                	lw	s9,56(sp)
80002602:	5d52                	lw	s10,52(sp)
80002604:	5dc2                	lw	s11,48(sp)
80002606:	6125                	addi	sp,sp,96
80002608:	8082                	ret
8000260a:	5575                	li	a0,-3
8000260c:	b7cd                	j	800025ee <riscv_convolve_HWC_q7_RGB+0x190>

8000260e <riscv_relu_q7>:
riscv_relu_q7():
8000260e:	c185                	beqz	a1,8000262e <riscv_relu_q7+0x20>
80002610:	15fd                	addi	a1,a1,-1
80002612:	05c2                	slli	a1,a1,0x10
80002614:	00150713          	addi	a4,a0,1
80002618:	81c1                	srli	a1,a1,0x10
8000261a:	972e                	add	a4,a4,a1
8000261c:	00050783          	lb	a5,0(a0)
80002620:	0007d463          	bgez	a5,80002628 <riscv_relu_q7+0x1a>
80002624:	00050023          	sb	zero,0(a0)
80002628:	0505                	addi	a0,a0,1
8000262a:	fee519e3          	bne	a0,a4,8000261c <riscv_relu_q7+0xe>
8000262e:	8082                	ret

80002630 <riscv_fully_connected_q7_opt>:
riscv_fully_connected_q7_opt():
80002630:	7119                	addi	sp,sp,-128
80002632:	c4b6                	sw	a3,72(sp)
80002634:	dea2                	sw	s0,124(sp)
80002636:	dca6                	sw	s1,120(sp)
80002638:	daca                	sw	s2,116(sp)
8000263a:	d8ce                	sw	s3,112(sp)
8000263c:	d6d2                	sw	s4,108(sp)
8000263e:	d4d6                	sw	s5,104(sp)
80002640:	d2da                	sw	s6,100(sp)
80002642:	d0de                	sw	s7,96(sp)
80002644:	cee2                	sw	s8,92(sp)
80002646:	cce6                	sw	s9,88(sp)
80002648:	caea                	sw	s10,84(sp)
8000264a:	c8ee                	sw	s11,80(sp)
8000264c:	8289                	srli	a3,a3,0x2
8000264e:	ce2a                	sw	a0,28(sp)
80002650:	c2b2                	sw	a2,68(sp)
80002652:	cc3a                	sw	a4,24(sp)
80002654:	c83e                	sw	a5,16(sp)
80002656:	d842                	sw	a6,48(sp)
80002658:	c646                	sw	a7,12(sp)
8000265a:	22068c63          	beqz	a3,80002892 <riscv_fully_connected_q7_opt+0x262>
8000265e:	00265713          	srli	a4,a2,0x2
80002662:	843e                	mv	s0,a5
80002664:	d23a                	sw	a4,36(sp)
80002666:	fff68793          	addi	a5,a3,-1
8000266a:	177d                	addi	a4,a4,-1
8000266c:	8a0d                	andi	a2,a2,3
8000266e:	07c2                	slli	a5,a5,0x10
80002670:	0742                	slli	a4,a4,0x10
80002672:	d632                	sw	a2,44(sp)
80002674:	83c1                	srli	a5,a5,0x10
80002676:	8341                	srli	a4,a4,0x10
80002678:	167d                	addi	a2,a2,-1
8000267a:	0705                	addi	a4,a4,1
8000267c:	0785                	addi	a5,a5,1
8000267e:	0642                	slli	a2,a2,0x10
80002680:	4685                	li	a3,1
80002682:	008696b3          	sll	a3,a3,s0
80002686:	8241                	srli	a2,a2,0x10
80002688:	00279413          	slli	s0,a5,0x2
8000268c:	00271793          	slli	a5,a4,0x2
80002690:	0605                	addi	a2,a2,1
80002692:	8685                	srai	a3,a3,0x1
80002694:	97aa                	add	a5,a5,a0
80002696:	d036                	sw	a3,32(sp)
80002698:	0712                	slli	a4,a4,0x4
8000269a:	008886b3          	add	a3,a7,s0
8000269e:	dc3e                	sw	a5,56(sp)
800026a0:	00261793          	slli	a5,a2,0x2
800026a4:	c6a2                	sw	s0,76(sp)
800026a6:	c0b2                	sw	a2,64(sp)
800026a8:	d436                	sw	a3,40(sp)
800026aa:	da3a                	sw	a4,52(sp)
800026ac:	de3e                	sw	a5,60(sp)
800026ae:	ca42                	sw	a6,20(sp)
800026b0:	47d2                	lw	a5,20(sp)
800026b2:	4762                	lw	a4,24(sp)
800026b4:	00078483          	lb	s1,0(a5)
800026b8:	00178403          	lb	s0,1(a5)
800026bc:	00278383          	lb	t2,2(a5)
800026c0:	00378283          	lb	t0,3(a5)
800026c4:	0791                	addi	a5,a5,4
800026c6:	ca3e                	sw	a5,20(sp)
800026c8:	5782                	lw	a5,32(sp)
800026ca:	00e494b3          	sll	s1,s1,a4
800026ce:	00e41433          	sll	s0,s0,a4
800026d2:	00e393b3          	sll	t2,t2,a4
800026d6:	00e292b3          	sll	t0,t0,a4
800026da:	94be                	add	s1,s1,a5
800026dc:	943e                	add	s0,s0,a5
800026de:	93be                	add	t2,t2,a5
800026e0:	92be                	add	t0,t0,a5
800026e2:	5792                	lw	a5,36(sp)
800026e4:	24078763          	beqz	a5,80002932 <riscv_fully_connected_q7_opt+0x302>
800026e8:	57d2                	lw	a5,52(sp)
800026ea:	4572                	lw	a0,28(sp)
800026ec:	00f58db3          	add	s11,a1,a5
800026f0:	00050783          	lb	a5,0(a0)
800026f4:	00250f83          	lb	t6,2(a0)
800026f8:	00058603          	lb	a2,0(a1)
800026fc:	00258c83          	lb	s9,2(a1)
80002700:	00158683          	lb	a3,1(a1)
80002704:	00358c03          	lb	s8,3(a1)
80002708:	00458703          	lb	a4,4(a1)
8000270c:	00658b83          	lb	s7,6(a1)
80002710:	00558d03          	lb	s10,5(a1)
80002714:	00758b03          	lb	s6,7(a1)
80002718:	00150e83          	lb	t4,1(a0)
8000271c:	00350f03          	lb	t5,3(a0)
80002720:	00858e03          	lb	t3,8(a1)
80002724:	00a58a83          	lb	s5,10(a1)
80002728:	00958303          	lb	t1,9(a1)
8000272c:	00b58a03          	lb	s4,11(a1)
80002730:	00c58883          	lb	a7,12(a1)
80002734:	00d58903          	lb	s2,13(a1)
80002738:	00e58983          	lb	s3,14(a1)
8000273c:	00f58803          	lb	a6,15(a1)
80002740:	02f60633          	mul	a2,a2,a5
80002744:	05c1                	addi	a1,a1,16
80002746:	0511                	addi	a0,a0,4
80002748:	03fc8cb3          	mul	s9,s9,t6
8000274c:	02f686b3          	mul	a3,a3,a5
80002750:	9666                	add	a2,a2,s9
80002752:	9626                	add	a2,a2,s1
80002754:	03fc0c33          	mul	s8,s8,t6
80002758:	02f70733          	mul	a4,a4,a5
8000275c:	9c36                	add	s8,s8,a3
8000275e:	9462                	add	s0,s0,s8
80002760:	03fb8bb3          	mul	s7,s7,t6
80002764:	02fd07b3          	mul	a5,s10,a5
80002768:	975e                	add	a4,a4,s7
8000276a:	93ba                	add	t2,t2,a4
8000276c:	03fb0fb3          	mul	t6,s6,t6
80002770:	03de0e33          	mul	t3,t3,t4
80002774:	97fe                	add	a5,a5,t6
80002776:	92be                	add	t0,t0,a5
80002778:	03d30333          	mul	t1,t1,t4
8000277c:	03d888b3          	mul	a7,a7,t4
80002780:	03ea8ab3          	mul	s5,s5,t5
80002784:	03ea0a33          	mul	s4,s4,t5
80002788:	9e56                	add	t3,t3,s5
8000278a:	00ce04b3          	add	s1,t3,a2
8000278e:	03e989b3          	mul	s3,s3,t5
80002792:	9352                	add	t1,t1,s4
80002794:	941a                	add	s0,s0,t1
80002796:	03e80833          	mul	a6,a6,t5
8000279a:	98ce                	add	a7,a7,s3
8000279c:	93c6                	add	t2,t2,a7
8000279e:	03d90eb3          	mul	t4,s2,t4
800027a2:	9876                	add	a6,a6,t4
800027a4:	92c2                	add	t0,t0,a6
800027a6:	f5b595e3          	bne	a1,s11,800026f0 <riscv_fully_connected_q7_opt+0xc0>
800027aa:	56e2                	lw	a3,56(sp)
800027ac:	57b2                	lw	a5,44(sp)
800027ae:	c3a9                	beqz	a5,800027f0 <riscv_fully_connected_q7_opt+0x1c0>
800027b0:	4786                	lw	a5,64(sp)
800027b2:	00f68333          	add	t1,a3,a5
800027b6:	87ae                	mv	a5,a1
800027b8:	00068703          	lb	a4,0(a3)
800027bc:	00078883          	lb	a7,0(a5)
800027c0:	00178803          	lb	a6,1(a5)
800027c4:	00278503          	lb	a0,2(a5)
800027c8:	00378603          	lb	a2,3(a5)
800027cc:	02e888b3          	mul	a7,a7,a4
800027d0:	0685                	addi	a3,a3,1
800027d2:	0791                	addi	a5,a5,4
800027d4:	02e80833          	mul	a6,a6,a4
800027d8:	94c6                	add	s1,s1,a7
800027da:	02e50533          	mul	a0,a0,a4
800027de:	9442                	add	s0,s0,a6
800027e0:	02e60733          	mul	a4,a2,a4
800027e4:	93aa                	add	t2,t2,a0
800027e6:	92ba                	add	t0,t0,a4
800027e8:	fc6698e3          	bne	a3,t1,800027b8 <riscv_fully_connected_q7_opt+0x188>
800027ec:	57f2                	lw	a5,60(sp)
800027ee:	95be                	add	a1,a1,a5
800027f0:	47c2                	lw	a5,16(sp)
800027f2:	40f4d4b3          	sra	s1,s1,a5
800027f6:	f8000793          	li	a5,-128
800027fa:	00f4d463          	bge	s1,a5,80002802 <riscv_fully_connected_q7_opt+0x1d2>
800027fe:	f8000493          	li	s1,-128
80002802:	07f00793          	li	a5,127
80002806:	0097d463          	bge	a5,s1,8000280e <riscv_fully_connected_q7_opt+0x1de>
8000280a:	07f00493          	li	s1,127
8000280e:	47b2                	lw	a5,12(sp)
80002810:	00978023          	sb	s1,0(a5)
80002814:	47c2                	lw	a5,16(sp)
80002816:	40f45433          	sra	s0,s0,a5
8000281a:	f8000793          	li	a5,-128
8000281e:	00f45463          	bge	s0,a5,80002826 <riscv_fully_connected_q7_opt+0x1f6>
80002822:	f8000413          	li	s0,-128
80002826:	07f00793          	li	a5,127
8000282a:	0087d463          	bge	a5,s0,80002832 <riscv_fully_connected_q7_opt+0x202>
8000282e:	07f00413          	li	s0,127
80002832:	47b2                	lw	a5,12(sp)
80002834:	008780a3          	sb	s0,1(a5)
80002838:	47c2                	lw	a5,16(sp)
8000283a:	40f3d3b3          	sra	t2,t2,a5
8000283e:	f8000793          	li	a5,-128
80002842:	00f3d463          	bge	t2,a5,8000284a <riscv_fully_connected_q7_opt+0x21a>
80002846:	f8000393          	li	t2,-128
8000284a:	07f00793          	li	a5,127
8000284e:	0077d463          	bge	a5,t2,80002856 <riscv_fully_connected_q7_opt+0x226>
80002852:	07f00393          	li	t2,127
80002856:	47b2                	lw	a5,12(sp)
80002858:	4742                	lw	a4,16(sp)
8000285a:	00778123          	sb	t2,2(a5)
8000285e:	0791                	addi	a5,a5,4
80002860:	c63e                	sw	a5,12(sp)
80002862:	40e2d2b3          	sra	t0,t0,a4
80002866:	f8000793          	li	a5,-128
8000286a:	00f2d463          	bge	t0,a5,80002872 <riscv_fully_connected_q7_opt+0x242>
8000286e:	f8000293          	li	t0,-128
80002872:	07f00793          	li	a5,127
80002876:	0057d463          	bge	a5,t0,8000287e <riscv_fully_connected_q7_opt+0x24e>
8000287a:	07f00293          	li	t0,127
8000287e:	47b2                	lw	a5,12(sp)
80002880:	5722                	lw	a4,40(sp)
80002882:	fe578fa3          	sb	t0,-1(a5)
80002886:	e2e795e3          	bne	a5,a4,800026b0 <riscv_fully_connected_q7_opt+0x80>
8000288a:	57c2                	lw	a5,48(sp)
8000288c:	4736                	lw	a4,76(sp)
8000288e:	97ba                	add	a5,a5,a4
80002890:	d83e                	sw	a5,48(sp)
80002892:	47a6                	lw	a5,72(sp)
80002894:	8b8d                	andi	a5,a5,3
80002896:	cfbd                	beqz	a5,80002914 <riscv_fully_connected_q7_opt+0x2e4>
80002898:	48b2                	lw	a7,12(sp)
8000289a:	4742                	lw	a4,16(sp)
8000289c:	4305                	li	t1,1
8000289e:	97c6                	add	a5,a5,a7
800028a0:	00e31333          	sll	t1,t1,a4
800028a4:	01079813          	slli	a6,a5,0x10
800028a8:	40135313          	srai	t1,t1,0x1
800028ac:	f8000e93          	li	t4,-128
800028b0:	07f00e13          	li	t3,127
800028b4:	01085813          	srli	a6,a6,0x10
800028b8:	57c2                	lw	a5,48(sp)
800028ba:	00078703          	lb	a4,0(a5)
800028be:	0785                	addi	a5,a5,1
800028c0:	d83e                	sw	a5,48(sp)
800028c2:	47e2                	lw	a5,24(sp)
800028c4:	00f71733          	sll	a4,a4,a5
800028c8:	4796                	lw	a5,68(sp)
800028ca:	971a                	add	a4,a4,t1
800028cc:	c7ad                	beqz	a5,80002936 <riscv_fully_connected_q7_opt+0x306>
800028ce:	46f2                	lw	a3,28(sp)
800028d0:	00f58533          	add	a0,a1,a5
800028d4:	00068783          	lb	a5,0(a3)
800028d8:	00058603          	lb	a2,0(a1)
800028dc:	0585                	addi	a1,a1,1
800028de:	0685                	addi	a3,a3,1
800028e0:	02c787b3          	mul	a5,a5,a2
800028e4:	973e                	add	a4,a4,a5
800028e6:	fea597e3          	bne	a1,a0,800028d4 <riscv_fully_connected_q7_opt+0x2a4>
800028ea:	47c2                	lw	a5,16(sp)
800028ec:	0885                	addi	a7,a7,1
800028ee:	40f75733          	sra	a4,a4,a5
800028f2:	01d75463          	bge	a4,t4,800028fa <riscv_fully_connected_q7_opt+0x2ca>
800028f6:	f8000713          	li	a4,-128
800028fa:	00ee5463          	bge	t3,a4,80002902 <riscv_fully_connected_q7_opt+0x2d2>
800028fe:	07f00713          	li	a4,127
80002902:	01089793          	slli	a5,a7,0x10
80002906:	fee88fa3          	sb	a4,-1(a7)
8000290a:	83c1                	srli	a5,a5,0x10
8000290c:	01078463          	beq	a5,a6,80002914 <riscv_fully_connected_q7_opt+0x2e4>
80002910:	85aa                	mv	a1,a0
80002912:	b75d                	j	800028b8 <riscv_fully_connected_q7_opt+0x288>
80002914:	5476                	lw	s0,124(sp)
80002916:	54e6                	lw	s1,120(sp)
80002918:	5956                	lw	s2,116(sp)
8000291a:	59c6                	lw	s3,112(sp)
8000291c:	5a36                	lw	s4,108(sp)
8000291e:	5aa6                	lw	s5,104(sp)
80002920:	5b16                	lw	s6,100(sp)
80002922:	5b86                	lw	s7,96(sp)
80002924:	4c76                	lw	s8,92(sp)
80002926:	4ce6                	lw	s9,88(sp)
80002928:	4d56                	lw	s10,84(sp)
8000292a:	4dc6                	lw	s11,80(sp)
8000292c:	4501                	li	a0,0
8000292e:	6109                	addi	sp,sp,128
80002930:	8082                	ret
80002932:	46f2                	lw	a3,28(sp)
80002934:	bda5                	j	800027ac <riscv_fully_connected_q7_opt+0x17c>
80002936:	852e                	mv	a0,a1
80002938:	bf4d                	j	800028ea <riscv_fully_connected_q7_opt+0x2ba>

8000293a <riscv_maxpool_q7_HWC>:
riscv_maxpool_q7_HWC():
8000293a:	7139                	addi	sp,sp,-64
8000293c:	de22                	sw	s0,60(sp)
8000293e:	dc26                	sw	s1,56(sp)
80002940:	da4a                	sw	s2,52(sp)
80002942:	d84e                	sw	s3,48(sp)
80002944:	d652                	sw	s4,44(sp)
80002946:	d456                	sw	s5,40(sp)
80002948:	d25a                	sw	s6,36(sp)
8000294a:	d05e                	sw	s7,32(sp)
8000294c:	ce62                	sw	s8,28(sp)
8000294e:	cc66                	sw	s9,24(sp)
80002950:	ca6a                	sw	s10,20(sp)
80002952:	c86e                	sw	s11,16(sp)
80002954:	c62a                	sw	a0,12(sp)
80002956:	10060263          	beqz	a2,80002a5a <riscv_maxpool_q7_HWC+0x120>
8000295a:	40e00c33          	neg	s8,a4
8000295e:	0c42                	slli	s8,s8,0x10
80002960:	8f32                	mv	t5,a2
80002962:	852e                	mv	a0,a1
80002964:	8b36                	mv	s6,a3
80002966:	8aba                	mv	s5,a4
80002968:	893e                	mv	s2,a5
8000296a:	89c2                	mv	s3,a6
8000296c:	4c81                	li	s9,0
8000296e:	4f81                	li	t6,0
80002970:	010c5c13          	srli	s8,s8,0x10
80002974:	0c098c63          	beqz	s3,80002a4c <riscv_maxpool_q7_HWC+0x112>
80002978:	4786                	lw	a5,64(sp)
8000297a:	8de2                	mv	s11,s8
8000297c:	4d01                	li	s10,0
8000297e:	01f78bb3          	add	s7,a5,t6
80002982:	47b2                	lw	a5,12(sp)
80002984:	4a01                	li	s4,0
80002986:	9fbe                	add	t6,t6,a5
80002988:	03490eb3          	mul	t4,s2,s4
8000298c:	010d9493          	slli	s1,s11,0x10
80002990:	84c1                	srai	s1,s1,0x10
80002992:	83e2                	mv	t2,s8
80002994:	4281                	li	t0,0
80002996:	4401                	li	s0,0
80002998:	03498a33          	mul	s4,s3,s4
8000299c:	415e8eb3          	sub	t4,t4,s5
800029a0:	9eda                	add	t4,t4,s6
800029a2:	0dd4da63          	bge	s1,t4,80002a76 <riscv_maxpool_q7_HWC+0x13c>
800029a6:	01039893          	slli	a7,t2,0x10
800029aa:	4108d893          	srai	a7,a7,0x10
800029ae:	86a6                	mv	a3,s1
800029b0:	8826                	mv	a6,s1
800029b2:	f7f00e13          	li	t3,-129
800029b6:	028905b3          	mul	a1,s2,s0
800029ba:	415585b3          	sub	a1,a1,s5
800029be:	95da                	add	a1,a1,s6
800029c0:	04b8d063          	bge	a7,a1,80002a00 <riscv_maxpool_q7_HWC+0xc6>
800029c4:	02a80333          	mul	t1,a6,a0
800029c8:	87c6                	mv	a5,a7
800029ca:	8646                	mv	a2,a7
800029cc:	00178713          	addi	a4,a5,1
800029d0:	0206c263          	bltz	a3,800029f4 <riscv_maxpool_q7_HWC+0xba>
800029d4:	0207c063          	bltz	a5,800029f4 <riscv_maxpool_q7_HWC+0xba>
800029d8:	00a85e63          	bge	a6,a0,800029f4 <riscv_maxpool_q7_HWC+0xba>
800029dc:	00c307b3          	add	a5,t1,a2
800029e0:	00a65a63          	bge	a2,a0,800029f4 <riscv_maxpool_q7_HWC+0xba>
800029e4:	03e787b3          	mul	a5,a5,t5
800029e8:	97fe                	add	a5,a5,t6
800029ea:	00078783          	lb	a5,0(a5)
800029ee:	00fe5363          	bge	t3,a5,800029f4 <riscv_maxpool_q7_HWC+0xba>
800029f2:	8e3e                	mv	t3,a5
800029f4:	01071793          	slli	a5,a4,0x10
800029f8:	87c1                	srai	a5,a5,0x10
800029fa:	863e                	mv	a2,a5
800029fc:	fcb7c8e3          	blt	a5,a1,800029cc <riscv_maxpool_q7_HWC+0x92>
80002a00:	0685                	addi	a3,a3,1
80002a02:	06c2                	slli	a3,a3,0x10
80002a04:	86c1                	srai	a3,a3,0x10
80002a06:	8836                	mv	a6,a3
80002a08:	fbd6cce3          	blt	a3,t4,800029c0 <riscv_maxpool_q7_HWC+0x86>
80002a0c:	0e62                	slli	t3,t3,0x18
80002a0e:	418e5e13          	srai	t3,t3,0x18
80002a12:	008a07b3          	add	a5,s4,s0
80002a16:	03e787b3          	mul	a5,a5,t5
80002a1a:	0285                	addi	t0,t0,1
80002a1c:	02c2                	slli	t0,t0,0x10
80002a1e:	93ca                	add	t2,t2,s2
80002a20:	4102d293          	srai	t0,t0,0x10
80002a24:	03c2                	slli	t2,t2,0x10
80002a26:	8416                	mv	s0,t0
80002a28:	0103d393          	srli	t2,t2,0x10
80002a2c:	97de                	add	a5,a5,s7
80002a2e:	01c78023          	sb	t3,0(a5)
80002a32:	f732c8e3          	blt	t0,s3,800029a2 <riscv_maxpool_q7_HWC+0x68>
80002a36:	0d05                	addi	s10,s10,1
80002a38:	0d42                	slli	s10,s10,0x10
80002a3a:	9dca                	add	s11,s11,s2
80002a3c:	410d5d13          	srai	s10,s10,0x10
80002a40:	0dc2                	slli	s11,s11,0x10
80002a42:	8a6a                	mv	s4,s10
80002a44:	010ddd93          	srli	s11,s11,0x10
80002a48:	f53d40e3          	blt	s10,s3,80002988 <riscv_maxpool_q7_HWC+0x4e>
80002a4c:	0c85                	addi	s9,s9,1
80002a4e:	0cc2                	slli	s9,s9,0x10
80002a50:	410cdc93          	srai	s9,s9,0x10
80002a54:	8fe6                	mv	t6,s9
80002a56:	f1eccfe3          	blt	s9,t5,80002974 <riscv_maxpool_q7_HWC+0x3a>
80002a5a:	5472                	lw	s0,60(sp)
80002a5c:	54e2                	lw	s1,56(sp)
80002a5e:	5952                	lw	s2,52(sp)
80002a60:	59c2                	lw	s3,48(sp)
80002a62:	5a32                	lw	s4,44(sp)
80002a64:	5aa2                	lw	s5,40(sp)
80002a66:	5b12                	lw	s6,36(sp)
80002a68:	5b82                	lw	s7,32(sp)
80002a6a:	4c72                	lw	s8,28(sp)
80002a6c:	4ce2                	lw	s9,24(sp)
80002a6e:	4d52                	lw	s10,20(sp)
80002a70:	4dc2                	lw	s11,16(sp)
80002a72:	6121                	addi	sp,sp,64
80002a74:	8082                	ret
80002a76:	07f00e13          	li	t3,127
80002a7a:	bf61                	j	80002a12 <riscv_maxpool_q7_HWC+0xd8>

80002a7c <riscv_avepool_q7_HWC>:
riscv_avepool_q7_HWC():
80002a7c:	7139                	addi	sp,sp,-64
80002a7e:	de22                	sw	s0,60(sp)
80002a80:	dc26                	sw	s1,56(sp)
80002a82:	da4a                	sw	s2,52(sp)
80002a84:	d84e                	sw	s3,48(sp)
80002a86:	d652                	sw	s4,44(sp)
80002a88:	d456                	sw	s5,40(sp)
80002a8a:	d25a                	sw	s6,36(sp)
80002a8c:	d05e                	sw	s7,32(sp)
80002a8e:	ce62                	sw	s8,28(sp)
80002a90:	cc66                	sw	s9,24(sp)
80002a92:	ca6a                	sw	s10,20(sp)
80002a94:	c86e                	sw	s11,16(sp)
80002a96:	c62a                	sw	a0,12(sp)
80002a98:	ca7d                	beqz	a2,80002b8e <riscv_avepool_q7_HWC+0x112>
80002a9a:	40e00c33          	neg	s8,a4
80002a9e:	0c42                	slli	s8,s8,0x10
80002aa0:	8f32                	mv	t5,a2
80002aa2:	8b36                	mv	s6,a3
80002aa4:	89ba                	mv	s3,a4
80002aa6:	893e                	mv	s2,a5
80002aa8:	8a42                	mv	s4,a6
80002aaa:	4c81                	li	s9,0
80002aac:	4a81                	li	s5,0
80002aae:	010c5c13          	srli	s8,s8,0x10
80002ab2:	0c0a0763          	beqz	s4,80002b80 <riscv_avepool_q7_HWC+0x104>
80002ab6:	47b2                	lw	a5,12(sp)
80002ab8:	8de2                	mv	s11,s8
80002aba:	4d01                	li	s10,0
80002abc:	01578fb3          	add	t6,a5,s5
80002ac0:	4786                	lw	a5,64(sp)
80002ac2:	4b81                	li	s7,0
80002ac4:	9abe                	add	s5,s5,a5
80002ac6:	03790eb3          	mul	t4,s2,s7
80002aca:	010d9413          	slli	s0,s11,0x10
80002ace:	8441                	srai	s0,s0,0x10
80002ad0:	83e2                	mv	t2,s8
80002ad2:	4281                	li	t0,0
80002ad4:	4481                	li	s1,0
80002ad6:	034b8bb3          	mul	s7,s7,s4
80002ada:	413e8eb3          	sub	t4,t4,s3
80002ade:	9eda                	add	t4,t4,s6
80002ae0:	0dd45563          	bge	s0,t4,80002baa <riscv_avepool_q7_HWC+0x12e>
80002ae4:	01039813          	slli	a6,t2,0x10
80002ae8:	41085813          	srai	a6,a6,0x10
80002aec:	86a2                	mv	a3,s0
80002aee:	8522                	mv	a0,s0
80002af0:	4301                	li	t1,0
80002af2:	4881                	li	a7,0
80002af4:	02990633          	mul	a2,s2,s1
80002af8:	41360633          	sub	a2,a2,s3
80002afc:	965a                	add	a2,a2,s6
80002afe:	02c85c63          	bge	a6,a2,80002b36 <riscv_avepool_q7_HWC+0xba>
80002b02:	02b50e33          	mul	t3,a0,a1
80002b06:	87c2                	mv	a5,a6
80002b08:	8742                	mv	a4,a6
80002b0a:	0206c063          	bltz	a3,80002b2a <riscv_avepool_q7_HWC+0xae>
80002b0e:	0007ce63          	bltz	a5,80002b2a <riscv_avepool_q7_HWC+0xae>
80002b12:	00b55c63          	bge	a0,a1,80002b2a <riscv_avepool_q7_HWC+0xae>
80002b16:	00b75a63          	bge	a4,a1,80002b2a <riscv_avepool_q7_HWC+0xae>
80002b1a:	9772                	add	a4,a4,t3
80002b1c:	0305                	addi	t1,t1,1
80002b1e:	03e70733          	mul	a4,a4,t5
80002b22:	977e                	add	a4,a4,t6
80002b24:	00070703          	lb	a4,0(a4)
80002b28:	98ba                	add	a7,a7,a4
80002b2a:	0785                	addi	a5,a5,1
80002b2c:	07c2                	slli	a5,a5,0x10
80002b2e:	87c1                	srai	a5,a5,0x10
80002b30:	873e                	mv	a4,a5
80002b32:	fcc7cce3          	blt	a5,a2,80002b0a <riscv_avepool_q7_HWC+0x8e>
80002b36:	0685                	addi	a3,a3,1
80002b38:	06c2                	slli	a3,a3,0x10
80002b3a:	86c1                	srai	a3,a3,0x10
80002b3c:	8536                	mv	a0,a3
80002b3e:	fdd6c0e3          	blt	a3,t4,80002afe <riscv_avepool_q7_HWC+0x82>
80002b42:	0268c8b3          	div	a7,a7,t1
80002b46:	009b87b3          	add	a5,s7,s1
80002b4a:	0285                	addi	t0,t0,1
80002b4c:	02c2                	slli	t0,t0,0x10
80002b4e:	93ca                	add	t2,t2,s2
80002b50:	4102d293          	srai	t0,t0,0x10
80002b54:	03c2                	slli	t2,t2,0x10
80002b56:	8496                	mv	s1,t0
80002b58:	0103d393          	srli	t2,t2,0x10
80002b5c:	03e787b3          	mul	a5,a5,t5
80002b60:	97d6                	add	a5,a5,s5
80002b62:	01178023          	sb	a7,0(a5)
80002b66:	f742cde3          	blt	t0,s4,80002ae0 <riscv_avepool_q7_HWC+0x64>
80002b6a:	0d05                	addi	s10,s10,1
80002b6c:	0d42                	slli	s10,s10,0x10
80002b6e:	9dca                	add	s11,s11,s2
80002b70:	410d5d13          	srai	s10,s10,0x10
80002b74:	0dc2                	slli	s11,s11,0x10
80002b76:	8bea                	mv	s7,s10
80002b78:	010ddd93          	srli	s11,s11,0x10
80002b7c:	f54d45e3          	blt	s10,s4,80002ac6 <riscv_avepool_q7_HWC+0x4a>
80002b80:	0c85                	addi	s9,s9,1
80002b82:	0cc2                	slli	s9,s9,0x10
80002b84:	410cdc93          	srai	s9,s9,0x10
80002b88:	8ae6                	mv	s5,s9
80002b8a:	f3ecc4e3          	blt	s9,t5,80002ab2 <riscv_avepool_q7_HWC+0x36>
80002b8e:	5472                	lw	s0,60(sp)
80002b90:	54e2                	lw	s1,56(sp)
80002b92:	5952                	lw	s2,52(sp)
80002b94:	59c2                	lw	s3,48(sp)
80002b96:	5a32                	lw	s4,44(sp)
80002b98:	5aa2                	lw	s5,40(sp)
80002b9a:	5b12                	lw	s6,36(sp)
80002b9c:	5b82                	lw	s7,32(sp)
80002b9e:	4c72                	lw	s8,28(sp)
80002ba0:	4ce2                	lw	s9,24(sp)
80002ba2:	4d52                	lw	s10,20(sp)
80002ba4:	4dc2                	lw	s11,16(sp)
80002ba6:	6121                	addi	sp,sp,64
80002ba8:	8082                	ret
80002baa:	9002                	ebreak

80002bac <__udivdi3>:
__udivdi3():
/Local/xl_ci/toolchain/riscv-gnu-toolchain/riscv-gcc/libgcc/libgcc2.c:1319
80002bac:	88aa                	mv	a7,a0
80002bae:	87ae                	mv	a5,a1
__udivmoddi4():
/Local/xl_ci/toolchain/riscv-gnu-toolchain/riscv-gcc/libgcc/libgcc2.c:1024
80002bb0:	8832                	mv	a6,a2
/Local/xl_ci/toolchain/riscv-gnu-toolchain/riscv-gcc/libgcc/libgcc2.c:1025
80002bb2:	8536                	mv	a0,a3
/Local/xl_ci/toolchain/riscv-gnu-toolchain/riscv-gcc/libgcc/libgcc2.c:1026
80002bb4:	8346                	mv	t1,a7
/Local/xl_ci/toolchain/riscv-gnu-toolchain/riscv-gcc/libgcc/libgcc2.c:1064
80002bb6:	20069663          	bnez	a3,80002dc2 <__udivdi3+0x216>
/Local/xl_ci/toolchain/riscv-gnu-toolchain/riscv-gcc/libgcc/libgcc2.c:1066
80002bba:	00006697          	auipc	a3,0x6
80002bbe:	05e68693          	addi	a3,a3,94 # 80008c18 <__clz_tab>
80002bc2:	0ac5ff63          	bgeu	a1,a2,80002c80 <__udivdi3+0xd4>
/Local/xl_ci/toolchain/riscv-gnu-toolchain/riscv-gcc/libgcc/libgcc2.c:1070
80002bc6:	6741                	lui	a4,0x10
80002bc8:	0ae67563          	bgeu	a2,a4,80002c72 <__udivdi3+0xc6>
80002bcc:	0ff00713          	li	a4,255
80002bd0:	00c73733          	sltu	a4,a4,a2
80002bd4:	070e                	slli	a4,a4,0x3
80002bd6:	00e65533          	srl	a0,a2,a4
80002bda:	96aa                	add	a3,a3,a0
80002bdc:	0006c683          	lbu	a3,0(a3)
80002be0:	02000513          	li	a0,32
80002be4:	9736                	add	a4,a4,a3
80002be6:	40e506b3          	sub	a3,a0,a4
/Local/xl_ci/toolchain/riscv-gnu-toolchain/riscv-gcc/libgcc/libgcc2.c:1072
80002bea:	00e50b63          	beq	a0,a4,80002c00 <__udivdi3+0x54>
/Local/xl_ci/toolchain/riscv-gnu-toolchain/riscv-gcc/libgcc/libgcc2.c:1078
80002bee:	00d795b3          	sll	a1,a5,a3
80002bf2:	00e8d733          	srl	a4,a7,a4
/Local/xl_ci/toolchain/riscv-gnu-toolchain/riscv-gcc/libgcc/libgcc2.c:1077
80002bf6:	00d61833          	sll	a6,a2,a3
/Local/xl_ci/toolchain/riscv-gnu-toolchain/riscv-gcc/libgcc/libgcc2.c:1078
80002bfa:	8dd9                	or	a1,a1,a4
/Local/xl_ci/toolchain/riscv-gnu-toolchain/riscv-gcc/libgcc/libgcc2.c:1079
80002bfc:	00d89333          	sll	t1,a7,a3
/Local/xl_ci/toolchain/riscv-gnu-toolchain/riscv-gcc/libgcc/libgcc2.c:1082
80002c00:	01085893          	srli	a7,a6,0x10
80002c04:	0315d6b3          	divu	a3,a1,a7
80002c08:	01081613          	slli	a2,a6,0x10
80002c0c:	8241                	srli	a2,a2,0x10
80002c0e:	01035793          	srli	a5,t1,0x10
80002c12:	0315f733          	remu	a4,a1,a7
80002c16:	8536                	mv	a0,a3
80002c18:	02d605b3          	mul	a1,a2,a3
80002c1c:	0742                	slli	a4,a4,0x10
80002c1e:	8fd9                	or	a5,a5,a4
80002c20:	00b7fc63          	bgeu	a5,a1,80002c38 <__udivdi3+0x8c>
80002c24:	97c2                	add	a5,a5,a6
80002c26:	fff68513          	addi	a0,a3,-1
80002c2a:	0107e763          	bltu	a5,a6,80002c38 <__udivdi3+0x8c>
80002c2e:	00b7f563          	bgeu	a5,a1,80002c38 <__udivdi3+0x8c>
80002c32:	ffe68513          	addi	a0,a3,-2
80002c36:	97c2                	add	a5,a5,a6
80002c38:	8f8d                	sub	a5,a5,a1
80002c3a:	0317f733          	remu	a4,a5,a7
80002c3e:	0342                	slli	t1,t1,0x10
80002c40:	01035313          	srli	t1,t1,0x10
80002c44:	0317d7b3          	divu	a5,a5,a7
80002c48:	0742                	slli	a4,a4,0x10
80002c4a:	00676333          	or	t1,a4,t1
80002c4e:	02f606b3          	mul	a3,a2,a5
80002c52:	863e                	mv	a2,a5
80002c54:	00d37b63          	bgeu	t1,a3,80002c6a <__udivdi3+0xbe>
80002c58:	9342                	add	t1,t1,a6
80002c5a:	fff78613          	addi	a2,a5,-1
80002c5e:	01036663          	bltu	t1,a6,80002c6a <__udivdi3+0xbe>
80002c62:	00d37463          	bgeu	t1,a3,80002c6a <__udivdi3+0xbe>
80002c66:	ffe78613          	addi	a2,a5,-2
80002c6a:	0542                	slli	a0,a0,0x10
80002c6c:	8d51                	or	a0,a0,a2
/Local/xl_ci/toolchain/riscv-gnu-toolchain/riscv-gcc/libgcc/libgcc2.c:1209
80002c6e:	4581                	li	a1,0
80002c70:	a85d                	j	80002d26 <__udivdi3+0x17a>
/Local/xl_ci/toolchain/riscv-gnu-toolchain/riscv-gcc/libgcc/libgcc2.c:1070
80002c72:	01000537          	lui	a0,0x1000
80002c76:	4741                	li	a4,16
80002c78:	f4a66fe3          	bltu	a2,a0,80002bd6 <__udivdi3+0x2a>
80002c7c:	4761                	li	a4,24
80002c7e:	bfa1                	j	80002bd6 <__udivdi3+0x2a>
/Local/xl_ci/toolchain/riscv-gnu-toolchain/riscv-gcc/libgcc/libgcc2.c:1091
80002c80:	e601                	bnez	a2,80002c88 <__udivdi3+0xdc>
/Local/xl_ci/toolchain/riscv-gnu-toolchain/riscv-gcc/libgcc/libgcc2.c:1092
80002c82:	4705                	li	a4,1
80002c84:	02c75833          	divu	a6,a4,a2
/Local/xl_ci/toolchain/riscv-gnu-toolchain/riscv-gcc/libgcc/libgcc2.c:1094
80002c88:	6741                	lui	a4,0x10
80002c8a:	08e87f63          	bgeu	a6,a4,80002d28 <__udivdi3+0x17c>
80002c8e:	0ff00713          	li	a4,255
80002c92:	01077363          	bgeu	a4,a6,80002c98 <__udivdi3+0xec>
80002c96:	4521                	li	a0,8
80002c98:	00a85733          	srl	a4,a6,a0
80002c9c:	96ba                	add	a3,a3,a4
80002c9e:	0006c703          	lbu	a4,0(a3)
80002ca2:	02000613          	li	a2,32
80002ca6:	972a                	add	a4,a4,a0
80002ca8:	40e606b3          	sub	a3,a2,a4
/Local/xl_ci/toolchain/riscv-gnu-toolchain/riscv-gcc/libgcc/libgcc2.c:1096
80002cac:	08e61563          	bne	a2,a4,80002d36 <__udivdi3+0x18a>
/Local/xl_ci/toolchain/riscv-gnu-toolchain/riscv-gcc/libgcc/libgcc2.c:1105
80002cb0:	410787b3          	sub	a5,a5,a6
/Local/xl_ci/toolchain/riscv-gnu-toolchain/riscv-gcc/libgcc/libgcc2.c:1106
80002cb4:	4585                	li	a1,1
/Local/xl_ci/toolchain/riscv-gnu-toolchain/riscv-gcc/libgcc/libgcc2.c:1124
80002cb6:	01085893          	srli	a7,a6,0x10
80002cba:	01081613          	slli	a2,a6,0x10
80002cbe:	8241                	srli	a2,a2,0x10
80002cc0:	01035713          	srli	a4,t1,0x10
80002cc4:	0317f6b3          	remu	a3,a5,a7
80002cc8:	0317d7b3          	divu	a5,a5,a7
80002ccc:	06c2                	slli	a3,a3,0x10
80002cce:	8f55                	or	a4,a4,a3
80002cd0:	02f60e33          	mul	t3,a2,a5
80002cd4:	853e                	mv	a0,a5
80002cd6:	01c77c63          	bgeu	a4,t3,80002cee <__udivdi3+0x142>
80002cda:	9742                	add	a4,a4,a6
80002cdc:	fff78513          	addi	a0,a5,-1
80002ce0:	01076763          	bltu	a4,a6,80002cee <__udivdi3+0x142>
80002ce4:	01c77563          	bgeu	a4,t3,80002cee <__udivdi3+0x142>
80002ce8:	ffe78513          	addi	a0,a5,-2
80002cec:	9742                	add	a4,a4,a6
80002cee:	41c70733          	sub	a4,a4,t3
80002cf2:	031777b3          	remu	a5,a4,a7
80002cf6:	0342                	slli	t1,t1,0x10
80002cf8:	01035313          	srli	t1,t1,0x10
80002cfc:	03175733          	divu	a4,a4,a7
80002d00:	07c2                	slli	a5,a5,0x10
80002d02:	0067e333          	or	t1,a5,t1
80002d06:	02e606b3          	mul	a3,a2,a4
80002d0a:	863a                	mv	a2,a4
80002d0c:	00d37b63          	bgeu	t1,a3,80002d22 <__udivdi3+0x176>
80002d10:	9342                	add	t1,t1,a6
80002d12:	fff70613          	addi	a2,a4,-1 # ffff <__stack_size+0xf7ff>
80002d16:	01036663          	bltu	t1,a6,80002d22 <__udivdi3+0x176>
80002d1a:	00d37463          	bgeu	t1,a3,80002d22 <__udivdi3+0x176>
80002d1e:	ffe70613          	addi	a2,a4,-2
80002d22:	0542                	slli	a0,a0,0x10
80002d24:	8d51                	or	a0,a0,a2
__udivdi3():
/Local/xl_ci/toolchain/riscv-gnu-toolchain/riscv-gcc/libgcc/libgcc2.c:1321
80002d26:	8082                	ret
__udivmoddi4():
/Local/xl_ci/toolchain/riscv-gnu-toolchain/riscv-gcc/libgcc/libgcc2.c:1094
80002d28:	01000737          	lui	a4,0x1000
80002d2c:	4541                	li	a0,16
80002d2e:	f6e865e3          	bltu	a6,a4,80002c98 <__udivdi3+0xec>
80002d32:	4561                	li	a0,24
80002d34:	b795                	j	80002c98 <__udivdi3+0xec>
/Local/xl_ci/toolchain/riscv-gnu-toolchain/riscv-gcc/libgcc/libgcc2.c:1114
80002d36:	00d81833          	sll	a6,a6,a3
/Local/xl_ci/toolchain/riscv-gnu-toolchain/riscv-gcc/libgcc/libgcc2.c:1115
80002d3a:	00e7d533          	srl	a0,a5,a4
/Local/xl_ci/toolchain/riscv-gnu-toolchain/riscv-gcc/libgcc/libgcc2.c:1117
80002d3e:	00d89333          	sll	t1,a7,a3
/Local/xl_ci/toolchain/riscv-gnu-toolchain/riscv-gcc/libgcc/libgcc2.c:1116
80002d42:	00d797b3          	sll	a5,a5,a3
80002d46:	00e8d733          	srl	a4,a7,a4
/Local/xl_ci/toolchain/riscv-gnu-toolchain/riscv-gcc/libgcc/libgcc2.c:1119
80002d4a:	01085893          	srli	a7,a6,0x10
/Local/xl_ci/toolchain/riscv-gnu-toolchain/riscv-gcc/libgcc/libgcc2.c:1116
80002d4e:	00f76633          	or	a2,a4,a5
/Local/xl_ci/toolchain/riscv-gnu-toolchain/riscv-gcc/libgcc/libgcc2.c:1119
80002d52:	03157733          	remu	a4,a0,a7
80002d56:	01081793          	slli	a5,a6,0x10
80002d5a:	83c1                	srli	a5,a5,0x10
80002d5c:	01065593          	srli	a1,a2,0x10
80002d60:	03155533          	divu	a0,a0,a7
80002d64:	0742                	slli	a4,a4,0x10
80002d66:	8f4d                	or	a4,a4,a1
80002d68:	02a786b3          	mul	a3,a5,a0
80002d6c:	85aa                	mv	a1,a0
80002d6e:	00d77c63          	bgeu	a4,a3,80002d86 <__udivdi3+0x1da>
80002d72:	9742                	add	a4,a4,a6
80002d74:	fff50593          	addi	a1,a0,-1 # ffffff <__stack_size+0xfff7ff>
80002d78:	01076763          	bltu	a4,a6,80002d86 <__udivdi3+0x1da>
80002d7c:	00d77563          	bgeu	a4,a3,80002d86 <__udivdi3+0x1da>
80002d80:	ffe50593          	addi	a1,a0,-2
80002d84:	9742                	add	a4,a4,a6
80002d86:	40d706b3          	sub	a3,a4,a3
80002d8a:	0316f733          	remu	a4,a3,a7
80002d8e:	0642                	slli	a2,a2,0x10
80002d90:	8241                	srli	a2,a2,0x10
80002d92:	0316d6b3          	divu	a3,a3,a7
80002d96:	0742                	slli	a4,a4,0x10
80002d98:	02d78533          	mul	a0,a5,a3
80002d9c:	00c767b3          	or	a5,a4,a2
80002da0:	8736                	mv	a4,a3
80002da2:	00a7fc63          	bgeu	a5,a0,80002dba <__udivdi3+0x20e>
80002da6:	97c2                	add	a5,a5,a6
80002da8:	fff68713          	addi	a4,a3,-1
80002dac:	0107e763          	bltu	a5,a6,80002dba <__udivdi3+0x20e>
80002db0:	00a7f563          	bgeu	a5,a0,80002dba <__udivdi3+0x20e>
80002db4:	ffe68713          	addi	a4,a3,-2
80002db8:	97c2                	add	a5,a5,a6
80002dba:	05c2                	slli	a1,a1,0x10
80002dbc:	8f89                	sub	a5,a5,a0
80002dbe:	8dd9                	or	a1,a1,a4
80002dc0:	bddd                	j	80002cb6 <__udivdi3+0x10a>
/Local/xl_ci/toolchain/riscv-gnu-toolchain/riscv-gcc/libgcc/libgcc2.c:1140
80002dc2:	14d5e263          	bltu	a1,a3,80002f06 <__udivdi3+0x35a>
/Local/xl_ci/toolchain/riscv-gnu-toolchain/riscv-gcc/libgcc/libgcc2.c:1159
80002dc6:	6741                	lui	a4,0x10
80002dc8:	02e6ff63          	bgeu	a3,a4,80002e06 <__udivdi3+0x25a>
80002dcc:	0ff00713          	li	a4,255
80002dd0:	00d735b3          	sltu	a1,a4,a3
80002dd4:	058e                	slli	a1,a1,0x3
80002dd6:	00b6d533          	srl	a0,a3,a1
80002dda:	00006717          	auipc	a4,0x6
80002dde:	e3e70713          	addi	a4,a4,-450 # 80008c18 <__clz_tab>
80002de2:	972a                	add	a4,a4,a0
80002de4:	00074703          	lbu	a4,0(a4)
80002de8:	02000513          	li	a0,32
80002dec:	972e                	add	a4,a4,a1
80002dee:	40e505b3          	sub	a1,a0,a4
/Local/xl_ci/toolchain/riscv-gnu-toolchain/riscv-gcc/libgcc/libgcc2.c:1160
80002df2:	02e51163          	bne	a0,a4,80002e14 <__udivdi3+0x268>
/Local/xl_ci/toolchain/riscv-gnu-toolchain/riscv-gcc/libgcc/libgcc2.c:1172
80002df6:	4505                	li	a0,1
/Local/xl_ci/toolchain/riscv-gnu-toolchain/riscv-gcc/libgcc/libgcc2.c:1170
80002df8:	f2f6e7e3          	bltu	a3,a5,80002d26 <__udivdi3+0x17a>
80002dfc:	00c8b533          	sltu	a0,a7,a2
80002e00:	00154513          	xori	a0,a0,1
80002e04:	b70d                	j	80002d26 <__udivdi3+0x17a>
/Local/xl_ci/toolchain/riscv-gnu-toolchain/riscv-gcc/libgcc/libgcc2.c:1159
80002e06:	01000737          	lui	a4,0x1000
80002e0a:	45c1                	li	a1,16
80002e0c:	fce6e5e3          	bltu	a3,a4,80002dd6 <__udivdi3+0x22a>
80002e10:	45e1                	li	a1,24
80002e12:	b7d1                	j	80002dd6 <__udivdi3+0x22a>
/Local/xl_ci/toolchain/riscv-gnu-toolchain/riscv-gcc/libgcc/libgcc2.c:1194
80002e14:	00e65833          	srl	a6,a2,a4
80002e18:	00b696b3          	sll	a3,a3,a1
80002e1c:	00d86833          	or	a6,a6,a3
/Local/xl_ci/toolchain/riscv-gnu-toolchain/riscv-gcc/libgcc/libgcc2.c:1196
80002e20:	00e7d333          	srl	t1,a5,a4
/Local/xl_ci/toolchain/riscv-gnu-toolchain/riscv-gcc/libgcc/libgcc2.c:1200
80002e24:	01085e93          	srli	t4,a6,0x10
80002e28:	03d376b3          	remu	a3,t1,t4
/Local/xl_ci/toolchain/riscv-gnu-toolchain/riscv-gcc/libgcc/libgcc2.c:1197
80002e2c:	00b797b3          	sll	a5,a5,a1
80002e30:	00e8d733          	srl	a4,a7,a4
/Local/xl_ci/toolchain/riscv-gnu-toolchain/riscv-gcc/libgcc/libgcc2.c:1195
80002e34:	00b61e33          	sll	t3,a2,a1
/Local/xl_ci/toolchain/riscv-gnu-toolchain/riscv-gcc/libgcc/libgcc2.c:1197
80002e38:	00f76633          	or	a2,a4,a5
/Local/xl_ci/toolchain/riscv-gnu-toolchain/riscv-gcc/libgcc/libgcc2.c:1200
80002e3c:	01081793          	slli	a5,a6,0x10
80002e40:	83c1                	srli	a5,a5,0x10
80002e42:	01065713          	srli	a4,a2,0x10
80002e46:	03d35333          	divu	t1,t1,t4
80002e4a:	06c2                	slli	a3,a3,0x10
80002e4c:	8f55                	or	a4,a4,a3
80002e4e:	02678f33          	mul	t5,a5,t1
80002e52:	851a                	mv	a0,t1
80002e54:	01e77c63          	bgeu	a4,t5,80002e6c <__udivdi3+0x2c0>
80002e58:	9742                	add	a4,a4,a6
80002e5a:	fff30513          	addi	a0,t1,-1
80002e5e:	01076763          	bltu	a4,a6,80002e6c <__udivdi3+0x2c0>
80002e62:	01e77563          	bgeu	a4,t5,80002e6c <__udivdi3+0x2c0>
80002e66:	ffe30513          	addi	a0,t1,-2
80002e6a:	9742                	add	a4,a4,a6
80002e6c:	41e70733          	sub	a4,a4,t5
80002e70:	03d776b3          	remu	a3,a4,t4
80002e74:	03d75733          	divu	a4,a4,t4
80002e78:	06c2                	slli	a3,a3,0x10
80002e7a:	02e78333          	mul	t1,a5,a4
80002e7e:	01061793          	slli	a5,a2,0x10
80002e82:	83c1                	srli	a5,a5,0x10
80002e84:	8fd5                	or	a5,a5,a3
80002e86:	863a                	mv	a2,a4
80002e88:	0067fc63          	bgeu	a5,t1,80002ea0 <__udivdi3+0x2f4>
80002e8c:	97c2                	add	a5,a5,a6
80002e8e:	fff70613          	addi	a2,a4,-1 # ffffff <__stack_size+0xfff7ff>
80002e92:	0107e763          	bltu	a5,a6,80002ea0 <__udivdi3+0x2f4>
80002e96:	0067f563          	bgeu	a5,t1,80002ea0 <__udivdi3+0x2f4>
80002e9a:	ffe70613          	addi	a2,a4,-2
80002e9e:	97c2                	add	a5,a5,a6
80002ea0:	0542                	slli	a0,a0,0x10
/Local/xl_ci/toolchain/riscv-gnu-toolchain/riscv-gcc/libgcc/libgcc2.c:1201
80002ea2:	6ec1                	lui	t4,0x10
/Local/xl_ci/toolchain/riscv-gnu-toolchain/riscv-gcc/libgcc/libgcc2.c:1200
80002ea4:	8d51                	or	a0,a0,a2
/Local/xl_ci/toolchain/riscv-gnu-toolchain/riscv-gcc/libgcc/libgcc2.c:1201
80002ea6:	fffe8693          	addi	a3,t4,-1 # ffff <__stack_size+0xf7ff>
80002eaa:	010e5613          	srli	a2,t3,0x10
80002eae:	01055813          	srli	a6,a0,0x10
/Local/xl_ci/toolchain/riscv-gnu-toolchain/riscv-gcc/libgcc/libgcc2.c:1200
80002eb2:	406787b3          	sub	a5,a5,t1
/Local/xl_ci/toolchain/riscv-gnu-toolchain/riscv-gcc/libgcc/libgcc2.c:1201
80002eb6:	00d57333          	and	t1,a0,a3
80002eba:	00de76b3          	and	a3,t3,a3
80002ebe:	02d30e33          	mul	t3,t1,a3
80002ec2:	02d806b3          	mul	a3,a6,a3
80002ec6:	010e5713          	srli	a4,t3,0x10
80002eca:	02c30333          	mul	t1,t1,a2
80002ece:	9336                	add	t1,t1,a3
80002ed0:	971a                	add	a4,a4,t1
80002ed2:	02c80833          	mul	a6,a6,a2
80002ed6:	00d77363          	bgeu	a4,a3,80002edc <__udivdi3+0x330>
80002eda:	9876                	add	a6,a6,t4
80002edc:	01075693          	srli	a3,a4,0x10
80002ee0:	9836                	add	a6,a6,a3
/Local/xl_ci/toolchain/riscv-gnu-toolchain/riscv-gcc/libgcc/libgcc2.c:1203
80002ee2:	0307e063          	bltu	a5,a6,80002f02 <__udivdi3+0x356>
80002ee6:	d90794e3          	bne	a5,a6,80002c6e <__udivdi3+0xc2>
/Local/xl_ci/toolchain/riscv-gnu-toolchain/riscv-gcc/libgcc/libgcc2.c:1201
80002eea:	67c1                	lui	a5,0x10
80002eec:	17fd                	addi	a5,a5,-1
80002eee:	8f7d                	and	a4,a4,a5
80002ef0:	0742                	slli	a4,a4,0x10
80002ef2:	00fe7e33          	and	t3,t3,a5
/Local/xl_ci/toolchain/riscv-gnu-toolchain/riscv-gcc/libgcc/libgcc2.c:1198
80002ef6:	00b898b3          	sll	a7,a7,a1
/Local/xl_ci/toolchain/riscv-gnu-toolchain/riscv-gcc/libgcc/libgcc2.c:1201
80002efa:	9772                	add	a4,a4,t3
/Local/xl_ci/toolchain/riscv-gnu-toolchain/riscv-gcc/libgcc/libgcc2.c:1209
80002efc:	4581                	li	a1,0
/Local/xl_ci/toolchain/riscv-gnu-toolchain/riscv-gcc/libgcc/libgcc2.c:1203
80002efe:	e2e8f4e3          	bgeu	a7,a4,80002d26 <__udivdi3+0x17a>
/Local/xl_ci/toolchain/riscv-gnu-toolchain/riscv-gcc/libgcc/libgcc2.c:1205
80002f02:	157d                	addi	a0,a0,-1
__udivdi3():
/Local/xl_ci/toolchain/riscv-gnu-toolchain/riscv-gcc/libgcc/libgcc2.c:1206
80002f04:	b3ad                	j	80002c6e <__udivdi3+0xc2>
__udivmoddi4():
/Local/xl_ci/toolchain/riscv-gnu-toolchain/riscv-gcc/libgcc/libgcc2.c:1145
80002f06:	4581                	li	a1,0
/Local/xl_ci/toolchain/riscv-gnu-toolchain/riscv-gcc/libgcc/libgcc2.c:1144
80002f08:	4501                	li	a0,0
80002f0a:	bd31                	j	80002d26 <__udivdi3+0x17a>

80002f0c <__adddf3>:
__adddf3():
/Local/xl_ci/toolchain/riscv-gnu-toolchain/riscv-gcc/libgcc/soft-fp/adddf3.c:36
80002f0c:	1101                	addi	sp,sp,-32
80002f0e:	ce06                	sw	ra,28(sp)
80002f10:	cc22                	sw	s0,24(sp)
80002f12:	ca26                	sw	s1,20(sp)
80002f14:	c84a                	sw	s2,16(sp)
80002f16:	c64e                	sw	s3,12(sp)
80002f18:	c452                	sw	s4,8(sp)
/Local/xl_ci/toolchain/riscv-gnu-toolchain/riscv-gcc/libgcc/soft-fp/adddf3.c:43
80002f1a:	002029f3          	frrm	s3
/Local/xl_ci/toolchain/riscv-gnu-toolchain/riscv-gcc/libgcc/soft-fp/adddf3.c:44
80002f1e:	001008b7          	lui	a7,0x100
80002f22:	18fd                	addi	a7,a7,-1
80002f24:	00b8f733          	and	a4,a7,a1
80002f28:	0145d413          	srli	s0,a1,0x14
80002f2c:	01f5d493          	srli	s1,a1,0x1f
/Local/xl_ci/toolchain/riscv-gnu-toolchain/riscv-gcc/libgcc/soft-fp/adddf3.c:45
80002f30:	0146d593          	srli	a1,a3,0x14
/Local/xl_ci/toolchain/riscv-gnu-toolchain/riscv-gcc/libgcc/soft-fp/adddf3.c:44
80002f34:	00371793          	slli	a5,a4,0x3
/Local/xl_ci/toolchain/riscv-gnu-toolchain/riscv-gcc/libgcc/soft-fp/adddf3.c:45
80002f38:	00d8f8b3          	and	a7,a7,a3
/Local/xl_ci/toolchain/riscv-gnu-toolchain/riscv-gcc/libgcc/soft-fp/adddf3.c:44
80002f3c:	01d55713          	srli	a4,a0,0x1d
80002f40:	7ff47413          	andi	s0,s0,2047
/Local/xl_ci/toolchain/riscv-gnu-toolchain/riscv-gcc/libgcc/soft-fp/adddf3.c:45
80002f44:	7ff5f593          	andi	a1,a1,2047
/Local/xl_ci/toolchain/riscv-gnu-toolchain/riscv-gcc/libgcc/soft-fp/adddf3.c:44
80002f48:	8f5d                	or	a4,a4,a5
/Local/xl_ci/toolchain/riscv-gnu-toolchain/riscv-gcc/libgcc/soft-fp/adddf3.c:45
80002f4a:	01f6d313          	srli	t1,a3,0x1f
/Local/xl_ci/toolchain/riscv-gnu-toolchain/riscv-gcc/libgcc/soft-fp/adddf3.c:44
80002f4e:	00351793          	slli	a5,a0,0x3
/Local/xl_ci/toolchain/riscv-gnu-toolchain/riscv-gcc/libgcc/soft-fp/adddf3.c:45
80002f52:	01d65693          	srli	a3,a2,0x1d
80002f56:	088e                	slli	a7,a7,0x3
80002f58:	40b40533          	sub	a0,s0,a1
80002f5c:	00361813          	slli	a6,a2,0x3
80002f60:	0116e6b3          	or	a3,a3,a7
/Local/xl_ci/toolchain/riscv-gnu-toolchain/riscv-gcc/libgcc/soft-fp/adddf3.c:46
80002f64:	862a                	mv	a2,a0
80002f66:	34649163          	bne	s1,t1,800032a8 <__adddf3+0x39c>
/Local/xl_ci/toolchain/riscv-gnu-toolchain/riscv-gcc/libgcc/soft-fp/adddf3.c:46 (discriminator 7)
80002f6a:	10a05963          	blez	a0,8000307c <__adddf3+0x170>
/Local/xl_ci/toolchain/riscv-gnu-toolchain/riscv-gcc/libgcc/soft-fp/adddf3.c:46 (discriminator 9)
80002f6e:	e1b9                	bnez	a1,80002fb4 <__adddf3+0xa8>
/Local/xl_ci/toolchain/riscv-gnu-toolchain/riscv-gcc/libgcc/soft-fp/adddf3.c:46 (discriminator 11)
80002f70:	0106e533          	or	a0,a3,a6
80002f74:	e511                	bnez	a0,80002f80 <__adddf3+0x74>
/Local/xl_ci/toolchain/riscv-gnu-toolchain/riscv-gcc/libgcc/soft-fp/adddf3.c:46 (discriminator 204)
80002f76:	7ff00693          	li	a3,2047
80002f7a:	2ad61c63          	bne	a2,a3,80003232 <__adddf3+0x326>
80002f7e:	a839                	j	80002f9c <__adddf3+0x90>
/Local/xl_ci/toolchain/riscv-gnu-toolchain/riscv-gcc/libgcc/soft-fp/adddf3.c:46 (discriminator 14)
80002f80:	fff60513          	addi	a0,a2,-1
80002f84:	e901                	bnez	a0,80002f94 <__adddf3+0x88>
/Local/xl_ci/toolchain/riscv-gnu-toolchain/riscv-gcc/libgcc/soft-fp/adddf3.c:46 (discriminator 23)
80002f86:	983e                	add	a6,a6,a5
80002f88:	96ba                	add	a3,a3,a4
80002f8a:	00f837b3          	sltu	a5,a6,a5
80002f8e:	96be                	add	a3,a3,a5
/Local/xl_ci/toolchain/riscv-gnu-toolchain/riscv-gcc/libgcc/soft-fp/adddf3.c:45 (discriminator 80)
80002f90:	4605                	li	a2,1
/Local/xl_ci/toolchain/riscv-gnu-toolchain/riscv-gcc/libgcc/soft-fp/adddf3.c:46 (discriminator 80)
80002f92:	a059                	j	80003018 <__adddf3+0x10c>
/Local/xl_ci/toolchain/riscv-gnu-toolchain/riscv-gcc/libgcc/soft-fp/adddf3.c:46 (discriminator 24)
80002f94:	7ff00893          	li	a7,2047
80002f98:	05161163          	bne	a2,a7,80002fda <__adddf3+0xce>
/Local/xl_ci/toolchain/riscv-gnu-toolchain/riscv-gcc/libgcc/soft-fp/adddf3.c:46 (discriminator 219)
80002f9c:	00f766b3          	or	a3,a4,a5
80002fa0:	6e068c63          	beqz	a3,80003698 <__adddf3+0x78c>
/Local/xl_ci/toolchain/riscv-gnu-toolchain/riscv-gcc/libgcc/soft-fp/adddf3.c:46 (discriminator 221)
80002fa4:	004006b7          	lui	a3,0x400
80002fa8:	8ef9                	and	a3,a3,a4
/Local/xl_ci/toolchain/riscv-gnu-toolchain/riscv-gcc/libgcc/soft-fp/adddf3.c:47 (discriminator 221)
80002faa:	4401                	li	s0,0
/Local/xl_ci/toolchain/riscv-gnu-toolchain/riscv-gcc/libgcc/soft-fp/adddf3.c:46 (discriminator 221)
80002fac:	20069263          	bnez	a3,800031b0 <__adddf3+0x2a4>
/Local/xl_ci/toolchain/riscv-gnu-toolchain/riscv-gcc/libgcc/soft-fp/adddf3.c:46
80002fb0:	45c1                	li	a1,16
80002fb2:	aafd                	j	800031b0 <__adddf3+0x2a4>
/Local/xl_ci/toolchain/riscv-gnu-toolchain/riscv-gcc/libgcc/soft-fp/adddf3.c:46 (discriminator 12)
80002fb4:	7ff00613          	li	a2,2047
80002fb8:	00c41e63          	bne	s0,a2,80002fd4 <__adddf3+0xc8>
/Local/xl_ci/toolchain/riscv-gnu-toolchain/riscv-gcc/libgcc/soft-fp/adddf3.c:46 (discriminator 230)
80002fbc:	00f766b3          	or	a3,a4,a5
80002fc0:	6c068f63          	beqz	a3,8000369e <__adddf3+0x792>
/Local/xl_ci/toolchain/riscv-gnu-toolchain/riscv-gcc/libgcc/soft-fp/adddf3.c:46 (discriminator 232)
80002fc4:	004006b7          	lui	a3,0x400
80002fc8:	8ef9                	and	a3,a3,a4
80002fca:	12068563          	beqz	a3,800030f4 <__adddf3+0x1e8>
/Local/xl_ci/toolchain/riscv-gnu-toolchain/riscv-gcc/libgcc/soft-fp/adddf3.c:46
80002fce:	7ff00613          	li	a2,2047
80002fd2:	a485                	j	80003232 <__adddf3+0x326>
/Local/xl_ci/toolchain/riscv-gnu-toolchain/riscv-gcc/libgcc/soft-fp/adddf3.c:46 (discriminator 38)
80002fd4:	00800637          	lui	a2,0x800
80002fd8:	8ed1                	or	a3,a3,a2
/Local/xl_ci/toolchain/riscv-gnu-toolchain/riscv-gcc/libgcc/soft-fp/adddf3.c:46 (discriminator 47)
80002fda:	03800613          	li	a2,56
80002fde:	08a64a63          	blt	a2,a0,80003072 <__adddf3+0x166>
/Local/xl_ci/toolchain/riscv-gnu-toolchain/riscv-gcc/libgcc/soft-fp/adddf3.c:46 (discriminator 48)
80002fe2:	467d                	li	a2,31
80002fe4:	06a64063          	blt	a2,a0,80003044 <__adddf3+0x138>
/Local/xl_ci/toolchain/riscv-gnu-toolchain/riscv-gcc/libgcc/soft-fp/adddf3.c:46 (discriminator 50)
80002fe8:	02000613          	li	a2,32
80002fec:	8e09                	sub	a2,a2,a0
80002fee:	00a858b3          	srl	a7,a6,a0
80002ff2:	00c695b3          	sll	a1,a3,a2
80002ff6:	00c81833          	sll	a6,a6,a2
80002ffa:	0115e5b3          	or	a1,a1,a7
80002ffe:	01003833          	snez	a6,a6
80003002:	0105e833          	or	a6,a1,a6
80003006:	00a6d533          	srl	a0,a3,a0
/Local/xl_ci/toolchain/riscv-gnu-toolchain/riscv-gcc/libgcc/soft-fp/adddf3.c:46 (discriminator 64)
8000300a:	983e                	add	a6,a6,a5
8000300c:	953a                	add	a0,a0,a4
8000300e:	00f837b3          	sltu	a5,a6,a5
80003012:	00f506b3          	add	a3,a0,a5
/Local/xl_ci/toolchain/riscv-gnu-toolchain/riscv-gcc/libgcc/soft-fp/adddf3.c:44 (discriminator 64)
80003016:	8622                	mv	a2,s0
/Local/xl_ci/toolchain/riscv-gnu-toolchain/riscv-gcc/libgcc/soft-fp/adddf3.c:46 (discriminator 122)
80003018:	008007b7          	lui	a5,0x800
8000301c:	8ff5                	and	a5,a5,a3
8000301e:	cbb5                	beqz	a5,80003092 <__adddf3+0x186>
/Local/xl_ci/toolchain/riscv-gnu-toolchain/riscv-gcc/libgcc/soft-fp/adddf3.c:46 (discriminator 182)
80003020:	0605                	addi	a2,a2,1
80003022:	7ff00793          	li	a5,2047
80003026:	26f60163          	beq	a2,a5,80003288 <__adddf3+0x37c>
/Local/xl_ci/toolchain/riscv-gnu-toolchain/riscv-gcc/libgcc/soft-fp/adddf3.c:46
8000302a:	ff800737          	lui	a4,0xff800
8000302e:	177d                	addi	a4,a4,-1
80003030:	00185793          	srli	a5,a6,0x1
80003034:	8f75                	and	a4,a4,a3
80003036:	00187813          	andi	a6,a6,1
8000303a:	0107e833          	or	a6,a5,a6
8000303e:	01f71793          	slli	a5,a4,0x1f
80003042:	a2ed                	j	8000322c <__adddf3+0x320>
/Local/xl_ci/toolchain/riscv-gnu-toolchain/riscv-gcc/libgcc/soft-fp/adddf3.c:46 (discriminator 51)
80003044:	fe050593          	addi	a1,a0,-32
80003048:	02000893          	li	a7,32
8000304c:	00b6d5b3          	srl	a1,a3,a1
80003050:	4601                	li	a2,0
80003052:	01150863          	beq	a0,a7,80003062 <__adddf3+0x156>
/Local/xl_ci/toolchain/riscv-gnu-toolchain/riscv-gcc/libgcc/soft-fp/adddf3.c:46 (discriminator 58)
80003056:	04000613          	li	a2,64
8000305a:	40a60533          	sub	a0,a2,a0
8000305e:	00a69633          	sll	a2,a3,a0
/Local/xl_ci/toolchain/riscv-gnu-toolchain/riscv-gcc/libgcc/soft-fp/adddf3.c:46 (discriminator 61)
80003062:	01066833          	or	a6,a2,a6
80003066:	01003833          	snez	a6,a6
8000306a:	0105e833          	or	a6,a1,a6
/Local/xl_ci/toolchain/riscv-gnu-toolchain/riscv-gcc/libgcc/soft-fp/adddf3.c:46 (discriminator 49)
8000306e:	4501                	li	a0,0
80003070:	bf69                	j	8000300a <__adddf3+0xfe>
80003072:	0106e833          	or	a6,a3,a6
80003076:	01003833          	snez	a6,a6
8000307a:	bfd5                	j	8000306e <__adddf3+0x162>
/Local/xl_ci/toolchain/riscv-gnu-toolchain/riscv-gcc/libgcc/soft-fp/adddf3.c:46 (discriminator 10)
8000307c:	c97d                	beqz	a0,80003172 <__adddf3+0x266>
/Local/xl_ci/toolchain/riscv-gnu-toolchain/riscv-gcc/libgcc/soft-fp/adddf3.c:46 (discriminator 66)
8000307e:	40858633          	sub	a2,a1,s0
80003082:	e821                	bnez	s0,800030d2 <__adddf3+0x1c6>
/Local/xl_ci/toolchain/riscv-gnu-toolchain/riscv-gcc/libgcc/soft-fp/adddf3.c:46 (discriminator 68)
80003084:	00f76533          	or	a0,a4,a5
80003088:	e911                	bnez	a0,8000309c <__adddf3+0x190>
/Local/xl_ci/toolchain/riscv-gnu-toolchain/riscv-gcc/libgcc/soft-fp/adddf3.c:46 (discriminator 70)
8000308a:	7ff00793          	li	a5,2047
/Local/xl_ci/toolchain/riscv-gnu-toolchain/riscv-gcc/libgcc/soft-fp/adddf3.c:46 (discriminator 261)
8000308e:	02f60663          	beq	a2,a5,800030ba <__adddf3+0x1ae>
/Local/xl_ci/toolchain/riscv-gnu-toolchain/riscv-gcc/libgcc/soft-fp/adddf3.c:47 (discriminator 421)
80003092:	8736                	mv	a4,a3
80003094:	87c2                	mv	a5,a6
80003096:	40060163          	beqz	a2,80003498 <__adddf3+0x58c>
8000309a:	aa61                	j	80003232 <__adddf3+0x326>
/Local/xl_ci/toolchain/riscv-gnu-toolchain/riscv-gcc/libgcc/soft-fp/adddf3.c:46 (discriminator 71)
8000309c:	fff60893          	addi	a7,a2,-1 # 7fffff <__stack_size+0x7ff7ff>
800030a0:	00089963          	bnez	a7,800030b2 <__adddf3+0x1a6>
/Local/xl_ci/toolchain/riscv-gnu-toolchain/riscv-gcc/libgcc/soft-fp/adddf3.c:46 (discriminator 80)
800030a4:	97c2                	add	a5,a5,a6
800030a6:	0107b833          	sltu	a6,a5,a6
800030aa:	96ba                	add	a3,a3,a4
800030ac:	96c2                	add	a3,a3,a6
800030ae:	883e                	mv	a6,a5
800030b0:	b5c5                	j	80002f90 <__adddf3+0x84>
/Local/xl_ci/toolchain/riscv-gnu-toolchain/riscv-gcc/libgcc/soft-fp/adddf3.c:46 (discriminator 81)
800030b2:	7ff00513          	li	a0,2047
800030b6:	04a61563          	bne	a2,a0,80003100 <__adddf3+0x1f4>
/Local/xl_ci/toolchain/riscv-gnu-toolchain/riscv-gcc/libgcc/soft-fp/adddf3.c:46 (discriminator 263)
800030ba:	0106e7b3          	or	a5,a3,a6
800030be:	5e078363          	beqz	a5,800036a4 <__adddf3+0x798>
/Local/xl_ci/toolchain/riscv-gnu-toolchain/riscv-gcc/libgcc/soft-fp/adddf3.c:46 (discriminator 265)
800030c2:	004007b7          	lui	a5,0x400
800030c6:	8ff5                	and	a5,a5,a3
800030c8:	8736                	mv	a4,a3
800030ca:	5c079f63          	bnez	a5,800036a8 <__adddf3+0x79c>
/Local/xl_ci/toolchain/riscv-gnu-toolchain/riscv-gcc/libgcc/soft-fp/adddf3.c:45
800030ce:	87c2                	mv	a5,a6
800030d0:	b5c5                	j	80002fb0 <__adddf3+0xa4>
/Local/xl_ci/toolchain/riscv-gnu-toolchain/riscv-gcc/libgcc/soft-fp/adddf3.c:46 (discriminator 69)
800030d2:	7ff00513          	li	a0,2047
800030d6:	02a59163          	bne	a1,a0,800030f8 <__adddf3+0x1ec>
/Local/xl_ci/toolchain/riscv-gnu-toolchain/riscv-gcc/libgcc/soft-fp/adddf3.c:46 (discriminator 96)
800030da:	0106e7b3          	or	a5,a3,a6
800030de:	5a078063          	beqz	a5,8000367e <__adddf3+0x772>
/Local/xl_ci/toolchain/riscv-gnu-toolchain/riscv-gcc/libgcc/soft-fp/adddf3.c:46 (discriminator 98)
800030e2:	004007b7          	lui	a5,0x400
800030e6:	8ff5                	and	a5,a5,a3
800030e8:	8736                	mv	a4,a3
800030ea:	58079f63          	bnez	a5,80003688 <__adddf3+0x77c>
/Local/xl_ci/toolchain/riscv-gnu-toolchain/riscv-gcc/libgcc/soft-fp/adddf3.c:45
800030ee:	87c2                	mv	a5,a6
/Local/xl_ci/toolchain/riscv-gnu-toolchain/riscv-gcc/libgcc/soft-fp/adddf3.c:46
800030f0:	7ff00613          	li	a2,2047
/Local/xl_ci/toolchain/riscv-gnu-toolchain/riscv-gcc/libgcc/soft-fp/adddf3.c:47
800030f4:	4401                	li	s0,0
800030f6:	bd6d                	j	80002fb0 <__adddf3+0xa4>
/Local/xl_ci/toolchain/riscv-gnu-toolchain/riscv-gcc/libgcc/soft-fp/adddf3.c:46 (discriminator 95)
800030f8:	00800537          	lui	a0,0x800
800030fc:	8f49                	or	a4,a4,a0
800030fe:	88b2                	mv	a7,a2
/Local/xl_ci/toolchain/riscv-gnu-toolchain/riscv-gcc/libgcc/soft-fp/adddf3.c:46 (discriminator 104)
80003100:	03800613          	li	a2,56
80003104:	07164363          	blt	a2,a7,8000316a <__adddf3+0x25e>
/Local/xl_ci/toolchain/riscv-gnu-toolchain/riscv-gcc/libgcc/soft-fp/adddf3.c:46 (discriminator 105)
80003108:	467d                	li	a2,31
8000310a:	03164b63          	blt	a2,a7,80003140 <__adddf3+0x234>
/Local/xl_ci/toolchain/riscv-gnu-toolchain/riscv-gcc/libgcc/soft-fp/adddf3.c:46 (discriminator 107)
8000310e:	02000513          	li	a0,32
80003112:	41150533          	sub	a0,a0,a7
80003116:	00a71633          	sll	a2,a4,a0
8000311a:	0117d333          	srl	t1,a5,a7
8000311e:	00a797b3          	sll	a5,a5,a0
80003122:	00666633          	or	a2,a2,t1
80003126:	00f037b3          	snez	a5,a5
8000312a:	8fd1                	or	a5,a5,a2
8000312c:	01175733          	srl	a4,a4,a7
/Local/xl_ci/toolchain/riscv-gnu-toolchain/riscv-gcc/libgcc/soft-fp/adddf3.c:46 (discriminator 121)
80003130:	97c2                	add	a5,a5,a6
80003132:	9736                	add	a4,a4,a3
80003134:	0107b6b3          	sltu	a3,a5,a6
80003138:	96ba                	add	a3,a3,a4
8000313a:	883e                	mv	a6,a5
/Local/xl_ci/toolchain/riscv-gnu-toolchain/riscv-gcc/libgcc/soft-fp/adddf3.c:45 (discriminator 121)
8000313c:	862e                	mv	a2,a1
8000313e:	bde9                	j	80003018 <__adddf3+0x10c>
/Local/xl_ci/toolchain/riscv-gnu-toolchain/riscv-gcc/libgcc/soft-fp/adddf3.c:46 (discriminator 108)
80003140:	fe088613          	addi	a2,a7,-32 # fffe0 <__stack_size+0xff7e0>
80003144:	02000313          	li	t1,32
80003148:	00c75633          	srl	a2,a4,a2
8000314c:	4501                	li	a0,0
8000314e:	00688863          	beq	a7,t1,8000315e <__adddf3+0x252>
/Local/xl_ci/toolchain/riscv-gnu-toolchain/riscv-gcc/libgcc/soft-fp/adddf3.c:46 (discriminator 115)
80003152:	04000513          	li	a0,64
80003156:	41150533          	sub	a0,a0,a7
8000315a:	00a71533          	sll	a0,a4,a0
/Local/xl_ci/toolchain/riscv-gnu-toolchain/riscv-gcc/libgcc/soft-fp/adddf3.c:46 (discriminator 118)
8000315e:	8fc9                	or	a5,a5,a0
80003160:	00f037b3          	snez	a5,a5
80003164:	8fd1                	or	a5,a5,a2
/Local/xl_ci/toolchain/riscv-gnu-toolchain/riscv-gcc/libgcc/soft-fp/adddf3.c:46 (discriminator 106)
80003166:	4701                	li	a4,0
80003168:	b7e1                	j	80003130 <__adddf3+0x224>
8000316a:	8fd9                	or	a5,a5,a4
8000316c:	00f037b3          	snez	a5,a5
80003170:	bfdd                	j	80003166 <__adddf3+0x25a>
/Local/xl_ci/toolchain/riscv-gnu-toolchain/riscv-gcc/libgcc/soft-fp/adddf3.c:46 (discriminator 67)
80003172:	00140613          	addi	a2,s0,1
80003176:	7fe67513          	andi	a0,a2,2046
8000317a:	ed41                	bnez	a0,80003212 <__adddf3+0x306>
/Local/xl_ci/toolchain/riscv-gnu-toolchain/riscv-gcc/libgcc/soft-fp/adddf3.c:46 (discriminator 123)
8000317c:	00f76533          	or	a0,a4,a5
80003180:	e421                	bnez	s0,800031c8 <__adddf3+0x2bc>
/Local/xl_ci/toolchain/riscv-gnu-toolchain/riscv-gcc/libgcc/soft-fp/adddf3.c:46 (discriminator 125)
80003182:	4c050163          	beqz	a0,80003644 <__adddf3+0x738>
/Local/xl_ci/toolchain/riscv-gnu-toolchain/riscv-gcc/libgcc/soft-fp/adddf3.c:46 (discriminator 128)
80003186:	0106e633          	or	a2,a3,a6
8000318a:	30060763          	beqz	a2,80003498 <__adddf3+0x58c>
/Local/xl_ci/toolchain/riscv-gnu-toolchain/riscv-gcc/libgcc/soft-fp/adddf3.c:46 (discriminator 134)
8000318e:	983e                	add	a6,a6,a5
80003190:	00f837b3          	sltu	a5,a6,a5
80003194:	9736                	add	a4,a4,a3
80003196:	973e                	add	a4,a4,a5
80003198:	008007b7          	lui	a5,0x800
8000319c:	8ff9                	and	a5,a5,a4
8000319e:	4a078463          	beqz	a5,80003646 <__adddf3+0x73a>
/Local/xl_ci/toolchain/riscv-gnu-toolchain/riscv-gcc/libgcc/soft-fp/adddf3.c:46 (discriminator 136)
800031a2:	ff8007b7          	lui	a5,0xff800
800031a6:	17fd                	addi	a5,a5,-1
800031a8:	8f7d                	and	a4,a4,a5
800031aa:	4581                	li	a1,0
800031ac:	87c2                	mv	a5,a6
800031ae:	4605                	li	a2,1
/Local/xl_ci/toolchain/riscv-gnu-toolchain/riscv-gcc/libgcc/soft-fp/adddf3.c:47 (discriminator 36)
800031b0:	0077f693          	andi	a3,a5,7
800031b4:	e6c5                	bnez	a3,8000325c <__adddf3+0x350>
/Local/xl_ci/toolchain/riscv-gnu-toolchain/riscv-gcc/libgcc/soft-fp/adddf3.c:47 (discriminator 47)
800031b6:	56040d63          	beqz	s0,80003730 <__adddf3+0x824>
/Local/xl_ci/toolchain/riscv-gnu-toolchain/riscv-gcc/libgcc/soft-fp/adddf3.c:47 (discriminator 58)
800031ba:	0015f693          	andi	a3,a1,1
800031be:	56068963          	beqz	a3,80003730 <__adddf3+0x824>
/Local/xl_ci/toolchain/riscv-gnu-toolchain/riscv-gcc/libgcc/soft-fp/adddf3.c:47 (discriminator 60)
800031c2:	0025e593          	ori	a1,a1,2
800031c6:	a3ad                	j	80003730 <__adddf3+0x824>
/Local/xl_ci/toolchain/riscv-gnu-toolchain/riscv-gcc/libgcc/soft-fp/adddf3.c:46 (discriminator 126)
800031c8:	7ff00613          	li	a2,2047
800031cc:	02c41d63          	bne	s0,a2,80003206 <__adddf3+0x2fa>
/Local/xl_ci/toolchain/riscv-gnu-toolchain/riscv-gcc/libgcc/soft-fp/adddf3.c:46 (discriminator 140)
800031d0:	5c050f63          	beqz	a0,800037ae <__adddf3+0x8a2>
/Local/xl_ci/toolchain/riscv-gnu-toolchain/riscv-gcc/libgcc/soft-fp/adddf3.c:46 (discriminator 142)
800031d4:	00400637          	lui	a2,0x400
800031d8:	8e79                	and	a2,a2,a4
/Local/xl_ci/toolchain/riscv-gnu-toolchain/riscv-gcc/libgcc/soft-fp/adddf3.c:37 (discriminator 142)
800031da:	00163613          	seqz	a2,a2
800031de:	0612                	slli	a2,a2,0x4
/Local/xl_ci/toolchain/riscv-gnu-toolchain/riscv-gcc/libgcc/soft-fp/adddf3.c:46 (discriminator 142)
800031e0:	52859d63          	bne	a1,s0,8000371a <__adddf3+0x80e>
/Local/xl_ci/toolchain/riscv-gnu-toolchain/riscv-gcc/libgcc/soft-fp/adddf3.c:46
800031e4:	85b2                	mv	a1,a2
/Local/xl_ci/toolchain/riscv-gnu-toolchain/riscv-gcc/libgcc/soft-fp/adddf3.c:46 (discriminator 147)
800031e6:	0106e633          	or	a2,a3,a6
800031ea:	c611                	beqz	a2,800031f6 <__adddf3+0x2ea>
/Local/xl_ci/toolchain/riscv-gnu-toolchain/riscv-gcc/libgcc/soft-fp/adddf3.c:46 (discriminator 149)
800031ec:	00400637          	lui	a2,0x400
800031f0:	8e75                	and	a2,a2,a3
800031f2:	e211                	bnez	a2,800031f6 <__adddf3+0x2ea>
/Local/xl_ci/toolchain/riscv-gnu-toolchain/riscv-gcc/libgcc/soft-fp/adddf3.c:46
800031f4:	45c1                	li	a1,16
/Local/xl_ci/toolchain/riscv-gnu-toolchain/riscv-gcc/libgcc/soft-fp/adddf3.c:46 (discriminator 153)
800031f6:	52051363          	bnez	a0,8000371c <__adddf3+0x810>
/Local/xl_ci/toolchain/riscv-gnu-toolchain/riscv-gcc/libgcc/soft-fp/adddf3.c:45
800031fa:	8736                	mv	a4,a3
800031fc:	87c2                	mv	a5,a6
/Local/xl_ci/toolchain/riscv-gnu-toolchain/riscv-gcc/libgcc/soft-fp/adddf3.c:47
800031fe:	4401                	li	s0,0
/Local/xl_ci/toolchain/riscv-gnu-toolchain/riscv-gcc/libgcc/soft-fp/adddf3.c:46
80003200:	7ff00613          	li	a2,2047
80003204:	b775                	j	800031b0 <__adddf3+0x2a4>
/Local/xl_ci/toolchain/riscv-gnu-toolchain/riscv-gcc/libgcc/soft-fp/adddf3.c:46 (discriminator 146)
80003206:	00c59463          	bne	a1,a2,8000320e <__adddf3+0x302>
/Local/xl_ci/toolchain/riscv-gnu-toolchain/riscv-gcc/libgcc/soft-fp/adddf3.c:46
8000320a:	4581                	li	a1,0
8000320c:	bfe9                	j	800031e6 <__adddf3+0x2da>
8000320e:	4581                	li	a1,0
80003210:	b7dd                	j	800031f6 <__adddf3+0x2ea>
/Local/xl_ci/toolchain/riscv-gnu-toolchain/riscv-gcc/libgcc/soft-fp/adddf3.c:46 (discriminator 124)
80003212:	7ff00593          	li	a1,2047
80003216:	02b60063          	beq	a2,a1,80003236 <__adddf3+0x32a>
/Local/xl_ci/toolchain/riscv-gnu-toolchain/riscv-gcc/libgcc/soft-fp/adddf3.c:46
8000321a:	983e                	add	a6,a6,a5
8000321c:	00f837b3          	sltu	a5,a6,a5
80003220:	9736                	add	a4,a4,a3
80003222:	973e                	add	a4,a4,a5
80003224:	01f71793          	slli	a5,a4,0x1f
80003228:	00185813          	srli	a6,a6,0x1
8000322c:	0107e7b3          	or	a5,a5,a6
80003230:	8305                	srli	a4,a4,0x1
/Local/xl_ci/toolchain/riscv-gnu-toolchain/riscv-gcc/libgcc/soft-fp/adddf3.c:47
80003232:	4401                	li	s0,0
80003234:	a99d                	j	800036aa <__adddf3+0x79e>
/Local/xl_ci/toolchain/riscv-gnu-toolchain/riscv-gcc/libgcc/soft-fp/adddf3.c:46 (discriminator 166)
80003236:	00098663          	beqz	s3,80003242 <__adddf3+0x336>
/Local/xl_ci/toolchain/riscv-gnu-toolchain/riscv-gcc/libgcc/soft-fp/adddf3.c:46 (discriminator 169)
8000323a:	478d                	li	a5,3
8000323c:	00f99663          	bne	s3,a5,80003248 <__adddf3+0x33c>
/Local/xl_ci/toolchain/riscv-gnu-toolchain/riscv-gcc/libgcc/soft-fp/adddf3.c:46 (discriminator 170)
80003240:	e881                	bnez	s1,80003250 <__adddf3+0x344>
/Local/xl_ci/toolchain/riscv-gnu-toolchain/riscv-gcc/libgcc/soft-fp/adddf3.c:46
80003242:	7ff00613          	li	a2,2047
80003246:	a881                	j	80003296 <__adddf3+0x38a>
/Local/xl_ci/toolchain/riscv-gnu-toolchain/riscv-gcc/libgcc/soft-fp/adddf3.c:46 (discriminator 173)
80003248:	4789                	li	a5,2
8000324a:	00f99363          	bne	s3,a5,80003250 <__adddf3+0x344>
/Local/xl_ci/toolchain/riscv-gnu-toolchain/riscv-gcc/libgcc/soft-fp/adddf3.c:46 (discriminator 174)
8000324e:	f8f5                	bnez	s1,80003242 <__adddf3+0x336>
/Local/xl_ci/toolchain/riscv-gnu-toolchain/riscv-gcc/libgcc/soft-fp/adddf3.c:47
80003250:	4401                	li	s0,0
/Local/xl_ci/toolchain/riscv-gnu-toolchain/riscv-gcc/libgcc/soft-fp/adddf3.c:46
80003252:	577d                	li	a4,-1
80003254:	57fd                	li	a5,-1
80003256:	7fe00613          	li	a2,2046
8000325a:	4595                	li	a1,5
/Local/xl_ci/toolchain/riscv-gnu-toolchain/riscv-gcc/libgcc/soft-fp/adddf3.c:47 (discriminator 37)
8000325c:	4689                	li	a3,2
8000325e:	0015e593          	ori	a1,a1,1
80003262:	48d98563          	beq	s3,a3,800036ec <__adddf3+0x7e0>
/Local/xl_ci/toolchain/riscv-gnu-toolchain/riscv-gcc/libgcc/soft-fp/adddf3.c:47
80003266:	468d                	li	a3,3
80003268:	46d98e63          	beq	s3,a3,800036e4 <__adddf3+0x7d8>
8000326c:	48099163          	bnez	s3,800036ee <__adddf3+0x7e2>
/Local/xl_ci/toolchain/riscv-gnu-toolchain/riscv-gcc/libgcc/soft-fp/adddf3.c:47 (discriminator 40)
80003270:	00f7f693          	andi	a3,a5,15
80003274:	4511                	li	a0,4
80003276:	46a68c63          	beq	a3,a0,800036ee <__adddf3+0x7e2>
/Local/xl_ci/toolchain/riscv-gnu-toolchain/riscv-gcc/libgcc/soft-fp/adddf3.c:47 (discriminator 44)
8000327a:	00478693          	addi	a3,a5,4 # ff800004 <_sp+0x6f7c0004>
/Local/xl_ci/toolchain/riscv-gnu-toolchain/riscv-gcc/libgcc/soft-fp/adddf3.c:47 (discriminator 55)
8000327e:	00f6b7b3          	sltu	a5,a3,a5
80003282:	973e                	add	a4,a4,a5
80003284:	87b6                	mv	a5,a3
80003286:	a1a5                	j	800036ee <__adddf3+0x7e2>
/Local/xl_ci/toolchain/riscv-gnu-toolchain/riscv-gcc/libgcc/soft-fp/adddf3.c:46 (discriminator 184)
80003288:	00098763          	beqz	s3,80003296 <__adddf3+0x38a>
/Local/xl_ci/toolchain/riscv-gnu-toolchain/riscv-gcc/libgcc/soft-fp/adddf3.c:46 (discriminator 187)
8000328c:	478d                	li	a5,3
8000328e:	00f99863          	bne	s3,a5,8000329e <__adddf3+0x392>
/Local/xl_ci/toolchain/riscv-gnu-toolchain/riscv-gcc/libgcc/soft-fp/adddf3.c:46 (discriminator 188)
80003292:	3e049d63          	bnez	s1,8000368c <__adddf3+0x780>
/Local/xl_ci/toolchain/riscv-gnu-toolchain/riscv-gcc/libgcc/soft-fp/adddf3.c:46
80003296:	4701                	li	a4,0
80003298:	4781                	li	a5,0
8000329a:	4595                	li	a1,5
8000329c:	a951                	j	80003730 <__adddf3+0x824>
/Local/xl_ci/toolchain/riscv-gnu-toolchain/riscv-gcc/libgcc/soft-fp/adddf3.c:46 (discriminator 191)
8000329e:	4789                	li	a5,2
800032a0:	3ef99663          	bne	s3,a5,8000368c <__adddf3+0x780>
/Local/xl_ci/toolchain/riscv-gnu-toolchain/riscv-gcc/libgcc/soft-fp/adddf3.c:46 (discriminator 192)
800032a4:	f8ed                	bnez	s1,80003296 <__adddf3+0x38a>
800032a6:	b76d                	j	80003250 <__adddf3+0x344>
/Local/xl_ci/toolchain/riscv-gnu-toolchain/riscv-gcc/libgcc/soft-fp/adddf3.c:46 (discriminator 8)
800032a8:	0ca05663          	blez	a0,80003374 <__adddf3+0x468>
/Local/xl_ci/toolchain/riscv-gnu-toolchain/riscv-gcc/libgcc/soft-fp/adddf3.c:46 (discriminator 200)
800032ac:	e1c9                	bnez	a1,8000332e <__adddf3+0x422>
/Local/xl_ci/toolchain/riscv-gnu-toolchain/riscv-gcc/libgcc/soft-fp/adddf3.c:46 (discriminator 202)
800032ae:	0106e533          	or	a0,a3,a6
800032b2:	cc0502e3          	beqz	a0,80002f76 <__adddf3+0x6a>
/Local/xl_ci/toolchain/riscv-gnu-toolchain/riscv-gcc/libgcc/soft-fp/adddf3.c:46 (discriminator 205)
800032b6:	fff60513          	addi	a0,a2,-1 # 3fffff <__stack_size+0x3ff7ff>
800032ba:	e911                	bnez	a0,800032ce <__adddf3+0x3c2>
/Local/xl_ci/toolchain/riscv-gnu-toolchain/riscv-gcc/libgcc/soft-fp/adddf3.c:46 (discriminator 214)
800032bc:	41078833          	sub	a6,a5,a6
800032c0:	40d706b3          	sub	a3,a4,a3
800032c4:	0107b7b3          	sltu	a5,a5,a6
800032c8:	8e9d                	sub	a3,a3,a5
/Local/xl_ci/toolchain/riscv-gnu-toolchain/riscv-gcc/libgcc/soft-fp/adddf3.c:45 (discriminator 271)
800032ca:	4605                	li	a2,1
/Local/xl_ci/toolchain/riscv-gnu-toolchain/riscv-gcc/libgcc/soft-fp/adddf3.c:46 (discriminator 271)
800032cc:	a0a9                	j	80003316 <__adddf3+0x40a>
/Local/xl_ci/toolchain/riscv-gnu-toolchain/riscv-gcc/libgcc/soft-fp/adddf3.c:46 (discriminator 215)
800032ce:	7ff00893          	li	a7,2047
800032d2:	cd1605e3          	beq	a2,a7,80002f9c <__adddf3+0x90>
/Local/xl_ci/toolchain/riscv-gnu-toolchain/riscv-gcc/libgcc/soft-fp/adddf3.c:46 (discriminator 238)
800032d6:	03800613          	li	a2,56
800032da:	08a64863          	blt	a2,a0,8000336a <__adddf3+0x45e>
/Local/xl_ci/toolchain/riscv-gnu-toolchain/riscv-gcc/libgcc/soft-fp/adddf3.c:46 (discriminator 239)
800032de:	467d                	li	a2,31
800032e0:	04a64f63          	blt	a2,a0,8000333e <__adddf3+0x432>
/Local/xl_ci/toolchain/riscv-gnu-toolchain/riscv-gcc/libgcc/soft-fp/adddf3.c:46 (discriminator 241)
800032e4:	02000613          	li	a2,32
800032e8:	8e09                	sub	a2,a2,a0
800032ea:	00c695b3          	sll	a1,a3,a2
800032ee:	00a858b3          	srl	a7,a6,a0
800032f2:	00c81833          	sll	a6,a6,a2
800032f6:	0115e5b3          	or	a1,a1,a7
800032fa:	01003833          	snez	a6,a6
800032fe:	0105e833          	or	a6,a1,a6
80003302:	00a6d6b3          	srl	a3,a3,a0
/Local/xl_ci/toolchain/riscv-gnu-toolchain/riscv-gcc/libgcc/soft-fp/adddf3.c:46 (discriminator 255)
80003306:	41078833          	sub	a6,a5,a6
8000330a:	40d706b3          	sub	a3,a4,a3
8000330e:	0107b7b3          	sltu	a5,a5,a6
80003312:	8e9d                	sub	a3,a3,a5
/Local/xl_ci/toolchain/riscv-gnu-toolchain/riscv-gcc/libgcc/soft-fp/adddf3.c:44 (discriminator 255)
80003314:	8622                	mv	a2,s0
/Local/xl_ci/toolchain/riscv-gnu-toolchain/riscv-gcc/libgcc/soft-fp/adddf3.c:46 (discriminator 313)
80003316:	00800937          	lui	s2,0x800
8000331a:	0126f7b3          	and	a5,a3,s2
8000331e:	d6078ae3          	beqz	a5,80003092 <__adddf3+0x186>
/Local/xl_ci/toolchain/riscv-gnu-toolchain/riscv-gcc/libgcc/soft-fp/adddf3.c:46 (discriminator 373)
80003322:	197d                	addi	s2,s2,-1
80003324:	0126f933          	and	s2,a3,s2
80003328:	8a42                	mv	s4,a6
8000332a:	8432                	mv	s0,a2
8000332c:	a4b5                	j	80003598 <__adddf3+0x68c>
/Local/xl_ci/toolchain/riscv-gnu-toolchain/riscv-gcc/libgcc/soft-fp/adddf3.c:46 (discriminator 203)
8000332e:	7ff00613          	li	a2,2047
80003332:	c8c405e3          	beq	s0,a2,80002fbc <__adddf3+0xb0>
/Local/xl_ci/toolchain/riscv-gnu-toolchain/riscv-gcc/libgcc/soft-fp/adddf3.c:46 (discriminator 229)
80003336:	00800637          	lui	a2,0x800
8000333a:	8ed1                	or	a3,a3,a2
8000333c:	bf69                	j	800032d6 <__adddf3+0x3ca>
/Local/xl_ci/toolchain/riscv-gnu-toolchain/riscv-gcc/libgcc/soft-fp/adddf3.c:46 (discriminator 242)
8000333e:	fe050593          	addi	a1,a0,-32 # 7fffe0 <__stack_size+0x7ff7e0>
80003342:	02000893          	li	a7,32
80003346:	00b6d5b3          	srl	a1,a3,a1
8000334a:	4601                	li	a2,0
8000334c:	01150763          	beq	a0,a7,8000335a <__adddf3+0x44e>
/Local/xl_ci/toolchain/riscv-gnu-toolchain/riscv-gcc/libgcc/soft-fp/adddf3.c:46 (discriminator 249)
80003350:	04000613          	li	a2,64
80003354:	8e09                	sub	a2,a2,a0
80003356:	00c69633          	sll	a2,a3,a2
/Local/xl_ci/toolchain/riscv-gnu-toolchain/riscv-gcc/libgcc/soft-fp/adddf3.c:46 (discriminator 252)
8000335a:	01066833          	or	a6,a2,a6
8000335e:	01003833          	snez	a6,a6
80003362:	0105e833          	or	a6,a1,a6
/Local/xl_ci/toolchain/riscv-gnu-toolchain/riscv-gcc/libgcc/soft-fp/adddf3.c:46 (discriminator 240)
80003366:	4681                	li	a3,0
80003368:	bf79                	j	80003306 <__adddf3+0x3fa>
8000336a:	0106e833          	or	a6,a3,a6
8000336e:	01003833          	snez	a6,a6
80003372:	bfd5                	j	80003366 <__adddf3+0x45a>
/Local/xl_ci/toolchain/riscv-gnu-toolchain/riscv-gcc/libgcc/soft-fp/adddf3.c:46 (discriminator 201)
80003374:	cd75                	beqz	a0,80003470 <__adddf3+0x564>
/Local/xl_ci/toolchain/riscv-gnu-toolchain/riscv-gcc/libgcc/soft-fp/adddf3.c:46 (discriminator 257)
80003376:	40858633          	sub	a2,a1,s0
8000337a:	e439                	bnez	s0,800033c8 <__adddf3+0x4bc>
/Local/xl_ci/toolchain/riscv-gnu-toolchain/riscv-gcc/libgcc/soft-fp/adddf3.c:46 (discriminator 259)
8000337c:	00f76533          	or	a0,a4,a5
80003380:	e509                	bnez	a0,8000338a <__adddf3+0x47e>
/Local/xl_ci/toolchain/riscv-gnu-toolchain/riscv-gcc/libgcc/soft-fp/adddf3.c:46 (discriminator 261)
80003382:	7ff00793          	li	a5,2047
80003386:	849a                	mv	s1,t1
80003388:	b319                	j	8000308e <__adddf3+0x182>
/Local/xl_ci/toolchain/riscv-gnu-toolchain/riscv-gcc/libgcc/soft-fp/adddf3.c:46 (discriminator 262)
8000338a:	fff60893          	addi	a7,a2,-1 # 7fffff <__stack_size+0x7ff7ff>
8000338e:	00089c63          	bnez	a7,800033a6 <__adddf3+0x49a>
/Local/xl_ci/toolchain/riscv-gnu-toolchain/riscv-gcc/libgcc/soft-fp/adddf3.c:46 (discriminator 271)
80003392:	40f807b3          	sub	a5,a6,a5
80003396:	00f83833          	sltu	a6,a6,a5
8000339a:	8e99                	sub	a3,a3,a4
8000339c:	410686b3          	sub	a3,a3,a6
800033a0:	849a                	mv	s1,t1
800033a2:	883e                	mv	a6,a5
800033a4:	b71d                	j	800032ca <__adddf3+0x3be>
/Local/xl_ci/toolchain/riscv-gnu-toolchain/riscv-gcc/libgcc/soft-fp/adddf3.c:46 (discriminator 272)
800033a6:	7ff00513          	li	a0,2047
800033aa:	04a61663          	bne	a2,a0,800033f6 <__adddf3+0x4ea>
/Local/xl_ci/toolchain/riscv-gnu-toolchain/riscv-gcc/libgcc/soft-fp/adddf3.c:46 (discriminator 276)
800033ae:	0106e7b3          	or	a5,a3,a6
800033b2:	2e078e63          	beqz	a5,800036ae <__adddf3+0x7a2>
/Local/xl_ci/toolchain/riscv-gnu-toolchain/riscv-gcc/libgcc/soft-fp/adddf3.c:46 (discriminator 278)
800033b6:	004007b7          	lui	a5,0x400
800033ba:	8ff5                	and	a5,a5,a3
800033bc:	8736                	mv	a4,a3
800033be:	2e079b63          	bnez	a5,800036b4 <__adddf3+0x7a8>
/Local/xl_ci/toolchain/riscv-gnu-toolchain/riscv-gcc/libgcc/soft-fp/adddf3.c:45
800033c2:	87c2                	mv	a5,a6
/Local/xl_ci/toolchain/riscv-gnu-toolchain/riscv-gcc/libgcc/soft-fp/adddf3.c:46
800033c4:	849a                	mv	s1,t1
800033c6:	b6ed                	j	80002fb0 <__adddf3+0xa4>
/Local/xl_ci/toolchain/riscv-gnu-toolchain/riscv-gcc/libgcc/soft-fp/adddf3.c:46 (discriminator 260)
800033c8:	7ff00513          	li	a0,2047
800033cc:	02a59163          	bne	a1,a0,800033ee <__adddf3+0x4e2>
/Local/xl_ci/toolchain/riscv-gnu-toolchain/riscv-gcc/libgcc/soft-fp/adddf3.c:46 (discriminator 287)
800033d0:	0106e7b3          	or	a5,a3,a6
800033d4:	2e078363          	beqz	a5,800036ba <__adddf3+0x7ae>
/Local/xl_ci/toolchain/riscv-gnu-toolchain/riscv-gcc/libgcc/soft-fp/adddf3.c:46 (discriminator 289)
800033d8:	004007b7          	lui	a5,0x400
800033dc:	8ff5                	and	a5,a5,a3
800033de:	8736                	mv	a4,a3
800033e0:	2e079163          	bnez	a5,800036c2 <__adddf3+0x7b6>
/Local/xl_ci/toolchain/riscv-gnu-toolchain/riscv-gcc/libgcc/soft-fp/adddf3.c:45
800033e4:	87c2                	mv	a5,a6
/Local/xl_ci/toolchain/riscv-gnu-toolchain/riscv-gcc/libgcc/soft-fp/adddf3.c:46
800033e6:	7ff00613          	li	a2,2047
800033ea:	849a                	mv	s1,t1
800033ec:	b321                	j	800030f4 <__adddf3+0x1e8>
/Local/xl_ci/toolchain/riscv-gnu-toolchain/riscv-gcc/libgcc/soft-fp/adddf3.c:46 (discriminator 286)
800033ee:	00800537          	lui	a0,0x800
800033f2:	8f49                	or	a4,a4,a0
800033f4:	88b2                	mv	a7,a2
/Local/xl_ci/toolchain/riscv-gnu-toolchain/riscv-gcc/libgcc/soft-fp/adddf3.c:46 (discriminator 295)
800033f6:	03800613          	li	a2,56
800033fa:	07164763          	blt	a2,a7,80003468 <__adddf3+0x55c>
/Local/xl_ci/toolchain/riscv-gnu-toolchain/riscv-gcc/libgcc/soft-fp/adddf3.c:46 (discriminator 296)
800033fe:	467d                	li	a2,31
80003400:	03164f63          	blt	a2,a7,8000343e <__adddf3+0x532>
/Local/xl_ci/toolchain/riscv-gnu-toolchain/riscv-gcc/libgcc/soft-fp/adddf3.c:46 (discriminator 298)
80003404:	02000513          	li	a0,32
80003408:	41150533          	sub	a0,a0,a7
8000340c:	00a71633          	sll	a2,a4,a0
80003410:	0117de33          	srl	t3,a5,a7
80003414:	00a797b3          	sll	a5,a5,a0
80003418:	01c66633          	or	a2,a2,t3
8000341c:	00f037b3          	snez	a5,a5
80003420:	8fd1                	or	a5,a5,a2
80003422:	01175733          	srl	a4,a4,a7
/Local/xl_ci/toolchain/riscv-gnu-toolchain/riscv-gcc/libgcc/soft-fp/adddf3.c:46 (discriminator 312)
80003426:	40f807b3          	sub	a5,a6,a5
8000342a:	40e68733          	sub	a4,a3,a4
8000342e:	00f836b3          	sltu	a3,a6,a5
80003432:	40d706b3          	sub	a3,a4,a3
80003436:	883e                	mv	a6,a5
/Local/xl_ci/toolchain/riscv-gnu-toolchain/riscv-gcc/libgcc/soft-fp/adddf3.c:45 (discriminator 312)
80003438:	862e                	mv	a2,a1
8000343a:	849a                	mv	s1,t1
8000343c:	bde9                	j	80003316 <__adddf3+0x40a>
/Local/xl_ci/toolchain/riscv-gnu-toolchain/riscv-gcc/libgcc/soft-fp/adddf3.c:46 (discriminator 299)
8000343e:	fe088613          	addi	a2,a7,-32
80003442:	02000e13          	li	t3,32
80003446:	00c75633          	srl	a2,a4,a2
8000344a:	4501                	li	a0,0
8000344c:	01c88863          	beq	a7,t3,8000345c <__adddf3+0x550>
/Local/xl_ci/toolchain/riscv-gnu-toolchain/riscv-gcc/libgcc/soft-fp/adddf3.c:46 (discriminator 306)
80003450:	04000513          	li	a0,64
80003454:	41150533          	sub	a0,a0,a7
80003458:	00a71533          	sll	a0,a4,a0
/Local/xl_ci/toolchain/riscv-gnu-toolchain/riscv-gcc/libgcc/soft-fp/adddf3.c:46 (discriminator 309)
8000345c:	8fc9                	or	a5,a5,a0
8000345e:	00f037b3          	snez	a5,a5
80003462:	8fd1                	or	a5,a5,a2
/Local/xl_ci/toolchain/riscv-gnu-toolchain/riscv-gcc/libgcc/soft-fp/adddf3.c:46 (discriminator 297)
80003464:	4701                	li	a4,0
80003466:	b7c1                	j	80003426 <__adddf3+0x51a>
80003468:	8fd9                	or	a5,a5,a4
8000346a:	00f037b3          	snez	a5,a5
8000346e:	bfdd                	j	80003464 <__adddf3+0x558>
/Local/xl_ci/toolchain/riscv-gnu-toolchain/riscv-gcc/libgcc/soft-fp/adddf3.c:46 (discriminator 258)
80003470:	00140613          	addi	a2,s0,1
80003474:	7fe67613          	andi	a2,a2,2046
80003478:	ea7d                	bnez	a2,8000356e <__adddf3+0x662>
/Local/xl_ci/toolchain/riscv-gnu-toolchain/riscv-gcc/libgcc/soft-fp/adddf3.c:46 (discriminator 314)
8000347a:	00f768b3          	or	a7,a4,a5
8000347e:	0106e533          	or	a0,a3,a6
80003482:	e05d                	bnez	s0,80003528 <__adddf3+0x61c>
/Local/xl_ci/toolchain/riscv-gnu-toolchain/riscv-gcc/libgcc/soft-fp/adddf3.c:46 (discriminator 316)
80003484:	06089263          	bnez	a7,800034e8 <__adddf3+0x5dc>
/Local/xl_ci/toolchain/riscv-gnu-toolchain/riscv-gcc/libgcc/soft-fp/adddf3.c:46 (discriminator 318)
80003488:	1c051163          	bnez	a0,8000364a <__adddf3+0x73e>
/Local/xl_ci/toolchain/riscv-gnu-toolchain/riscv-gcc/libgcc/soft-fp/adddf3.c:46 (discriminator 320)
8000348c:	ffe98493          	addi	s1,s3,-2
80003490:	0014b493          	seqz	s1,s1
80003494:	4701                	li	a4,0
80003496:	4781                	li	a5,0
/Local/xl_ci/toolchain/riscv-gnu-toolchain/riscv-gcc/libgcc/soft-fp/adddf3.c:47 (discriminator 1)
80003498:	00e7e6b3          	or	a3,a5,a4
8000349c:	24068063          	beqz	a3,800036dc <__adddf3+0x7d0>
/Local/xl_ci/toolchain/riscv-gnu-toolchain/riscv-gcc/libgcc/soft-fp/adddf3.c:47
800034a0:	01f7d693          	srli	a3,a5,0x1f
800034a4:	00171413          	slli	s0,a4,0x1
800034a8:	9436                	add	s0,s0,a3
800034aa:	00179693          	slli	a3,a5,0x1
800034ae:	0076f613          	andi	a2,a3,7
800034b2:	4581                	li	a1,0
800034b4:	c605                	beqz	a2,800034dc <__adddf3+0x5d0>
800034b6:	4609                	li	a2,2
800034b8:	1ac98963          	beq	s3,a2,8000366a <__adddf3+0x75e>
800034bc:	460d                	li	a2,3
800034be:	18c98c63          	beq	s3,a2,80003656 <__adddf3+0x74a>
800034c2:	4585                	li	a1,1
800034c4:	00099c63          	bnez	s3,800034dc <__adddf3+0x5d0>
/Local/xl_ci/toolchain/riscv-gnu-toolchain/riscv-gcc/libgcc/soft-fp/adddf3.c:47 (discriminator 16)
800034c8:	00f6f613          	andi	a2,a3,15
800034cc:	4511                	li	a0,4
800034ce:	00a60763          	beq	a2,a0,800034dc <__adddf3+0x5d0>
/Local/xl_ci/toolchain/riscv-gnu-toolchain/riscv-gcc/libgcc/soft-fp/adddf3.c:47 (discriminator 20)
800034d2:	ffc6b693          	sltiu	a3,a3,-4
800034d6:	0016c693          	xori	a3,a3,1
800034da:	9436                	add	s0,s0,a3
/Local/xl_ci/toolchain/riscv-gnu-toolchain/riscv-gcc/libgcc/soft-fp/adddf3.c:47 (discriminator 23)
800034dc:	8061                	srli	s0,s0,0x18
800034de:	00144413          	xori	s0,s0,1
800034e2:	8805                	andi	s0,s0,1
800034e4:	4601                	li	a2,0
800034e6:	b1e9                	j	800031b0 <__adddf3+0x2a4>
/Local/xl_ci/toolchain/riscv-gnu-toolchain/riscv-gcc/libgcc/soft-fp/adddf3.c:46 (discriminator 319)
800034e8:	d945                	beqz	a0,80003498 <__adddf3+0x58c>
/Local/xl_ci/toolchain/riscv-gnu-toolchain/riscv-gcc/libgcc/soft-fp/adddf3.c:46 (discriminator 326)
800034ea:	410785b3          	sub	a1,a5,a6
800034ee:	00b7b533          	sltu	a0,a5,a1
800034f2:	40d70633          	sub	a2,a4,a3
800034f6:	8e09                	sub	a2,a2,a0
800034f8:	00800537          	lui	a0,0x800
800034fc:	8d71                	and	a0,a0,a2
800034fe:	c919                	beqz	a0,80003514 <__adddf3+0x608>
/Local/xl_ci/toolchain/riscv-gnu-toolchain/riscv-gcc/libgcc/soft-fp/adddf3.c:46 (discriminator 328)
80003500:	40f807b3          	sub	a5,a6,a5
80003504:	40e68733          	sub	a4,a3,a4
80003508:	00f83833          	sltu	a6,a6,a5
8000350c:	41070733          	sub	a4,a4,a6
80003510:	849a                	mv	s1,t1
80003512:	b759                	j	80003498 <__adddf3+0x58c>
/Local/xl_ci/toolchain/riscv-gnu-toolchain/riscv-gcc/libgcc/soft-fp/adddf3.c:46 (discriminator 329)
80003514:	00c5e7b3          	or	a5,a1,a2
80003518:	12079c63          	bnez	a5,80003650 <__adddf3+0x744>
/Local/xl_ci/toolchain/riscv-gnu-toolchain/riscv-gcc/libgcc/soft-fp/adddf3.c:46 (discriminator 369)
8000351c:	ffe98493          	addi	s1,s3,-2
80003520:	0014b493          	seqz	s1,s1
/Local/xl_ci/toolchain/riscv-gnu-toolchain/riscv-gcc/libgcc/soft-fp/adddf3.c:46 (discriminator 417)
80003524:	4701                	li	a4,0
80003526:	bf8d                	j	80003498 <__adddf3+0x58c>
/Local/xl_ci/toolchain/riscv-gnu-toolchain/riscv-gcc/libgcc/soft-fp/adddf3.c:46 (discriminator 317)
80003528:	7ff00613          	li	a2,2047
8000352c:	00c41e63          	bne	s0,a2,80003548 <__adddf3+0x63c>
/Local/xl_ci/toolchain/riscv-gnu-toolchain/riscv-gcc/libgcc/soft-fp/adddf3.c:46 (discriminator 335)
80003530:	26088763          	beqz	a7,8000379e <__adddf3+0x892>
/Local/xl_ci/toolchain/riscv-gnu-toolchain/riscv-gcc/libgcc/soft-fp/adddf3.c:46 (discriminator 337)
80003534:	00400637          	lui	a2,0x400
80003538:	8e79                	and	a2,a2,a4
/Local/xl_ci/toolchain/riscv-gnu-toolchain/riscv-gcc/libgcc/soft-fp/adddf3.c:37 (discriminator 337)
8000353a:	00163613          	seqz	a2,a2
8000353e:	0612                	slli	a2,a2,0x4
/Local/xl_ci/toolchain/riscv-gnu-toolchain/riscv-gcc/libgcc/soft-fp/adddf3.c:46 (discriminator 337)
80003540:	26859363          	bne	a1,s0,800037a6 <__adddf3+0x89a>
/Local/xl_ci/toolchain/riscv-gnu-toolchain/riscv-gcc/libgcc/soft-fp/adddf3.c:46
80003544:	85b2                	mv	a1,a2
80003546:	a021                	j	8000354e <__adddf3+0x642>
/Local/xl_ci/toolchain/riscv-gnu-toolchain/riscv-gcc/libgcc/soft-fp/adddf3.c:46 (discriminator 341)
80003548:	02c59163          	bne	a1,a2,8000356a <__adddf3+0x65e>
/Local/xl_ci/toolchain/riscv-gnu-toolchain/riscv-gcc/libgcc/soft-fp/adddf3.c:37
8000354c:	4581                	li	a1,0
/Local/xl_ci/toolchain/riscv-gnu-toolchain/riscv-gcc/libgcc/soft-fp/adddf3.c:46 (discriminator 342)
8000354e:	c511                	beqz	a0,8000355a <__adddf3+0x64e>
/Local/xl_ci/toolchain/riscv-gnu-toolchain/riscv-gcc/libgcc/soft-fp/adddf3.c:46 (discriminator 344)
80003550:	00400637          	lui	a2,0x400
80003554:	8e75                	and	a2,a2,a3
80003556:	e211                	bnez	a2,8000355a <__adddf3+0x64e>
/Local/xl_ci/toolchain/riscv-gnu-toolchain/riscv-gcc/libgcc/soft-fp/adddf3.c:46
80003558:	45c1                	li	a1,16
/Local/xl_ci/toolchain/riscv-gnu-toolchain/riscv-gcc/libgcc/soft-fp/adddf3.c:46 (discriminator 348)
8000355a:	24089763          	bnez	a7,800037a8 <__adddf3+0x89c>
/Local/xl_ci/toolchain/riscv-gnu-toolchain/riscv-gcc/libgcc/soft-fp/adddf3.c:46 (discriminator 349)
8000355e:	16050763          	beqz	a0,800036cc <__adddf3+0x7c0>
/Local/xl_ci/toolchain/riscv-gnu-toolchain/riscv-gcc/libgcc/soft-fp/adddf3.c:45
80003562:	8736                	mv	a4,a3
80003564:	87c2                	mv	a5,a6
/Local/xl_ci/toolchain/riscv-gnu-toolchain/riscv-gcc/libgcc/soft-fp/adddf3.c:46
80003566:	849a                	mv	s1,t1
80003568:	b959                	j	800031fe <__adddf3+0x2f2>
/Local/xl_ci/toolchain/riscv-gnu-toolchain/riscv-gcc/libgcc/soft-fp/adddf3.c:37
8000356a:	4581                	li	a1,0
8000356c:	b7fd                	j	8000355a <__adddf3+0x64e>
/Local/xl_ci/toolchain/riscv-gnu-toolchain/riscv-gcc/libgcc/soft-fp/adddf3.c:46 (discriminator 315)
8000356e:	41078a33          	sub	s4,a5,a6
80003572:	0147b633          	sltu	a2,a5,s4
80003576:	40d70933          	sub	s2,a4,a3
8000357a:	40c90933          	sub	s2,s2,a2
8000357e:	00800637          	lui	a2,0x800
80003582:	00c97633          	and	a2,s2,a2
80003586:	c62d                	beqz	a2,800035f0 <__adddf3+0x6e4>
/Local/xl_ci/toolchain/riscv-gnu-toolchain/riscv-gcc/libgcc/soft-fp/adddf3.c:46 (discriminator 366)
80003588:	40f80a33          	sub	s4,a6,a5
8000358c:	8e99                	sub	a3,a3,a4
8000358e:	01483833          	sltu	a6,a6,s4
80003592:	41068933          	sub	s2,a3,a6
80003596:	849a                	mv	s1,t1
/Local/xl_ci/toolchain/riscv-gnu-toolchain/riscv-gcc/libgcc/soft-fp/adddf3.c:46 (discriminator 375)
80003598:	06090063          	beqz	s2,800035f8 <__adddf3+0x6ec>
/Local/xl_ci/toolchain/riscv-gnu-toolchain/riscv-gcc/libgcc/soft-fp/adddf3.c:46 (discriminator 378)
8000359c:	854a                	mv	a0,s2
8000359e:	403010ef          	jal	ra,800051a0 <__clzsi2>
/Local/xl_ci/toolchain/riscv-gnu-toolchain/riscv-gcc/libgcc/soft-fp/adddf3.c:46 (discriminator 392)
800035a2:	ff850613          	addi	a2,a0,-8 # 7ffff8 <__stack_size+0x7ff7f8>
800035a6:	47fd                	li	a5,31
800035a8:	04c7ce63          	blt	a5,a2,80003604 <__adddf3+0x6f8>
/Local/xl_ci/toolchain/riscv-gnu-toolchain/riscv-gcc/libgcc/soft-fp/adddf3.c:46 (discriminator 398)
800035ac:	02000693          	li	a3,32
800035b0:	8e91                	sub	a3,a3,a2
800035b2:	00c91733          	sll	a4,s2,a2
800035b6:	00da56b3          	srl	a3,s4,a3
800035ba:	8ed9                	or	a3,a3,a4
800035bc:	00ca1833          	sll	a6,s4,a2
/Local/xl_ci/toolchain/riscv-gnu-toolchain/riscv-gcc/libgcc/soft-fp/adddf3.c:46 (discriminator 402)
800035c0:	06864b63          	blt	a2,s0,80003636 <__adddf3+0x72a>
/Local/xl_ci/toolchain/riscv-gnu-toolchain/riscv-gcc/libgcc/soft-fp/adddf3.c:46 (discriminator 403)
800035c4:	8e01                	sub	a2,a2,s0
800035c6:	00160713          	addi	a4,a2,1 # 800001 <__stack_size+0x7ff801>
800035ca:	47fd                	li	a5,31
800035cc:	04e7c263          	blt	a5,a4,80003610 <__adddf3+0x704>
/Local/xl_ci/toolchain/riscv-gnu-toolchain/riscv-gcc/libgcc/soft-fp/adddf3.c:46 (discriminator 405)
800035d0:	02000613          	li	a2,32
800035d4:	8e19                	sub	a2,a2,a4
800035d6:	00c697b3          	sll	a5,a3,a2
800035da:	00e85533          	srl	a0,a6,a4
800035de:	00c81633          	sll	a2,a6,a2
800035e2:	8fc9                	or	a5,a5,a0
800035e4:	00c03633          	snez	a2,a2
800035e8:	8fd1                	or	a5,a5,a2
800035ea:	00e6d733          	srl	a4,a3,a4
800035ee:	b56d                	j	80003498 <__adddf3+0x58c>
/Local/xl_ci/toolchain/riscv-gnu-toolchain/riscv-gcc/libgcc/soft-fp/adddf3.c:46 (discriminator 367)
800035f0:	012a67b3          	or	a5,s4,s2
800035f4:	f3d5                	bnez	a5,80003598 <__adddf3+0x68c>
800035f6:	b71d                	j	8000351c <__adddf3+0x610>
/Local/xl_ci/toolchain/riscv-gnu-toolchain/riscv-gcc/libgcc/soft-fp/adddf3.c:46 (discriminator 385)
800035f8:	8552                	mv	a0,s4
800035fa:	3a7010ef          	jal	ra,800051a0 <__clzsi2>
800035fe:	02050513          	addi	a0,a0,32
80003602:	b745                	j	800035a2 <__adddf3+0x696>
/Local/xl_ci/toolchain/riscv-gnu-toolchain/riscv-gcc/libgcc/soft-fp/adddf3.c:46 (discriminator 394)
80003604:	fd850693          	addi	a3,a0,-40
80003608:	00da16b3          	sll	a3,s4,a3
8000360c:	4801                	li	a6,0
8000360e:	bf4d                	j	800035c0 <__adddf3+0x6b4>
/Local/xl_ci/toolchain/riscv-gnu-toolchain/riscv-gcc/libgcc/soft-fp/adddf3.c:46 (discriminator 406)
80003610:	1605                	addi	a2,a2,-31
80003612:	02000593          	li	a1,32
80003616:	00c6d633          	srl	a2,a3,a2
8000361a:	4781                	li	a5,0
8000361c:	00b70763          	beq	a4,a1,8000362a <__adddf3+0x71e>
/Local/xl_ci/toolchain/riscv-gnu-toolchain/riscv-gcc/libgcc/soft-fp/adddf3.c:46 (discriminator 414)
80003620:	04000793          	li	a5,64
80003624:	8f99                	sub	a5,a5,a4
80003626:	00f697b3          	sll	a5,a3,a5
/Local/xl_ci/toolchain/riscv-gnu-toolchain/riscv-gcc/libgcc/soft-fp/adddf3.c:46 (discriminator 417)
8000362a:	00f867b3          	or	a5,a6,a5
8000362e:	00f037b3          	snez	a5,a5
80003632:	8fd1                	or	a5,a5,a2
80003634:	bdc5                	j	80003524 <__adddf3+0x618>
/Local/xl_ci/toolchain/riscv-gnu-toolchain/riscv-gcc/libgcc/soft-fp/adddf3.c:46 (discriminator 404)
80003636:	ff8007b7          	lui	a5,0xff800
8000363a:	17fd                	addi	a5,a5,-1
8000363c:	40c40633          	sub	a2,s0,a2
80003640:	8efd                	and	a3,a3,a5
80003642:	bc81                	j	80003092 <__adddf3+0x186>
/Local/xl_ci/toolchain/riscv-gnu-toolchain/riscv-gcc/libgcc/soft-fp/adddf3.c:45
80003644:	8736                	mv	a4,a3
/Local/xl_ci/toolchain/riscv-gnu-toolchain/riscv-gcc/libgcc/soft-fp/adddf3.c:46
80003646:	87c2                	mv	a5,a6
80003648:	bd81                	j	80003498 <__adddf3+0x58c>
/Local/xl_ci/toolchain/riscv-gnu-toolchain/riscv-gcc/libgcc/soft-fp/adddf3.c:45
8000364a:	8736                	mv	a4,a3
8000364c:	87c2                	mv	a5,a6
8000364e:	b5c9                	j	80003510 <__adddf3+0x604>
80003650:	8732                	mv	a4,a2
/Local/xl_ci/toolchain/riscv-gnu-toolchain/riscv-gcc/libgcc/soft-fp/adddf3.c:46
80003652:	87ae                	mv	a5,a1
80003654:	b591                	j	80003498 <__adddf3+0x58c>
/Local/xl_ci/toolchain/riscv-gnu-toolchain/riscv-gcc/libgcc/soft-fp/adddf3.c:47 (discriminator 19)
80003656:	85a6                	mv	a1,s1
80003658:	e80492e3          	bnez	s1,800034dc <__adddf3+0x5d0>
/Local/xl_ci/toolchain/riscv-gnu-toolchain/riscv-gcc/libgcc/soft-fp/adddf3.c:47 (discriminator 26)
8000365c:	ff86b693          	sltiu	a3,a3,-8
80003660:	0016c693          	xori	a3,a3,1
80003664:	9436                	add	s0,s0,a3
80003666:	4585                	li	a1,1
80003668:	bd95                	j	800034dc <__adddf3+0x5d0>
/Local/xl_ci/toolchain/riscv-gnu-toolchain/riscv-gcc/libgcc/soft-fp/adddf3.c:47 (discriminator 18)
8000366a:	4585                	li	a1,1
8000366c:	e60488e3          	beqz	s1,800034dc <__adddf3+0x5d0>
/Local/xl_ci/toolchain/riscv-gnu-toolchain/riscv-gcc/libgcc/soft-fp/adddf3.c:47 (discriminator 31)
80003670:	ff86b693          	sltiu	a3,a3,-8
80003674:	0016c693          	xori	a3,a3,1
80003678:	9436                	add	s0,s0,a3
8000367a:	85a6                	mv	a1,s1
8000367c:	b585                	j	800034dc <__adddf3+0x5d0>
8000367e:	4701                	li	a4,0
/Local/xl_ci/toolchain/riscv-gnu-toolchain/riscv-gcc/libgcc/soft-fp/adddf3.c:46
80003680:	7ff00613          	li	a2,2047
80003684:	4581                	li	a1,0
80003686:	a06d                	j	80003730 <__adddf3+0x824>
/Local/xl_ci/toolchain/riscv-gnu-toolchain/riscv-gcc/libgcc/soft-fp/adddf3.c:45
80003688:	87c2                	mv	a5,a6
8000368a:	b291                	j	80002fce <__adddf3+0xc2>
/Local/xl_ci/toolchain/riscv-gnu-toolchain/riscv-gcc/libgcc/soft-fp/adddf3.c:46
8000368c:	577d                	li	a4,-1
8000368e:	57fd                	li	a5,-1
80003690:	7fe00613          	li	a2,2046
/Local/xl_ci/toolchain/riscv-gnu-toolchain/riscv-gcc/libgcc/soft-fp/adddf3.c:47
80003694:	4401                	li	s0,0
80003696:	b6d1                	j	8000325a <__adddf3+0x34e>
80003698:	4701                	li	a4,0
8000369a:	4781                	li	a5,0
8000369c:	a851                	j	80003730 <__adddf3+0x824>
8000369e:	4701                	li	a4,0
800036a0:	4781                	li	a5,0
800036a2:	bff9                	j	80003680 <__adddf3+0x774>
800036a4:	4701                	li	a4,0
800036a6:	bff9                	j	80003684 <__adddf3+0x778>
/Local/xl_ci/toolchain/riscv-gnu-toolchain/riscv-gcc/libgcc/soft-fp/adddf3.c:45
800036a8:	87c2                	mv	a5,a6
/Local/xl_ci/toolchain/riscv-gnu-toolchain/riscv-gcc/libgcc/soft-fp/adddf3.c:47
800036aa:	4581                	li	a1,0
800036ac:	b611                	j	800031b0 <__adddf3+0x2a4>
800036ae:	4701                	li	a4,0
800036b0:	849a                	mv	s1,t1
800036b2:	bfc9                	j	80003684 <__adddf3+0x778>
/Local/xl_ci/toolchain/riscv-gnu-toolchain/riscv-gcc/libgcc/soft-fp/adddf3.c:45
800036b4:	87c2                	mv	a5,a6
800036b6:	849a                	mv	s1,t1
800036b8:	bfcd                	j	800036aa <__adddf3+0x79e>
800036ba:	4701                	li	a4,0
/Local/xl_ci/toolchain/riscv-gnu-toolchain/riscv-gcc/libgcc/soft-fp/adddf3.c:46
800036bc:	7ff00613          	li	a2,2047
800036c0:	bfc5                	j	800036b0 <__adddf3+0x7a4>
/Local/xl_ci/toolchain/riscv-gnu-toolchain/riscv-gcc/libgcc/soft-fp/adddf3.c:45
800036c2:	87c2                	mv	a5,a6
/Local/xl_ci/toolchain/riscv-gnu-toolchain/riscv-gcc/libgcc/soft-fp/adddf3.c:46
800036c4:	7ff00613          	li	a2,2047
800036c8:	849a                	mv	s1,t1
800036ca:	b6a5                	j	80003232 <__adddf3+0x326>
800036cc:	4781                	li	a5,0
800036ce:	4481                	li	s1,0
800036d0:	00400737          	lui	a4,0x400
800036d4:	7ff00613          	li	a2,2047
800036d8:	45c1                	li	a1,16
800036da:	a899                	j	80003730 <__adddf3+0x824>
800036dc:	4701                	li	a4,0
800036de:	4781                	li	a5,0
800036e0:	4601                	li	a2,0
800036e2:	b74d                	j	80003684 <__adddf3+0x778>
/Local/xl_ci/toolchain/riscv-gnu-toolchain/riscv-gcc/libgcc/soft-fp/adddf3.c:47 (discriminator 43)
800036e4:	e489                	bnez	s1,800036ee <__adddf3+0x7e2>
/Local/xl_ci/toolchain/riscv-gnu-toolchain/riscv-gcc/libgcc/soft-fp/adddf3.c:47 (discriminator 55)
800036e6:	00878693          	addi	a3,a5,8 # ff800008 <_sp+0x6f7c0008>
800036ea:	be51                	j	8000327e <__adddf3+0x372>
/Local/xl_ci/toolchain/riscv-gnu-toolchain/riscv-gcc/libgcc/soft-fp/adddf3.c:47 (discriminator 42)
800036ec:	fced                	bnez	s1,800036e6 <__adddf3+0x7da>
/Local/xl_ci/toolchain/riscv-gnu-toolchain/riscv-gcc/libgcc/soft-fp/adddf3.c:47
800036ee:	ac041ae3          	bnez	s0,800031c2 <__adddf3+0x2b6>
800036f2:	a83d                	j	80003730 <__adddf3+0x824>
/Local/xl_ci/toolchain/riscv-gnu-toolchain/riscv-gcc/libgcc/soft-fp/adddf3.c:47 (discriminator 65)
800036f4:	4781                	li	a5,0
800036f6:	00098e63          	beqz	s3,80003712 <__adddf3+0x806>
/Local/xl_ci/toolchain/riscv-gnu-toolchain/riscv-gcc/libgcc/soft-fp/adddf3.c:47 (discriminator 68)
800036fa:	470d                	li	a4,3
800036fc:	00e99763          	bne	s3,a4,8000370a <__adddf3+0x7fe>
/Local/xl_ci/toolchain/riscv-gnu-toolchain/riscv-gcc/libgcc/soft-fp/adddf3.c:47 (discriminator 69)
80003700:	c889                	beqz	s1,80003712 <__adddf3+0x806>
/Local/xl_ci/toolchain/riscv-gnu-toolchain/riscv-gcc/libgcc/soft-fp/adddf3.c:47
80003702:	57fd                	li	a5,-1
80003704:	7fe00613          	li	a2,2046
80003708:	a029                	j	80003712 <__adddf3+0x806>
/Local/xl_ci/toolchain/riscv-gnu-toolchain/riscv-gcc/libgcc/soft-fp/adddf3.c:47 (discriminator 72)
8000370a:	4709                	li	a4,2
8000370c:	fee99be3          	bne	s3,a4,80003702 <__adddf3+0x7f6>
/Local/xl_ci/toolchain/riscv-gnu-toolchain/riscv-gcc/libgcc/soft-fp/adddf3.c:47 (discriminator 73)
80003710:	d8ed                	beqz	s1,80003702 <__adddf3+0x7f6>
/Local/xl_ci/toolchain/riscv-gnu-toolchain/riscv-gcc/libgcc/soft-fp/adddf3.c:47 (discriminator 78)
80003712:	0055e593          	ori	a1,a1,5
80003716:	873e                	mv	a4,a5
80003718:	a80d                	j	8000374a <__adddf3+0x83e>
/Local/xl_ci/toolchain/riscv-gnu-toolchain/riscv-gcc/libgcc/soft-fp/adddf3.c:46
8000371a:	85b2                	mv	a1,a2
/Local/xl_ci/toolchain/riscv-gnu-toolchain/riscv-gcc/libgcc/soft-fp/adddf3.c:46 (discriminator 155)
8000371c:	0106e6b3          	or	a3,a3,a6
80003720:	ac068fe3          	beqz	a3,800031fe <__adddf3+0x2f2>
/Local/xl_ci/toolchain/riscv-gnu-toolchain/riscv-gcc/libgcc/soft-fp/adddf3.c:46
80003724:	4481                	li	s1,0
80003726:	00400737          	lui	a4,0x400
8000372a:	4781                	li	a5,0
8000372c:	7ff00613          	li	a2,2047
/Local/xl_ci/toolchain/riscv-gnu-toolchain/riscv-gcc/libgcc/soft-fp/adddf3.c:47 (discriminator 62)
80003730:	008006b7          	lui	a3,0x800
80003734:	8ef9                	and	a3,a3,a4
80003736:	ca91                	beqz	a3,8000374a <__adddf3+0x83e>
/Local/xl_ci/toolchain/riscv-gnu-toolchain/riscv-gcc/libgcc/soft-fp/adddf3.c:47 (discriminator 63)
80003738:	0605                	addi	a2,a2,1
8000373a:	7ff00693          	li	a3,2047
8000373e:	fad60be3          	beq	a2,a3,800036f4 <__adddf3+0x7e8>
/Local/xl_ci/toolchain/riscv-gnu-toolchain/riscv-gcc/libgcc/soft-fp/adddf3.c:47
80003742:	ff8006b7          	lui	a3,0xff800
80003746:	16fd                	addi	a3,a3,-1
80003748:	8f75                	and	a4,a4,a3
/Local/xl_ci/toolchain/riscv-gnu-toolchain/riscv-gcc/libgcc/soft-fp/adddf3.c:47 (discriminator 79)
8000374a:	0037d513          	srli	a0,a5,0x3
8000374e:	7ff00693          	li	a3,2047
80003752:	01d71793          	slli	a5,a4,0x1d
80003756:	8fc9                	or	a5,a5,a0
80003758:	830d                	srli	a4,a4,0x3
8000375a:	00d61963          	bne	a2,a3,8000376c <__adddf3+0x860>
/Local/xl_ci/toolchain/riscv-gnu-toolchain/riscv-gcc/libgcc/soft-fp/adddf3.c:47 (discriminator 80)
8000375e:	8fd9                	or	a5,a5,a4
80003760:	4701                	li	a4,0
80003762:	c789                	beqz	a5,8000376c <__adddf3+0x860>
/Local/xl_ci/toolchain/riscv-gnu-toolchain/riscv-gcc/libgcc/soft-fp/adddf3.c:47
80003764:	00080737          	lui	a4,0x80
80003768:	4781                	li	a5,0
8000376a:	4481                	li	s1,0
/Local/xl_ci/toolchain/riscv-gnu-toolchain/riscv-gcc/libgcc/soft-fp/adddf3.c:47 (discriminator 90)
8000376c:	7ff006b7          	lui	a3,0x7ff00
80003770:	0652                	slli	a2,a2,0x14
80003772:	0732                	slli	a4,a4,0xc
80003774:	8e75                	and	a2,a2,a3
80003776:	8331                	srli	a4,a4,0xc
80003778:	8f51                	or	a4,a4,a2
8000377a:	04fe                	slli	s1,s1,0x1f
8000377c:	009766b3          	or	a3,a4,s1
80003780:	873e                	mv	a4,a5
80003782:	87b6                	mv	a5,a3
/Local/xl_ci/toolchain/riscv-gnu-toolchain/riscv-gcc/libgcc/soft-fp/adddf3.c:48 (discriminator 90)
80003784:	c199                	beqz	a1,8000378a <__adddf3+0x87e>
/Local/xl_ci/toolchain/riscv-gnu-toolchain/riscv-gcc/libgcc/soft-fp/adddf3.c:48 (discriminator 1)
80003786:	0015a073          	csrs	fflags,a1
/Local/xl_ci/toolchain/riscv-gnu-toolchain/riscv-gcc/libgcc/soft-fp/adddf3.c:51
8000378a:	40f2                	lw	ra,28(sp)
8000378c:	4462                	lw	s0,24(sp)
8000378e:	44d2                	lw	s1,20(sp)
80003790:	4942                	lw	s2,16(sp)
80003792:	49b2                	lw	s3,12(sp)
80003794:	4a22                	lw	s4,8(sp)
80003796:	853a                	mv	a0,a4
80003798:	85be                	mv	a1,a5
8000379a:	6105                	addi	sp,sp,32
8000379c:	8082                	ret
/Local/xl_ci/toolchain/riscv-gnu-toolchain/riscv-gcc/libgcc/soft-fp/adddf3.c:46
8000379e:	da8587e3          	beq	a1,s0,8000354c <__adddf3+0x640>
/Local/xl_ci/toolchain/riscv-gnu-toolchain/riscv-gcc/libgcc/soft-fp/adddf3.c:37
800037a2:	4581                	li	a1,0
800037a4:	bb6d                	j	8000355e <__adddf3+0x652>
/Local/xl_ci/toolchain/riscv-gnu-toolchain/riscv-gcc/libgcc/soft-fp/adddf3.c:46
800037a6:	85b2                	mv	a1,a2
/Local/xl_ci/toolchain/riscv-gnu-toolchain/riscv-gcc/libgcc/soft-fp/adddf3.c:46 (discriminator 350)
800037a8:	a4050be3          	beqz	a0,800031fe <__adddf3+0x2f2>
800037ac:	bfa5                	j	80003724 <__adddf3+0x818>
/Local/xl_ci/toolchain/riscv-gnu-toolchain/riscv-gcc/libgcc/soft-fp/adddf3.c:46
800037ae:	a4858ee3          	beq	a1,s0,8000320a <__adddf3+0x2fe>
800037b2:	4581                	li	a1,0
800037b4:	b499                	j	800031fa <__adddf3+0x2ee>

800037b6 <__divdf3>:
__divdf3():
/Local/xl_ci/toolchain/riscv-gnu-toolchain/riscv-gcc/libgcc/soft-fp/divdf3.c:36
800037b6:	7179                	addi	sp,sp,-48
800037b8:	d422                	sw	s0,40(sp)
800037ba:	ca56                	sw	s5,20(sp)
800037bc:	c266                	sw	s9,4(sp)
800037be:	d606                	sw	ra,44(sp)
800037c0:	d226                	sw	s1,36(sp)
800037c2:	d04a                	sw	s2,32(sp)
800037c4:	ce4e                	sw	s3,28(sp)
800037c6:	cc52                	sw	s4,24(sp)
800037c8:	c85a                	sw	s6,16(sp)
800037ca:	c65e                	sw	s7,12(sp)
800037cc:	c462                	sw	s8,8(sp)
800037ce:	842a                	mv	s0,a0
800037d0:	8cb2                	mv	s9,a2
800037d2:	8ab6                	mv	s5,a3
/Local/xl_ci/toolchain/riscv-gnu-toolchain/riscv-gcc/libgcc/soft-fp/divdf3.c:43
800037d4:	00202973          	frrm	s2
/Local/xl_ci/toolchain/riscv-gnu-toolchain/riscv-gcc/libgcc/soft-fp/divdf3.c:44
800037d8:	0145db13          	srli	s6,a1,0x14
800037dc:	00c59b93          	slli	s7,a1,0xc
800037e0:	7ffb7b13          	andi	s6,s6,2047
800037e4:	00cbdb93          	srli	s7,s7,0xc
800037e8:	01f5da13          	srli	s4,a1,0x1f
800037ec:	020b0663          	beqz	s6,80003818 <__divdf3+0x62>
800037f0:	7ff00793          	li	a5,2047
800037f4:	06fb0b63          	beq	s6,a5,8000386a <__divdf3+0xb4>
/Local/xl_ci/toolchain/riscv-gnu-toolchain/riscv-gcc/libgcc/soft-fp/divdf3.c:44 (discriminator 1)
800037f8:	01d55713          	srli	a4,a0,0x1d
800037fc:	0b8e                	slli	s7,s7,0x3
800037fe:	01776bb3          	or	s7,a4,s7
80003802:	008007b7          	lui	a5,0x800
80003806:	00fbebb3          	or	s7,s7,a5
8000380a:	00351993          	slli	s3,a0,0x3
8000380e:	c01b0b13          	addi	s6,s6,-1023
/Local/xl_ci/toolchain/riscv-gnu-toolchain/riscv-gcc/libgcc/soft-fp/divdf3.c:44 (discriminator 41)
80003812:	4c01                	li	s8,0
/Local/xl_ci/toolchain/riscv-gnu-toolchain/riscv-gcc/libgcc/soft-fp/divdf3.c:37
80003814:	4481                	li	s1,0
80003816:	a0bd                	j	80003884 <__divdf3+0xce>
/Local/xl_ci/toolchain/riscv-gnu-toolchain/riscv-gcc/libgcc/soft-fp/divdf3.c:44 (discriminator 2)
80003818:	00abe7b3          	or	a5,s7,a0
8000381c:	c7e9                	beqz	a5,800038e6 <__divdf3+0x130>
/Local/xl_ci/toolchain/riscv-gnu-toolchain/riscv-gcc/libgcc/soft-fp/divdf3.c:44 (discriminator 13)
8000381e:	020b8b63          	beqz	s7,80003854 <__divdf3+0x9e>
/Local/xl_ci/toolchain/riscv-gnu-toolchain/riscv-gcc/libgcc/soft-fp/divdf3.c:44 (discriminator 17)
80003822:	855e                	mv	a0,s7
80003824:	17d010ef          	jal	ra,800051a0 <__clzsi2>
/Local/xl_ci/toolchain/riscv-gnu-toolchain/riscv-gcc/libgcc/soft-fp/divdf3.c:44 (discriminator 31)
80003828:	ff550713          	addi	a4,a0,-11
8000382c:	47f1                	li	a5,28
8000382e:	02e7c863          	blt	a5,a4,8000385e <__divdf3+0xa8>
/Local/xl_ci/toolchain/riscv-gnu-toolchain/riscv-gcc/libgcc/soft-fp/divdf3.c:44 (discriminator 32)
80003832:	46f5                	li	a3,29
80003834:	ff850993          	addi	s3,a0,-8
80003838:	8e99                	sub	a3,a3,a4
8000383a:	013b9bb3          	sll	s7,s7,s3
8000383e:	00d456b3          	srl	a3,s0,a3
80003842:	0176ebb3          	or	s7,a3,s7
80003846:	013419b3          	sll	s3,s0,s3
/Local/xl_ci/toolchain/riscv-gnu-toolchain/riscv-gcc/libgcc/soft-fp/divdf3.c:44 (discriminator 41)
8000384a:	c0d00593          	li	a1,-1011
8000384e:	40a58b33          	sub	s6,a1,a0
80003852:	b7c1                	j	80003812 <__divdf3+0x5c>
/Local/xl_ci/toolchain/riscv-gnu-toolchain/riscv-gcc/libgcc/soft-fp/divdf3.c:44 (discriminator 24)
80003854:	14d010ef          	jal	ra,800051a0 <__clzsi2>
80003858:	02050513          	addi	a0,a0,32
8000385c:	b7f1                	j	80003828 <__divdf3+0x72>
/Local/xl_ci/toolchain/riscv-gnu-toolchain/riscv-gcc/libgcc/soft-fp/divdf3.c:44 (discriminator 33)
8000385e:	fd850b93          	addi	s7,a0,-40
80003862:	01741bb3          	sll	s7,s0,s7
80003866:	4981                	li	s3,0
80003868:	b7cd                	j	8000384a <__divdf3+0x94>
/Local/xl_ci/toolchain/riscv-gnu-toolchain/riscv-gcc/libgcc/soft-fp/divdf3.c:44 (discriminator 3)
8000386a:	00abe433          	or	s0,s7,a0
8000386e:	c049                	beqz	s0,800038f0 <__divdf3+0x13a>
/Local/xl_ci/toolchain/riscv-gnu-toolchain/riscv-gcc/libgcc/soft-fp/divdf3.c:44 (discriminator 44)
80003870:	000807b7          	lui	a5,0x80
80003874:	00fbf7b3          	and	a5,s7,a5
80003878:	89aa                	mv	s3,a0
8000387a:	7ff00b13          	li	s6,2047
8000387e:	4c0d                	li	s8,3
80003880:	44c1                	li	s1,16
80003882:	fbc9                	bnez	a5,80003814 <__divdf3+0x5e>
/Local/xl_ci/toolchain/riscv-gnu-toolchain/riscv-gcc/libgcc/soft-fp/divdf3.c:45 (discriminator 8)
80003884:	00ca9513          	slli	a0,s5,0xc
80003888:	00c55413          	srli	s0,a0,0xc
8000388c:	014ad513          	srli	a0,s5,0x14
80003890:	7ff57593          	andi	a1,a0,2047
80003894:	87e6                	mv	a5,s9
80003896:	01fada93          	srli	s5,s5,0x1f
8000389a:	c1ad                	beqz	a1,800038fc <__divdf3+0x146>
/Local/xl_ci/toolchain/riscv-gnu-toolchain/riscv-gcc/libgcc/soft-fp/divdf3.c:45
8000389c:	7ff00713          	li	a4,2047
800038a0:	0ae58863          	beq	a1,a4,80003950 <__divdf3+0x19a>
/Local/xl_ci/toolchain/riscv-gnu-toolchain/riscv-gcc/libgcc/soft-fp/divdf3.c:45 (discriminator 1)
800038a4:	01dcd793          	srli	a5,s9,0x1d
800038a8:	00341513          	slli	a0,s0,0x3
800038ac:	8d5d                	or	a0,a0,a5
800038ae:	00800437          	lui	s0,0x800
800038b2:	8c49                	or	s0,s0,a0
800038b4:	003c9793          	slli	a5,s9,0x3
800038b8:	c0158513          	addi	a0,a1,-1023
/Local/xl_ci/toolchain/riscv-gnu-toolchain/riscv-gcc/libgcc/soft-fp/divdf3.c:45 (discriminator 41)
800038bc:	4701                	li	a4,0
/Local/xl_ci/toolchain/riscv-gnu-toolchain/riscv-gcc/libgcc/soft-fp/divdf3.c:46 (discriminator 8)
800038be:	002c1693          	slli	a3,s8,0x2
800038c2:	8ed9                	or	a3,a3,a4
800038c4:	40ab05b3          	sub	a1,s6,a0
800038c8:	16fd                	addi	a3,a3,-1
800038ca:	4539                	li	a0,14
800038cc:	015a4633          	xor	a2,s4,s5
800038d0:	0ad56963          	bltu	a0,a3,80003982 <__divdf3+0x1cc>
800038d4:	00005517          	auipc	a0,0x5
800038d8:	2cc50513          	addi	a0,a0,716 # 80008ba0 <__trunctfdf2+0x5a6>
800038dc:	068a                	slli	a3,a3,0x2
800038de:	96aa                	add	a3,a3,a0
800038e0:	4294                	lw	a3,0(a3)
800038e2:	96aa                	add	a3,a3,a0
800038e4:	8682                	jr	a3
800038e6:	4b81                	li	s7,0
800038e8:	4981                	li	s3,0
800038ea:	4b01                	li	s6,0
/Local/xl_ci/toolchain/riscv-gnu-toolchain/riscv-gcc/libgcc/soft-fp/divdf3.c:44
800038ec:	4c05                	li	s8,1
800038ee:	b71d                	j	80003814 <__divdf3+0x5e>
800038f0:	4b81                	li	s7,0
800038f2:	4981                	li	s3,0
800038f4:	7ff00b13          	li	s6,2047
800038f8:	4c09                	li	s8,2
800038fa:	bf29                	j	80003814 <__divdf3+0x5e>
/Local/xl_ci/toolchain/riscv-gnu-toolchain/riscv-gcc/libgcc/soft-fp/divdf3.c:45 (discriminator 2)
800038fc:	019467b3          	or	a5,s0,s9
80003900:	c7a5                	beqz	a5,80003968 <__divdf3+0x1b2>
/Local/xl_ci/toolchain/riscv-gnu-toolchain/riscv-gcc/libgcc/soft-fp/divdf3.c:45 (discriminator 13)
80003902:	c81d                	beqz	s0,80003938 <__divdf3+0x182>
/Local/xl_ci/toolchain/riscv-gnu-toolchain/riscv-gcc/libgcc/soft-fp/divdf3.c:45 (discriminator 17)
80003904:	8522                	mv	a0,s0
80003906:	09b010ef          	jal	ra,800051a0 <__clzsi2>
8000390a:	85aa                	mv	a1,a0
/Local/xl_ci/toolchain/riscv-gnu-toolchain/riscv-gcc/libgcc/soft-fp/divdf3.c:45 (discriminator 31)
8000390c:	ff558693          	addi	a3,a1,-11
80003910:	47f1                	li	a5,28
80003912:	02d7c963          	blt	a5,a3,80003944 <__divdf3+0x18e>
/Local/xl_ci/toolchain/riscv-gnu-toolchain/riscv-gcc/libgcc/soft-fp/divdf3.c:45 (discriminator 32)
80003916:	4775                	li	a4,29
80003918:	ff858793          	addi	a5,a1,-8
8000391c:	8f15                	sub	a4,a4,a3
8000391e:	00f41533          	sll	a0,s0,a5
80003922:	00ecd733          	srl	a4,s9,a4
80003926:	00a76433          	or	s0,a4,a0
8000392a:	00fc97b3          	sll	a5,s9,a5
/Local/xl_ci/toolchain/riscv-gnu-toolchain/riscv-gcc/libgcc/soft-fp/divdf3.c:45 (discriminator 41)
8000392e:	c0d00713          	li	a4,-1011
80003932:	40b70533          	sub	a0,a4,a1
80003936:	b759                	j	800038bc <__divdf3+0x106>
/Local/xl_ci/toolchain/riscv-gnu-toolchain/riscv-gcc/libgcc/soft-fp/divdf3.c:45 (discriminator 24)
80003938:	8566                	mv	a0,s9
8000393a:	067010ef          	jal	ra,800051a0 <__clzsi2>
8000393e:	02050593          	addi	a1,a0,32
80003942:	b7e9                	j	8000390c <__divdf3+0x156>
/Local/xl_ci/toolchain/riscv-gnu-toolchain/riscv-gcc/libgcc/soft-fp/divdf3.c:45 (discriminator 33)
80003944:	fd858513          	addi	a0,a1,-40
80003948:	00ac9433          	sll	s0,s9,a0
8000394c:	4781                	li	a5,0
8000394e:	b7c5                	j	8000392e <__divdf3+0x178>
/Local/xl_ci/toolchain/riscv-gnu-toolchain/riscv-gcc/libgcc/soft-fp/divdf3.c:45 (discriminator 3)
80003950:	01946633          	or	a2,s0,s9
80003954:	ce19                	beqz	a2,80003972 <__divdf3+0x1bc>
/Local/xl_ci/toolchain/riscv-gnu-toolchain/riscv-gcc/libgcc/soft-fp/divdf3.c:45 (discriminator 44)
80003956:	00080737          	lui	a4,0x80
8000395a:	8f61                	and	a4,a4,s0
8000395c:	7ff00513          	li	a0,2047
80003960:	ef19                	bnez	a4,8000397e <__divdf3+0x1c8>
/Local/xl_ci/toolchain/riscv-gnu-toolchain/riscv-gcc/libgcc/soft-fp/divdf3.c:45
80003962:	470d                	li	a4,3
80003964:	44c1                	li	s1,16
80003966:	bfa1                	j	800038be <__divdf3+0x108>
80003968:	4401                	li	s0,0
8000396a:	4781                	li	a5,0
8000396c:	4501                	li	a0,0
8000396e:	4705                	li	a4,1
80003970:	b7b9                	j	800038be <__divdf3+0x108>
80003972:	4401                	li	s0,0
80003974:	4781                	li	a5,0
80003976:	7ff00513          	li	a0,2047
8000397a:	4709                	li	a4,2
8000397c:	b789                	j	800038be <__divdf3+0x108>
8000397e:	470d                	li	a4,3
80003980:	bf3d                	j	800038be <__divdf3+0x108>
/Local/xl_ci/toolchain/riscv-gnu-toolchain/riscv-gcc/libgcc/soft-fp/divdf3.c:46 (discriminator 2)
80003982:	01746663          	bltu	s0,s7,8000398e <__divdf3+0x1d8>
/Local/xl_ci/toolchain/riscv-gnu-toolchain/riscv-gcc/libgcc/soft-fp/divdf3.c:46 (discriminator 11)
80003986:	268b9463          	bne	s7,s0,80003bee <__divdf3+0x438>
/Local/xl_ci/toolchain/riscv-gnu-toolchain/riscv-gcc/libgcc/soft-fp/divdf3.c:46 (discriminator 12)
8000398a:	26f9e263          	bltu	s3,a5,80003bee <__divdf3+0x438>
/Local/xl_ci/toolchain/riscv-gnu-toolchain/riscv-gcc/libgcc/soft-fp/divdf3.c:46 (discriminator 14)
8000398e:	01fb9513          	slli	a0,s7,0x1f
80003992:	0019d713          	srli	a4,s3,0x1
80003996:	01f99693          	slli	a3,s3,0x1f
8000399a:	001bdb93          	srli	s7,s7,0x1
8000399e:	00e569b3          	or	s3,a0,a4
/Local/xl_ci/toolchain/riscv-gnu-toolchain/riscv-gcc/libgcc/soft-fp/divdf3.c:46 (discriminator 19)
800039a2:	00841513          	slli	a0,s0,0x8
800039a6:	0187d813          	srli	a6,a5,0x18
800039aa:	00a86833          	or	a6,a6,a0
800039ae:	8141                	srli	a0,a0,0x10
800039b0:	02abde33          	divu	t3,s7,a0
800039b4:	01081f13          	slli	t5,a6,0x10
800039b8:	010f5f13          	srli	t5,t5,0x10
800039bc:	00879893          	slli	a7,a5,0x8
800039c0:	0109d793          	srli	a5,s3,0x10
800039c4:	02abfbb3          	remu	s7,s7,a0
800039c8:	8372                	mv	t1,t3
800039ca:	03cf0733          	mul	a4,t5,t3
800039ce:	0bc2                	slli	s7,s7,0x10
800039d0:	0177e7b3          	or	a5,a5,s7
800039d4:	00e7fc63          	bgeu	a5,a4,800039ec <__divdf3+0x236>
/Local/xl_ci/toolchain/riscv-gnu-toolchain/riscv-gcc/libgcc/soft-fp/divdf3.c:46 (discriminator 22)
800039d8:	97c2                	add	a5,a5,a6
800039da:	fffe0313          	addi	t1,t3,-1
800039de:	0107e763          	bltu	a5,a6,800039ec <__divdf3+0x236>
/Local/xl_ci/toolchain/riscv-gnu-toolchain/riscv-gcc/libgcc/soft-fp/divdf3.c:46 (discriminator 24)
800039e2:	00e7f563          	bgeu	a5,a4,800039ec <__divdf3+0x236>
/Local/xl_ci/toolchain/riscv-gnu-toolchain/riscv-gcc/libgcc/soft-fp/divdf3.c:46 (discriminator 26)
800039e6:	ffee0313          	addi	t1,t3,-2
800039ea:	97c2                	add	a5,a5,a6
/Local/xl_ci/toolchain/riscv-gnu-toolchain/riscv-gcc/libgcc/soft-fp/divdf3.c:46 (discriminator 28)
800039ec:	8f99                	sub	a5,a5,a4
800039ee:	02a7deb3          	divu	t4,a5,a0
800039f2:	01099713          	slli	a4,s3,0x10
800039f6:	8341                	srli	a4,a4,0x10
800039f8:	02a7f7b3          	remu	a5,a5,a0
800039fc:	89f6                	mv	s3,t4
800039fe:	03df0e33          	mul	t3,t5,t4
80003a02:	07c2                	slli	a5,a5,0x10
80003a04:	8f5d                	or	a4,a4,a5
80003a06:	01c77c63          	bgeu	a4,t3,80003a1e <__divdf3+0x268>
/Local/xl_ci/toolchain/riscv-gnu-toolchain/riscv-gcc/libgcc/soft-fp/divdf3.c:46 (discriminator 29)
80003a0a:	9742                	add	a4,a4,a6
80003a0c:	fffe8993          	addi	s3,t4,-1
80003a10:	01076763          	bltu	a4,a6,80003a1e <__divdf3+0x268>
/Local/xl_ci/toolchain/riscv-gnu-toolchain/riscv-gcc/libgcc/soft-fp/divdf3.c:46 (discriminator 31)
80003a14:	01c77563          	bgeu	a4,t3,80003a1e <__divdf3+0x268>
/Local/xl_ci/toolchain/riscv-gnu-toolchain/riscv-gcc/libgcc/soft-fp/divdf3.c:46 (discriminator 33)
80003a18:	ffee8993          	addi	s3,t4,-2
80003a1c:	9742                	add	a4,a4,a6
/Local/xl_ci/toolchain/riscv-gnu-toolchain/riscv-gcc/libgcc/soft-fp/divdf3.c:46 (discriminator 35)
80003a1e:	0342                	slli	t1,t1,0x10
80003a20:	013369b3          	or	s3,t1,s3
80003a24:	6341                	lui	t1,0x10
80003a26:	fff30e93          	addi	t4,t1,-1 # ffff <__stack_size+0xf7ff>
80003a2a:	0109d293          	srli	t0,s3,0x10
80003a2e:	0108df93          	srli	t6,a7,0x10
80003a32:	41c70733          	sub	a4,a4,t3
80003a36:	01d9fe33          	and	t3,s3,t4
80003a3a:	01d8feb3          	and	t4,a7,t4
80003a3e:	03de07b3          	mul	a5,t3,t4
80003a42:	03d28433          	mul	s0,t0,t4
80003a46:	03cf8e33          	mul	t3,t6,t3
80003a4a:	008e03b3          	add	t2,t3,s0
80003a4e:	0107de13          	srli	t3,a5,0x10
80003a52:	9e1e                	add	t3,t3,t2
80003a54:	03f282b3          	mul	t0,t0,t6
80003a58:	008e7363          	bgeu	t3,s0,80003a5e <__divdf3+0x2a8>
/Local/xl_ci/toolchain/riscv-gnu-toolchain/riscv-gcc/libgcc/soft-fp/divdf3.c:46 (discriminator 36)
80003a5c:	929a                	add	t0,t0,t1
/Local/xl_ci/toolchain/riscv-gnu-toolchain/riscv-gcc/libgcc/soft-fp/divdf3.c:46 (discriminator 38)
80003a5e:	63c1                	lui	t2,0x10
80003a60:	010e5313          	srli	t1,t3,0x10
80003a64:	13fd                	addi	t2,t2,-1
80003a66:	929a                	add	t0,t0,t1
80003a68:	007e7333          	and	t1,t3,t2
80003a6c:	0342                	slli	t1,t1,0x10
80003a6e:	0077f7b3          	and	a5,a5,t2
80003a72:	933e                	add	t1,t1,a5
80003a74:	00576763          	bltu	a4,t0,80003a82 <__divdf3+0x2cc>
/Local/xl_ci/toolchain/riscv-gnu-toolchain/riscv-gcc/libgcc/soft-fp/divdf3.c:46 (discriminator 40)
80003a78:	844e                	mv	s0,s3
80003a7a:	02571e63          	bne	a4,t0,80003ab6 <__divdf3+0x300>
/Local/xl_ci/toolchain/riscv-gnu-toolchain/riscv-gcc/libgcc/soft-fp/divdf3.c:46 (discriminator 41)
80003a7e:	0266fc63          	bgeu	a3,t1,80003ab6 <__divdf3+0x300>
/Local/xl_ci/toolchain/riscv-gnu-toolchain/riscv-gcc/libgcc/soft-fp/divdf3.c:46 (discriminator 43)
80003a82:	96c6                	add	a3,a3,a7
80003a84:	0116b7b3          	sltu	a5,a3,a7
80003a88:	97c2                	add	a5,a5,a6
80003a8a:	973e                	add	a4,a4,a5
80003a8c:	fff98413          	addi	s0,s3,-1
80003a90:	00e86663          	bltu	a6,a4,80003a9c <__divdf3+0x2e6>
/Local/xl_ci/toolchain/riscv-gnu-toolchain/riscv-gcc/libgcc/soft-fp/divdf3.c:46 (discriminator 46)
80003a94:	02e81163          	bne	a6,a4,80003ab6 <__divdf3+0x300>
/Local/xl_ci/toolchain/riscv-gnu-toolchain/riscv-gcc/libgcc/soft-fp/divdf3.c:46 (discriminator 47)
80003a98:	0116ef63          	bltu	a3,a7,80003ab6 <__divdf3+0x300>
/Local/xl_ci/toolchain/riscv-gnu-toolchain/riscv-gcc/libgcc/soft-fp/divdf3.c:46 (discriminator 49)
80003a9c:	00576663          	bltu	a4,t0,80003aa8 <__divdf3+0x2f2>
/Local/xl_ci/toolchain/riscv-gnu-toolchain/riscv-gcc/libgcc/soft-fp/divdf3.c:46 (discriminator 52)
80003aa0:	00e29b63          	bne	t0,a4,80003ab6 <__divdf3+0x300>
/Local/xl_ci/toolchain/riscv-gnu-toolchain/riscv-gcc/libgcc/soft-fp/divdf3.c:46 (discriminator 53)
80003aa4:	0066f963          	bgeu	a3,t1,80003ab6 <__divdf3+0x300>
/Local/xl_ci/toolchain/riscv-gnu-toolchain/riscv-gcc/libgcc/soft-fp/divdf3.c:46 (discriminator 55)
80003aa8:	96c6                	add	a3,a3,a7
80003aaa:	0116b7b3          	sltu	a5,a3,a7
80003aae:	97c2                	add	a5,a5,a6
80003ab0:	ffe98413          	addi	s0,s3,-2
80003ab4:	973e                	add	a4,a4,a5
/Local/xl_ci/toolchain/riscv-gnu-toolchain/riscv-gcc/libgcc/soft-fp/divdf3.c:46 (discriminator 57)
80003ab6:	40668333          	sub	t1,a3,t1
80003aba:	40570733          	sub	a4,a4,t0
80003abe:	0066b6b3          	sltu	a3,a3,t1
80003ac2:	8f15                	sub	a4,a4,a3
80003ac4:	57fd                	li	a5,-1
80003ac6:	0ee80763          	beq	a6,a4,80003bb4 <__divdf3+0x3fe>
/Local/xl_ci/toolchain/riscv-gnu-toolchain/riscv-gcc/libgcc/soft-fp/divdf3.c:46 (discriminator 59)
80003aca:	02a752b3          	divu	t0,a4,a0
80003ace:	01035793          	srli	a5,t1,0x10
80003ad2:	02a77733          	remu	a4,a4,a0
80003ad6:	8696                	mv	a3,t0
80003ad8:	025f0e33          	mul	t3,t5,t0
80003adc:	0742                	slli	a4,a4,0x10
80003ade:	8f5d                	or	a4,a4,a5
80003ae0:	01c77c63          	bgeu	a4,t3,80003af8 <__divdf3+0x342>
/Local/xl_ci/toolchain/riscv-gnu-toolchain/riscv-gcc/libgcc/soft-fp/divdf3.c:46 (discriminator 61)
80003ae4:	9742                	add	a4,a4,a6
80003ae6:	fff28693          	addi	a3,t0,-1 # 5fff <__stack_size+0x57ff>
80003aea:	01076763          	bltu	a4,a6,80003af8 <__divdf3+0x342>
/Local/xl_ci/toolchain/riscv-gnu-toolchain/riscv-gcc/libgcc/soft-fp/divdf3.c:46 (discriminator 63)
80003aee:	01c77563          	bgeu	a4,t3,80003af8 <__divdf3+0x342>
/Local/xl_ci/toolchain/riscv-gnu-toolchain/riscv-gcc/libgcc/soft-fp/divdf3.c:46 (discriminator 65)
80003af2:	ffe28693          	addi	a3,t0,-2
80003af6:	9742                	add	a4,a4,a6
/Local/xl_ci/toolchain/riscv-gnu-toolchain/riscv-gcc/libgcc/soft-fp/divdf3.c:46 (discriminator 67)
80003af8:	41c70733          	sub	a4,a4,t3
80003afc:	02a75e33          	divu	t3,a4,a0
80003b00:	01031793          	slli	a5,t1,0x10
80003b04:	83c1                	srli	a5,a5,0x10
80003b06:	02a77733          	remu	a4,a4,a0
80003b0a:	03cf0f33          	mul	t5,t5,t3
80003b0e:	0742                	slli	a4,a4,0x10
80003b10:	8f5d                	or	a4,a4,a5
80003b12:	87f2                	mv	a5,t3
80003b14:	01e77c63          	bgeu	a4,t5,80003b2c <__divdf3+0x376>
/Local/xl_ci/toolchain/riscv-gnu-toolchain/riscv-gcc/libgcc/soft-fp/divdf3.c:46 (discriminator 68)
80003b18:	9742                	add	a4,a4,a6
80003b1a:	fffe0793          	addi	a5,t3,-1
80003b1e:	01076763          	bltu	a4,a6,80003b2c <__divdf3+0x376>
/Local/xl_ci/toolchain/riscv-gnu-toolchain/riscv-gcc/libgcc/soft-fp/divdf3.c:46 (discriminator 70)
80003b22:	01e77563          	bgeu	a4,t5,80003b2c <__divdf3+0x376>
/Local/xl_ci/toolchain/riscv-gnu-toolchain/riscv-gcc/libgcc/soft-fp/divdf3.c:46 (discriminator 72)
80003b26:	ffee0793          	addi	a5,t3,-2
80003b2a:	9742                	add	a4,a4,a6
/Local/xl_ci/toolchain/riscv-gnu-toolchain/riscv-gcc/libgcc/soft-fp/divdf3.c:46 (discriminator 74)
80003b2c:	06c2                	slli	a3,a3,0x10
80003b2e:	8edd                	or	a3,a3,a5
80003b30:	01069793          	slli	a5,a3,0x10
80003b34:	83c1                	srli	a5,a5,0x10
80003b36:	0106d313          	srli	t1,a3,0x10
80003b3a:	026f8e33          	mul	t3,t6,t1
80003b3e:	41e70733          	sub	a4,a4,t5
80003b42:	02ff8fb3          	mul	t6,t6,a5
80003b46:	02fe8f33          	mul	t5,t4,a5
80003b4a:	03d30eb3          	mul	t4,t1,t4
80003b4e:	010f5793          	srli	a5,t5,0x10
80003b52:	9ff6                	add	t6,t6,t4
80003b54:	97fe                	add	a5,a5,t6
80003b56:	01d7f463          	bgeu	a5,t4,80003b5e <__divdf3+0x3a8>
/Local/xl_ci/toolchain/riscv-gnu-toolchain/riscv-gcc/libgcc/soft-fp/divdf3.c:46 (discriminator 75)
80003b5a:	6541                	lui	a0,0x10
80003b5c:	9e2a                	add	t3,t3,a0
/Local/xl_ci/toolchain/riscv-gnu-toolchain/riscv-gcc/libgcc/soft-fp/divdf3.c:46 (discriminator 77)
80003b5e:	0107d313          	srli	t1,a5,0x10
80003b62:	9372                	add	t1,t1,t3
80003b64:	6e41                	lui	t3,0x10
80003b66:	1e7d                	addi	t3,t3,-1
80003b68:	01c7f533          	and	a0,a5,t3
80003b6c:	0542                	slli	a0,a0,0x10
80003b6e:	01cf7f33          	and	t5,t5,t3
80003b72:	957a                	add	a0,a0,t5
80003b74:	00676663          	bltu	a4,t1,80003b80 <__divdf3+0x3ca>
/Local/xl_ci/toolchain/riscv-gnu-toolchain/riscv-gcc/libgcc/soft-fp/divdf3.c:46 (discriminator 79)
80003b78:	2c671263          	bne	a4,t1,80003e3c <__divdf3+0x686>
/Local/xl_ci/toolchain/riscv-gnu-toolchain/riscv-gcc/libgcc/soft-fp/divdf3.c:46 (discriminator 80)
80003b7c:	87b6                	mv	a5,a3
80003b7e:	c91d                	beqz	a0,80003bb4 <__divdf3+0x3fe>
/Local/xl_ci/toolchain/riscv-gnu-toolchain/riscv-gcc/libgcc/soft-fp/divdf3.c:46 (discriminator 82)
80003b80:	9742                	add	a4,a4,a6
80003b82:	fff68793          	addi	a5,a3,-1 # 7fefffff <__stack_size+0x7feff7ff>
80003b86:	03076163          	bltu	a4,a6,80003ba8 <__divdf3+0x3f2>
/Local/xl_ci/toolchain/riscv-gnu-toolchain/riscv-gcc/libgcc/soft-fp/divdf3.c:46 (discriminator 88)
80003b8a:	00676663          	bltu	a4,t1,80003b96 <__divdf3+0x3e0>
/Local/xl_ci/toolchain/riscv-gnu-toolchain/riscv-gcc/libgcc/soft-fp/divdf3.c:46 (discriminator 91)
80003b8e:	2a671663          	bne	a4,t1,80003e3a <__divdf3+0x684>
/Local/xl_ci/toolchain/riscv-gnu-toolchain/riscv-gcc/libgcc/soft-fp/divdf3.c:46 (discriminator 92)
80003b92:	00a8fd63          	bgeu	a7,a0,80003bac <__divdf3+0x3f6>
/Local/xl_ci/toolchain/riscv-gnu-toolchain/riscv-gcc/libgcc/soft-fp/divdf3.c:46 (discriminator 94)
80003b96:	ffe68793          	addi	a5,a3,-2
80003b9a:	00189693          	slli	a3,a7,0x1
80003b9e:	0116b8b3          	sltu	a7,a3,a7
80003ba2:	9846                	add	a6,a6,a7
80003ba4:	9742                	add	a4,a4,a6
80003ba6:	88b6                	mv	a7,a3
/Local/xl_ci/toolchain/riscv-gnu-toolchain/riscv-gcc/libgcc/soft-fp/divdf3.c:46 (discriminator 96)
80003ba8:	00671463          	bne	a4,t1,80003bb0 <__divdf3+0x3fa>
/Local/xl_ci/toolchain/riscv-gnu-toolchain/riscv-gcc/libgcc/soft-fp/divdf3.c:46 (discriminator 98)
80003bac:	00a88463          	beq	a7,a0,80003bb4 <__divdf3+0x3fe>
/Local/xl_ci/toolchain/riscv-gnu-toolchain/riscv-gcc/libgcc/soft-fp/divdf3.c:46 (discriminator 99)
80003bb0:	0017e793          	ori	a5,a5,1
/Local/xl_ci/toolchain/riscv-gnu-toolchain/riscv-gcc/libgcc/soft-fp/divdf3.c:47 (discriminator 2)
80003bb4:	3ff58813          	addi	a6,a1,1023
80003bb8:	11005863          	blez	a6,80003cc8 <__divdf3+0x512>
/Local/xl_ci/toolchain/riscv-gnu-toolchain/riscv-gcc/libgcc/soft-fp/divdf3.c:47 (discriminator 6)
80003bbc:	0077f713          	andi	a4,a5,7
80003bc0:	cf25                	beqz	a4,80003c38 <__divdf3+0x482>
/Local/xl_ci/toolchain/riscv-gnu-toolchain/riscv-gcc/libgcc/soft-fp/divdf3.c:47 (discriminator 8)
80003bc2:	4709                	li	a4,2
80003bc4:	0014e493          	ori	s1,s1,1
80003bc8:	06e90763          	beq	s2,a4,80003c36 <__divdf3+0x480>
80003bcc:	470d                	li	a4,3
80003bce:	06e90063          	beq	s2,a4,80003c2e <__divdf3+0x478>
80003bd2:	06091363          	bnez	s2,80003c38 <__divdf3+0x482>
/Local/xl_ci/toolchain/riscv-gnu-toolchain/riscv-gcc/libgcc/soft-fp/divdf3.c:47
80003bd6:	00f7f713          	andi	a4,a5,15
80003bda:	4691                	li	a3,4
80003bdc:	04d70e63          	beq	a4,a3,80003c38 <__divdf3+0x482>
/Local/xl_ci/toolchain/riscv-gnu-toolchain/riscv-gcc/libgcc/soft-fp/divdf3.c:47 (discriminator 10)
80003be0:	00478713          	addi	a4,a5,4 # 80004 <__stack_size+0x7f804>
/Local/xl_ci/toolchain/riscv-gnu-toolchain/riscv-gcc/libgcc/soft-fp/divdf3.c:47 (discriminator 21)
80003be4:	00f737b3          	sltu	a5,a4,a5
80003be8:	943e                	add	s0,s0,a5
80003bea:	87ba                	mv	a5,a4
80003bec:	a0b1                	j	80003c38 <__divdf3+0x482>
/Local/xl_ci/toolchain/riscv-gnu-toolchain/riscv-gcc/libgcc/soft-fp/divdf3.c:46 (discriminator 15)
80003bee:	15fd                	addi	a1,a1,-1
80003bf0:	4681                	li	a3,0
80003bf2:	bb45                	j	800039a2 <__divdf3+0x1ec>
/Local/xl_ci/toolchain/riscv-gnu-toolchain/riscv-gcc/libgcc/soft-fp/divdf3.c:44 (discriminator 8)
80003bf4:	8652                	mv	a2,s4
/Local/xl_ci/toolchain/riscv-gnu-toolchain/riscv-gcc/libgcc/soft-fp/divdf3.c:46 (discriminator 8)
80003bf6:	845e                	mv	s0,s7
80003bf8:	87ce                	mv	a5,s3
80003bfa:	8762                	mv	a4,s8
/Local/xl_ci/toolchain/riscv-gnu-toolchain/riscv-gcc/libgcc/soft-fp/divdf3.c:47 (discriminator 108)
80003bfc:	468d                	li	a3,3
80003bfe:	22d70763          	beq	a4,a3,80003e2c <__divdf3+0x676>
/Local/xl_ci/toolchain/riscv-gnu-toolchain/riscv-gcc/libgcc/soft-fp/divdf3.c:47
80003c02:	4685                	li	a3,1
80003c04:	22d70163          	beq	a4,a3,80003e26 <__divdf3+0x670>
80003c08:	4689                	li	a3,2
80003c0a:	fad715e3          	bne	a4,a3,80003bb4 <__divdf3+0x3fe>
80003c0e:	a029                	j	80003c18 <__divdf3+0x462>
/Local/xl_ci/toolchain/riscv-gnu-toolchain/riscv-gcc/libgcc/soft-fp/divdf3.c:45 (discriminator 5)
80003c10:	8656                	mv	a2,s5
/Local/xl_ci/toolchain/riscv-gnu-toolchain/riscv-gcc/libgcc/soft-fp/divdf3.c:46 (discriminator 5)
80003c12:	b7ed                	j	80003bfc <__divdf3+0x446>
/Local/xl_ci/toolchain/riscv-gnu-toolchain/riscv-gcc/libgcc/soft-fp/divdf3.c:46 (discriminator 3)
80003c14:	0084e493          	ori	s1,s1,8
/Local/xl_ci/toolchain/riscv-gnu-toolchain/riscv-gcc/libgcc/soft-fp/divdf3.c:47
80003c18:	4501                	li	a0,0
80003c1a:	4781                	li	a5,0
80003c1c:	7ff00713          	li	a4,2047
80003c20:	a091                	j	80003c64 <__divdf3+0x4ae>
/Local/xl_ci/toolchain/riscv-gnu-toolchain/riscv-gcc/libgcc/soft-fp/divdf3.c:46
80003c22:	00080437          	lui	s0,0x80
80003c26:	4781                	li	a5,0
80003c28:	4601                	li	a2,0
80003c2a:	470d                	li	a4,3
80003c2c:	bfc1                	j	80003bfc <__divdf3+0x446>
/Local/xl_ci/toolchain/riscv-gnu-toolchain/riscv-gcc/libgcc/soft-fp/divdf3.c:47
80003c2e:	e609                	bnez	a2,80003c38 <__divdf3+0x482>
/Local/xl_ci/toolchain/riscv-gnu-toolchain/riscv-gcc/libgcc/soft-fp/divdf3.c:47 (discriminator 21)
80003c30:	00878713          	addi	a4,a5,8
80003c34:	bf45                	j	80003be4 <__divdf3+0x42e>
/Local/xl_ci/toolchain/riscv-gnu-toolchain/riscv-gcc/libgcc/soft-fp/divdf3.c:47
80003c36:	fe6d                	bnez	a2,80003c30 <__divdf3+0x47a>
/Local/xl_ci/toolchain/riscv-gnu-toolchain/riscv-gcc/libgcc/soft-fp/divdf3.c:47 (discriminator 9)
80003c38:	01000737          	lui	a4,0x1000
80003c3c:	8f61                	and	a4,a4,s0
80003c3e:	c719                	beqz	a4,80003c4c <__divdf3+0x496>
/Local/xl_ci/toolchain/riscv-gnu-toolchain/riscv-gcc/libgcc/soft-fp/divdf3.c:47 (discriminator 24)
80003c40:	ff000737          	lui	a4,0xff000
80003c44:	177d                	addi	a4,a4,-1
80003c46:	8c79                	and	s0,s0,a4
80003c48:	40058813          	addi	a6,a1,1024
/Local/xl_ci/toolchain/riscv-gnu-toolchain/riscv-gcc/libgcc/soft-fp/divdf3.c:47 (discriminator 26)
80003c4c:	7fe00713          	li	a4,2046
80003c50:	05074663          	blt	a4,a6,80003c9c <__divdf3+0x4e6>
/Local/xl_ci/toolchain/riscv-gnu-toolchain/riscv-gcc/libgcc/soft-fp/divdf3.c:47
80003c54:	0037d713          	srli	a4,a5,0x3
80003c58:	01d41793          	slli	a5,s0,0x1d
80003c5c:	8fd9                	or	a5,a5,a4
80003c5e:	00345513          	srli	a0,s0,0x3
80003c62:	8742                	mv	a4,a6
/Local/xl_ci/toolchain/riscv-gnu-toolchain/riscv-gcc/libgcc/soft-fp/divdf3.c:47 (discriminator 119)
80003c64:	0752                	slli	a4,a4,0x14
80003c66:	7ff006b7          	lui	a3,0x7ff00
80003c6a:	0532                	slli	a0,a0,0xc
80003c6c:	8f75                	and	a4,a4,a3
80003c6e:	8131                	srli	a0,a0,0xc
80003c70:	8d59                	or	a0,a0,a4
80003c72:	067e                	slli	a2,a2,0x1f
80003c74:	00c56733          	or	a4,a0,a2
80003c78:	85ba                	mv	a1,a4
80003c7a:	853e                	mv	a0,a5
/Local/xl_ci/toolchain/riscv-gnu-toolchain/riscv-gcc/libgcc/soft-fp/divdf3.c:48 (discriminator 119)
80003c7c:	c099                	beqz	s1,80003c82 <__divdf3+0x4cc>
/Local/xl_ci/toolchain/riscv-gnu-toolchain/riscv-gcc/libgcc/soft-fp/divdf3.c:48 (discriminator 1)
80003c7e:	0014a073          	csrs	fflags,s1
/Local/xl_ci/toolchain/riscv-gnu-toolchain/riscv-gcc/libgcc/soft-fp/divdf3.c:51
80003c82:	50b2                	lw	ra,44(sp)
80003c84:	5422                	lw	s0,40(sp)
80003c86:	5492                	lw	s1,36(sp)
80003c88:	5902                	lw	s2,32(sp)
80003c8a:	49f2                	lw	s3,28(sp)
80003c8c:	4a62                	lw	s4,24(sp)
80003c8e:	4ad2                	lw	s5,20(sp)
80003c90:	4b42                	lw	s6,16(sp)
80003c92:	4bb2                	lw	s7,12(sp)
80003c94:	4c22                	lw	s8,8(sp)
80003c96:	4c92                	lw	s9,4(sp)
80003c98:	6145                	addi	sp,sp,48
80003c9a:	8082                	ret
/Local/xl_ci/toolchain/riscv-gnu-toolchain/riscv-gcc/libgcc/soft-fp/divdf3.c:47
80003c9c:	4789                	li	a5,2
80003c9e:	02f90363          	beq	s2,a5,80003cc4 <__divdf3+0x50e>
80003ca2:	478d                	li	a5,3
80003ca4:	00f90863          	beq	s2,a5,80003cb4 <__divdf3+0x4fe>
80003ca8:	00091763          	bnez	s2,80003cb6 <__divdf3+0x500>
80003cac:	4781                	li	a5,0
80003cae:	7ff00713          	li	a4,2047
80003cb2:	a029                	j	80003cbc <__divdf3+0x506>
80003cb4:	de65                	beqz	a2,80003cac <__divdf3+0x4f6>
80003cb6:	57fd                	li	a5,-1
80003cb8:	7fe00713          	li	a4,2046
/Local/xl_ci/toolchain/riscv-gnu-toolchain/riscv-gcc/libgcc/soft-fp/divdf3.c:47 (discriminator 38)
80003cbc:	0054e493          	ori	s1,s1,5
80003cc0:	853e                	mv	a0,a5
80003cc2:	b74d                	j	80003c64 <__divdf3+0x4ae>
/Local/xl_ci/toolchain/riscv-gnu-toolchain/riscv-gcc/libgcc/soft-fp/divdf3.c:47
80003cc4:	f665                	bnez	a2,80003cac <__divdf3+0x4f6>
80003cc6:	bfc5                	j	80003cb6 <__divdf3+0x500>
/Local/xl_ci/toolchain/riscv-gnu-toolchain/riscv-gcc/libgcc/soft-fp/divdf3.c:47 (discriminator 7)
80003cc8:	4705                	li	a4,1
80003cca:	04081463          	bnez	a6,80003d12 <__divdf3+0x55c>
/Local/xl_ci/toolchain/riscv-gnu-toolchain/riscv-gcc/libgcc/soft-fp/divdf3.c:47 (discriminator 39)
80003cce:	0077f693          	andi	a3,a5,7
80003cd2:	8722                	mv	a4,s0
80003cd4:	ca9d                	beqz	a3,80003d0a <__divdf3+0x554>
/Local/xl_ci/toolchain/riscv-gnu-toolchain/riscv-gcc/libgcc/soft-fp/divdf3.c:47 (discriminator 41)
80003cd6:	4689                	li	a3,2
80003cd8:	0014e493          	ori	s1,s1,1
80003cdc:	02d90663          	beq	s2,a3,80003d08 <__divdf3+0x552>
80003ce0:	468d                	li	a3,3
80003ce2:	00d90f63          	beq	s2,a3,80003d00 <__divdf3+0x54a>
80003ce6:	02091263          	bnez	s2,80003d0a <__divdf3+0x554>
/Local/xl_ci/toolchain/riscv-gnu-toolchain/riscv-gcc/libgcc/soft-fp/divdf3.c:47
80003cea:	00f7f693          	andi	a3,a5,15
80003cee:	4511                	li	a0,4
80003cf0:	00a68d63          	beq	a3,a0,80003d0a <__divdf3+0x554>
/Local/xl_ci/toolchain/riscv-gnu-toolchain/riscv-gcc/libgcc/soft-fp/divdf3.c:47 (discriminator 43)
80003cf4:	ffc7b713          	sltiu	a4,a5,-4
/Local/xl_ci/toolchain/riscv-gnu-toolchain/riscv-gcc/libgcc/soft-fp/divdf3.c:47 (discriminator 54)
80003cf8:	00174713          	xori	a4,a4,1
80003cfc:	9722                	add	a4,a4,s0
80003cfe:	a031                	j	80003d0a <__divdf3+0x554>
/Local/xl_ci/toolchain/riscv-gnu-toolchain/riscv-gcc/libgcc/soft-fp/divdf3.c:47
80003d00:	e609                	bnez	a2,80003d0a <__divdf3+0x554>
/Local/xl_ci/toolchain/riscv-gnu-toolchain/riscv-gcc/libgcc/soft-fp/divdf3.c:47 (discriminator 54)
80003d02:	ff87b713          	sltiu	a4,a5,-8
80003d06:	bfcd                	j	80003cf8 <__divdf3+0x542>
/Local/xl_ci/toolchain/riscv-gnu-toolchain/riscv-gcc/libgcc/soft-fp/divdf3.c:47
80003d08:	fe6d                	bnez	a2,80003d02 <__divdf3+0x54c>
/Local/xl_ci/toolchain/riscv-gnu-toolchain/riscv-gcc/libgcc/soft-fp/divdf3.c:47 (discriminator 42)
80003d0a:	8361                	srli	a4,a4,0x18
80003d0c:	00174713          	xori	a4,a4,1
80003d10:	8b05                	andi	a4,a4,1
/Local/xl_ci/toolchain/riscv-gnu-toolchain/riscv-gcc/libgcc/soft-fp/divdf3.c:47 (discriminator 59)
80003d12:	4505                	li	a0,1
80003d14:	41050533          	sub	a0,a0,a6
80003d18:	03800693          	li	a3,56
80003d1c:	0ca6c263          	blt	a3,a0,80003de0 <__divdf3+0x62a>
/Local/xl_ci/toolchain/riscv-gnu-toolchain/riscv-gcc/libgcc/soft-fp/divdf3.c:47 (discriminator 60)
80003d20:	46fd                	li	a3,31
80003d22:	04a6ca63          	blt	a3,a0,80003d76 <__divdf3+0x5c0>
/Local/xl_ci/toolchain/riscv-gnu-toolchain/riscv-gcc/libgcc/soft-fp/divdf3.c:47 (discriminator 62)
80003d26:	41e58593          	addi	a1,a1,1054
80003d2a:	00a7d833          	srl	a6,a5,a0
80003d2e:	00b416b3          	sll	a3,s0,a1
80003d32:	00b797b3          	sll	a5,a5,a1
80003d36:	0106e6b3          	or	a3,a3,a6
80003d3a:	00f037b3          	snez	a5,a5
80003d3e:	8fd5                	or	a5,a5,a3
80003d40:	00a45533          	srl	a0,s0,a0
/Local/xl_ci/toolchain/riscv-gnu-toolchain/riscv-gcc/libgcc/soft-fp/divdf3.c:47 (discriminator 75)
80003d44:	0077f693          	andi	a3,a5,7
80003d48:	c2ad                	beqz	a3,80003daa <__divdf3+0x5f4>
/Local/xl_ci/toolchain/riscv-gnu-toolchain/riscv-gcc/libgcc/soft-fp/divdf3.c:47 (discriminator 76)
80003d4a:	4689                	li	a3,2
80003d4c:	0014e493          	ori	s1,s1,1
80003d50:	04d90c63          	beq	s2,a3,80003da8 <__divdf3+0x5f2>
80003d54:	468d                	li	a3,3
80003d56:	04d90563          	beq	s2,a3,80003da0 <__divdf3+0x5ea>
80003d5a:	04091863          	bnez	s2,80003daa <__divdf3+0x5f4>
/Local/xl_ci/toolchain/riscv-gnu-toolchain/riscv-gcc/libgcc/soft-fp/divdf3.c:47
80003d5e:	00f7f693          	andi	a3,a5,15
80003d62:	4591                	li	a1,4
80003d64:	04b68363          	beq	a3,a1,80003daa <__divdf3+0x5f4>
/Local/xl_ci/toolchain/riscv-gnu-toolchain/riscv-gcc/libgcc/soft-fp/divdf3.c:47 (discriminator 78)
80003d68:	00478693          	addi	a3,a5,4
/Local/xl_ci/toolchain/riscv-gnu-toolchain/riscv-gcc/libgcc/soft-fp/divdf3.c:47 (discriminator 89)
80003d6c:	00f6b7b3          	sltu	a5,a3,a5
80003d70:	953e                	add	a0,a0,a5
80003d72:	87b6                	mv	a5,a3
80003d74:	a81d                	j	80003daa <__divdf3+0x5f4>
/Local/xl_ci/toolchain/riscv-gnu-toolchain/riscv-gcc/libgcc/soft-fp/divdf3.c:47 (discriminator 63)
80003d76:	5685                	li	a3,-31
80003d78:	410686b3          	sub	a3,a3,a6
80003d7c:	02000893          	li	a7,32
80003d80:	00d456b3          	srl	a3,s0,a3
80003d84:	4801                	li	a6,0
80003d86:	01150663          	beq	a0,a7,80003d92 <__divdf3+0x5dc>
/Local/xl_ci/toolchain/riscv-gnu-toolchain/riscv-gcc/libgcc/soft-fp/divdf3.c:47 (discriminator 71)
80003d8a:	43e58593          	addi	a1,a1,1086
80003d8e:	00b41833          	sll	a6,s0,a1
/Local/xl_ci/toolchain/riscv-gnu-toolchain/riscv-gcc/libgcc/soft-fp/divdf3.c:47 (discriminator 74)
80003d92:	00f867b3          	or	a5,a6,a5
80003d96:	00f037b3          	snez	a5,a5
80003d9a:	8fd5                	or	a5,a5,a3
80003d9c:	4501                	li	a0,0
80003d9e:	b75d                	j	80003d44 <__divdf3+0x58e>
/Local/xl_ci/toolchain/riscv-gnu-toolchain/riscv-gcc/libgcc/soft-fp/divdf3.c:47
80003da0:	e609                	bnez	a2,80003daa <__divdf3+0x5f4>
/Local/xl_ci/toolchain/riscv-gnu-toolchain/riscv-gcc/libgcc/soft-fp/divdf3.c:47 (discriminator 89)
80003da2:	00878693          	addi	a3,a5,8
80003da6:	b7d9                	j	80003d6c <__divdf3+0x5b6>
/Local/xl_ci/toolchain/riscv-gnu-toolchain/riscv-gcc/libgcc/soft-fp/divdf3.c:47
80003da8:	fe6d                	bnez	a2,80003da2 <__divdf3+0x5ec>
/Local/xl_ci/toolchain/riscv-gnu-toolchain/riscv-gcc/libgcc/soft-fp/divdf3.c:47 (discriminator 77)
80003daa:	008006b7          	lui	a3,0x800
80003dae:	8ee9                	and	a3,a3,a0
80003db0:	ca81                	beqz	a3,80003dc0 <__divdf3+0x60a>
/Local/xl_ci/toolchain/riscv-gnu-toolchain/riscv-gcc/libgcc/soft-fp/divdf3.c:47 (discriminator 92)
80003db2:	0014e493          	ori	s1,s1,1
80003db6:	4501                	li	a0,0
80003db8:	4781                	li	a5,0
80003dba:	e305                	bnez	a4,80003dda <__divdf3+0x624>
/Local/xl_ci/toolchain/riscv-gnu-toolchain/riscv-gcc/libgcc/soft-fp/divdf3.c:47
80003dbc:	4705                	li	a4,1
80003dbe:	b55d                	j	80003c64 <__divdf3+0x4ae>
/Local/xl_ci/toolchain/riscv-gnu-toolchain/riscv-gcc/libgcc/soft-fp/divdf3.c:47 (discriminator 93)
80003dc0:	0037d693          	srli	a3,a5,0x3
80003dc4:	01d51793          	slli	a5,a0,0x1d
80003dc8:	8fd5                	or	a5,a5,a3
80003dca:	810d                	srli	a0,a0,0x3
80003dcc:	e8070ce3          	beqz	a4,80003c64 <__divdf3+0x4ae>
/Local/xl_ci/toolchain/riscv-gnu-toolchain/riscv-gcc/libgcc/soft-fp/divdf3.c:47 (discriminator 96)
80003dd0:	0014f713          	andi	a4,s1,1
80003dd4:	e80708e3          	beqz	a4,80003c64 <__divdf3+0x4ae>
/Local/xl_ci/toolchain/riscv-gnu-toolchain/riscv-gcc/libgcc/soft-fp/divdf3.c:47
80003dd8:	4701                	li	a4,0
/Local/xl_ci/toolchain/riscv-gnu-toolchain/riscv-gcc/libgcc/soft-fp/divdf3.c:47 (discriminator 97)
80003dda:	0024e493          	ori	s1,s1,2
80003dde:	b559                	j	80003c64 <__divdf3+0x4ae>
/Local/xl_ci/toolchain/riscv-gnu-toolchain/riscv-gcc/libgcc/soft-fp/divdf3.c:47 (discriminator 61)
80003de0:	8fc1                	or	a5,a5,s0
80003de2:	cf91                	beqz	a5,80003dfe <__divdf3+0x648>
/Local/xl_ci/toolchain/riscv-gnu-toolchain/riscv-gcc/libgcc/soft-fp/divdf3.c:47 (discriminator 100)
80003de4:	4789                	li	a5,2
80003de6:	0014e493          	ori	s1,s1,1
80003dea:	02f90363          	beq	s2,a5,80003e10 <__divdf3+0x65a>
80003dee:	478d                	li	a5,3
80003df0:	00f90c63          	beq	s2,a5,80003e08 <__divdf3+0x652>
/Local/xl_ci/toolchain/riscv-gnu-toolchain/riscv-gcc/libgcc/soft-fp/divdf3.c:47
80003df4:	4785                	li	a5,1
80003df6:	00091363          	bnez	s2,80003dfc <__divdf3+0x646>
80003dfa:	4795                	li	a5,5
/Local/xl_ci/toolchain/riscv-gnu-toolchain/riscv-gcc/libgcc/soft-fp/divdf3.c:47 (discriminator 101)
80003dfc:	838d                	srli	a5,a5,0x3
/Local/xl_ci/toolchain/riscv-gnu-toolchain/riscv-gcc/libgcc/soft-fp/divdf3.c:47 (discriminator 116)
80003dfe:	0024e493          	ori	s1,s1,2
80003e02:	4501                	li	a0,0
/Local/xl_ci/toolchain/riscv-gnu-toolchain/riscv-gcc/libgcc/soft-fp/divdf3.c:47
80003e04:	4701                	li	a4,0
80003e06:	bdb9                	j	80003c64 <__divdf3+0x4ae>
80003e08:	47a5                	li	a5,9
80003e0a:	da6d                	beqz	a2,80003dfc <__divdf3+0x646>
80003e0c:	4785                	li	a5,1
80003e0e:	b7fd                	j	80003dfc <__divdf3+0x646>
80003e10:	47a5                	li	a5,9
80003e12:	f66d                	bnez	a2,80003dfc <__divdf3+0x646>
80003e14:	bfe5                	j	80003e0c <__divdf3+0x656>
80003e16:	00080537          	lui	a0,0x80
80003e1a:	4781                	li	a5,0
80003e1c:	7ff00713          	li	a4,2047
80003e20:	4601                	li	a2,0
/Local/xl_ci/toolchain/riscv-gnu-toolchain/riscv-gcc/libgcc/soft-fp/divdf3.c:46
80003e22:	44c1                	li	s1,16
80003e24:	b581                	j	80003c64 <__divdf3+0x4ae>
/Local/xl_ci/toolchain/riscv-gnu-toolchain/riscv-gcc/libgcc/soft-fp/divdf3.c:47
80003e26:	4501                	li	a0,0
80003e28:	4781                	li	a5,0
80003e2a:	bfe9                	j	80003e04 <__divdf3+0x64e>
80003e2c:	00080537          	lui	a0,0x80
80003e30:	4781                	li	a5,0
80003e32:	7ff00713          	li	a4,2047
80003e36:	4601                	li	a2,0
80003e38:	b535                	j	80003c64 <__divdf3+0x4ae>
/Local/xl_ci/toolchain/riscv-gnu-toolchain/riscv-gcc/libgcc/soft-fp/divdf3.c:46
80003e3a:	86be                	mv	a3,a5
80003e3c:	87b6                	mv	a5,a3
80003e3e:	bb8d                	j	80003bb0 <__divdf3+0x3fa>

80003e40 <__eqdf2>:
__eqdf2():
/Local/xl_ci/toolchain/riscv-gnu-toolchain/riscv-gcc/libgcc/soft-fp/eqdf2.c:36
80003e40:	882a                	mv	a6,a0
/Local/xl_ci/toolchain/riscv-gnu-toolchain/riscv-gcc/libgcc/soft-fp/eqdf2.c:42
80003e42:	002027f3          	frrm	a5
/Local/xl_ci/toolchain/riscv-gnu-toolchain/riscv-gcc/libgcc/soft-fp/eqdf2.c:43
80003e46:	001007b7          	lui	a5,0x100
80003e4a:	0145d893          	srli	a7,a1,0x14
80003e4e:	17fd                	addi	a5,a5,-1
/Local/xl_ci/toolchain/riscv-gnu-toolchain/riscv-gcc/libgcc/soft-fp/eqdf2.c:44
80003e50:	0146d313          	srli	t1,a3,0x14
80003e54:	8e2a                	mv	t3,a0
/Local/xl_ci/toolchain/riscv-gnu-toolchain/riscv-gcc/libgcc/soft-fp/eqdf2.c:43
80003e56:	7ff8f893          	andi	a7,a7,2047
/Local/xl_ci/toolchain/riscv-gnu-toolchain/riscv-gcc/libgcc/soft-fp/eqdf2.c:45
80003e5a:	7ff00513          	li	a0,2047
/Local/xl_ci/toolchain/riscv-gnu-toolchain/riscv-gcc/libgcc/soft-fp/eqdf2.c:43
80003e5e:	00b7f733          	and	a4,a5,a1
80003e62:	8eb2                	mv	t4,a2
/Local/xl_ci/toolchain/riscv-gnu-toolchain/riscv-gcc/libgcc/soft-fp/eqdf2.c:44
80003e64:	8ff5                	and	a5,a5,a3
/Local/xl_ci/toolchain/riscv-gnu-toolchain/riscv-gcc/libgcc/soft-fp/eqdf2.c:43
80003e66:	81fd                	srli	a1,a1,0x1f
/Local/xl_ci/toolchain/riscv-gnu-toolchain/riscv-gcc/libgcc/soft-fp/eqdf2.c:44
80003e68:	7ff37313          	andi	t1,t1,2047
80003e6c:	82fd                	srli	a3,a3,0x1f
/Local/xl_ci/toolchain/riscv-gnu-toolchain/riscv-gcc/libgcc/soft-fp/eqdf2.c:45
80003e6e:	00a89863          	bne	a7,a0,80003e7e <__eqdf2+0x3e>
/Local/xl_ci/toolchain/riscv-gnu-toolchain/riscv-gcc/libgcc/soft-fp/eqdf2.c:45 (discriminator 20)
80003e72:	01076533          	or	a0,a4,a6
80003e76:	e531                	bnez	a0,80003ec2 <__eqdf2+0x82>
/Local/xl_ci/toolchain/riscv-gnu-toolchain/riscv-gcc/libgcc/soft-fp/eqdf2.c:45
80003e78:	07131463          	bne	t1,a7,80003ee0 <__eqdf2+0xa0>
80003e7c:	a019                	j	80003e82 <__eqdf2+0x42>
/Local/xl_ci/toolchain/riscv-gnu-toolchain/riscv-gcc/libgcc/soft-fp/eqdf2.c:45 (discriminator 23)
80003e7e:	00a31563          	bne	t1,a0,80003e88 <__eqdf2+0x48>
/Local/xl_ci/toolchain/riscv-gnu-toolchain/riscv-gcc/libgcc/soft-fp/eqdf2.c:45 (discriminator 24)
80003e82:	00c7e533          	or	a0,a5,a2
80003e86:	e515                	bnez	a0,80003eb2 <__eqdf2+0x72>
/Local/xl_ci/toolchain/riscv-gnu-toolchain/riscv-gcc/libgcc/soft-fp/eqdf2.c:45 (discriminator 78)
80003e88:	4505                	li	a0,1
80003e8a:	04689c63          	bne	a7,t1,80003ee2 <__eqdf2+0xa2>
/Local/xl_ci/toolchain/riscv-gnu-toolchain/riscv-gcc/libgcc/soft-fp/eqdf2.c:45 (discriminator 80)
80003e8e:	04f71a63          	bne	a4,a5,80003ee2 <__eqdf2+0xa2>
/Local/xl_ci/toolchain/riscv-gnu-toolchain/riscv-gcc/libgcc/soft-fp/eqdf2.c:45 (discriminator 82)
80003e92:	05de1863          	bne	t3,t4,80003ee2 <__eqdf2+0xa2>
/Local/xl_ci/toolchain/riscv-gnu-toolchain/riscv-gcc/libgcc/soft-fp/eqdf2.c:45 (discriminator 84)
80003e96:	00d58c63          	beq	a1,a3,80003eae <__eqdf2+0x6e>
/Local/xl_ci/toolchain/riscv-gnu-toolchain/riscv-gcc/libgcc/soft-fp/eqdf2.c:45 (discriminator 85)
80003e9a:	04089463          	bnez	a7,80003ee2 <__eqdf2+0xa2>
/Local/xl_ci/toolchain/riscv-gnu-toolchain/riscv-gcc/libgcc/soft-fp/eqdf2.c:45 (discriminator 88)
80003e9e:	01076733          	or	a4,a4,a6
80003ea2:	00e03533          	snez	a0,a4
80003ea6:	8082                	ret
/Local/xl_ci/toolchain/riscv-gnu-toolchain/riscv-gcc/libgcc/soft-fp/eqdf2.c:46 (discriminator 1)
80003ea8:	00186073          	csrsi	fflags,16
80003eac:	a815                	j	80003ee0 <__eqdf2+0xa0>
/Local/xl_ci/toolchain/riscv-gnu-toolchain/riscv-gcc/libgcc/soft-fp/eqdf2.c:45
80003eae:	4501                	li	a0,0
80003eb0:	8082                	ret
80003eb2:	7ff00693          	li	a3,2047
80003eb6:	02d89163          	bne	a7,a3,80003ed8 <__eqdf2+0x98>
/Local/xl_ci/toolchain/riscv-gnu-toolchain/riscv-gcc/libgcc/soft-fp/eqdf2.c:45 (discriminator 52)
80003eba:	01076833          	or	a6,a4,a6
80003ebe:	00080d63          	beqz	a6,80003ed8 <__eqdf2+0x98>
/Local/xl_ci/toolchain/riscv-gnu-toolchain/riscv-gcc/libgcc/soft-fp/eqdf2.c:45 (discriminator 54)
80003ec2:	000806b7          	lui	a3,0x80
80003ec6:	8f75                	and	a4,a4,a3
80003ec8:	d365                	beqz	a4,80003ea8 <__eqdf2+0x68>
/Local/xl_ci/toolchain/riscv-gnu-toolchain/riscv-gcc/libgcc/soft-fp/eqdf2.c:45 (discriminator 60)
80003eca:	7ff00713          	li	a4,2047
80003ece:	4505                	li	a0,1
80003ed0:	00e31963          	bne	t1,a4,80003ee2 <__eqdf2+0xa2>
/Local/xl_ci/toolchain/riscv-gnu-toolchain/riscv-gcc/libgcc/soft-fp/eqdf2.c:45 (discriminator 61)
80003ed4:	8e5d                	or	a2,a2,a5
80003ed6:	c611                	beqz	a2,80003ee2 <__eqdf2+0xa2>
/Local/xl_ci/toolchain/riscv-gnu-toolchain/riscv-gcc/libgcc/soft-fp/eqdf2.c:45 (discriminator 63)
80003ed8:	00080737          	lui	a4,0x80
80003edc:	8ff9                	and	a5,a5,a4
80003ede:	d7e9                	beqz	a5,80003ea8 <__eqdf2+0x68>
/Local/xl_ci/toolchain/riscv-gnu-toolchain/riscv-gcc/libgcc/soft-fp/eqdf2.c:45
80003ee0:	4505                	li	a0,1
/Local/xl_ci/toolchain/riscv-gnu-toolchain/riscv-gcc/libgcc/soft-fp/eqdf2.c:49
80003ee2:	8082                	ret

80003ee4 <__ledf2>:
__ledf2():
/Local/xl_ci/toolchain/riscv-gnu-toolchain/riscv-gcc/libgcc/soft-fp/ledf2.c:36
80003ee4:	87aa                	mv	a5,a0
/Local/xl_ci/toolchain/riscv-gnu-toolchain/riscv-gcc/libgcc/soft-fp/ledf2.c:42
80003ee6:	00202773          	frrm	a4
/Local/xl_ci/toolchain/riscv-gnu-toolchain/riscv-gcc/libgcc/soft-fp/ledf2.c:43
80003eea:	00100737          	lui	a4,0x100
80003eee:	177d                	addi	a4,a4,-1
80003ef0:	0145d813          	srli	a6,a1,0x14
80003ef4:	00b778b3          	and	a7,a4,a1
80003ef8:	832a                	mv	t1,a0
80003efa:	7ff87813          	andi	a6,a6,2047
80003efe:	01f5d513          	srli	a0,a1,0x1f
/Local/xl_ci/toolchain/riscv-gnu-toolchain/riscv-gcc/libgcc/soft-fp/ledf2.c:45
80003f02:	7ff00e93          	li	t4,2047
/Local/xl_ci/toolchain/riscv-gnu-toolchain/riscv-gcc/libgcc/soft-fp/ledf2.c:44
80003f06:	0146d593          	srli	a1,a3,0x14
80003f0a:	8f75                	and	a4,a4,a3
80003f0c:	8e32                	mv	t3,a2
80003f0e:	7ff5f593          	andi	a1,a1,2047
80003f12:	82fd                	srli	a3,a3,0x1f
/Local/xl_ci/toolchain/riscv-gnu-toolchain/riscv-gcc/libgcc/soft-fp/ledf2.c:45
80003f14:	01d81a63          	bne	a6,t4,80003f28 <__ledf2+0x44>
/Local/xl_ci/toolchain/riscv-gnu-toolchain/riscv-gcc/libgcc/soft-fp/ledf2.c:45 (discriminator 20)
80003f18:	00f8eeb3          	or	t4,a7,a5
80003f1c:	060e8663          	beqz	t4,80003f88 <__ledf2+0xa4>
/Local/xl_ci/toolchain/riscv-gnu-toolchain/riscv-gcc/libgcc/soft-fp/ledf2.c:46 (discriminator 1)
80003f20:	00186073          	csrsi	fflags,16
80003f24:	4509                	li	a0,2
80003f26:	8082                	ret
/Local/xl_ci/toolchain/riscv-gnu-toolchain/riscv-gcc/libgcc/soft-fp/ledf2.c:45 (discriminator 23)
80003f28:	01d59663          	bne	a1,t4,80003f34 <__ledf2+0x50>
/Local/xl_ci/toolchain/riscv-gnu-toolchain/riscv-gcc/libgcc/soft-fp/ledf2.c:45 (discriminator 24)
80003f2c:	00c76eb3          	or	t4,a4,a2
80003f30:	fe0e98e3          	bnez	t4,80003f20 <__ledf2+0x3c>
/Local/xl_ci/toolchain/riscv-gnu-toolchain/riscv-gcc/libgcc/soft-fp/ledf2.c:45 (discriminator 62)
80003f34:	04081c63          	bnez	a6,80003f8c <__ledf2+0xa8>
/Local/xl_ci/toolchain/riscv-gnu-toolchain/riscv-gcc/libgcc/soft-fp/ledf2.c:45 (discriminator 63)
80003f38:	00f8e7b3          	or	a5,a7,a5
80003f3c:	0017b793          	seqz	a5,a5
80003f40:	e199                	bnez	a1,80003f46 <__ledf2+0x62>
/Local/xl_ci/toolchain/riscv-gnu-toolchain/riscv-gcc/libgcc/soft-fp/ledf2.c:45 (discriminator 69)
80003f42:	8e59                	or	a2,a2,a4
80003f44:	ce0d                	beqz	a2,80003f7e <__ledf2+0x9a>
/Local/xl_ci/toolchain/riscv-gnu-toolchain/riscv-gcc/libgcc/soft-fp/ledf2.c:45
80003f46:	eb81                	bnez	a5,80003f56 <__ledf2+0x72>
80003f48:	00d51463          	bne	a0,a3,80003f50 <__ledf2+0x6c>
/Local/xl_ci/toolchain/riscv-gnu-toolchain/riscv-gcc/libgcc/soft-fp/ledf2.c:45 (discriminator 95)
80003f4c:	0105d963          	bge	a1,a6,80003f5e <__ledf2+0x7a>
/Local/xl_ci/toolchain/riscv-gnu-toolchain/riscv-gcc/libgcc/soft-fp/ledf2.c:45 (discriminator 119)
80003f50:	c50d                	beqz	a0,80003f7a <__ledf2+0x96>
/Local/xl_ci/toolchain/riscv-gnu-toolchain/riscv-gcc/libgcc/soft-fp/ledf2.c:45
80003f52:	557d                	li	a0,-1
80003f54:	8082                	ret
/Local/xl_ci/toolchain/riscv-gnu-toolchain/riscv-gcc/libgcc/soft-fp/ledf2.c:45 (discriminator 80)
80003f56:	557d                	li	a0,-1
80003f58:	c691                	beqz	a3,80003f64 <__ledf2+0x80>
/Local/xl_ci/toolchain/riscv-gnu-toolchain/riscv-gcc/libgcc/soft-fp/ledf2.c:45
80003f5a:	8536                	mv	a0,a3
80003f5c:	8082                	ret
/Local/xl_ci/toolchain/riscv-gnu-toolchain/riscv-gcc/libgcc/soft-fp/ledf2.c:45 (discriminator 102)
80003f5e:	00b85463          	bge	a6,a1,80003f66 <__ledf2+0x82>
/Local/xl_ci/toolchain/riscv-gnu-toolchain/riscv-gcc/libgcc/soft-fp/ledf2.c:45 (discriminator 130)
80003f62:	d965                	beqz	a0,80003f52 <__ledf2+0x6e>
/Local/xl_ci/toolchain/riscv-gnu-toolchain/riscv-gcc/libgcc/soft-fp/ledf2.c:49
80003f64:	8082                	ret
/Local/xl_ci/toolchain/riscv-gnu-toolchain/riscv-gcc/libgcc/soft-fp/ledf2.c:45 (discriminator 109)
80003f66:	ff1765e3          	bltu	a4,a7,80003f50 <__ledf2+0x6c>
/Local/xl_ci/toolchain/riscv-gnu-toolchain/riscv-gcc/libgcc/soft-fp/ledf2.c:45 (discriminator 116)
80003f6a:	00e89c63          	bne	a7,a4,80003f82 <__ledf2+0x9e>
/Local/xl_ci/toolchain/riscv-gnu-toolchain/riscv-gcc/libgcc/soft-fp/ledf2.c:45 (discriminator 117)
80003f6e:	fe6e61e3          	bltu	t3,t1,80003f50 <__ledf2+0x6c>
/Local/xl_ci/toolchain/riscv-gnu-toolchain/riscv-gcc/libgcc/soft-fp/ledf2.c:45 (discriminator 128)
80003f72:	ffc368e3          	bltu	t1,t3,80003f62 <__ledf2+0x7e>
/Local/xl_ci/toolchain/riscv-gnu-toolchain/riscv-gcc/libgcc/soft-fp/ledf2.c:45
80003f76:	4501                	li	a0,0
80003f78:	8082                	ret
80003f7a:	4505                	li	a0,1
80003f7c:	8082                	ret
80003f7e:	ffe5                	bnez	a5,80003f76 <__ledf2+0x92>
80003f80:	bfc1                	j	80003f50 <__ledf2+0x6c>
80003f82:	fee8e0e3          	bltu	a7,a4,80003f62 <__ledf2+0x7e>
80003f86:	bfc5                	j	80003f76 <__ledf2+0x92>
80003f88:	fb0582e3          	beq	a1,a6,80003f2c <__ledf2+0x48>
80003f8c:	fdd5                	bnez	a1,80003f48 <__ledf2+0x64>
80003f8e:	4781                	li	a5,0
80003f90:	bf4d                	j	80003f42 <__ledf2+0x5e>

80003f92 <__muldf3>:
__muldf3():
/Local/xl_ci/toolchain/riscv-gnu-toolchain/riscv-gcc/libgcc/soft-fp/muldf3.c:36
80003f92:	7179                	addi	sp,sp,-48
80003f94:	d422                	sw	s0,40(sp)
80003f96:	ca56                	sw	s5,20(sp)
80003f98:	c266                	sw	s9,4(sp)
80003f9a:	d606                	sw	ra,44(sp)
80003f9c:	d226                	sw	s1,36(sp)
80003f9e:	d04a                	sw	s2,32(sp)
80003fa0:	ce4e                	sw	s3,28(sp)
80003fa2:	cc52                	sw	s4,24(sp)
80003fa4:	c85a                	sw	s6,16(sp)
80003fa6:	c65e                	sw	s7,12(sp)
80003fa8:	c462                	sw	s8,8(sp)
80003faa:	842a                	mv	s0,a0
80003fac:	8cb2                	mv	s9,a2
80003fae:	8ab6                	mv	s5,a3
/Local/xl_ci/toolchain/riscv-gnu-toolchain/riscv-gcc/libgcc/soft-fp/muldf3.c:43
80003fb0:	00202973          	frrm	s2
/Local/xl_ci/toolchain/riscv-gnu-toolchain/riscv-gcc/libgcc/soft-fp/muldf3.c:44
80003fb4:	0145db93          	srli	s7,a1,0x14
80003fb8:	00c59993          	slli	s3,a1,0xc
80003fbc:	7ffbfb93          	andi	s7,s7,2047
80003fc0:	00c9d993          	srli	s3,s3,0xc
80003fc4:	01f5db13          	srli	s6,a1,0x1f
80003fc8:	020b8663          	beqz	s7,80003ff4 <__muldf3+0x62>
80003fcc:	7ff00793          	li	a5,2047
80003fd0:	06fb8b63          	beq	s7,a5,80004046 <__muldf3+0xb4>
/Local/xl_ci/toolchain/riscv-gnu-toolchain/riscv-gcc/libgcc/soft-fp/muldf3.c:44 (discriminator 1)
80003fd4:	01d55793          	srli	a5,a0,0x1d
80003fd8:	098e                	slli	s3,s3,0x3
80003fda:	0137e9b3          	or	s3,a5,s3
80003fde:	008007b7          	lui	a5,0x800
80003fe2:	00f9e9b3          	or	s3,s3,a5
80003fe6:	00351a13          	slli	s4,a0,0x3
80003fea:	c01b8b93          	addi	s7,s7,-1023
/Local/xl_ci/toolchain/riscv-gnu-toolchain/riscv-gcc/libgcc/soft-fp/muldf3.c:44 (discriminator 41)
80003fee:	4c01                	li	s8,0
/Local/xl_ci/toolchain/riscv-gnu-toolchain/riscv-gcc/libgcc/soft-fp/muldf3.c:37
80003ff0:	4481                	li	s1,0
80003ff2:	a0bd                	j	80004060 <__muldf3+0xce>
/Local/xl_ci/toolchain/riscv-gnu-toolchain/riscv-gcc/libgcc/soft-fp/muldf3.c:44 (discriminator 2)
80003ff4:	00a9e7b3          	or	a5,s3,a0
80003ff8:	c7e1                	beqz	a5,800040c0 <__muldf3+0x12e>
/Local/xl_ci/toolchain/riscv-gnu-toolchain/riscv-gcc/libgcc/soft-fp/muldf3.c:44 (discriminator 13)
80003ffa:	02098b63          	beqz	s3,80004030 <__muldf3+0x9e>
/Local/xl_ci/toolchain/riscv-gnu-toolchain/riscv-gcc/libgcc/soft-fp/muldf3.c:44 (discriminator 17)
80003ffe:	854e                	mv	a0,s3
80004000:	1a0010ef          	jal	ra,800051a0 <__clzsi2>
/Local/xl_ci/toolchain/riscv-gnu-toolchain/riscv-gcc/libgcc/soft-fp/muldf3.c:44 (discriminator 31)
80004004:	ff550713          	addi	a4,a0,-11 # 7fff5 <__stack_size+0x7f7f5>
80004008:	47f1                	li	a5,28
8000400a:	02e7c863          	blt	a5,a4,8000403a <__muldf3+0xa8>
/Local/xl_ci/toolchain/riscv-gnu-toolchain/riscv-gcc/libgcc/soft-fp/muldf3.c:44 (discriminator 32)
8000400e:	47f5                	li	a5,29
80004010:	ff850a13          	addi	s4,a0,-8
80004014:	8f99                	sub	a5,a5,a4
80004016:	014999b3          	sll	s3,s3,s4
8000401a:	00f457b3          	srl	a5,s0,a5
8000401e:	0137e9b3          	or	s3,a5,s3
80004022:	01441a33          	sll	s4,s0,s4
/Local/xl_ci/toolchain/riscv-gnu-toolchain/riscv-gcc/libgcc/soft-fp/muldf3.c:44 (discriminator 41)
80004026:	c0d00b93          	li	s7,-1011
8000402a:	40ab8bb3          	sub	s7,s7,a0
8000402e:	b7c1                	j	80003fee <__muldf3+0x5c>
/Local/xl_ci/toolchain/riscv-gnu-toolchain/riscv-gcc/libgcc/soft-fp/muldf3.c:44 (discriminator 24)
80004030:	170010ef          	jal	ra,800051a0 <__clzsi2>
80004034:	02050513          	addi	a0,a0,32
80004038:	b7f1                	j	80004004 <__muldf3+0x72>
/Local/xl_ci/toolchain/riscv-gnu-toolchain/riscv-gcc/libgcc/soft-fp/muldf3.c:44 (discriminator 33)
8000403a:	fd850993          	addi	s3,a0,-40
8000403e:	013419b3          	sll	s3,s0,s3
80004042:	4a01                	li	s4,0
80004044:	b7cd                	j	80004026 <__muldf3+0x94>
/Local/xl_ci/toolchain/riscv-gnu-toolchain/riscv-gcc/libgcc/soft-fp/muldf3.c:44 (discriminator 3)
80004046:	00a9e433          	or	s0,s3,a0
8000404a:	c041                	beqz	s0,800040ca <__muldf3+0x138>
/Local/xl_ci/toolchain/riscv-gnu-toolchain/riscv-gcc/libgcc/soft-fp/muldf3.c:44 (discriminator 44)
8000404c:	000807b7          	lui	a5,0x80
80004050:	00f9f7b3          	and	a5,s3,a5
80004054:	8a2a                	mv	s4,a0
80004056:	7ff00b93          	li	s7,2047
8000405a:	4c0d                	li	s8,3
8000405c:	44c1                	li	s1,16
8000405e:	fbc9                	bnez	a5,80003ff0 <__muldf3+0x5e>
/Local/xl_ci/toolchain/riscv-gnu-toolchain/riscv-gcc/libgcc/soft-fp/muldf3.c:45 (discriminator 8)
80004060:	014ad513          	srli	a0,s5,0x14
80004064:	00ca9413          	slli	s0,s5,0xc
80004068:	7ff57513          	andi	a0,a0,2047
8000406c:	87e6                	mv	a5,s9
8000406e:	8031                	srli	s0,s0,0xc
80004070:	01fada93          	srli	s5,s5,0x1f
80004074:	c12d                	beqz	a0,800040d6 <__muldf3+0x144>
/Local/xl_ci/toolchain/riscv-gnu-toolchain/riscv-gcc/libgcc/soft-fp/muldf3.c:45
80004076:	7ff00713          	li	a4,2047
8000407a:	0ae50663          	beq	a0,a4,80004126 <__muldf3+0x194>
/Local/xl_ci/toolchain/riscv-gnu-toolchain/riscv-gcc/libgcc/soft-fp/muldf3.c:45 (discriminator 1)
8000407e:	01dcd793          	srli	a5,s9,0x1d
80004082:	040e                	slli	s0,s0,0x3
80004084:	8c5d                	or	s0,s0,a5
80004086:	008007b7          	lui	a5,0x800
8000408a:	8c5d                	or	s0,s0,a5
8000408c:	c0150513          	addi	a0,a0,-1023
80004090:	003c9793          	slli	a5,s9,0x3
/Local/xl_ci/toolchain/riscv-gnu-toolchain/riscv-gcc/libgcc/soft-fp/muldf3.c:45 (discriminator 41)
80004094:	4701                	li	a4,0
/Local/xl_ci/toolchain/riscv-gnu-toolchain/riscv-gcc/libgcc/soft-fp/muldf3.c:46 (discriminator 8)
80004096:	002c1693          	slli	a3,s8,0x2
8000409a:	8ed9                	or	a3,a3,a4
8000409c:	9baa                	add	s7,s7,a0
8000409e:	16fd                	addi	a3,a3,-1
800040a0:	4639                	li	a2,14
800040a2:	015b45b3          	xor	a1,s6,s5
800040a6:	001b8513          	addi	a0,s7,1
800040aa:	0ed66a63          	bltu	a2,a3,8000419e <__muldf3+0x20c>
800040ae:	00005617          	auipc	a2,0x5
800040b2:	b2e60613          	addi	a2,a2,-1234 # 80008bdc <__trunctfdf2+0x5e2>
800040b6:	068a                	slli	a3,a3,0x2
800040b8:	96b2                	add	a3,a3,a2
800040ba:	4294                	lw	a3,0(a3)
800040bc:	96b2                	add	a3,a3,a2
800040be:	8682                	jr	a3
800040c0:	4981                	li	s3,0
800040c2:	4a01                	li	s4,0
800040c4:	4b81                	li	s7,0
/Local/xl_ci/toolchain/riscv-gnu-toolchain/riscv-gcc/libgcc/soft-fp/muldf3.c:44
800040c6:	4c05                	li	s8,1
800040c8:	b725                	j	80003ff0 <__muldf3+0x5e>
800040ca:	4981                	li	s3,0
800040cc:	4a01                	li	s4,0
800040ce:	7ff00b93          	li	s7,2047
800040d2:	4c09                	li	s8,2
800040d4:	bf31                	j	80003ff0 <__muldf3+0x5e>
/Local/xl_ci/toolchain/riscv-gnu-toolchain/riscv-gcc/libgcc/soft-fp/muldf3.c:45 (discriminator 2)
800040d6:	019467b3          	or	a5,s0,s9
800040da:	c3b5                	beqz	a5,8000413e <__muldf3+0x1ac>
/Local/xl_ci/toolchain/riscv-gnu-toolchain/riscv-gcc/libgcc/soft-fp/muldf3.c:45 (discriminator 13)
800040dc:	c80d                	beqz	s0,8000410e <__muldf3+0x17c>
/Local/xl_ci/toolchain/riscv-gnu-toolchain/riscv-gcc/libgcc/soft-fp/muldf3.c:45 (discriminator 17)
800040de:	8522                	mv	a0,s0
800040e0:	0c0010ef          	jal	ra,800051a0 <__clzsi2>
/Local/xl_ci/toolchain/riscv-gnu-toolchain/riscv-gcc/libgcc/soft-fp/muldf3.c:45 (discriminator 31)
800040e4:	ff550693          	addi	a3,a0,-11
800040e8:	47f1                	li	a5,28
800040ea:	02d7c863          	blt	a5,a3,8000411a <__muldf3+0x188>
/Local/xl_ci/toolchain/riscv-gnu-toolchain/riscv-gcc/libgcc/soft-fp/muldf3.c:45 (discriminator 32)
800040ee:	4775                	li	a4,29
800040f0:	ff850793          	addi	a5,a0,-8
800040f4:	8f15                	sub	a4,a4,a3
800040f6:	00f41433          	sll	s0,s0,a5
800040fa:	00ecd733          	srl	a4,s9,a4
800040fe:	8c59                	or	s0,s0,a4
80004100:	00fc97b3          	sll	a5,s9,a5
/Local/xl_ci/toolchain/riscv-gnu-toolchain/riscv-gcc/libgcc/soft-fp/muldf3.c:45 (discriminator 41)
80004104:	c0d00713          	li	a4,-1011
80004108:	40a70533          	sub	a0,a4,a0
8000410c:	b761                	j	80004094 <__muldf3+0x102>
/Local/xl_ci/toolchain/riscv-gnu-toolchain/riscv-gcc/libgcc/soft-fp/muldf3.c:45 (discriminator 24)
8000410e:	8566                	mv	a0,s9
80004110:	090010ef          	jal	ra,800051a0 <__clzsi2>
80004114:	02050513          	addi	a0,a0,32
80004118:	b7f1                	j	800040e4 <__muldf3+0x152>
/Local/xl_ci/toolchain/riscv-gnu-toolchain/riscv-gcc/libgcc/soft-fp/muldf3.c:45 (discriminator 33)
8000411a:	fd850413          	addi	s0,a0,-40
8000411e:	008c9433          	sll	s0,s9,s0
80004122:	4781                	li	a5,0
80004124:	b7c5                	j	80004104 <__muldf3+0x172>
/Local/xl_ci/toolchain/riscv-gnu-toolchain/riscv-gcc/libgcc/soft-fp/muldf3.c:45 (discriminator 3)
80004126:	01946633          	or	a2,s0,s9
8000412a:	ce19                	beqz	a2,80004148 <__muldf3+0x1b6>
/Local/xl_ci/toolchain/riscv-gnu-toolchain/riscv-gcc/libgcc/soft-fp/muldf3.c:45 (discriminator 44)
8000412c:	00080737          	lui	a4,0x80
80004130:	8f61                	and	a4,a4,s0
80004132:	7ff00513          	li	a0,2047
80004136:	ef19                	bnez	a4,80004154 <__muldf3+0x1c2>
/Local/xl_ci/toolchain/riscv-gnu-toolchain/riscv-gcc/libgcc/soft-fp/muldf3.c:45
80004138:	470d                	li	a4,3
8000413a:	44c1                	li	s1,16
8000413c:	bfa9                	j	80004096 <__muldf3+0x104>
8000413e:	4401                	li	s0,0
80004140:	4781                	li	a5,0
80004142:	4501                	li	a0,0
80004144:	4705                	li	a4,1
80004146:	bf81                	j	80004096 <__muldf3+0x104>
80004148:	4401                	li	s0,0
8000414a:	4781                	li	a5,0
8000414c:	7ff00513          	li	a0,2047
80004150:	4709                	li	a4,2
80004152:	b791                	j	80004096 <__muldf3+0x104>
80004154:	470d                	li	a4,3
80004156:	b781                	j	80004096 <__muldf3+0x104>
/Local/xl_ci/toolchain/riscv-gnu-toolchain/riscv-gcc/libgcc/soft-fp/muldf3.c:46
80004158:	00080437          	lui	s0,0x80
8000415c:	4781                	li	a5,0
8000415e:	7ff00713          	li	a4,2047
80004162:	4581                	li	a1,0
80004164:	44c1                	li	s1,16
/Local/xl_ci/toolchain/riscv-gnu-toolchain/riscv-gcc/libgcc/soft-fp/muldf3.c:47 (discriminator 119)
80004166:	0752                	slli	a4,a4,0x14
80004168:	7ff006b7          	lui	a3,0x7ff00
8000416c:	0432                	slli	s0,s0,0xc
8000416e:	8f75                	and	a4,a4,a3
80004170:	8031                	srli	s0,s0,0xc
80004172:	05fe                	slli	a1,a1,0x1f
80004174:	8c59                	or	s0,s0,a4
80004176:	00b46733          	or	a4,s0,a1
8000417a:	853e                	mv	a0,a5
8000417c:	85ba                	mv	a1,a4
/Local/xl_ci/toolchain/riscv-gnu-toolchain/riscv-gcc/libgcc/soft-fp/muldf3.c:48 (discriminator 119)
8000417e:	c099                	beqz	s1,80004184 <__muldf3+0x1f2>
/Local/xl_ci/toolchain/riscv-gnu-toolchain/riscv-gcc/libgcc/soft-fp/muldf3.c:48 (discriminator 1)
80004180:	0014a073          	csrs	fflags,s1
/Local/xl_ci/toolchain/riscv-gnu-toolchain/riscv-gcc/libgcc/soft-fp/muldf3.c:51
80004184:	50b2                	lw	ra,44(sp)
80004186:	5422                	lw	s0,40(sp)
80004188:	5492                	lw	s1,36(sp)
8000418a:	5902                	lw	s2,32(sp)
8000418c:	49f2                	lw	s3,28(sp)
8000418e:	4a62                	lw	s4,24(sp)
80004190:	4ad2                	lw	s5,20(sp)
80004192:	4b42                	lw	s6,16(sp)
80004194:	4bb2                	lw	s7,12(sp)
80004196:	4c22                	lw	s8,8(sp)
80004198:	4c92                	lw	s9,4(sp)
8000419a:	6145                	addi	sp,sp,48
8000419c:	8082                	ret
/Local/xl_ci/toolchain/riscv-gnu-toolchain/riscv-gcc/libgcc/soft-fp/muldf3.c:46 (discriminator 2)
8000419e:	6ec1                	lui	t4,0x10
800041a0:	fffe8e13          	addi	t3,t4,-1 # ffff <__stack_size+0xf7ff>
800041a4:	010a5713          	srli	a4,s4,0x10
800041a8:	0107d893          	srli	a7,a5,0x10
800041ac:	01ca7a33          	and	s4,s4,t3
800041b0:	01c7f7b3          	and	a5,a5,t3
800041b4:	03488833          	mul	a6,a7,s4
800041b8:	034786b3          	mul	a3,a5,s4
800041bc:	02f70f33          	mul	t5,a4,a5
800041c0:	01e80333          	add	t1,a6,t5
800041c4:	0106d813          	srli	a6,a3,0x10
800041c8:	981a                	add	a6,a6,t1
800041ca:	03170633          	mul	a2,a4,a7
800041ce:	01e87363          	bgeu	a6,t5,800041d4 <__muldf3+0x242>
/Local/xl_ci/toolchain/riscv-gnu-toolchain/riscv-gcc/libgcc/soft-fp/muldf3.c:46 (discriminator 9)
800041d2:	9676                	add	a2,a2,t4
/Local/xl_ci/toolchain/riscv-gnu-toolchain/riscv-gcc/libgcc/soft-fp/muldf3.c:46 (discriminator 11)
800041d4:	01085f93          	srli	t6,a6,0x10
800041d8:	01c87833          	and	a6,a6,t3
800041dc:	01c6f6b3          	and	a3,a3,t3
800041e0:	01045e93          	srli	t4,s0,0x10
800041e4:	01c47e33          	and	t3,s0,t3
800041e8:	0842                	slli	a6,a6,0x10
800041ea:	9836                	add	a6,a6,a3
800041ec:	03c70f33          	mul	t5,a4,t3
800041f0:	03ca06b3          	mul	a3,s4,t3
800041f4:	034e8a33          	mul	s4,t4,s4
800041f8:	01ea0333          	add	t1,s4,t5
800041fc:	0106da13          	srli	s4,a3,0x10
80004200:	9a1a                	add	s4,s4,t1
80004202:	03d70733          	mul	a4,a4,t4
80004206:	01ea7463          	bgeu	s4,t5,8000420e <__muldf3+0x27c>
/Local/xl_ci/toolchain/riscv-gnu-toolchain/riscv-gcc/libgcc/soft-fp/muldf3.c:46 (discriminator 12)
8000420a:	6341                	lui	t1,0x10
8000420c:	971a                	add	a4,a4,t1
/Local/xl_ci/toolchain/riscv-gnu-toolchain/riscv-gcc/libgcc/soft-fp/muldf3.c:46 (discriminator 14)
8000420e:	010a5313          	srli	t1,s4,0x10
80004212:	933a                	add	t1,t1,a4
80004214:	6741                	lui	a4,0x10
80004216:	fff70f13          	addi	t5,a4,-1 # ffff <__stack_size+0xf7ff>
8000421a:	01ea7a33          	and	s4,s4,t5
8000421e:	01e6f6b3          	and	a3,a3,t5
80004222:	0109d413          	srli	s0,s3,0x10
80004226:	0a42                	slli	s4,s4,0x10
80004228:	01e9f9b3          	and	s3,s3,t5
8000422c:	03378f33          	mul	t5,a5,s3
80004230:	9a36                	add	s4,s4,a3
80004232:	9fd2                	add	t6,t6,s4
80004234:	033886b3          	mul	a3,a7,s3
80004238:	02f407b3          	mul	a5,s0,a5
8000423c:	028882b3          	mul	t0,a7,s0
80004240:	00f688b3          	add	a7,a3,a5
80004244:	010f5693          	srli	a3,t5,0x10
80004248:	96c6                	add	a3,a3,a7
8000424a:	00f6f363          	bgeu	a3,a5,80004250 <__muldf3+0x2be>
/Local/xl_ci/toolchain/riscv-gnu-toolchain/riscv-gcc/libgcc/soft-fp/muldf3.c:46 (discriminator 15)
8000424e:	92ba                	add	t0,t0,a4
/Local/xl_ci/toolchain/riscv-gnu-toolchain/riscv-gcc/libgcc/soft-fp/muldf3.c:46 (discriminator 17)
80004250:	6741                	lui	a4,0x10
80004252:	fff70793          	addi	a5,a4,-1 # ffff <__stack_size+0xf7ff>
80004256:	00ff7f33          	and	t5,t5,a5
8000425a:	0106d893          	srli	a7,a3,0x10
8000425e:	8efd                	and	a3,a3,a5
80004260:	03c987b3          	mul	a5,s3,t3
80004264:	06c2                	slli	a3,a3,0x10
80004266:	96fa                	add	a3,a3,t5
80004268:	9896                	add	a7,a7,t0
8000426a:	03c40e33          	mul	t3,s0,t3
8000426e:	033e89b3          	mul	s3,t4,s3
80004272:	028e8f33          	mul	t5,t4,s0
80004276:	99f2                	add	s3,s3,t3
80004278:	0107d413          	srli	s0,a5,0x10
8000427c:	99a2                	add	s3,s3,s0
8000427e:	01c9f363          	bgeu	s3,t3,80004284 <__muldf3+0x2f2>
/Local/xl_ci/toolchain/riscv-gnu-toolchain/riscv-gcc/libgcc/soft-fp/muldf3.c:46 (discriminator 18)
80004282:	9f3a                	add	t5,t5,a4
/Local/xl_ci/toolchain/riscv-gnu-toolchain/riscv-gcc/libgcc/soft-fp/muldf3.c:46 (discriminator 20)
80004284:	6e41                	lui	t3,0x10
80004286:	1e7d                	addi	t3,t3,-1
80004288:	01c9f733          	and	a4,s3,t3
8000428c:	01c7f7b3          	and	a5,a5,t3
80004290:	0742                	slli	a4,a4,0x10
80004292:	967e                	add	a2,a2,t6
80004294:	973e                	add	a4,a4,a5
80004296:	01463a33          	sltu	s4,a2,s4
8000429a:	971a                	add	a4,a4,t1
8000429c:	01470433          	add	s0,a4,s4
800042a0:	9636                	add	a2,a2,a3
800042a2:	00d636b3          	sltu	a3,a2,a3
800042a6:	01140e33          	add	t3,s0,a7
800042aa:	00de0eb3          	add	t4,t3,a3
800042ae:	00673733          	sltu	a4,a4,t1
800042b2:	01443433          	sltu	s0,s0,s4
800042b6:	8c59                	or	s0,s0,a4
800042b8:	00deb6b3          	sltu	a3,t4,a3
800042bc:	0109d993          	srli	s3,s3,0x10
800042c0:	011e38b3          	sltu	a7,t3,a7
800042c4:	944e                	add	s0,s0,s3
800042c6:	00d8e6b3          	or	a3,a7,a3
800042ca:	9436                	add	s0,s0,a3
800042cc:	947a                	add	s0,s0,t5
800042ce:	017ed793          	srli	a5,t4,0x17
800042d2:	0426                	slli	s0,s0,0x9
800042d4:	8c5d                	or	s0,s0,a5
800042d6:	00961793          	slli	a5,a2,0x9
800042da:	0107e7b3          	or	a5,a5,a6
800042de:	00f037b3          	snez	a5,a5
800042e2:	825d                	srli	a2,a2,0x17
800042e4:	01000737          	lui	a4,0x1000
800042e8:	8fd1                	or	a5,a5,a2
800042ea:	0ea6                	slli	t4,t4,0x9
800042ec:	8f61                	and	a4,a4,s0
800042ee:	01d7e7b3          	or	a5,a5,t4
800042f2:	cb25                	beqz	a4,80004362 <__muldf3+0x3d0>
/Local/xl_ci/toolchain/riscv-gnu-toolchain/riscv-gcc/libgcc/soft-fp/muldf3.c:46 (discriminator 38)
800042f4:	0017d713          	srli	a4,a5,0x1
800042f8:	8b85                	andi	a5,a5,1
800042fa:	8fd9                	or	a5,a5,a4
800042fc:	01f41713          	slli	a4,s0,0x1f
80004300:	8fd9                	or	a5,a5,a4
80004302:	8005                	srli	s0,s0,0x1
/Local/xl_ci/toolchain/riscv-gnu-toolchain/riscv-gcc/libgcc/soft-fp/muldf3.c:47 (discriminator 2)
80004304:	3ff50813          	addi	a6,a0,1023
80004308:	0d005063          	blez	a6,800043c8 <__muldf3+0x436>
/Local/xl_ci/toolchain/riscv-gnu-toolchain/riscv-gcc/libgcc/soft-fp/muldf3.c:47 (discriminator 6)
8000430c:	0077f713          	andi	a4,a5,7
80004310:	c325                	beqz	a4,80004370 <__muldf3+0x3de>
/Local/xl_ci/toolchain/riscv-gnu-toolchain/riscv-gcc/libgcc/soft-fp/muldf3.c:47 (discriminator 8)
80004312:	4709                	li	a4,2
80004314:	0014e493          	ori	s1,s1,1
80004318:	04e90b63          	beq	s2,a4,8000436e <__muldf3+0x3dc>
8000431c:	470d                	li	a4,3
8000431e:	04e90463          	beq	s2,a4,80004366 <__muldf3+0x3d4>
80004322:	04091763          	bnez	s2,80004370 <__muldf3+0x3de>
/Local/xl_ci/toolchain/riscv-gnu-toolchain/riscv-gcc/libgcc/soft-fp/muldf3.c:47
80004326:	00f7f713          	andi	a4,a5,15
8000432a:	4691                	li	a3,4
8000432c:	04d70263          	beq	a4,a3,80004370 <__muldf3+0x3de>
/Local/xl_ci/toolchain/riscv-gnu-toolchain/riscv-gcc/libgcc/soft-fp/muldf3.c:47 (discriminator 10)
80004330:	00478713          	addi	a4,a5,4 # 800004 <__stack_size+0x7ff804>
/Local/xl_ci/toolchain/riscv-gnu-toolchain/riscv-gcc/libgcc/soft-fp/muldf3.c:47 (discriminator 21)
80004334:	00f737b3          	sltu	a5,a4,a5
80004338:	943e                	add	s0,s0,a5
8000433a:	87ba                	mv	a5,a4
8000433c:	a815                	j	80004370 <__muldf3+0x3de>
/Local/xl_ci/toolchain/riscv-gnu-toolchain/riscv-gcc/libgcc/soft-fp/muldf3.c:44 (discriminator 7)
8000433e:	85da                	mv	a1,s6
/Local/xl_ci/toolchain/riscv-gnu-toolchain/riscv-gcc/libgcc/soft-fp/muldf3.c:46 (discriminator 7)
80004340:	844e                	mv	s0,s3
80004342:	87d2                	mv	a5,s4
80004344:	8762                	mv	a4,s8
/Local/xl_ci/toolchain/riscv-gnu-toolchain/riscv-gcc/libgcc/soft-fp/muldf3.c:47 (discriminator 47)
80004346:	4689                	li	a3,2
80004348:	1cd70763          	beq	a4,a3,80004516 <__muldf3+0x584>
/Local/xl_ci/toolchain/riscv-gnu-toolchain/riscv-gcc/libgcc/soft-fp/muldf3.c:47
8000434c:	468d                	li	a3,3
8000434e:	1cd70963          	beq	a4,a3,80004520 <__muldf3+0x58e>
80004352:	4685                	li	a3,1
80004354:	fad718e3          	bne	a4,a3,80004304 <__muldf3+0x372>
80004358:	4401                	li	s0,0
8000435a:	4781                	li	a5,0
8000435c:	a265                	j	80004504 <__muldf3+0x572>
/Local/xl_ci/toolchain/riscv-gnu-toolchain/riscv-gcc/libgcc/soft-fp/muldf3.c:45 (discriminator 4)
8000435e:	85d6                	mv	a1,s5
/Local/xl_ci/toolchain/riscv-gnu-toolchain/riscv-gcc/libgcc/soft-fp/muldf3.c:46 (discriminator 4)
80004360:	b7dd                	j	80004346 <__muldf3+0x3b4>
/Local/xl_ci/toolchain/riscv-gnu-toolchain/riscv-gcc/libgcc/soft-fp/muldf3.c:46
80004362:	855e                	mv	a0,s7
80004364:	b745                	j	80004304 <__muldf3+0x372>
/Local/xl_ci/toolchain/riscv-gnu-toolchain/riscv-gcc/libgcc/soft-fp/muldf3.c:47
80004366:	e589                	bnez	a1,80004370 <__muldf3+0x3de>
/Local/xl_ci/toolchain/riscv-gnu-toolchain/riscv-gcc/libgcc/soft-fp/muldf3.c:47 (discriminator 21)
80004368:	00878713          	addi	a4,a5,8
8000436c:	b7e1                	j	80004334 <__muldf3+0x3a2>
/Local/xl_ci/toolchain/riscv-gnu-toolchain/riscv-gcc/libgcc/soft-fp/muldf3.c:47
8000436e:	fded                	bnez	a1,80004368 <__muldf3+0x3d6>
/Local/xl_ci/toolchain/riscv-gnu-toolchain/riscv-gcc/libgcc/soft-fp/muldf3.c:47 (discriminator 9)
80004370:	01000737          	lui	a4,0x1000
80004374:	8f61                	and	a4,a4,s0
80004376:	c719                	beqz	a4,80004384 <__muldf3+0x3f2>
/Local/xl_ci/toolchain/riscv-gnu-toolchain/riscv-gcc/libgcc/soft-fp/muldf3.c:47 (discriminator 24)
80004378:	ff000737          	lui	a4,0xff000
8000437c:	177d                	addi	a4,a4,-1
8000437e:	8c79                	and	s0,s0,a4
80004380:	40050813          	addi	a6,a0,1024
/Local/xl_ci/toolchain/riscv-gnu-toolchain/riscv-gcc/libgcc/soft-fp/muldf3.c:47 (discriminator 26)
80004384:	7fe00713          	li	a4,2046
80004388:	01074a63          	blt	a4,a6,8000439c <__muldf3+0x40a>
/Local/xl_ci/toolchain/riscv-gnu-toolchain/riscv-gcc/libgcc/soft-fp/muldf3.c:47
8000438c:	0037d713          	srli	a4,a5,0x3
80004390:	01d41793          	slli	a5,s0,0x1d
80004394:	8fd9                	or	a5,a5,a4
80004396:	800d                	srli	s0,s0,0x3
80004398:	8742                	mv	a4,a6
8000439a:	b3f1                	j	80004166 <__muldf3+0x1d4>
8000439c:	4789                	li	a5,2
8000439e:	02f90363          	beq	s2,a5,800043c4 <__muldf3+0x432>
800043a2:	478d                	li	a5,3
800043a4:	00f90863          	beq	s2,a5,800043b4 <__muldf3+0x422>
800043a8:	00091763          	bnez	s2,800043b6 <__muldf3+0x424>
800043ac:	4781                	li	a5,0
800043ae:	7ff00713          	li	a4,2047
800043b2:	a029                	j	800043bc <__muldf3+0x42a>
800043b4:	dde5                	beqz	a1,800043ac <__muldf3+0x41a>
800043b6:	57fd                	li	a5,-1
800043b8:	7fe00713          	li	a4,2046
/Local/xl_ci/toolchain/riscv-gnu-toolchain/riscv-gcc/libgcc/soft-fp/muldf3.c:47 (discriminator 38)
800043bc:	0054e493          	ori	s1,s1,5
800043c0:	843e                	mv	s0,a5
800043c2:	b355                	j	80004166 <__muldf3+0x1d4>
/Local/xl_ci/toolchain/riscv-gnu-toolchain/riscv-gcc/libgcc/soft-fp/muldf3.c:47
800043c4:	f5e5                	bnez	a1,800043ac <__muldf3+0x41a>
800043c6:	bfc5                	j	800043b6 <__muldf3+0x424>
/Local/xl_ci/toolchain/riscv-gnu-toolchain/riscv-gcc/libgcc/soft-fp/muldf3.c:47 (discriminator 7)
800043c8:	4705                	li	a4,1
800043ca:	04081463          	bnez	a6,80004412 <__muldf3+0x480>
/Local/xl_ci/toolchain/riscv-gnu-toolchain/riscv-gcc/libgcc/soft-fp/muldf3.c:47 (discriminator 39)
800043ce:	0077f693          	andi	a3,a5,7
800043d2:	8722                	mv	a4,s0
800043d4:	ca9d                	beqz	a3,8000440a <__muldf3+0x478>
/Local/xl_ci/toolchain/riscv-gnu-toolchain/riscv-gcc/libgcc/soft-fp/muldf3.c:47 (discriminator 41)
800043d6:	4689                	li	a3,2
800043d8:	0014e493          	ori	s1,s1,1
800043dc:	02d90663          	beq	s2,a3,80004408 <__muldf3+0x476>
800043e0:	468d                	li	a3,3
800043e2:	00d90f63          	beq	s2,a3,80004400 <__muldf3+0x46e>
800043e6:	02091263          	bnez	s2,8000440a <__muldf3+0x478>
/Local/xl_ci/toolchain/riscv-gnu-toolchain/riscv-gcc/libgcc/soft-fp/muldf3.c:47
800043ea:	00f7f693          	andi	a3,a5,15
800043ee:	4611                	li	a2,4
800043f0:	00c68d63          	beq	a3,a2,8000440a <__muldf3+0x478>
/Local/xl_ci/toolchain/riscv-gnu-toolchain/riscv-gcc/libgcc/soft-fp/muldf3.c:47 (discriminator 43)
800043f4:	ffc7b713          	sltiu	a4,a5,-4
/Local/xl_ci/toolchain/riscv-gnu-toolchain/riscv-gcc/libgcc/soft-fp/muldf3.c:47 (discriminator 54)
800043f8:	00174713          	xori	a4,a4,1
800043fc:	9722                	add	a4,a4,s0
800043fe:	a031                	j	8000440a <__muldf3+0x478>
/Local/xl_ci/toolchain/riscv-gnu-toolchain/riscv-gcc/libgcc/soft-fp/muldf3.c:47
80004400:	e589                	bnez	a1,8000440a <__muldf3+0x478>
/Local/xl_ci/toolchain/riscv-gnu-toolchain/riscv-gcc/libgcc/soft-fp/muldf3.c:47 (discriminator 54)
80004402:	ff87b713          	sltiu	a4,a5,-8
80004406:	bfcd                	j	800043f8 <__muldf3+0x466>
/Local/xl_ci/toolchain/riscv-gnu-toolchain/riscv-gcc/libgcc/soft-fp/muldf3.c:47
80004408:	fded                	bnez	a1,80004402 <__muldf3+0x470>
/Local/xl_ci/toolchain/riscv-gnu-toolchain/riscv-gcc/libgcc/soft-fp/muldf3.c:47 (discriminator 42)
8000440a:	8361                	srli	a4,a4,0x18
8000440c:	00174713          	xori	a4,a4,1
80004410:	8b05                	andi	a4,a4,1
/Local/xl_ci/toolchain/riscv-gnu-toolchain/riscv-gcc/libgcc/soft-fp/muldf3.c:47 (discriminator 59)
80004412:	4685                	li	a3,1
80004414:	410686b3          	sub	a3,a3,a6
80004418:	03800613          	li	a2,56
8000441c:	0cd64263          	blt	a2,a3,800044e0 <__muldf3+0x54e>
/Local/xl_ci/toolchain/riscv-gnu-toolchain/riscv-gcc/libgcc/soft-fp/muldf3.c:47 (discriminator 60)
80004420:	467d                	li	a2,31
80004422:	04d64a63          	blt	a2,a3,80004476 <__muldf3+0x4e4>
/Local/xl_ci/toolchain/riscv-gnu-toolchain/riscv-gcc/libgcc/soft-fp/muldf3.c:47 (discriminator 62)
80004426:	41e50513          	addi	a0,a0,1054
8000442a:	00a41633          	sll	a2,s0,a0
8000442e:	00d7d833          	srl	a6,a5,a3
80004432:	00a797b3          	sll	a5,a5,a0
80004436:	01066633          	or	a2,a2,a6
8000443a:	00f037b3          	snez	a5,a5
8000443e:	8fd1                	or	a5,a5,a2
80004440:	00d45433          	srl	s0,s0,a3
/Local/xl_ci/toolchain/riscv-gnu-toolchain/riscv-gcc/libgcc/soft-fp/muldf3.c:47 (discriminator 75)
80004444:	0077f693          	andi	a3,a5,7
80004448:	c2ad                	beqz	a3,800044aa <__muldf3+0x518>
/Local/xl_ci/toolchain/riscv-gnu-toolchain/riscv-gcc/libgcc/soft-fp/muldf3.c:47 (discriminator 76)
8000444a:	4689                	li	a3,2
8000444c:	0014e493          	ori	s1,s1,1
80004450:	04d90c63          	beq	s2,a3,800044a8 <__muldf3+0x516>
80004454:	468d                	li	a3,3
80004456:	04d90563          	beq	s2,a3,800044a0 <__muldf3+0x50e>
8000445a:	04091863          	bnez	s2,800044aa <__muldf3+0x518>
/Local/xl_ci/toolchain/riscv-gnu-toolchain/riscv-gcc/libgcc/soft-fp/muldf3.c:47
8000445e:	00f7f693          	andi	a3,a5,15
80004462:	4611                	li	a2,4
80004464:	04c68363          	beq	a3,a2,800044aa <__muldf3+0x518>
/Local/xl_ci/toolchain/riscv-gnu-toolchain/riscv-gcc/libgcc/soft-fp/muldf3.c:47 (discriminator 78)
80004468:	00478693          	addi	a3,a5,4
/Local/xl_ci/toolchain/riscv-gnu-toolchain/riscv-gcc/libgcc/soft-fp/muldf3.c:47 (discriminator 89)
8000446c:	00f6b7b3          	sltu	a5,a3,a5
80004470:	943e                	add	s0,s0,a5
80004472:	87b6                	mv	a5,a3
80004474:	a81d                	j	800044aa <__muldf3+0x518>
/Local/xl_ci/toolchain/riscv-gnu-toolchain/riscv-gcc/libgcc/soft-fp/muldf3.c:47 (discriminator 63)
80004476:	5605                	li	a2,-31
80004478:	41060633          	sub	a2,a2,a6
8000447c:	02000893          	li	a7,32
80004480:	00c45633          	srl	a2,s0,a2
80004484:	4801                	li	a6,0
80004486:	01168663          	beq	a3,a7,80004492 <__muldf3+0x500>
/Local/xl_ci/toolchain/riscv-gnu-toolchain/riscv-gcc/libgcc/soft-fp/muldf3.c:47 (discriminator 71)
8000448a:	43e50513          	addi	a0,a0,1086
8000448e:	00a41833          	sll	a6,s0,a0
/Local/xl_ci/toolchain/riscv-gnu-toolchain/riscv-gcc/libgcc/soft-fp/muldf3.c:47 (discriminator 74)
80004492:	00f867b3          	or	a5,a6,a5
80004496:	00f037b3          	snez	a5,a5
8000449a:	8fd1                	or	a5,a5,a2
8000449c:	4401                	li	s0,0
8000449e:	b75d                	j	80004444 <__muldf3+0x4b2>
/Local/xl_ci/toolchain/riscv-gnu-toolchain/riscv-gcc/libgcc/soft-fp/muldf3.c:47
800044a0:	e589                	bnez	a1,800044aa <__muldf3+0x518>
/Local/xl_ci/toolchain/riscv-gnu-toolchain/riscv-gcc/libgcc/soft-fp/muldf3.c:47 (discriminator 89)
800044a2:	00878693          	addi	a3,a5,8
800044a6:	b7d9                	j	8000446c <__muldf3+0x4da>
/Local/xl_ci/toolchain/riscv-gnu-toolchain/riscv-gcc/libgcc/soft-fp/muldf3.c:47
800044a8:	fded                	bnez	a1,800044a2 <__muldf3+0x510>
/Local/xl_ci/toolchain/riscv-gnu-toolchain/riscv-gcc/libgcc/soft-fp/muldf3.c:47 (discriminator 77)
800044aa:	008006b7          	lui	a3,0x800
800044ae:	8ee1                	and	a3,a3,s0
800044b0:	ca81                	beqz	a3,800044c0 <__muldf3+0x52e>
/Local/xl_ci/toolchain/riscv-gnu-toolchain/riscv-gcc/libgcc/soft-fp/muldf3.c:47 (discriminator 92)
800044b2:	0014e493          	ori	s1,s1,1
800044b6:	4401                	li	s0,0
800044b8:	4781                	li	a5,0
800044ba:	e305                	bnez	a4,800044da <__muldf3+0x548>
/Local/xl_ci/toolchain/riscv-gnu-toolchain/riscv-gcc/libgcc/soft-fp/muldf3.c:47
800044bc:	4705                	li	a4,1
800044be:	b165                	j	80004166 <__muldf3+0x1d4>
/Local/xl_ci/toolchain/riscv-gnu-toolchain/riscv-gcc/libgcc/soft-fp/muldf3.c:47 (discriminator 93)
800044c0:	0037d693          	srli	a3,a5,0x3
800044c4:	01d41793          	slli	a5,s0,0x1d
800044c8:	8fd5                	or	a5,a5,a3
800044ca:	800d                	srli	s0,s0,0x3
800044cc:	c8070de3          	beqz	a4,80004166 <__muldf3+0x1d4>
/Local/xl_ci/toolchain/riscv-gnu-toolchain/riscv-gcc/libgcc/soft-fp/muldf3.c:47 (discriminator 96)
800044d0:	0014f713          	andi	a4,s1,1
800044d4:	c80709e3          	beqz	a4,80004166 <__muldf3+0x1d4>
/Local/xl_ci/toolchain/riscv-gnu-toolchain/riscv-gcc/libgcc/soft-fp/muldf3.c:47
800044d8:	4701                	li	a4,0
/Local/xl_ci/toolchain/riscv-gnu-toolchain/riscv-gcc/libgcc/soft-fp/muldf3.c:47 (discriminator 97)
800044da:	0024e493          	ori	s1,s1,2
800044de:	b161                	j	80004166 <__muldf3+0x1d4>
/Local/xl_ci/toolchain/riscv-gnu-toolchain/riscv-gcc/libgcc/soft-fp/muldf3.c:47 (discriminator 61)
800044e0:	8fc1                	or	a5,a5,s0
800044e2:	cf91                	beqz	a5,800044fe <__muldf3+0x56c>
/Local/xl_ci/toolchain/riscv-gnu-toolchain/riscv-gcc/libgcc/soft-fp/muldf3.c:47 (discriminator 100)
800044e4:	4789                	li	a5,2
800044e6:	0014e493          	ori	s1,s1,1
800044ea:	02f90363          	beq	s2,a5,80004510 <__muldf3+0x57e>
800044ee:	478d                	li	a5,3
800044f0:	00f90c63          	beq	s2,a5,80004508 <__muldf3+0x576>
/Local/xl_ci/toolchain/riscv-gnu-toolchain/riscv-gcc/libgcc/soft-fp/muldf3.c:47
800044f4:	4785                	li	a5,1
800044f6:	00091363          	bnez	s2,800044fc <__muldf3+0x56a>
800044fa:	4795                	li	a5,5
/Local/xl_ci/toolchain/riscv-gnu-toolchain/riscv-gcc/libgcc/soft-fp/muldf3.c:47 (discriminator 101)
800044fc:	838d                	srli	a5,a5,0x3
/Local/xl_ci/toolchain/riscv-gnu-toolchain/riscv-gcc/libgcc/soft-fp/muldf3.c:47 (discriminator 116)
800044fe:	0024e493          	ori	s1,s1,2
80004502:	4401                	li	s0,0
/Local/xl_ci/toolchain/riscv-gnu-toolchain/riscv-gcc/libgcc/soft-fp/muldf3.c:47
80004504:	4701                	li	a4,0
80004506:	b185                	j	80004166 <__muldf3+0x1d4>
80004508:	47a5                	li	a5,9
8000450a:	d9ed                	beqz	a1,800044fc <__muldf3+0x56a>
8000450c:	4785                	li	a5,1
8000450e:	b7fd                	j	800044fc <__muldf3+0x56a>
80004510:	47a5                	li	a5,9
80004512:	f5ed                	bnez	a1,800044fc <__muldf3+0x56a>
80004514:	bfe5                	j	8000450c <__muldf3+0x57a>
80004516:	4401                	li	s0,0
80004518:	4781                	li	a5,0
8000451a:	7ff00713          	li	a4,2047
8000451e:	b1a1                	j	80004166 <__muldf3+0x1d4>
80004520:	00080437          	lui	s0,0x80
80004524:	4781                	li	a5,0
80004526:	7ff00713          	li	a4,2047
8000452a:	4581                	li	a1,0
8000452c:	b92d                	j	80004166 <__muldf3+0x1d4>

8000452e <__subdf3>:
__subdf3():
/Local/xl_ci/toolchain/riscv-gnu-toolchain/riscv-gcc/libgcc/soft-fp/subdf3.c:36
8000452e:	1101                	addi	sp,sp,-32
80004530:	ce06                	sw	ra,28(sp)
80004532:	cc22                	sw	s0,24(sp)
80004534:	ca26                	sw	s1,20(sp)
80004536:	c84a                	sw	s2,16(sp)
80004538:	c64e                	sw	s3,12(sp)
8000453a:	c452                	sw	s4,8(sp)
/Local/xl_ci/toolchain/riscv-gnu-toolchain/riscv-gcc/libgcc/soft-fp/subdf3.c:43
8000453c:	002029f3          	frrm	s3
/Local/xl_ci/toolchain/riscv-gnu-toolchain/riscv-gcc/libgcc/soft-fp/subdf3.c:44
80004540:	001008b7          	lui	a7,0x100
80004544:	18fd                	addi	a7,a7,-1
80004546:	00b8f733          	and	a4,a7,a1
8000454a:	0145d413          	srli	s0,a1,0x14
/Local/xl_ci/toolchain/riscv-gnu-toolchain/riscv-gcc/libgcc/soft-fp/subdf3.c:45
8000454e:	00d8f8b3          	and	a7,a7,a3
/Local/xl_ci/toolchain/riscv-gnu-toolchain/riscv-gcc/libgcc/soft-fp/subdf3.c:44
80004552:	01f5d493          	srli	s1,a1,0x1f
/Local/xl_ci/toolchain/riscv-gnu-toolchain/riscv-gcc/libgcc/soft-fp/subdf3.c:45
80004556:	0146d593          	srli	a1,a3,0x14
/Local/xl_ci/toolchain/riscv-gnu-toolchain/riscv-gcc/libgcc/soft-fp/subdf3.c:44
8000455a:	00371793          	slli	a5,a4,0x3
/Local/xl_ci/toolchain/riscv-gnu-toolchain/riscv-gcc/libgcc/soft-fp/subdf3.c:45
8000455e:	01f6d313          	srli	t1,a3,0x1f
/Local/xl_ci/toolchain/riscv-gnu-toolchain/riscv-gcc/libgcc/soft-fp/subdf3.c:44
80004562:	01d55713          	srli	a4,a0,0x1d
/Local/xl_ci/toolchain/riscv-gnu-toolchain/riscv-gcc/libgcc/soft-fp/subdf3.c:45
80004566:	01d65693          	srli	a3,a2,0x1d
8000456a:	088e                	slli	a7,a7,0x3
8000456c:	00361813          	slli	a6,a2,0x3
80004570:	7ff5f593          	andi	a1,a1,2047
/Local/xl_ci/toolchain/riscv-gnu-toolchain/riscv-gcc/libgcc/soft-fp/subdf3.c:46
80004574:	7ff00613          	li	a2,2047
/Local/xl_ci/toolchain/riscv-gnu-toolchain/riscv-gcc/libgcc/soft-fp/subdf3.c:44
80004578:	8f5d                	or	a4,a4,a5
8000457a:	7ff47413          	andi	s0,s0,2047
8000457e:	00351793          	slli	a5,a0,0x3
/Local/xl_ci/toolchain/riscv-gnu-toolchain/riscv-gcc/libgcc/soft-fp/subdf3.c:45
80004582:	0116e6b3          	or	a3,a3,a7
/Local/xl_ci/toolchain/riscv-gnu-toolchain/riscv-gcc/libgcc/soft-fp/subdf3.c:46
80004586:	00c59563          	bne	a1,a2,80004590 <__subdf3+0x62>
/Local/xl_ci/toolchain/riscv-gnu-toolchain/riscv-gcc/libgcc/soft-fp/subdf3.c:46 (discriminator 2)
8000458a:	0106e633          	or	a2,a3,a6
8000458e:	e219                	bnez	a2,80004594 <__subdf3+0x66>
/Local/xl_ci/toolchain/riscv-gnu-toolchain/riscv-gcc/libgcc/soft-fp/subdf3.c:46 (discriminator 3)
80004590:	00134313          	xori	t1,t1,1
/Local/xl_ci/toolchain/riscv-gnu-toolchain/riscv-gcc/libgcc/soft-fp/subdf3.c:46 (discriminator 11)
80004594:	40b40633          	sub	a2,s0,a1
80004598:	3c931663          	bne	t1,s1,80004964 <__subdf3+0x436>
/Local/xl_ci/toolchain/riscv-gnu-toolchain/riscv-gcc/libgcc/soft-fp/subdf3.c:46 (discriminator 12)
8000459c:	12c05063          	blez	a2,800046bc <__subdf3+0x18e>
/Local/xl_ci/toolchain/riscv-gnu-toolchain/riscv-gcc/libgcc/soft-fp/subdf3.c:46 (discriminator 14)
800045a0:	e9a9                	bnez	a1,800045f2 <__subdf3+0xc4>
/Local/xl_ci/toolchain/riscv-gnu-toolchain/riscv-gcc/libgcc/soft-fp/subdf3.c:46 (discriminator 16)
800045a2:	0106e533          	or	a0,a3,a6
800045a6:	e10d                	bnez	a0,800045c8 <__subdf3+0x9a>
/Local/xl_ci/toolchain/riscv-gnu-toolchain/riscv-gcc/libgcc/soft-fp/subdf3.c:46 (discriminator 209)
800045a8:	7ff00693          	li	a3,2047
800045ac:	4401                	li	s0,0
800045ae:	24d61363          	bne	a2,a3,800047f4 <__subdf3+0x2c6>
/Local/xl_ci/toolchain/riscv-gnu-toolchain/riscv-gcc/libgcc/soft-fp/subdf3.c:46 (discriminator 211)
800045b2:	00f766b3          	or	a3,a4,a5
800045b6:	78068e63          	beqz	a3,80004d52 <__subdf3+0x824>
/Local/xl_ci/toolchain/riscv-gnu-toolchain/riscv-gcc/libgcc/soft-fp/subdf3.c:46 (discriminator 226)
800045ba:	00400437          	lui	s0,0x400
800045be:	8c79                	and	s0,s0,a4
800045c0:	00143413          	seqz	s0,s0
800045c4:	0412                	slli	s0,s0,0x4
800045c6:	a43d                	j	800047f4 <__subdf3+0x2c6>
/Local/xl_ci/toolchain/riscv-gnu-toolchain/riscv-gcc/libgcc/soft-fp/subdf3.c:46 (discriminator 19)
800045c8:	fff60513          	addi	a0,a2,-1
800045cc:	e901                	bnez	a0,800045dc <__subdf3+0xae>
/Local/xl_ci/toolchain/riscv-gnu-toolchain/riscv-gcc/libgcc/soft-fp/subdf3.c:46 (discriminator 28)
800045ce:	983e                	add	a6,a6,a5
800045d0:	96ba                	add	a3,a3,a4
800045d2:	00f837b3          	sltu	a5,a6,a5
800045d6:	96be                	add	a3,a3,a5
/Local/xl_ci/toolchain/riscv-gnu-toolchain/riscv-gcc/libgcc/soft-fp/subdf3.c:45 (discriminator 85)
800045d8:	4605                	li	a2,1
/Local/xl_ci/toolchain/riscv-gnu-toolchain/riscv-gcc/libgcc/soft-fp/subdf3.c:46 (discriminator 85)
800045da:	a041                	j	8000465a <__subdf3+0x12c>
/Local/xl_ci/toolchain/riscv-gnu-toolchain/riscv-gcc/libgcc/soft-fp/subdf3.c:46 (discriminator 29)
800045dc:	7ff00893          	li	a7,2047
800045e0:	03161f63          	bne	a2,a7,8000461e <__subdf3+0xf0>
/Local/xl_ci/toolchain/riscv-gnu-toolchain/riscv-gcc/libgcc/soft-fp/subdf3.c:46 (discriminator 224)
800045e4:	00f766b3          	or	a3,a4,a5
800045e8:	fae9                	bnez	a3,800045ba <__subdf3+0x8c>
800045ea:	4701                	li	a4,0
800045ec:	4781                	li	a5,0
800045ee:	4401                	li	s0,0
800045f0:	ac8d                	j	80004862 <__subdf3+0x334>
/Local/xl_ci/toolchain/riscv-gnu-toolchain/riscv-gcc/libgcc/soft-fp/subdf3.c:46 (discriminator 17)
800045f2:	7ff00593          	li	a1,2047
800045f6:	02b41063          	bne	s0,a1,80004616 <__subdf3+0xe8>
/Local/xl_ci/toolchain/riscv-gnu-toolchain/riscv-gcc/libgcc/soft-fp/subdf3.c:46 (discriminator 235)
800045fa:	00f766b3          	or	a3,a4,a5
800045fe:	74068d63          	beqz	a3,80004d58 <__subdf3+0x82a>
/Local/xl_ci/toolchain/riscv-gnu-toolchain/riscv-gcc/libgcc/soft-fp/subdf3.c:46 (discriminator 237)
80004602:	004006b7          	lui	a3,0x400
80004606:	8ef9                	and	a3,a3,a4
80004608:	7ff00613          	li	a2,2047
/Local/xl_ci/toolchain/riscv-gnu-toolchain/riscv-gcc/libgcc/soft-fp/subdf3.c:47 (discriminator 237)
8000460c:	4581                	li	a1,0
/Local/xl_ci/toolchain/riscv-gnu-toolchain/riscv-gcc/libgcc/soft-fp/subdf3.c:46 (discriminator 237)
8000460e:	2e069063          	bnez	a3,800048ee <__subdf3+0x3c0>
/Local/xl_ci/toolchain/riscv-gnu-toolchain/riscv-gcc/libgcc/soft-fp/subdf3.c:46
80004612:	4441                	li	s0,16
80004614:	a2c5                	j	800047f4 <__subdf3+0x2c6>
/Local/xl_ci/toolchain/riscv-gnu-toolchain/riscv-gcc/libgcc/soft-fp/subdf3.c:46 (discriminator 43)
80004616:	008005b7          	lui	a1,0x800
8000461a:	8ecd                	or	a3,a3,a1
8000461c:	8532                	mv	a0,a2
/Local/xl_ci/toolchain/riscv-gnu-toolchain/riscv-gcc/libgcc/soft-fp/subdf3.c:46 (discriminator 52)
8000461e:	03800613          	li	a2,56
80004622:	08a64863          	blt	a2,a0,800046b2 <__subdf3+0x184>
/Local/xl_ci/toolchain/riscv-gnu-toolchain/riscv-gcc/libgcc/soft-fp/subdf3.c:46 (discriminator 53)
80004626:	467d                	li	a2,31
80004628:	04a64f63          	blt	a2,a0,80004686 <__subdf3+0x158>
/Local/xl_ci/toolchain/riscv-gnu-toolchain/riscv-gcc/libgcc/soft-fp/subdf3.c:46 (discriminator 55)
8000462c:	02000613          	li	a2,32
80004630:	8e09                	sub	a2,a2,a0
80004632:	00c695b3          	sll	a1,a3,a2
80004636:	00a858b3          	srl	a7,a6,a0
8000463a:	00c81833          	sll	a6,a6,a2
8000463e:	0115e5b3          	or	a1,a1,a7
80004642:	01003833          	snez	a6,a6
80004646:	0105e833          	or	a6,a1,a6
8000464a:	00a6d6b3          	srl	a3,a3,a0
/Local/xl_ci/toolchain/riscv-gnu-toolchain/riscv-gcc/libgcc/soft-fp/subdf3.c:46 (discriminator 69)
8000464e:	983e                	add	a6,a6,a5
80004650:	96ba                	add	a3,a3,a4
80004652:	00f837b3          	sltu	a5,a6,a5
80004656:	96be                	add	a3,a3,a5
/Local/xl_ci/toolchain/riscv-gnu-toolchain/riscv-gcc/libgcc/soft-fp/subdf3.c:44 (discriminator 69)
80004658:	8622                	mv	a2,s0
/Local/xl_ci/toolchain/riscv-gnu-toolchain/riscv-gcc/libgcc/soft-fp/subdf3.c:46 (discriminator 127)
8000465a:	008007b7          	lui	a5,0x800
8000465e:	8ff5                	and	a5,a5,a3
80004660:	cbad                	beqz	a5,800046d2 <__subdf3+0x1a4>
/Local/xl_ci/toolchain/riscv-gnu-toolchain/riscv-gcc/libgcc/soft-fp/subdf3.c:46 (discriminator 187)
80004662:	0605                	addi	a2,a2,1
80004664:	7ff00793          	li	a5,2047
80004668:	2cf60e63          	beq	a2,a5,80004944 <__subdf3+0x416>
/Local/xl_ci/toolchain/riscv-gnu-toolchain/riscv-gcc/libgcc/soft-fp/subdf3.c:46
8000466c:	ff800737          	lui	a4,0xff800
80004670:	177d                	addi	a4,a4,-1
80004672:	00185793          	srli	a5,a6,0x1
80004676:	8f75                	and	a4,a4,a3
80004678:	00187813          	andi	a6,a6,1
8000467c:	0107e833          	or	a6,a5,a6
80004680:	01f71793          	slli	a5,a4,0x1f
80004684:	a48d                	j	800048e6 <__subdf3+0x3b8>
/Local/xl_ci/toolchain/riscv-gnu-toolchain/riscv-gcc/libgcc/soft-fp/subdf3.c:46 (discriminator 56)
80004686:	fe050593          	addi	a1,a0,-32
8000468a:	02000893          	li	a7,32
8000468e:	00b6d5b3          	srl	a1,a3,a1
80004692:	4601                	li	a2,0
80004694:	01150763          	beq	a0,a7,800046a2 <__subdf3+0x174>
/Local/xl_ci/toolchain/riscv-gnu-toolchain/riscv-gcc/libgcc/soft-fp/subdf3.c:46 (discriminator 63)
80004698:	04000613          	li	a2,64
8000469c:	8e09                	sub	a2,a2,a0
8000469e:	00c69633          	sll	a2,a3,a2
/Local/xl_ci/toolchain/riscv-gnu-toolchain/riscv-gcc/libgcc/soft-fp/subdf3.c:46 (discriminator 66)
800046a2:	01066833          	or	a6,a2,a6
800046a6:	01003833          	snez	a6,a6
800046aa:	0105e833          	or	a6,a1,a6
/Local/xl_ci/toolchain/riscv-gnu-toolchain/riscv-gcc/libgcc/soft-fp/subdf3.c:46 (discriminator 54)
800046ae:	4681                	li	a3,0
800046b0:	bf79                	j	8000464e <__subdf3+0x120>
800046b2:	0106e833          	or	a6,a3,a6
800046b6:	01003833          	snez	a6,a6
800046ba:	bfd5                	j	800046ae <__subdf3+0x180>
/Local/xl_ci/toolchain/riscv-gnu-toolchain/riscv-gcc/libgcc/soft-fp/subdf3.c:46 (discriminator 15)
800046bc:	ce65                	beqz	a2,800047b4 <__subdf3+0x286>
/Local/xl_ci/toolchain/riscv-gnu-toolchain/riscv-gcc/libgcc/soft-fp/subdf3.c:46 (discriminator 71)
800046be:	40858633          	sub	a2,a1,s0
800046c2:	e829                	bnez	s0,80004714 <__subdf3+0x1e6>
/Local/xl_ci/toolchain/riscv-gnu-toolchain/riscv-gcc/libgcc/soft-fp/subdf3.c:46 (discriminator 73)
800046c4:	00f76533          	or	a0,a4,a5
800046c8:	e911                	bnez	a0,800046dc <__subdf3+0x1ae>
/Local/xl_ci/toolchain/riscv-gnu-toolchain/riscv-gcc/libgcc/soft-fp/subdf3.c:46 (discriminator 75)
800046ca:	7ff00793          	li	a5,2047
/Local/xl_ci/toolchain/riscv-gnu-toolchain/riscv-gcc/libgcc/soft-fp/subdf3.c:46 (discriminator 266)
800046ce:	02f60663          	beq	a2,a5,800046fa <__subdf3+0x1cc>
/Local/xl_ci/toolchain/riscv-gnu-toolchain/riscv-gcc/libgcc/soft-fp/subdf3.c:47 (discriminator 426)
800046d2:	8736                	mv	a4,a3
800046d4:	87c2                	mv	a5,a6
800046d6:	46060e63          	beqz	a2,80004b52 <__subdf3+0x624>
800046da:	ac09                	j	800048ec <__subdf3+0x3be>
/Local/xl_ci/toolchain/riscv-gnu-toolchain/riscv-gcc/libgcc/soft-fp/subdf3.c:46 (discriminator 76)
800046dc:	fff60893          	addi	a7,a2,-1
800046e0:	00089963          	bnez	a7,800046f2 <__subdf3+0x1c4>
/Local/xl_ci/toolchain/riscv-gnu-toolchain/riscv-gcc/libgcc/soft-fp/subdf3.c:46 (discriminator 85)
800046e4:	97c2                	add	a5,a5,a6
800046e6:	0107b833          	sltu	a6,a5,a6
800046ea:	96ba                	add	a3,a3,a4
800046ec:	96c2                	add	a3,a3,a6
800046ee:	883e                	mv	a6,a5
800046f0:	b5e5                	j	800045d8 <__subdf3+0xaa>
/Local/xl_ci/toolchain/riscv-gnu-toolchain/riscv-gcc/libgcc/soft-fp/subdf3.c:46 (discriminator 86)
800046f2:	7ff00513          	li	a0,2047
800046f6:	04a61663          	bne	a2,a0,80004742 <__subdf3+0x214>
/Local/xl_ci/toolchain/riscv-gnu-toolchain/riscv-gcc/libgcc/soft-fp/subdf3.c:46 (discriminator 268)
800046fa:	0106e7b3          	or	a5,a3,a6
800046fe:	4701                	li	a4,0
80004700:	16078163          	beqz	a5,80004862 <__subdf3+0x334>
/Local/xl_ci/toolchain/riscv-gnu-toolchain/riscv-gcc/libgcc/soft-fp/subdf3.c:46 (discriminator 270)
80004704:	004007b7          	lui	a5,0x400
80004708:	8ff5                	and	a5,a5,a3
8000470a:	8736                	mv	a4,a3
8000470c:	64079963          	bnez	a5,80004d5e <__subdf3+0x830>
/Local/xl_ci/toolchain/riscv-gnu-toolchain/riscv-gcc/libgcc/soft-fp/subdf3.c:45
80004710:	87c2                	mv	a5,a6
80004712:	a015                	j	80004736 <__subdf3+0x208>
/Local/xl_ci/toolchain/riscv-gnu-toolchain/riscv-gcc/libgcc/soft-fp/subdf3.c:46 (discriminator 74)
80004714:	7ff00513          	li	a0,2047
80004718:	02a59163          	bne	a1,a0,8000473a <__subdf3+0x20c>
/Local/xl_ci/toolchain/riscv-gnu-toolchain/riscv-gcc/libgcc/soft-fp/subdf3.c:46 (discriminator 101)
8000471c:	0106e7b3          	or	a5,a3,a6
80004720:	60078b63          	beqz	a5,80004d36 <__subdf3+0x808>
/Local/xl_ci/toolchain/riscv-gnu-toolchain/riscv-gcc/libgcc/soft-fp/subdf3.c:46 (discriminator 103)
80004724:	004007b7          	lui	a5,0x400
80004728:	8ff5                	and	a5,a5,a3
8000472a:	8736                	mv	a4,a3
8000472c:	60079963          	bnez	a5,80004d3e <__subdf3+0x810>
/Local/xl_ci/toolchain/riscv-gnu-toolchain/riscv-gcc/libgcc/soft-fp/subdf3.c:45
80004730:	87c2                	mv	a5,a6
/Local/xl_ci/toolchain/riscv-gnu-toolchain/riscv-gcc/libgcc/soft-fp/subdf3.c:46
80004732:	7ff00613          	li	a2,2047
/Local/xl_ci/toolchain/riscv-gnu-toolchain/riscv-gcc/libgcc/soft-fp/subdf3.c:47
80004736:	4581                	li	a1,0
80004738:	bde9                	j	80004612 <__subdf3+0xe4>
/Local/xl_ci/toolchain/riscv-gnu-toolchain/riscv-gcc/libgcc/soft-fp/subdf3.c:46 (discriminator 100)
8000473a:	00800537          	lui	a0,0x800
8000473e:	8f49                	or	a4,a4,a0
80004740:	88b2                	mv	a7,a2
/Local/xl_ci/toolchain/riscv-gnu-toolchain/riscv-gcc/libgcc/soft-fp/subdf3.c:46 (discriminator 109)
80004742:	03800613          	li	a2,56
80004746:	07164363          	blt	a2,a7,800047ac <__subdf3+0x27e>
/Local/xl_ci/toolchain/riscv-gnu-toolchain/riscv-gcc/libgcc/soft-fp/subdf3.c:46 (discriminator 110)
8000474a:	467d                	li	a2,31
8000474c:	03164b63          	blt	a2,a7,80004782 <__subdf3+0x254>
/Local/xl_ci/toolchain/riscv-gnu-toolchain/riscv-gcc/libgcc/soft-fp/subdf3.c:46 (discriminator 112)
80004750:	02000513          	li	a0,32
80004754:	41150533          	sub	a0,a0,a7
80004758:	00a71633          	sll	a2,a4,a0
8000475c:	0117d333          	srl	t1,a5,a7
80004760:	00a797b3          	sll	a5,a5,a0
80004764:	00666633          	or	a2,a2,t1
80004768:	00f037b3          	snez	a5,a5
8000476c:	8fd1                	or	a5,a5,a2
8000476e:	01175733          	srl	a4,a4,a7
/Local/xl_ci/toolchain/riscv-gnu-toolchain/riscv-gcc/libgcc/soft-fp/subdf3.c:46 (discriminator 126)
80004772:	97c2                	add	a5,a5,a6
80004774:	9736                	add	a4,a4,a3
80004776:	0107b6b3          	sltu	a3,a5,a6
8000477a:	96ba                	add	a3,a3,a4
8000477c:	883e                	mv	a6,a5
/Local/xl_ci/toolchain/riscv-gnu-toolchain/riscv-gcc/libgcc/soft-fp/subdf3.c:45 (discriminator 126)
8000477e:	862e                	mv	a2,a1
80004780:	bde9                	j	8000465a <__subdf3+0x12c>
/Local/xl_ci/toolchain/riscv-gnu-toolchain/riscv-gcc/libgcc/soft-fp/subdf3.c:46 (discriminator 113)
80004782:	fe088613          	addi	a2,a7,-32 # fffe0 <__stack_size+0xff7e0>
80004786:	02000313          	li	t1,32
8000478a:	00c75633          	srl	a2,a4,a2
8000478e:	4501                	li	a0,0
80004790:	00688863          	beq	a7,t1,800047a0 <__subdf3+0x272>
/Local/xl_ci/toolchain/riscv-gnu-toolchain/riscv-gcc/libgcc/soft-fp/subdf3.c:46 (discriminator 120)
80004794:	04000513          	li	a0,64
80004798:	41150533          	sub	a0,a0,a7
8000479c:	00a71533          	sll	a0,a4,a0
/Local/xl_ci/toolchain/riscv-gnu-toolchain/riscv-gcc/libgcc/soft-fp/subdf3.c:46 (discriminator 123)
800047a0:	8fc9                	or	a5,a5,a0
800047a2:	00f037b3          	snez	a5,a5
800047a6:	8fd1                	or	a5,a5,a2
/Local/xl_ci/toolchain/riscv-gnu-toolchain/riscv-gcc/libgcc/soft-fp/subdf3.c:46 (discriminator 111)
800047a8:	4701                	li	a4,0
800047aa:	b7e1                	j	80004772 <__subdf3+0x244>
800047ac:	8fd9                	or	a5,a5,a4
800047ae:	00f037b3          	snez	a5,a5
800047b2:	bfdd                	j	800047a8 <__subdf3+0x27a>
/Local/xl_ci/toolchain/riscv-gnu-toolchain/riscv-gcc/libgcc/soft-fp/subdf3.c:46 (discriminator 72)
800047b4:	00140613          	addi	a2,s0,1 # 400001 <__stack_size+0x3ff801>
800047b8:	7fe67513          	andi	a0,a2,2046
800047bc:	10051863          	bnez	a0,800048cc <__subdf3+0x39e>
/Local/xl_ci/toolchain/riscv-gnu-toolchain/riscv-gcc/libgcc/soft-fp/subdf3.c:46 (discriminator 128)
800047c0:	00f76633          	or	a2,a4,a5
800047c4:	e039                	bnez	s0,8000480a <__subdf3+0x2dc>
/Local/xl_ci/toolchain/riscv-gnu-toolchain/riscv-gcc/libgcc/soft-fp/subdf3.c:46 (discriminator 130)
800047c6:	52060b63          	beqz	a2,80004cfc <__subdf3+0x7ce>
/Local/xl_ci/toolchain/riscv-gnu-toolchain/riscv-gcc/libgcc/soft-fp/subdf3.c:46 (discriminator 133)
800047ca:	0106e633          	or	a2,a3,a6
800047ce:	38060263          	beqz	a2,80004b52 <__subdf3+0x624>
/Local/xl_ci/toolchain/riscv-gnu-toolchain/riscv-gcc/libgcc/soft-fp/subdf3.c:46 (discriminator 139)
800047d2:	983e                	add	a6,a6,a5
800047d4:	00f837b3          	sltu	a5,a6,a5
800047d8:	9736                	add	a4,a4,a3
800047da:	973e                	add	a4,a4,a5
800047dc:	008007b7          	lui	a5,0x800
800047e0:	8ff9                	and	a5,a5,a4
800047e2:	50078e63          	beqz	a5,80004cfe <__subdf3+0x7d0>
/Local/xl_ci/toolchain/riscv-gnu-toolchain/riscv-gcc/libgcc/soft-fp/subdf3.c:46 (discriminator 141)
800047e6:	ff8007b7          	lui	a5,0xff800
800047ea:	17fd                	addi	a5,a5,-1
800047ec:	8f7d                	and	a4,a4,a5
/Local/xl_ci/toolchain/riscv-gnu-toolchain/riscv-gcc/libgcc/soft-fp/subdf3.c:47 (discriminator 141)
800047ee:	4581                	li	a1,0
/Local/xl_ci/toolchain/riscv-gnu-toolchain/riscv-gcc/libgcc/soft-fp/subdf3.c:46 (discriminator 141)
800047f0:	87c2                	mv	a5,a6
800047f2:	4605                	li	a2,1
/Local/xl_ci/toolchain/riscv-gnu-toolchain/riscv-gcc/libgcc/soft-fp/subdf3.c:47 (discriminator 36)
800047f4:	0077f693          	andi	a3,a5,7
800047f8:	12069063          	bnez	a3,80004918 <__subdf3+0x3ea>
/Local/xl_ci/toolchain/riscv-gnu-toolchain/riscv-gcc/libgcc/soft-fp/subdf3.c:47 (discriminator 47)
800047fc:	c1bd                	beqz	a1,80004862 <__subdf3+0x334>
/Local/xl_ci/toolchain/riscv-gnu-toolchain/riscv-gcc/libgcc/soft-fp/subdf3.c:47 (discriminator 58)
800047fe:	00147693          	andi	a3,s0,1
80004802:	c2a5                	beqz	a3,80004862 <__subdf3+0x334>
/Local/xl_ci/toolchain/riscv-gnu-toolchain/riscv-gcc/libgcc/soft-fp/subdf3.c:47 (discriminator 60)
80004804:	00246413          	ori	s0,s0,2
80004808:	a8a9                	j	80004862 <__subdf3+0x334>
/Local/xl_ci/toolchain/riscv-gnu-toolchain/riscv-gcc/libgcc/soft-fp/subdf3.c:46 (discriminator 131)
8000480a:	7ff00513          	li	a0,2047
8000480e:	02a41563          	bne	s0,a0,80004838 <__subdf3+0x30a>
/Local/xl_ci/toolchain/riscv-gnu-toolchain/riscv-gcc/libgcc/soft-fp/subdf3.c:46 (discriminator 145)
80004812:	5c060463          	beqz	a2,80004dda <__subdf3+0x8ac>
/Local/xl_ci/toolchain/riscv-gnu-toolchain/riscv-gcc/libgcc/soft-fp/subdf3.c:46 (discriminator 147)
80004816:	00400437          	lui	s0,0x400
8000481a:	8c79                	and	s0,s0,a4
/Local/xl_ci/toolchain/riscv-gnu-toolchain/riscv-gcc/libgcc/soft-fp/subdf3.c:37 (discriminator 147)
8000481c:	00143413          	seqz	s0,s0
80004820:	0412                	slli	s0,s0,0x4
/Local/xl_ci/toolchain/riscv-gnu-toolchain/riscv-gcc/libgcc/soft-fp/subdf3.c:46 (discriminator 147)
80004822:	02a59763          	bne	a1,a0,80004850 <__subdf3+0x322>
/Local/xl_ci/toolchain/riscv-gnu-toolchain/riscv-gcc/libgcc/soft-fp/subdf3.c:46 (discriminator 152)
80004826:	0106e5b3          	or	a1,a3,a6
8000482a:	c991                	beqz	a1,8000483e <__subdf3+0x310>
/Local/xl_ci/toolchain/riscv-gnu-toolchain/riscv-gcc/libgcc/soft-fp/subdf3.c:46 (discriminator 154)
8000482c:	004005b7          	lui	a1,0x400
80004830:	8df5                	and	a1,a1,a3
80004832:	e591                	bnez	a1,8000483e <__subdf3+0x310>
/Local/xl_ci/toolchain/riscv-gnu-toolchain/riscv-gcc/libgcc/soft-fp/subdf3.c:46
80004834:	4441                	li	s0,16
80004836:	a021                	j	8000483e <__subdf3+0x310>
/Local/xl_ci/toolchain/riscv-gnu-toolchain/riscv-gcc/libgcc/soft-fp/subdf3.c:46 (discriminator 151)
80004838:	4401                	li	s0,0
8000483a:	fea586e3          	beq	a1,a0,80004826 <__subdf3+0x2f8>
/Local/xl_ci/toolchain/riscv-gnu-toolchain/riscv-gcc/libgcc/soft-fp/subdf3.c:46 (discriminator 158)
8000483e:	ea09                	bnez	a2,80004850 <__subdf3+0x322>
/Local/xl_ci/toolchain/riscv-gnu-toolchain/riscv-gcc/libgcc/soft-fp/subdf3.c:45
80004840:	8736                	mv	a4,a3
80004842:	87c2                	mv	a5,a6
/Local/xl_ci/toolchain/riscv-gnu-toolchain/riscv-gcc/libgcc/soft-fp/subdf3.c:47
80004844:	4581                	li	a1,0
/Local/xl_ci/toolchain/riscv-gnu-toolchain/riscv-gcc/libgcc/soft-fp/subdf3.c:46
80004846:	7ff00613          	li	a2,2047
8000484a:	b76d                	j	800047f4 <__subdf3+0x2c6>
8000484c:	4401                	li	s0,0
8000484e:	bfe1                	j	80004826 <__subdf3+0x2f8>
/Local/xl_ci/toolchain/riscv-gnu-toolchain/riscv-gcc/libgcc/soft-fp/subdf3.c:46 (discriminator 160)
80004850:	0106e6b3          	or	a3,a3,a6
80004854:	dae5                	beqz	a3,80004844 <__subdf3+0x316>
/Local/xl_ci/toolchain/riscv-gnu-toolchain/riscv-gcc/libgcc/soft-fp/subdf3.c:46
80004856:	4481                	li	s1,0
80004858:	00400737          	lui	a4,0x400
8000485c:	4781                	li	a5,0
8000485e:	7ff00613          	li	a2,2047
/Local/xl_ci/toolchain/riscv-gnu-toolchain/riscv-gcc/libgcc/soft-fp/subdf3.c:47 (discriminator 62)
80004862:	008006b7          	lui	a3,0x800
80004866:	8ef9                	and	a3,a3,a4
80004868:	ca91                	beqz	a3,8000487c <__subdf3+0x34e>
/Local/xl_ci/toolchain/riscv-gnu-toolchain/riscv-gcc/libgcc/soft-fp/subdf3.c:47 (discriminator 63)
8000486a:	0605                	addi	a2,a2,1
8000486c:	7ff00693          	li	a3,2047
80004870:	52d60e63          	beq	a2,a3,80004dac <__subdf3+0x87e>
/Local/xl_ci/toolchain/riscv-gnu-toolchain/riscv-gcc/libgcc/soft-fp/subdf3.c:47
80004874:	ff8006b7          	lui	a3,0xff800
80004878:	16fd                	addi	a3,a3,-1
8000487a:	8f75                	and	a4,a4,a3
/Local/xl_ci/toolchain/riscv-gnu-toolchain/riscv-gcc/libgcc/soft-fp/subdf3.c:47 (discriminator 79)
8000487c:	0037d513          	srli	a0,a5,0x3
80004880:	7ff00693          	li	a3,2047
80004884:	01d71793          	slli	a5,a4,0x1d
80004888:	8fc9                	or	a5,a5,a0
8000488a:	830d                	srli	a4,a4,0x3
8000488c:	00d61963          	bne	a2,a3,8000489e <__subdf3+0x370>
/Local/xl_ci/toolchain/riscv-gnu-toolchain/riscv-gcc/libgcc/soft-fp/subdf3.c:47 (discriminator 80)
80004890:	8fd9                	or	a5,a5,a4
80004892:	4701                	li	a4,0
80004894:	c789                	beqz	a5,8000489e <__subdf3+0x370>
/Local/xl_ci/toolchain/riscv-gnu-toolchain/riscv-gcc/libgcc/soft-fp/subdf3.c:47
80004896:	00080737          	lui	a4,0x80
8000489a:	4781                	li	a5,0
8000489c:	4481                	li	s1,0
/Local/xl_ci/toolchain/riscv-gnu-toolchain/riscv-gcc/libgcc/soft-fp/subdf3.c:47 (discriminator 90)
8000489e:	7ff006b7          	lui	a3,0x7ff00
800048a2:	0652                	slli	a2,a2,0x14
800048a4:	0732                	slli	a4,a4,0xc
800048a6:	8e75                	and	a2,a2,a3
800048a8:	8331                	srli	a4,a4,0xc
800048aa:	8f51                	or	a4,a4,a2
800048ac:	04fe                	slli	s1,s1,0x1f
800048ae:	009766b3          	or	a3,a4,s1
800048b2:	853e                	mv	a0,a5
800048b4:	85b6                	mv	a1,a3
/Local/xl_ci/toolchain/riscv-gnu-toolchain/riscv-gcc/libgcc/soft-fp/subdf3.c:48 (discriminator 90)
800048b6:	c019                	beqz	s0,800048bc <__subdf3+0x38e>
/Local/xl_ci/toolchain/riscv-gnu-toolchain/riscv-gcc/libgcc/soft-fp/subdf3.c:48 (discriminator 1)
800048b8:	00142073          	csrs	fflags,s0
/Local/xl_ci/toolchain/riscv-gnu-toolchain/riscv-gcc/libgcc/soft-fp/subdf3.c:51
800048bc:	40f2                	lw	ra,28(sp)
800048be:	4462                	lw	s0,24(sp)
800048c0:	44d2                	lw	s1,20(sp)
800048c2:	4942                	lw	s2,16(sp)
800048c4:	49b2                	lw	s3,12(sp)
800048c6:	4a22                	lw	s4,8(sp)
800048c8:	6105                	addi	sp,sp,32
800048ca:	8082                	ret
/Local/xl_ci/toolchain/riscv-gnu-toolchain/riscv-gcc/libgcc/soft-fp/subdf3.c:46 (discriminator 129)
800048cc:	7ff00593          	li	a1,2047
800048d0:	02b60163          	beq	a2,a1,800048f2 <__subdf3+0x3c4>
/Local/xl_ci/toolchain/riscv-gnu-toolchain/riscv-gcc/libgcc/soft-fp/subdf3.c:46
800048d4:	983e                	add	a6,a6,a5
800048d6:	00f837b3          	sltu	a5,a6,a5
800048da:	9736                	add	a4,a4,a3
800048dc:	973e                	add	a4,a4,a5
800048de:	01f71793          	slli	a5,a4,0x1f
800048e2:	00185813          	srli	a6,a6,0x1
800048e6:	0107e7b3          	or	a5,a5,a6
800048ea:	8305                	srli	a4,a4,0x1
/Local/xl_ci/toolchain/riscv-gnu-toolchain/riscv-gcc/libgcc/soft-fp/subdf3.c:47
800048ec:	4581                	li	a1,0
800048ee:	4401                	li	s0,0
800048f0:	b711                	j	800047f4 <__subdf3+0x2c6>
/Local/xl_ci/toolchain/riscv-gnu-toolchain/riscv-gcc/libgcc/soft-fp/subdf3.c:46 (discriminator 171)
800048f2:	00098663          	beqz	s3,800048fe <__subdf3+0x3d0>
/Local/xl_ci/toolchain/riscv-gnu-toolchain/riscv-gcc/libgcc/soft-fp/subdf3.c:46 (discriminator 174)
800048f6:	478d                	li	a5,3
800048f8:	00f99663          	bne	s3,a5,80004904 <__subdf3+0x3d6>
/Local/xl_ci/toolchain/riscv-gnu-toolchain/riscv-gcc/libgcc/soft-fp/subdf3.c:46 (discriminator 175)
800048fc:	e881                	bnez	s1,8000490c <__subdf3+0x3de>
/Local/xl_ci/toolchain/riscv-gnu-toolchain/riscv-gcc/libgcc/soft-fp/subdf3.c:46
800048fe:	7ff00613          	li	a2,2047
80004902:	a881                	j	80004952 <__subdf3+0x424>
/Local/xl_ci/toolchain/riscv-gnu-toolchain/riscv-gcc/libgcc/soft-fp/subdf3.c:46 (discriminator 178)
80004904:	4789                	li	a5,2
80004906:	00f99363          	bne	s3,a5,8000490c <__subdf3+0x3de>
/Local/xl_ci/toolchain/riscv-gnu-toolchain/riscv-gcc/libgcc/soft-fp/subdf3.c:46 (discriminator 179)
8000490a:	f8f5                	bnez	s1,800048fe <__subdf3+0x3d0>
/Local/xl_ci/toolchain/riscv-gnu-toolchain/riscv-gcc/libgcc/soft-fp/subdf3.c:47
8000490c:	4581                	li	a1,0
/Local/xl_ci/toolchain/riscv-gnu-toolchain/riscv-gcc/libgcc/soft-fp/subdf3.c:46
8000490e:	577d                	li	a4,-1
80004910:	57fd                	li	a5,-1
80004912:	7fe00613          	li	a2,2046
80004916:	4415                	li	s0,5
/Local/xl_ci/toolchain/riscv-gnu-toolchain/riscv-gcc/libgcc/soft-fp/subdf3.c:47 (discriminator 37)
80004918:	4689                	li	a3,2
8000491a:	00146413          	ori	s0,s0,1
8000491e:	48d98363          	beq	s3,a3,80004da4 <__subdf3+0x876>
/Local/xl_ci/toolchain/riscv-gnu-toolchain/riscv-gcc/libgcc/soft-fp/subdf3.c:47
80004922:	468d                	li	a3,3
80004924:	46d98c63          	beq	s3,a3,80004d9c <__subdf3+0x86e>
80004928:	46099f63          	bnez	s3,80004da6 <__subdf3+0x878>
/Local/xl_ci/toolchain/riscv-gnu-toolchain/riscv-gcc/libgcc/soft-fp/subdf3.c:47 (discriminator 40)
8000492c:	00f7f693          	andi	a3,a5,15
80004930:	4511                	li	a0,4
80004932:	46a68a63          	beq	a3,a0,80004da6 <__subdf3+0x878>
/Local/xl_ci/toolchain/riscv-gnu-toolchain/riscv-gcc/libgcc/soft-fp/subdf3.c:47 (discriminator 44)
80004936:	00478693          	addi	a3,a5,4 # ff800004 <_sp+0x6f7c0004>
/Local/xl_ci/toolchain/riscv-gnu-toolchain/riscv-gcc/libgcc/soft-fp/subdf3.c:47 (discriminator 55)
8000493a:	00f6b7b3          	sltu	a5,a3,a5
8000493e:	973e                	add	a4,a4,a5
80004940:	87b6                	mv	a5,a3
80004942:	a195                	j	80004da6 <__subdf3+0x878>
/Local/xl_ci/toolchain/riscv-gnu-toolchain/riscv-gcc/libgcc/soft-fp/subdf3.c:46 (discriminator 189)
80004944:	00098763          	beqz	s3,80004952 <__subdf3+0x424>
/Local/xl_ci/toolchain/riscv-gnu-toolchain/riscv-gcc/libgcc/soft-fp/subdf3.c:46 (discriminator 192)
80004948:	478d                	li	a5,3
8000494a:	00f99863          	bne	s3,a5,8000495a <__subdf3+0x42c>
/Local/xl_ci/toolchain/riscv-gnu-toolchain/riscv-gcc/libgcc/soft-fp/subdf3.c:46 (discriminator 193)
8000494e:	3e049c63          	bnez	s1,80004d46 <__subdf3+0x818>
/Local/xl_ci/toolchain/riscv-gnu-toolchain/riscv-gcc/libgcc/soft-fp/subdf3.c:46
80004952:	4701                	li	a4,0
80004954:	4781                	li	a5,0
80004956:	4415                	li	s0,5
80004958:	b729                	j	80004862 <__subdf3+0x334>
/Local/xl_ci/toolchain/riscv-gnu-toolchain/riscv-gcc/libgcc/soft-fp/subdf3.c:46 (discriminator 196)
8000495a:	4789                	li	a5,2
8000495c:	3ef99563          	bne	s3,a5,80004d46 <__subdf3+0x818>
/Local/xl_ci/toolchain/riscv-gnu-toolchain/riscv-gcc/libgcc/soft-fp/subdf3.c:46 (discriminator 197)
80004960:	f8ed                	bnez	s1,80004952 <__subdf3+0x424>
80004962:	b76d                	j	8000490c <__subdf3+0x3de>
/Local/xl_ci/toolchain/riscv-gnu-toolchain/riscv-gcc/libgcc/soft-fp/subdf3.c:46 (discriminator 13)
80004964:	0cc05763          	blez	a2,80004a32 <__subdf3+0x504>
/Local/xl_ci/toolchain/riscv-gnu-toolchain/riscv-gcc/libgcc/soft-fp/subdf3.c:46 (discriminator 205)
80004968:	e1c9                	bnez	a1,800049ea <__subdf3+0x4bc>
/Local/xl_ci/toolchain/riscv-gnu-toolchain/riscv-gcc/libgcc/soft-fp/subdf3.c:46 (discriminator 207)
8000496a:	0106e533          	or	a0,a3,a6
8000496e:	c2050de3          	beqz	a0,800045a8 <__subdf3+0x7a>
/Local/xl_ci/toolchain/riscv-gnu-toolchain/riscv-gcc/libgcc/soft-fp/subdf3.c:46 (discriminator 210)
80004972:	fff60513          	addi	a0,a2,-1
80004976:	e911                	bnez	a0,8000498a <__subdf3+0x45c>
/Local/xl_ci/toolchain/riscv-gnu-toolchain/riscv-gcc/libgcc/soft-fp/subdf3.c:46 (discriminator 219)
80004978:	41078833          	sub	a6,a5,a6
8000497c:	40d706b3          	sub	a3,a4,a3
80004980:	0107b7b3          	sltu	a5,a5,a6
80004984:	8e9d                	sub	a3,a3,a5
/Local/xl_ci/toolchain/riscv-gnu-toolchain/riscv-gcc/libgcc/soft-fp/subdf3.c:45 (discriminator 276)
80004986:	4605                	li	a2,1
/Local/xl_ci/toolchain/riscv-gnu-toolchain/riscv-gcc/libgcc/soft-fp/subdf3.c:46 (discriminator 276)
80004988:	a0a9                	j	800049d2 <__subdf3+0x4a4>
/Local/xl_ci/toolchain/riscv-gnu-toolchain/riscv-gcc/libgcc/soft-fp/subdf3.c:46 (discriminator 220)
8000498a:	7ff00893          	li	a7,2047
8000498e:	c5160be3          	beq	a2,a7,800045e4 <__subdf3+0xb6>
/Local/xl_ci/toolchain/riscv-gnu-toolchain/riscv-gcc/libgcc/soft-fp/subdf3.c:46 (discriminator 243)
80004992:	03800613          	li	a2,56
80004996:	08a64963          	blt	a2,a0,80004a28 <__subdf3+0x4fa>
/Local/xl_ci/toolchain/riscv-gnu-toolchain/riscv-gcc/libgcc/soft-fp/subdf3.c:46 (discriminator 244)
8000499a:	467d                	li	a2,31
8000499c:	06a64063          	blt	a2,a0,800049fc <__subdf3+0x4ce>
/Local/xl_ci/toolchain/riscv-gnu-toolchain/riscv-gcc/libgcc/soft-fp/subdf3.c:46 (discriminator 246)
800049a0:	02000613          	li	a2,32
800049a4:	8e09                	sub	a2,a2,a0
800049a6:	00c695b3          	sll	a1,a3,a2
800049aa:	00a858b3          	srl	a7,a6,a0
800049ae:	00c81833          	sll	a6,a6,a2
800049b2:	0115e5b3          	or	a1,a1,a7
800049b6:	01003833          	snez	a6,a6
800049ba:	0105e833          	or	a6,a1,a6
800049be:	00a6d6b3          	srl	a3,a3,a0
/Local/xl_ci/toolchain/riscv-gnu-toolchain/riscv-gcc/libgcc/soft-fp/subdf3.c:46 (discriminator 260)
800049c2:	41078833          	sub	a6,a5,a6
800049c6:	40d706b3          	sub	a3,a4,a3
800049ca:	0107b7b3          	sltu	a5,a5,a6
800049ce:	8e9d                	sub	a3,a3,a5
/Local/xl_ci/toolchain/riscv-gnu-toolchain/riscv-gcc/libgcc/soft-fp/subdf3.c:44 (discriminator 260)
800049d0:	8622                	mv	a2,s0
/Local/xl_ci/toolchain/riscv-gnu-toolchain/riscv-gcc/libgcc/soft-fp/subdf3.c:46 (discriminator 318)
800049d2:	00800937          	lui	s2,0x800
800049d6:	0126f7b3          	and	a5,a3,s2
800049da:	ce078ce3          	beqz	a5,800046d2 <__subdf3+0x1a4>
/Local/xl_ci/toolchain/riscv-gnu-toolchain/riscv-gcc/libgcc/soft-fp/subdf3.c:46 (discriminator 378)
800049de:	197d                	addi	s2,s2,-1
800049e0:	0126f933          	and	s2,a3,s2
800049e4:	8a42                	mv	s4,a6
800049e6:	8432                	mv	s0,a2
800049e8:	a4b5                	j	80004c54 <__subdf3+0x726>
/Local/xl_ci/toolchain/riscv-gnu-toolchain/riscv-gcc/libgcc/soft-fp/subdf3.c:46 (discriminator 208)
800049ea:	7ff00593          	li	a1,2047
800049ee:	c0b406e3          	beq	s0,a1,800045fa <__subdf3+0xcc>
/Local/xl_ci/toolchain/riscv-gnu-toolchain/riscv-gcc/libgcc/soft-fp/subdf3.c:46 (discriminator 234)
800049f2:	008005b7          	lui	a1,0x800
800049f6:	8ecd                	or	a3,a3,a1
800049f8:	8532                	mv	a0,a2
800049fa:	bf61                	j	80004992 <__subdf3+0x464>
/Local/xl_ci/toolchain/riscv-gnu-toolchain/riscv-gcc/libgcc/soft-fp/subdf3.c:46 (discriminator 247)
800049fc:	fe050593          	addi	a1,a0,-32 # 7fffe0 <__stack_size+0x7ff7e0>
80004a00:	02000893          	li	a7,32
80004a04:	00b6d5b3          	srl	a1,a3,a1
80004a08:	4601                	li	a2,0
80004a0a:	01150763          	beq	a0,a7,80004a18 <__subdf3+0x4ea>
/Local/xl_ci/toolchain/riscv-gnu-toolchain/riscv-gcc/libgcc/soft-fp/subdf3.c:46 (discriminator 254)
80004a0e:	04000613          	li	a2,64
80004a12:	8e09                	sub	a2,a2,a0
80004a14:	00c69633          	sll	a2,a3,a2
/Local/xl_ci/toolchain/riscv-gnu-toolchain/riscv-gcc/libgcc/soft-fp/subdf3.c:46 (discriminator 257)
80004a18:	01066833          	or	a6,a2,a6
80004a1c:	01003833          	snez	a6,a6
80004a20:	0105e833          	or	a6,a1,a6
/Local/xl_ci/toolchain/riscv-gnu-toolchain/riscv-gcc/libgcc/soft-fp/subdf3.c:46 (discriminator 245)
80004a24:	4681                	li	a3,0
80004a26:	bf71                	j	800049c2 <__subdf3+0x494>
80004a28:	0106e833          	or	a6,a3,a6
80004a2c:	01003833          	snez	a6,a6
80004a30:	bfd5                	j	80004a24 <__subdf3+0x4f6>
/Local/xl_ci/toolchain/riscv-gnu-toolchain/riscv-gcc/libgcc/soft-fp/subdf3.c:46 (discriminator 206)
80004a32:	ce6d                	beqz	a2,80004b2c <__subdf3+0x5fe>
/Local/xl_ci/toolchain/riscv-gnu-toolchain/riscv-gcc/libgcc/soft-fp/subdf3.c:46 (discriminator 262)
80004a34:	40858633          	sub	a2,a1,s0
80004a38:	e439                	bnez	s0,80004a86 <__subdf3+0x558>
/Local/xl_ci/toolchain/riscv-gnu-toolchain/riscv-gcc/libgcc/soft-fp/subdf3.c:46 (discriminator 264)
80004a3a:	00f76533          	or	a0,a4,a5
80004a3e:	e509                	bnez	a0,80004a48 <__subdf3+0x51a>
/Local/xl_ci/toolchain/riscv-gnu-toolchain/riscv-gcc/libgcc/soft-fp/subdf3.c:46 (discriminator 266)
80004a40:	7ff00793          	li	a5,2047
80004a44:	849a                	mv	s1,t1
80004a46:	b161                	j	800046ce <__subdf3+0x1a0>
/Local/xl_ci/toolchain/riscv-gnu-toolchain/riscv-gcc/libgcc/soft-fp/subdf3.c:46 (discriminator 267)
80004a48:	fff60893          	addi	a7,a2,-1
80004a4c:	00089c63          	bnez	a7,80004a64 <__subdf3+0x536>
/Local/xl_ci/toolchain/riscv-gnu-toolchain/riscv-gcc/libgcc/soft-fp/subdf3.c:46 (discriminator 276)
80004a50:	40f807b3          	sub	a5,a6,a5
80004a54:	00f83833          	sltu	a6,a6,a5
80004a58:	8e99                	sub	a3,a3,a4
80004a5a:	410686b3          	sub	a3,a3,a6
80004a5e:	849a                	mv	s1,t1
80004a60:	883e                	mv	a6,a5
80004a62:	b715                	j	80004986 <__subdf3+0x458>
/Local/xl_ci/toolchain/riscv-gnu-toolchain/riscv-gcc/libgcc/soft-fp/subdf3.c:46 (discriminator 277)
80004a64:	7ff00513          	li	a0,2047
80004a68:	04a61563          	bne	a2,a0,80004ab2 <__subdf3+0x584>
/Local/xl_ci/toolchain/riscv-gnu-toolchain/riscv-gcc/libgcc/soft-fp/subdf3.c:46 (discriminator 281)
80004a6c:	0106e7b3          	or	a5,a3,a6
80004a70:	2e078a63          	beqz	a5,80004d64 <__subdf3+0x836>
/Local/xl_ci/toolchain/riscv-gnu-toolchain/riscv-gcc/libgcc/soft-fp/subdf3.c:46 (discriminator 283)
80004a74:	004007b7          	lui	a5,0x400
80004a78:	8ff5                	and	a5,a5,a3
80004a7a:	8736                	mv	a4,a3
80004a7c:	2e079763          	bnez	a5,80004d6a <__subdf3+0x83c>
/Local/xl_ci/toolchain/riscv-gnu-toolchain/riscv-gcc/libgcc/soft-fp/subdf3.c:45
80004a80:	87c2                	mv	a5,a6
/Local/xl_ci/toolchain/riscv-gnu-toolchain/riscv-gcc/libgcc/soft-fp/subdf3.c:46
80004a82:	849a                	mv	s1,t1
80004a84:	b94d                	j	80004736 <__subdf3+0x208>
/Local/xl_ci/toolchain/riscv-gnu-toolchain/riscv-gcc/libgcc/soft-fp/subdf3.c:46 (discriminator 265)
80004a86:	7ff00513          	li	a0,2047
80004a8a:	02a59063          	bne	a1,a0,80004aaa <__subdf3+0x57c>
/Local/xl_ci/toolchain/riscv-gnu-toolchain/riscv-gcc/libgcc/soft-fp/subdf3.c:46 (discriminator 292)
80004a8e:	0106e7b3          	or	a5,a3,a6
80004a92:	2c078f63          	beqz	a5,80004d70 <__subdf3+0x842>
/Local/xl_ci/toolchain/riscv-gnu-toolchain/riscv-gcc/libgcc/soft-fp/subdf3.c:46 (discriminator 294)
80004a96:	004007b7          	lui	a5,0x400
80004a9a:	8ff5                	and	a5,a5,a3
80004a9c:	8736                	mv	a4,a3
80004a9e:	2c079e63          	bnez	a5,80004d7a <__subdf3+0x84c>
/Local/xl_ci/toolchain/riscv-gnu-toolchain/riscv-gcc/libgcc/soft-fp/subdf3.c:45
80004aa2:	87c2                	mv	a5,a6
/Local/xl_ci/toolchain/riscv-gnu-toolchain/riscv-gcc/libgcc/soft-fp/subdf3.c:46
80004aa4:	7ff00613          	li	a2,2047
80004aa8:	bfe9                	j	80004a82 <__subdf3+0x554>
/Local/xl_ci/toolchain/riscv-gnu-toolchain/riscv-gcc/libgcc/soft-fp/subdf3.c:46 (discriminator 291)
80004aaa:	00800537          	lui	a0,0x800
80004aae:	8f49                	or	a4,a4,a0
80004ab0:	88b2                	mv	a7,a2
/Local/xl_ci/toolchain/riscv-gnu-toolchain/riscv-gcc/libgcc/soft-fp/subdf3.c:46 (discriminator 300)
80004ab2:	03800613          	li	a2,56
80004ab6:	07164763          	blt	a2,a7,80004b24 <__subdf3+0x5f6>
/Local/xl_ci/toolchain/riscv-gnu-toolchain/riscv-gcc/libgcc/soft-fp/subdf3.c:46 (discriminator 301)
80004aba:	467d                	li	a2,31
80004abc:	03164f63          	blt	a2,a7,80004afa <__subdf3+0x5cc>
/Local/xl_ci/toolchain/riscv-gnu-toolchain/riscv-gcc/libgcc/soft-fp/subdf3.c:46 (discriminator 303)
80004ac0:	02000513          	li	a0,32
80004ac4:	41150533          	sub	a0,a0,a7
80004ac8:	00a71633          	sll	a2,a4,a0
80004acc:	0117de33          	srl	t3,a5,a7
80004ad0:	00a797b3          	sll	a5,a5,a0
80004ad4:	01c66633          	or	a2,a2,t3
80004ad8:	00f037b3          	snez	a5,a5
80004adc:	8fd1                	or	a5,a5,a2
80004ade:	01175733          	srl	a4,a4,a7
/Local/xl_ci/toolchain/riscv-gnu-toolchain/riscv-gcc/libgcc/soft-fp/subdf3.c:46 (discriminator 317)
80004ae2:	40f807b3          	sub	a5,a6,a5
80004ae6:	40e68733          	sub	a4,a3,a4
80004aea:	00f836b3          	sltu	a3,a6,a5
80004aee:	40d706b3          	sub	a3,a4,a3
80004af2:	883e                	mv	a6,a5
/Local/xl_ci/toolchain/riscv-gnu-toolchain/riscv-gcc/libgcc/soft-fp/subdf3.c:45 (discriminator 317)
80004af4:	862e                	mv	a2,a1
80004af6:	849a                	mv	s1,t1
80004af8:	bde9                	j	800049d2 <__subdf3+0x4a4>
/Local/xl_ci/toolchain/riscv-gnu-toolchain/riscv-gcc/libgcc/soft-fp/subdf3.c:46 (discriminator 304)
80004afa:	fe088613          	addi	a2,a7,-32
80004afe:	02000e13          	li	t3,32
80004b02:	00c75633          	srl	a2,a4,a2
80004b06:	4501                	li	a0,0
80004b08:	01c88863          	beq	a7,t3,80004b18 <__subdf3+0x5ea>
/Local/xl_ci/toolchain/riscv-gnu-toolchain/riscv-gcc/libgcc/soft-fp/subdf3.c:46 (discriminator 311)
80004b0c:	04000513          	li	a0,64
80004b10:	41150533          	sub	a0,a0,a7
80004b14:	00a71533          	sll	a0,a4,a0
/Local/xl_ci/toolchain/riscv-gnu-toolchain/riscv-gcc/libgcc/soft-fp/subdf3.c:46 (discriminator 314)
80004b18:	8fc9                	or	a5,a5,a0
80004b1a:	00f037b3          	snez	a5,a5
80004b1e:	8fd1                	or	a5,a5,a2
/Local/xl_ci/toolchain/riscv-gnu-toolchain/riscv-gcc/libgcc/soft-fp/subdf3.c:46 (discriminator 302)
80004b20:	4701                	li	a4,0
80004b22:	b7c1                	j	80004ae2 <__subdf3+0x5b4>
80004b24:	8fd9                	or	a5,a5,a4
80004b26:	00f037b3          	snez	a5,a5
80004b2a:	bfdd                	j	80004b20 <__subdf3+0x5f2>
/Local/xl_ci/toolchain/riscv-gnu-toolchain/riscv-gcc/libgcc/soft-fp/subdf3.c:46 (discriminator 263)
80004b2c:	00140613          	addi	a2,s0,1 # 400001 <__stack_size+0x3ff801>
80004b30:	7fe67613          	andi	a2,a2,2046
80004b34:	ea7d                	bnez	a2,80004c2a <__subdf3+0x6fc>
/Local/xl_ci/toolchain/riscv-gnu-toolchain/riscv-gcc/libgcc/soft-fp/subdf3.c:46 (discriminator 319)
80004b36:	00f76533          	or	a0,a4,a5
80004b3a:	0106e633          	or	a2,a3,a6
80004b3e:	e055                	bnez	s0,80004be2 <__subdf3+0x6b4>
/Local/xl_ci/toolchain/riscv-gnu-toolchain/riscv-gcc/libgcc/soft-fp/subdf3.c:46 (discriminator 321)
80004b40:	e12d                	bnez	a0,80004ba2 <__subdf3+0x674>
/Local/xl_ci/toolchain/riscv-gnu-toolchain/riscv-gcc/libgcc/soft-fp/subdf3.c:46 (discriminator 323)
80004b42:	1c061063          	bnez	a2,80004d02 <__subdf3+0x7d4>
/Local/xl_ci/toolchain/riscv-gnu-toolchain/riscv-gcc/libgcc/soft-fp/subdf3.c:46 (discriminator 325)
80004b46:	ffe98493          	addi	s1,s3,-2
80004b4a:	0014b493          	seqz	s1,s1
80004b4e:	4701                	li	a4,0
80004b50:	4781                	li	a5,0
/Local/xl_ci/toolchain/riscv-gnu-toolchain/riscv-gcc/libgcc/soft-fp/subdf3.c:47 (discriminator 1)
80004b52:	00e7e6b3          	or	a3,a5,a4
80004b56:	22068f63          	beqz	a3,80004d94 <__subdf3+0x866>
/Local/xl_ci/toolchain/riscv-gnu-toolchain/riscv-gcc/libgcc/soft-fp/subdf3.c:47
80004b5a:	01f7d693          	srli	a3,a5,0x1f
80004b5e:	00171593          	slli	a1,a4,0x1
80004b62:	95b6                	add	a1,a1,a3
80004b64:	00179693          	slli	a3,a5,0x1
80004b68:	0076f613          	andi	a2,a3,7
80004b6c:	4401                	li	s0,0
80004b6e:	c605                	beqz	a2,80004b96 <__subdf3+0x668>
80004b70:	4609                	li	a2,2
80004b72:	1ac98863          	beq	s3,a2,80004d22 <__subdf3+0x7f4>
80004b76:	460d                	li	a2,3
80004b78:	18c98b63          	beq	s3,a2,80004d0e <__subdf3+0x7e0>
80004b7c:	4405                	li	s0,1
80004b7e:	00099c63          	bnez	s3,80004b96 <__subdf3+0x668>
/Local/xl_ci/toolchain/riscv-gnu-toolchain/riscv-gcc/libgcc/soft-fp/subdf3.c:47 (discriminator 16)
80004b82:	00f6f613          	andi	a2,a3,15
80004b86:	4511                	li	a0,4
80004b88:	00a60763          	beq	a2,a0,80004b96 <__subdf3+0x668>
/Local/xl_ci/toolchain/riscv-gnu-toolchain/riscv-gcc/libgcc/soft-fp/subdf3.c:47 (discriminator 20)
80004b8c:	ffc6b693          	sltiu	a3,a3,-4
80004b90:	0016c693          	xori	a3,a3,1
80004b94:	95b6                	add	a1,a1,a3
/Local/xl_ci/toolchain/riscv-gnu-toolchain/riscv-gcc/libgcc/soft-fp/subdf3.c:47 (discriminator 23)
80004b96:	81e1                	srli	a1,a1,0x18
80004b98:	0015c593          	xori	a1,a1,1
80004b9c:	8985                	andi	a1,a1,1
80004b9e:	4601                	li	a2,0
80004ba0:	b991                	j	800047f4 <__subdf3+0x2c6>
/Local/xl_ci/toolchain/riscv-gnu-toolchain/riscv-gcc/libgcc/soft-fp/subdf3.c:46 (discriminator 324)
80004ba2:	da45                	beqz	a2,80004b52 <__subdf3+0x624>
/Local/xl_ci/toolchain/riscv-gnu-toolchain/riscv-gcc/libgcc/soft-fp/subdf3.c:46 (discriminator 331)
80004ba4:	410785b3          	sub	a1,a5,a6
80004ba8:	00b7b533          	sltu	a0,a5,a1
80004bac:	40d70633          	sub	a2,a4,a3
80004bb0:	8e09                	sub	a2,a2,a0
80004bb2:	00800537          	lui	a0,0x800
80004bb6:	8d71                	and	a0,a0,a2
80004bb8:	c919                	beqz	a0,80004bce <__subdf3+0x6a0>
/Local/xl_ci/toolchain/riscv-gnu-toolchain/riscv-gcc/libgcc/soft-fp/subdf3.c:46 (discriminator 333)
80004bba:	40f807b3          	sub	a5,a6,a5
80004bbe:	40e68733          	sub	a4,a3,a4
80004bc2:	00f83833          	sltu	a6,a6,a5
80004bc6:	41070733          	sub	a4,a4,a6
80004bca:	849a                	mv	s1,t1
80004bcc:	b759                	j	80004b52 <__subdf3+0x624>
/Local/xl_ci/toolchain/riscv-gnu-toolchain/riscv-gcc/libgcc/soft-fp/subdf3.c:46 (discriminator 334)
80004bce:	00c5e7b3          	or	a5,a1,a2
80004bd2:	12079b63          	bnez	a5,80004d08 <__subdf3+0x7da>
/Local/xl_ci/toolchain/riscv-gnu-toolchain/riscv-gcc/libgcc/soft-fp/subdf3.c:46 (discriminator 374)
80004bd6:	ffe98493          	addi	s1,s3,-2
80004bda:	0014b493          	seqz	s1,s1
/Local/xl_ci/toolchain/riscv-gnu-toolchain/riscv-gcc/libgcc/soft-fp/subdf3.c:46 (discriminator 422)
80004bde:	4701                	li	a4,0
80004be0:	bf8d                	j	80004b52 <__subdf3+0x624>
/Local/xl_ci/toolchain/riscv-gnu-toolchain/riscv-gcc/libgcc/soft-fp/subdf3.c:46 (discriminator 322)
80004be2:	7ff00893          	li	a7,2047
80004be6:	03141363          	bne	s0,a7,80004c0c <__subdf3+0x6de>
/Local/xl_ci/toolchain/riscv-gnu-toolchain/riscv-gcc/libgcc/soft-fp/subdf3.c:46 (discriminator 340)
80004bea:	1e050463          	beqz	a0,80004dd2 <__subdf3+0x8a4>
/Local/xl_ci/toolchain/riscv-gnu-toolchain/riscv-gcc/libgcc/soft-fp/subdf3.c:46 (discriminator 342)
80004bee:	00400437          	lui	s0,0x400
80004bf2:	8c79                	and	s0,s0,a4
/Local/xl_ci/toolchain/riscv-gnu-toolchain/riscv-gcc/libgcc/soft-fp/subdf3.c:37 (discriminator 342)
80004bf4:	00143413          	seqz	s0,s0
80004bf8:	0412                	slli	s0,s0,0x4
/Local/xl_ci/toolchain/riscv-gnu-toolchain/riscv-gcc/libgcc/soft-fp/subdf3.c:46 (discriminator 342)
80004bfa:	03159563          	bne	a1,a7,80004c24 <__subdf3+0x6f6>
/Local/xl_ci/toolchain/riscv-gnu-toolchain/riscv-gcc/libgcc/soft-fp/subdf3.c:46 (discriminator 347)
80004bfe:	ca11                	beqz	a2,80004c12 <__subdf3+0x6e4>
/Local/xl_ci/toolchain/riscv-gnu-toolchain/riscv-gcc/libgcc/soft-fp/subdf3.c:46 (discriminator 349)
80004c00:	004005b7          	lui	a1,0x400
80004c04:	8df5                	and	a1,a1,a3
80004c06:	e591                	bnez	a1,80004c12 <__subdf3+0x6e4>
/Local/xl_ci/toolchain/riscv-gnu-toolchain/riscv-gcc/libgcc/soft-fp/subdf3.c:46
80004c08:	4441                	li	s0,16
80004c0a:	a021                	j	80004c12 <__subdf3+0x6e4>
/Local/xl_ci/toolchain/riscv-gnu-toolchain/riscv-gcc/libgcc/soft-fp/subdf3.c:37 (discriminator 346)
80004c0c:	4401                	li	s0,0
/Local/xl_ci/toolchain/riscv-gnu-toolchain/riscv-gcc/libgcc/soft-fp/subdf3.c:46 (discriminator 346)
80004c0e:	ff1588e3          	beq	a1,a7,80004bfe <__subdf3+0x6d0>
/Local/xl_ci/toolchain/riscv-gnu-toolchain/riscv-gcc/libgcc/soft-fp/subdf3.c:46 (discriminator 353)
80004c12:	e909                	bnez	a0,80004c24 <__subdf3+0x6f6>
/Local/xl_ci/toolchain/riscv-gnu-toolchain/riscv-gcc/libgcc/soft-fp/subdf3.c:46 (discriminator 354)
80004c14:	16060863          	beqz	a2,80004d84 <__subdf3+0x856>
/Local/xl_ci/toolchain/riscv-gnu-toolchain/riscv-gcc/libgcc/soft-fp/subdf3.c:45
80004c18:	8736                	mv	a4,a3
80004c1a:	87c2                	mv	a5,a6
/Local/xl_ci/toolchain/riscv-gnu-toolchain/riscv-gcc/libgcc/soft-fp/subdf3.c:46
80004c1c:	849a                	mv	s1,t1
80004c1e:	b11d                	j	80004844 <__subdf3+0x316>
/Local/xl_ci/toolchain/riscv-gnu-toolchain/riscv-gcc/libgcc/soft-fp/subdf3.c:37
80004c20:	4401                	li	s0,0
80004c22:	bff1                	j	80004bfe <__subdf3+0x6d0>
/Local/xl_ci/toolchain/riscv-gnu-toolchain/riscv-gcc/libgcc/soft-fp/subdf3.c:46 (discriminator 355)
80004c24:	c20600e3          	beqz	a2,80004844 <__subdf3+0x316>
80004c28:	b13d                	j	80004856 <__subdf3+0x328>
/Local/xl_ci/toolchain/riscv-gnu-toolchain/riscv-gcc/libgcc/soft-fp/subdf3.c:46 (discriminator 320)
80004c2a:	41078a33          	sub	s4,a5,a6
80004c2e:	0147b633          	sltu	a2,a5,s4
80004c32:	40d70933          	sub	s2,a4,a3
80004c36:	40c90933          	sub	s2,s2,a2
80004c3a:	00800637          	lui	a2,0x800
80004c3e:	00c97633          	and	a2,s2,a2
80004c42:	c625                	beqz	a2,80004caa <__subdf3+0x77c>
/Local/xl_ci/toolchain/riscv-gnu-toolchain/riscv-gcc/libgcc/soft-fp/subdf3.c:46 (discriminator 371)
80004c44:	40f80a33          	sub	s4,a6,a5
80004c48:	8e99                	sub	a3,a3,a4
80004c4a:	01483833          	sltu	a6,a6,s4
80004c4e:	41068933          	sub	s2,a3,a6
80004c52:	849a                	mv	s1,t1
/Local/xl_ci/toolchain/riscv-gnu-toolchain/riscv-gcc/libgcc/soft-fp/subdf3.c:46 (discriminator 380)
80004c54:	04090f63          	beqz	s2,80004cb2 <__subdf3+0x784>
/Local/xl_ci/toolchain/riscv-gnu-toolchain/riscv-gcc/libgcc/soft-fp/subdf3.c:46 (discriminator 383)
80004c58:	854a                	mv	a0,s2
80004c5a:	2399                	jal	800051a0 <__clzsi2>
/Local/xl_ci/toolchain/riscv-gnu-toolchain/riscv-gcc/libgcc/soft-fp/subdf3.c:46 (discriminator 397)
80004c5c:	ff850613          	addi	a2,a0,-8 # 7ffff8 <__stack_size+0x7ff7f8>
80004c60:	47fd                	li	a5,31
80004c62:	04c7cd63          	blt	a5,a2,80004cbc <__subdf3+0x78e>
/Local/xl_ci/toolchain/riscv-gnu-toolchain/riscv-gcc/libgcc/soft-fp/subdf3.c:46 (discriminator 403)
80004c66:	02000693          	li	a3,32
80004c6a:	8e91                	sub	a3,a3,a2
80004c6c:	00c91733          	sll	a4,s2,a2
80004c70:	00da56b3          	srl	a3,s4,a3
80004c74:	8ed9                	or	a3,a3,a4
80004c76:	00ca1833          	sll	a6,s4,a2
/Local/xl_ci/toolchain/riscv-gnu-toolchain/riscv-gcc/libgcc/soft-fp/subdf3.c:46 (discriminator 407)
80004c7a:	06864a63          	blt	a2,s0,80004cee <__subdf3+0x7c0>
/Local/xl_ci/toolchain/riscv-gnu-toolchain/riscv-gcc/libgcc/soft-fp/subdf3.c:46 (discriminator 408)
80004c7e:	8e01                	sub	a2,a2,s0
80004c80:	00160713          	addi	a4,a2,1 # 800001 <__stack_size+0x7ff801>
80004c84:	47fd                	li	a5,31
80004c86:	04e7c163          	blt	a5,a4,80004cc8 <__subdf3+0x79a>
/Local/xl_ci/toolchain/riscv-gnu-toolchain/riscv-gcc/libgcc/soft-fp/subdf3.c:46 (discriminator 410)
80004c8a:	02000613          	li	a2,32
80004c8e:	8e19                	sub	a2,a2,a4
80004c90:	00c697b3          	sll	a5,a3,a2
80004c94:	00e85533          	srl	a0,a6,a4
80004c98:	00c81633          	sll	a2,a6,a2
80004c9c:	8fc9                	or	a5,a5,a0
80004c9e:	00c03633          	snez	a2,a2
80004ca2:	8fd1                	or	a5,a5,a2
80004ca4:	00e6d733          	srl	a4,a3,a4
80004ca8:	b56d                	j	80004b52 <__subdf3+0x624>
/Local/xl_ci/toolchain/riscv-gnu-toolchain/riscv-gcc/libgcc/soft-fp/subdf3.c:46 (discriminator 372)
80004caa:	012a67b3          	or	a5,s4,s2
80004cae:	f3dd                	bnez	a5,80004c54 <__subdf3+0x726>
80004cb0:	b71d                	j	80004bd6 <__subdf3+0x6a8>
/Local/xl_ci/toolchain/riscv-gnu-toolchain/riscv-gcc/libgcc/soft-fp/subdf3.c:46 (discriminator 390)
80004cb2:	8552                	mv	a0,s4
80004cb4:	21f5                	jal	800051a0 <__clzsi2>
80004cb6:	02050513          	addi	a0,a0,32
80004cba:	b74d                	j	80004c5c <__subdf3+0x72e>
/Local/xl_ci/toolchain/riscv-gnu-toolchain/riscv-gcc/libgcc/soft-fp/subdf3.c:46 (discriminator 399)
80004cbc:	fd850693          	addi	a3,a0,-40
80004cc0:	00da16b3          	sll	a3,s4,a3
80004cc4:	4801                	li	a6,0
80004cc6:	bf55                	j	80004c7a <__subdf3+0x74c>
/Local/xl_ci/toolchain/riscv-gnu-toolchain/riscv-gcc/libgcc/soft-fp/subdf3.c:46 (discriminator 411)
80004cc8:	1605                	addi	a2,a2,-31
80004cca:	02000593          	li	a1,32
80004cce:	00c6d633          	srl	a2,a3,a2
80004cd2:	4781                	li	a5,0
80004cd4:	00b70763          	beq	a4,a1,80004ce2 <__subdf3+0x7b4>
/Local/xl_ci/toolchain/riscv-gnu-toolchain/riscv-gcc/libgcc/soft-fp/subdf3.c:46 (discriminator 419)
80004cd8:	04000793          	li	a5,64
80004cdc:	8f99                	sub	a5,a5,a4
80004cde:	00f697b3          	sll	a5,a3,a5
/Local/xl_ci/toolchain/riscv-gnu-toolchain/riscv-gcc/libgcc/soft-fp/subdf3.c:46 (discriminator 422)
80004ce2:	00f867b3          	or	a5,a6,a5
80004ce6:	00f037b3          	snez	a5,a5
80004cea:	8fd1                	or	a5,a5,a2
80004cec:	bdcd                	j	80004bde <__subdf3+0x6b0>
/Local/xl_ci/toolchain/riscv-gnu-toolchain/riscv-gcc/libgcc/soft-fp/subdf3.c:46 (discriminator 409)
80004cee:	ff8007b7          	lui	a5,0xff800
80004cf2:	17fd                	addi	a5,a5,-1
80004cf4:	40c40633          	sub	a2,s0,a2
80004cf8:	8efd                	and	a3,a3,a5
80004cfa:	bae1                	j	800046d2 <__subdf3+0x1a4>
/Local/xl_ci/toolchain/riscv-gnu-toolchain/riscv-gcc/libgcc/soft-fp/subdf3.c:45
80004cfc:	8736                	mv	a4,a3
/Local/xl_ci/toolchain/riscv-gnu-toolchain/riscv-gcc/libgcc/soft-fp/subdf3.c:46
80004cfe:	87c2                	mv	a5,a6
80004d00:	bd89                	j	80004b52 <__subdf3+0x624>
/Local/xl_ci/toolchain/riscv-gnu-toolchain/riscv-gcc/libgcc/soft-fp/subdf3.c:45
80004d02:	8736                	mv	a4,a3
80004d04:	87c2                	mv	a5,a6
80004d06:	b5d1                	j	80004bca <__subdf3+0x69c>
80004d08:	8732                	mv	a4,a2
/Local/xl_ci/toolchain/riscv-gnu-toolchain/riscv-gcc/libgcc/soft-fp/subdf3.c:46
80004d0a:	87ae                	mv	a5,a1
80004d0c:	b599                	j	80004b52 <__subdf3+0x624>
/Local/xl_ci/toolchain/riscv-gnu-toolchain/riscv-gcc/libgcc/soft-fp/subdf3.c:47 (discriminator 19)
80004d0e:	8426                	mv	s0,s1
80004d10:	e80493e3          	bnez	s1,80004b96 <__subdf3+0x668>
/Local/xl_ci/toolchain/riscv-gnu-toolchain/riscv-gcc/libgcc/soft-fp/subdf3.c:47 (discriminator 26)
80004d14:	ff86b693          	sltiu	a3,a3,-8
80004d18:	0016c693          	xori	a3,a3,1
80004d1c:	95b6                	add	a1,a1,a3
80004d1e:	4405                	li	s0,1
80004d20:	bd9d                	j	80004b96 <__subdf3+0x668>
/Local/xl_ci/toolchain/riscv-gnu-toolchain/riscv-gcc/libgcc/soft-fp/subdf3.c:47 (discriminator 18)
80004d22:	4405                	li	s0,1
80004d24:	e60489e3          	beqz	s1,80004b96 <__subdf3+0x668>
/Local/xl_ci/toolchain/riscv-gnu-toolchain/riscv-gcc/libgcc/soft-fp/subdf3.c:47 (discriminator 31)
80004d28:	ff86b693          	sltiu	a3,a3,-8
80004d2c:	0016c693          	xori	a3,a3,1
80004d30:	95b6                	add	a1,a1,a3
80004d32:	8426                	mv	s0,s1
80004d34:	b58d                	j	80004b96 <__subdf3+0x668>
80004d36:	4701                	li	a4,0
/Local/xl_ci/toolchain/riscv-gnu-toolchain/riscv-gcc/libgcc/soft-fp/subdf3.c:46
80004d38:	7ff00613          	li	a2,2047
80004d3c:	b84d                	j	800045ee <__subdf3+0xc0>
/Local/xl_ci/toolchain/riscv-gnu-toolchain/riscv-gcc/libgcc/soft-fp/subdf3.c:45
80004d3e:	87c2                	mv	a5,a6
/Local/xl_ci/toolchain/riscv-gnu-toolchain/riscv-gcc/libgcc/soft-fp/subdf3.c:46
80004d40:	7ff00613          	li	a2,2047
80004d44:	b665                	j	800048ec <__subdf3+0x3be>
80004d46:	577d                	li	a4,-1
80004d48:	57fd                	li	a5,-1
80004d4a:	7fe00613          	li	a2,2046
/Local/xl_ci/toolchain/riscv-gnu-toolchain/riscv-gcc/libgcc/soft-fp/subdf3.c:47
80004d4e:	4581                	li	a1,0
80004d50:	b6d9                	j	80004916 <__subdf3+0x3e8>
80004d52:	4701                	li	a4,0
80004d54:	4781                	li	a5,0
80004d56:	b631                	j	80004862 <__subdf3+0x334>
80004d58:	4701                	li	a4,0
80004d5a:	4781                	li	a5,0
80004d5c:	bff1                	j	80004d38 <__subdf3+0x80a>
/Local/xl_ci/toolchain/riscv-gnu-toolchain/riscv-gcc/libgcc/soft-fp/subdf3.c:45
80004d5e:	87c2                	mv	a5,a6
/Local/xl_ci/toolchain/riscv-gnu-toolchain/riscv-gcc/libgcc/soft-fp/subdf3.c:47
80004d60:	4581                	li	a1,0
80004d62:	bc49                	j	800047f4 <__subdf3+0x2c6>
80004d64:	4701                	li	a4,0
80004d66:	849a                	mv	s1,t1
80004d68:	bced                	j	80004862 <__subdf3+0x334>
/Local/xl_ci/toolchain/riscv-gnu-toolchain/riscv-gcc/libgcc/soft-fp/subdf3.c:45
80004d6a:	87c2                	mv	a5,a6
80004d6c:	849a                	mv	s1,t1
80004d6e:	bfcd                	j	80004d60 <__subdf3+0x832>
80004d70:	4701                	li	a4,0
/Local/xl_ci/toolchain/riscv-gnu-toolchain/riscv-gcc/libgcc/soft-fp/subdf3.c:46
80004d72:	7ff00613          	li	a2,2047
80004d76:	849a                	mv	s1,t1
80004d78:	b89d                	j	800045ee <__subdf3+0xc0>
/Local/xl_ci/toolchain/riscv-gnu-toolchain/riscv-gcc/libgcc/soft-fp/subdf3.c:45
80004d7a:	87c2                	mv	a5,a6
/Local/xl_ci/toolchain/riscv-gnu-toolchain/riscv-gcc/libgcc/soft-fp/subdf3.c:46
80004d7c:	7ff00613          	li	a2,2047
80004d80:	849a                	mv	s1,t1
80004d82:	b6ad                	j	800048ec <__subdf3+0x3be>
80004d84:	4781                	li	a5,0
80004d86:	4481                	li	s1,0
80004d88:	00400737          	lui	a4,0x400
80004d8c:	7ff00613          	li	a2,2047
80004d90:	4441                	li	s0,16
80004d92:	bcc1                	j	80004862 <__subdf3+0x334>
80004d94:	4701                	li	a4,0
80004d96:	4781                	li	a5,0
80004d98:	4601                	li	a2,0
80004d9a:	b891                	j	800045ee <__subdf3+0xc0>
/Local/xl_ci/toolchain/riscv-gnu-toolchain/riscv-gcc/libgcc/soft-fp/subdf3.c:47 (discriminator 43)
80004d9c:	e489                	bnez	s1,80004da6 <__subdf3+0x878>
/Local/xl_ci/toolchain/riscv-gnu-toolchain/riscv-gcc/libgcc/soft-fp/subdf3.c:47 (discriminator 55)
80004d9e:	00878693          	addi	a3,a5,8 # ff800008 <_sp+0x6f7c0008>
80004da2:	be61                	j	8000493a <__subdf3+0x40c>
/Local/xl_ci/toolchain/riscv-gnu-toolchain/riscv-gcc/libgcc/soft-fp/subdf3.c:47 (discriminator 42)
80004da4:	fced                	bnez	s1,80004d9e <__subdf3+0x870>
/Local/xl_ci/toolchain/riscv-gnu-toolchain/riscv-gcc/libgcc/soft-fp/subdf3.c:47
80004da6:	a4059fe3          	bnez	a1,80004804 <__subdf3+0x2d6>
80004daa:	bc65                	j	80004862 <__subdf3+0x334>
/Local/xl_ci/toolchain/riscv-gnu-toolchain/riscv-gcc/libgcc/soft-fp/subdf3.c:47 (discriminator 65)
80004dac:	4781                	li	a5,0
80004dae:	00098e63          	beqz	s3,80004dca <__subdf3+0x89c>
/Local/xl_ci/toolchain/riscv-gnu-toolchain/riscv-gcc/libgcc/soft-fp/subdf3.c:47 (discriminator 68)
80004db2:	470d                	li	a4,3
80004db4:	00e99763          	bne	s3,a4,80004dc2 <__subdf3+0x894>
/Local/xl_ci/toolchain/riscv-gnu-toolchain/riscv-gcc/libgcc/soft-fp/subdf3.c:47 (discriminator 69)
80004db8:	c889                	beqz	s1,80004dca <__subdf3+0x89c>
/Local/xl_ci/toolchain/riscv-gnu-toolchain/riscv-gcc/libgcc/soft-fp/subdf3.c:47
80004dba:	57fd                	li	a5,-1
80004dbc:	7fe00613          	li	a2,2046
80004dc0:	a029                	j	80004dca <__subdf3+0x89c>
/Local/xl_ci/toolchain/riscv-gnu-toolchain/riscv-gcc/libgcc/soft-fp/subdf3.c:47 (discriminator 72)
80004dc2:	4709                	li	a4,2
80004dc4:	fee99be3          	bne	s3,a4,80004dba <__subdf3+0x88c>
/Local/xl_ci/toolchain/riscv-gnu-toolchain/riscv-gcc/libgcc/soft-fp/subdf3.c:47 (discriminator 73)
80004dc8:	d8ed                	beqz	s1,80004dba <__subdf3+0x88c>
/Local/xl_ci/toolchain/riscv-gnu-toolchain/riscv-gcc/libgcc/soft-fp/subdf3.c:47 (discriminator 78)
80004dca:	00546413          	ori	s0,s0,5
80004dce:	873e                	mv	a4,a5
80004dd0:	b475                	j	8000487c <__subdf3+0x34e>
/Local/xl_ci/toolchain/riscv-gnu-toolchain/riscv-gcc/libgcc/soft-fp/subdf3.c:46
80004dd2:	e48587e3          	beq	a1,s0,80004c20 <__subdf3+0x6f2>
/Local/xl_ci/toolchain/riscv-gnu-toolchain/riscv-gcc/libgcc/soft-fp/subdf3.c:37
80004dd6:	4401                	li	s0,0
80004dd8:	bd35                	j	80004c14 <__subdf3+0x6e6>
/Local/xl_ci/toolchain/riscv-gnu-toolchain/riscv-gcc/libgcc/soft-fp/subdf3.c:46
80004dda:	a68589e3          	beq	a1,s0,8000484c <__subdf3+0x31e>
80004dde:	4401                	li	s0,0
80004de0:	b485                	j	80004840 <__subdf3+0x312>

80004de2 <__unorddf2>:
__unorddf2():
/Local/xl_ci/toolchain/riscv-gnu-toolchain/riscv-gcc/libgcc/soft-fp/unorddf2.c:35
80004de2:	872a                	mv	a4,a0
/Local/xl_ci/toolchain/riscv-gnu-toolchain/riscv-gcc/libgcc/soft-fp/unorddf2.c:41
80004de4:	002027f3          	frrm	a5
/Local/xl_ci/toolchain/riscv-gnu-toolchain/riscv-gcc/libgcc/soft-fp/unorddf2.c:42
80004de8:	001007b7          	lui	a5,0x100
80004dec:	17fd                	addi	a5,a5,-1
80004dee:	00b7f833          	and	a6,a5,a1
80004df2:	81d1                	srli	a1,a1,0x14
/Local/xl_ci/toolchain/riscv-gnu-toolchain/riscv-gcc/libgcc/soft-fp/unorddf2.c:43
80004df4:	8ff5                	and	a5,a5,a3
/Local/xl_ci/toolchain/riscv-gnu-toolchain/riscv-gcc/libgcc/soft-fp/unorddf2.c:42
80004df6:	7ff5f593          	andi	a1,a1,2047
/Local/xl_ci/toolchain/riscv-gnu-toolchain/riscv-gcc/libgcc/soft-fp/unorddf2.c:43
80004dfa:	82d1                	srli	a3,a3,0x14
/Local/xl_ci/toolchain/riscv-gnu-toolchain/riscv-gcc/libgcc/soft-fp/unorddf2.c:44
80004dfc:	7ff00513          	li	a0,2047
/Local/xl_ci/toolchain/riscv-gnu-toolchain/riscv-gcc/libgcc/soft-fp/unorddf2.c:43
80004e00:	7ff6f693          	andi	a3,a3,2047
/Local/xl_ci/toolchain/riscv-gnu-toolchain/riscv-gcc/libgcc/soft-fp/unorddf2.c:44
80004e04:	00a59563          	bne	a1,a0,80004e0e <__unorddf2+0x2c>
/Local/xl_ci/toolchain/riscv-gnu-toolchain/riscv-gcc/libgcc/soft-fp/unorddf2.c:44 (discriminator 20)
80004e08:	00e86533          	or	a0,a6,a4
80004e0c:	e105                	bnez	a0,80004e2c <__unorddf2+0x4a>
/Local/xl_ci/toolchain/riscv-gnu-toolchain/riscv-gcc/libgcc/soft-fp/unorddf2.c:44 (discriminator 23)
80004e0e:	7ff00893          	li	a7,2047
80004e12:	4501                	li	a0,0
80004e14:	05169363          	bne	a3,a7,80004e5a <__unorddf2+0x78>
/Local/xl_ci/toolchain/riscv-gnu-toolchain/riscv-gcc/libgcc/soft-fp/unorddf2.c:44 (discriminator 24)
80004e18:	00c7e8b3          	or	a7,a5,a2
80004e1c:	00089363          	bnez	a7,80004e22 <__unorddf2+0x40>
80004e20:	8082                	ret
/Local/xl_ci/toolchain/riscv-gnu-toolchain/riscv-gcc/libgcc/soft-fp/unorddf2.c:44
80004e22:	02d59363          	bne	a1,a3,80004e48 <__unorddf2+0x66>
/Local/xl_ci/toolchain/riscv-gnu-toolchain/riscv-gcc/libgcc/soft-fp/unorddf2.c:44 (discriminator 56)
80004e26:	00e86733          	or	a4,a6,a4
80004e2a:	cf01                	beqz	a4,80004e42 <__unorddf2+0x60>
/Local/xl_ci/toolchain/riscv-gnu-toolchain/riscv-gcc/libgcc/soft-fp/unorddf2.c:44 (discriminator 58)
80004e2c:	00080737          	lui	a4,0x80
80004e30:	00e87833          	and	a6,a6,a4
80004e34:	00080f63          	beqz	a6,80004e52 <__unorddf2+0x70>
/Local/xl_ci/toolchain/riscv-gnu-toolchain/riscv-gcc/libgcc/soft-fp/unorddf2.c:44 (discriminator 64)
80004e38:	7ff00713          	li	a4,2047
80004e3c:	4505                	li	a0,1
80004e3e:	00e69e63          	bne	a3,a4,80004e5a <__unorddf2+0x78>
/Local/xl_ci/toolchain/riscv-gnu-toolchain/riscv-gcc/libgcc/soft-fp/unorddf2.c:44 (discriminator 65)
80004e42:	8e5d                	or	a2,a2,a5
80004e44:	4505                	li	a0,1
80004e46:	ca11                	beqz	a2,80004e5a <__unorddf2+0x78>
/Local/xl_ci/toolchain/riscv-gnu-toolchain/riscv-gcc/libgcc/soft-fp/unorddf2.c:44 (discriminator 67)
80004e48:	00080737          	lui	a4,0x80
80004e4c:	8ff9                	and	a5,a5,a4
80004e4e:	4505                	li	a0,1
80004e50:	e789                	bnez	a5,80004e5a <__unorddf2+0x78>
/Local/xl_ci/toolchain/riscv-gnu-toolchain/riscv-gcc/libgcc/soft-fp/unorddf2.c:45 (discriminator 1)
80004e52:	00186073          	csrsi	fflags,16
80004e56:	4505                	li	a0,1
80004e58:	8082                	ret
/Local/xl_ci/toolchain/riscv-gnu-toolchain/riscv-gcc/libgcc/soft-fp/unorddf2.c:48
80004e5a:	8082                	ret

80004e5c <__floatsidf>:
__floatsidf():
/Local/xl_ci/toolchain/riscv-gnu-toolchain/riscv-gcc/libgcc/soft-fp/floatsidf.c:37
80004e5c:	1141                	addi	sp,sp,-16
80004e5e:	c606                	sw	ra,12(sp)
80004e60:	c422                	sw	s0,8(sp)
80004e62:	c226                	sw	s1,4(sp)
/Local/xl_ci/toolchain/riscv-gnu-toolchain/riscv-gcc/libgcc/soft-fp/floatsidf.c:41
80004e64:	cd21                	beqz	a0,80004ebc <__floatsidf+0x60>
/Local/xl_ci/toolchain/riscv-gnu-toolchain/riscv-gcc/libgcc/soft-fp/floatsidf.c:41 (discriminator 1)
80004e66:	41f55793          	srai	a5,a0,0x1f
80004e6a:	00a7c433          	xor	s0,a5,a0
80004e6e:	8c1d                	sub	s0,s0,a5
80004e70:	01f55493          	srli	s1,a0,0x1f
80004e74:	8522                	mv	a0,s0
80004e76:	262d                	jal	800051a0 <__clzsi2>
80004e78:	41e00713          	li	a4,1054
80004e7c:	47a9                	li	a5,10
80004e7e:	8f09                	sub	a4,a4,a0
80004e80:	02a7c863          	blt	a5,a0,80004eb0 <__floatsidf+0x54>
/Local/xl_ci/toolchain/riscv-gnu-toolchain/riscv-gcc/libgcc/soft-fp/floatsidf.c:41 (discriminator 23)
80004e84:	47ad                	li	a5,11
80004e86:	8f89                	sub	a5,a5,a0
80004e88:	0555                	addi	a0,a0,21
80004e8a:	00f457b3          	srl	a5,s0,a5
80004e8e:	00a41433          	sll	s0,s0,a0
80004e92:	8526                	mv	a0,s1
/Local/xl_ci/toolchain/riscv-gnu-toolchain/riscv-gcc/libgcc/soft-fp/floatsidf.c:42 (discriminator 126)
80004e94:	07b2                	slli	a5,a5,0xc
80004e96:	0752                	slli	a4,a4,0x14
80004e98:	83b1                	srli	a5,a5,0xc
80004e9a:	057e                	slli	a0,a0,0x1f
80004e9c:	8fd9                	or	a5,a5,a4
/Local/xl_ci/toolchain/riscv-gnu-toolchain/riscv-gcc/libgcc/soft-fp/floatsidf.c:45 (discriminator 126)
80004e9e:	40b2                	lw	ra,12(sp)
/Local/xl_ci/toolchain/riscv-gnu-toolchain/riscv-gcc/libgcc/soft-fp/floatsidf.c:42 (discriminator 126)
80004ea0:	00a7e733          	or	a4,a5,a0
/Local/xl_ci/toolchain/riscv-gnu-toolchain/riscv-gcc/libgcc/soft-fp/floatsidf.c:45 (discriminator 126)
80004ea4:	8522                	mv	a0,s0
80004ea6:	4422                	lw	s0,8(sp)
80004ea8:	4492                	lw	s1,4(sp)
80004eaa:	85ba                	mv	a1,a4
80004eac:	0141                	addi	sp,sp,16
80004eae:	8082                	ret
/Local/xl_ci/toolchain/riscv-gnu-toolchain/riscv-gcc/libgcc/soft-fp/floatsidf.c:41 (discriminator 24)
80004eb0:	1555                	addi	a0,a0,-11
80004eb2:	00a417b3          	sll	a5,s0,a0
80004eb6:	8526                	mv	a0,s1
/Local/xl_ci/toolchain/riscv-gnu-toolchain/riscv-gcc/libgcc/soft-fp/floatsidf.c:41
80004eb8:	4401                	li	s0,0
80004eba:	bfe9                	j	80004e94 <__floatsidf+0x38>
80004ebc:	4701                	li	a4,0
80004ebe:	4781                	li	a5,0
80004ec0:	bfe5                	j	80004eb8 <__floatsidf+0x5c>

80004ec2 <__extendsfdf2>:
__extendsfdf2():
/Local/xl_ci/toolchain/riscv-gnu-toolchain/riscv-gcc/libgcc/soft-fp/extendsfdf2.c:38
80004ec2:	1141                	addi	sp,sp,-16
80004ec4:	e00507d3          	fmv.x.w	a5,fa0
80004ec8:	c606                	sw	ra,12(sp)
80004eca:	c422                	sw	s0,8(sp)
80004ecc:	c226                	sw	s1,4(sp)
80004ece:	c04a                	sw	s2,0(sp)
/Local/xl_ci/toolchain/riscv-gnu-toolchain/riscv-gcc/libgcc/soft-fp/extendsfdf2.c:44
80004ed0:	00202773          	frrm	a4
/Local/xl_ci/toolchain/riscv-gnu-toolchain/riscv-gcc/libgcc/soft-fp/extendsfdf2.c:45
80004ed4:	0177d493          	srli	s1,a5,0x17
80004ed8:	0ff4f493          	zext.b	s1,s1
/Local/xl_ci/toolchain/riscv-gnu-toolchain/riscv-gcc/libgcc/soft-fp/extendsfdf2.c:47
80004edc:	00148713          	addi	a4,s1,1
/Local/xl_ci/toolchain/riscv-gnu-toolchain/riscv-gcc/libgcc/soft-fp/extendsfdf2.c:45
80004ee0:	00979413          	slli	s0,a5,0x9
/Local/xl_ci/toolchain/riscv-gnu-toolchain/riscv-gcc/libgcc/soft-fp/extendsfdf2.c:47
80004ee4:	0fe77713          	andi	a4,a4,254
/Local/xl_ci/toolchain/riscv-gnu-toolchain/riscv-gcc/libgcc/soft-fp/extendsfdf2.c:45
80004ee8:	8025                	srli	s0,s0,0x9
80004eea:	01f7d913          	srli	s2,a5,0x1f
/Local/xl_ci/toolchain/riscv-gnu-toolchain/riscv-gcc/libgcc/soft-fp/extendsfdf2.c:47
80004eee:	cb0d                	beqz	a4,80004f20 <__extendsfdf2+0x5e>
/Local/xl_ci/toolchain/riscv-gnu-toolchain/riscv-gcc/libgcc/soft-fp/extendsfdf2.c:47 (discriminator 1)
80004ef0:	38048513          	addi	a0,s1,896
80004ef4:	00345793          	srli	a5,s0,0x3
/Local/xl_ci/toolchain/riscv-gnu-toolchain/riscv-gcc/libgcc/soft-fp/extendsfdf2.c:39 (discriminator 1)
80004ef8:	4481                	li	s1,0
/Local/xl_ci/toolchain/riscv-gnu-toolchain/riscv-gcc/libgcc/soft-fp/extendsfdf2.c:47 (discriminator 1)
80004efa:	0476                	slli	s0,s0,0x1d
/Local/xl_ci/toolchain/riscv-gnu-toolchain/riscv-gcc/libgcc/soft-fp/extendsfdf2.c:51 (discriminator 53)
80004efc:	07b2                	slli	a5,a5,0xc
80004efe:	0552                	slli	a0,a0,0x14
80004f00:	83b1                	srli	a5,a5,0xc
80004f02:	8fc9                	or	a5,a5,a0
80004f04:	097e                	slli	s2,s2,0x1f
80004f06:	0127e733          	or	a4,a5,s2
80004f0a:	8522                	mv	a0,s0
80004f0c:	85ba                	mv	a1,a4
/Local/xl_ci/toolchain/riscv-gnu-toolchain/riscv-gcc/libgcc/soft-fp/extendsfdf2.c:52 (discriminator 53)
80004f0e:	c099                	beqz	s1,80004f14 <__extendsfdf2+0x52>
/Local/xl_ci/toolchain/riscv-gnu-toolchain/riscv-gcc/libgcc/soft-fp/extendsfdf2.c:52 (discriminator 1)
80004f10:	0014a073          	csrs	fflags,s1
/Local/xl_ci/toolchain/riscv-gnu-toolchain/riscv-gcc/libgcc/soft-fp/extendsfdf2.c:55
80004f14:	40b2                	lw	ra,12(sp)
80004f16:	4422                	lw	s0,8(sp)
80004f18:	4492                	lw	s1,4(sp)
80004f1a:	4902                	lw	s2,0(sp)
80004f1c:	0141                	addi	sp,sp,16
80004f1e:	8082                	ret
/Local/xl_ci/toolchain/riscv-gnu-toolchain/riscv-gcc/libgcc/soft-fp/extendsfdf2.c:47 (discriminator 2)
80004f20:	e895                	bnez	s1,80004f54 <__extendsfdf2+0x92>
/Local/xl_ci/toolchain/riscv-gnu-toolchain/riscv-gcc/libgcc/soft-fp/extendsfdf2.c:47 (discriminator 12)
80004f22:	c829                	beqz	s0,80004f74 <__extendsfdf2+0xb2>
/Local/xl_ci/toolchain/riscv-gnu-toolchain/riscv-gcc/libgcc/soft-fp/extendsfdf2.c:47 (discriminator 16)
80004f24:	8522                	mv	a0,s0
80004f26:	2cad                	jal	800051a0 <__clzsi2>
80004f28:	47a9                	li	a5,10
80004f2a:	00a7cf63          	blt	a5,a0,80004f48 <__extendsfdf2+0x86>
/Local/xl_ci/toolchain/riscv-gnu-toolchain/riscv-gcc/libgcc/soft-fp/extendsfdf2.c:47 (discriminator 29)
80004f2e:	47ad                	li	a5,11
80004f30:	8f89                	sub	a5,a5,a0
80004f32:	01550713          	addi	a4,a0,21
80004f36:	00f457b3          	srl	a5,s0,a5
80004f3a:	00e41433          	sll	s0,s0,a4
/Local/xl_ci/toolchain/riscv-gnu-toolchain/riscv-gcc/libgcc/soft-fp/extendsfdf2.c:47 (discriminator 38)
80004f3e:	38900713          	li	a4,905
80004f42:	40a70533          	sub	a0,a4,a0
80004f46:	bf5d                	j	80004efc <__extendsfdf2+0x3a>
/Local/xl_ci/toolchain/riscv-gnu-toolchain/riscv-gcc/libgcc/soft-fp/extendsfdf2.c:47 (discriminator 30)
80004f48:	ff550793          	addi	a5,a0,-11
80004f4c:	00f417b3          	sll	a5,s0,a5
80004f50:	4401                	li	s0,0
80004f52:	b7f5                	j	80004f3e <__extendsfdf2+0x7c>
/Local/xl_ci/toolchain/riscv-gnu-toolchain/riscv-gcc/libgcc/soft-fp/extendsfdf2.c:47 (discriminator 9)
80004f54:	c01d                	beqz	s0,80004f7a <__extendsfdf2+0xb8>
/Local/xl_ci/toolchain/riscv-gnu-toolchain/riscv-gcc/libgcc/soft-fp/extendsfdf2.c:47 (discriminator 39)
80004f56:	004007b7          	lui	a5,0x400
80004f5a:	8fe1                	and	a5,a5,s0
80004f5c:	e391                	bnez	a5,80004f60 <__extendsfdf2+0x9e>
/Local/xl_ci/toolchain/riscv-gnu-toolchain/riscv-gcc/libgcc/soft-fp/extendsfdf2.c:47
80004f5e:	4741                	li	a4,16
/Local/xl_ci/toolchain/riscv-gnu-toolchain/riscv-gcc/libgcc/soft-fp/extendsfdf2.c:47 (discriminator 45)
80004f60:	00345793          	srli	a5,s0,0x3
80004f64:	000806b7          	lui	a3,0x80
80004f68:	0476                	slli	s0,s0,0x1d
80004f6a:	8fd5                	or	a5,a5,a3
80004f6c:	84ba                	mv	s1,a4
/Local/xl_ci/toolchain/riscv-gnu-toolchain/riscv-gcc/libgcc/soft-fp/extendsfdf2.c:47
80004f6e:	7ff00513          	li	a0,2047
80004f72:	b769                	j	80004efc <__extendsfdf2+0x3a>
80004f74:	4781                	li	a5,0
80004f76:	4501                	li	a0,0
80004f78:	b751                	j	80004efc <__extendsfdf2+0x3a>
80004f7a:	4781                	li	a5,0
/Local/xl_ci/toolchain/riscv-gnu-toolchain/riscv-gcc/libgcc/soft-fp/extendsfdf2.c:39
80004f7c:	4481                	li	s1,0
80004f7e:	bfc5                	j	80004f6e <__extendsfdf2+0xac>

80004f80 <__truncdfsf2>:
__truncdfsf2():
/Local/xl_ci/toolchain/riscv-gnu-toolchain/riscv-gcc/libgcc/soft-fp/truncdfsf2.c:43
80004f80:	00202873          	frrm	a6
/Local/xl_ci/toolchain/riscv-gnu-toolchain/riscv-gcc/libgcc/soft-fp/truncdfsf2.c:44
80004f84:	0145d713          	srli	a4,a1,0x14
80004f88:	7ff77893          	andi	a7,a4,2047
80004f8c:	00c59793          	slli	a5,a1,0xc
/Local/xl_ci/toolchain/riscv-gnu-toolchain/riscv-gcc/libgcc/soft-fp/truncdfsf2.c:46
80004f90:	00188713          	addi	a4,a7,1
/Local/xl_ci/toolchain/riscv-gnu-toolchain/riscv-gcc/libgcc/soft-fp/truncdfsf2.c:44
80004f94:	83a5                	srli	a5,a5,0x9
80004f96:	01d55693          	srli	a3,a0,0x1d
/Local/xl_ci/toolchain/riscv-gnu-toolchain/riscv-gcc/libgcc/soft-fp/truncdfsf2.c:46
80004f9a:	7fe77713          	andi	a4,a4,2046
/Local/xl_ci/toolchain/riscv-gnu-toolchain/riscv-gcc/libgcc/soft-fp/truncdfsf2.c:44
80004f9e:	8edd                	or	a3,a3,a5
80004fa0:	81fd                	srli	a1,a1,0x1f
80004fa2:	00351793          	slli	a5,a0,0x3
/Local/xl_ci/toolchain/riscv-gnu-toolchain/riscv-gcc/libgcc/soft-fp/truncdfsf2.c:46
80004fa6:	10070d63          	beqz	a4,800050c0 <__truncdfsf2+0x140>
/Local/xl_ci/toolchain/riscv-gnu-toolchain/riscv-gcc/libgcc/soft-fp/truncdfsf2.c:46 (discriminator 1)
80004faa:	c8088613          	addi	a2,a7,-896
80004fae:	0fe00713          	li	a4,254
80004fb2:	04c75d63          	bge	a4,a2,8000500c <__truncdfsf2+0x8c>
/Local/xl_ci/toolchain/riscv-gnu-toolchain/riscv-gcc/libgcc/soft-fp/truncdfsf2.c:46 (discriminator 3)
80004fb6:	14080b63          	beqz	a6,8000510c <__truncdfsf2+0x18c>
/Local/xl_ci/toolchain/riscv-gnu-toolchain/riscv-gcc/libgcc/soft-fp/truncdfsf2.c:46 (discriminator 6)
80004fba:	478d                	li	a5,3
80004fbc:	00f81963          	bne	a6,a5,80004fce <__truncdfsf2+0x4e>
/Local/xl_ci/toolchain/riscv-gnu-toolchain/riscv-gcc/libgcc/soft-fp/truncdfsf2.c:46 (discriminator 7)
80004fc0:	14058663          	beqz	a1,8000510c <__truncdfsf2+0x18c>
/Local/xl_ci/toolchain/riscv-gnu-toolchain/riscv-gcc/libgcc/soft-fp/truncdfsf2.c:46
80004fc4:	57fd                	li	a5,-1
80004fc6:	0fe00613          	li	a2,254
/Local/xl_ci/toolchain/riscv-gnu-toolchain/riscv-gcc/libgcc/soft-fp/truncdfsf2.c:50
80004fca:	4701                	li	a4,0
80004fcc:	a811                	j	80004fe0 <__truncdfsf2+0x60>
/Local/xl_ci/toolchain/riscv-gnu-toolchain/riscv-gcc/libgcc/soft-fp/truncdfsf2.c:46 (discriminator 10)
80004fce:	4789                	li	a5,2
80004fd0:	fef81ae3          	bne	a6,a5,80004fc4 <__truncdfsf2+0x44>
/Local/xl_ci/toolchain/riscv-gnu-toolchain/riscv-gcc/libgcc/soft-fp/truncdfsf2.c:46 (discriminator 11)
80004fd4:	12059c63          	bnez	a1,8000510c <__truncdfsf2+0x18c>
/Local/xl_ci/toolchain/riscv-gnu-toolchain/riscv-gcc/libgcc/soft-fp/truncdfsf2.c:50
80004fd8:	4701                	li	a4,0
/Local/xl_ci/toolchain/riscv-gnu-toolchain/riscv-gcc/libgcc/soft-fp/truncdfsf2.c:46
80004fda:	57fd                	li	a5,-1
80004fdc:	0fe00613          	li	a2,254
80004fe0:	4895                	li	a7,5
/Local/xl_ci/toolchain/riscv-gnu-toolchain/riscv-gcc/libgcc/soft-fp/truncdfsf2.c:50 (discriminator 37)
80004fe2:	4689                	li	a3,2
80004fe4:	0018e893          	ori	a7,a7,1
80004fe8:	18d80763          	beq	a6,a3,80005176 <__truncdfsf2+0x1f6>
/Local/xl_ci/toolchain/riscv-gnu-toolchain/riscv-gcc/libgcc/soft-fp/truncdfsf2.c:50
80004fec:	468d                	li	a3,3
80004fee:	18d80063          	beq	a6,a3,8000516e <__truncdfsf2+0x1ee>
80004ff2:	00081863          	bnez	a6,80005002 <__truncdfsf2+0x82>
/Local/xl_ci/toolchain/riscv-gnu-toolchain/riscv-gcc/libgcc/soft-fp/truncdfsf2.c:50 (discriminator 40)
80004ff6:	00f7f693          	andi	a3,a5,15
80004ffa:	4511                	li	a0,4
80004ffc:	00a68363          	beq	a3,a0,80005002 <__truncdfsf2+0x82>
/Local/xl_ci/toolchain/riscv-gnu-toolchain/riscv-gcc/libgcc/soft-fp/truncdfsf2.c:50 (discriminator 44)
80005000:	0791                	addi	a5,a5,4
/Local/xl_ci/toolchain/riscv-gnu-toolchain/riscv-gcc/libgcc/soft-fp/truncdfsf2.c:50 (discriminator 58)
80005002:	10070963          	beqz	a4,80005114 <__truncdfsf2+0x194>
/Local/xl_ci/toolchain/riscv-gnu-toolchain/riscv-gcc/libgcc/soft-fp/truncdfsf2.c:50 (discriminator 60)
80005006:	0028e893          	ori	a7,a7,2
8000500a:	a229                	j	80005114 <__truncdfsf2+0x194>
/Local/xl_ci/toolchain/riscv-gnu-toolchain/riscv-gcc/libgcc/soft-fp/truncdfsf2.c:46 (discriminator 4)
8000500c:	08c04a63          	bgtz	a2,800050a0 <__truncdfsf2+0x120>
/Local/xl_ci/toolchain/riscv-gnu-toolchain/riscv-gcc/libgcc/soft-fp/truncdfsf2.c:46 (discriminator 17)
80005010:	5725                	li	a4,-23
80005012:	0ae64c63          	blt	a2,a4,800050ca <__truncdfsf2+0x14a>
/Local/xl_ci/toolchain/riscv-gnu-toolchain/riscv-gcc/libgcc/soft-fp/truncdfsf2.c:46 (discriminator 20)
80005016:	00800737          	lui	a4,0x800
8000501a:	4579                	li	a0,30
8000501c:	8ed9                	or	a3,a3,a4
8000501e:	8d11                	sub	a0,a0,a2
80005020:	477d                	li	a4,31
80005022:	04a74c63          	blt	a4,a0,8000507a <__truncdfsf2+0xfa>
/Local/xl_ci/toolchain/riscv-gnu-toolchain/riscv-gcc/libgcc/soft-fp/truncdfsf2.c:46 (discriminator 22)
80005026:	c8288713          	addi	a4,a7,-894
8000502a:	00a7d533          	srl	a0,a5,a0
8000502e:	00e797b3          	sll	a5,a5,a4
80005032:	00f037b3          	snez	a5,a5
80005036:	00e696b3          	sll	a3,a3,a4
8000503a:	8edd                	or	a3,a3,a5
8000503c:	00d567b3          	or	a5,a0,a3
/Local/xl_ci/toolchain/riscv-gnu-toolchain/riscv-gcc/libgcc/soft-fp/truncdfsf2.c:50 (discriminator 1)
80005040:	12078463          	beqz	a5,80005168 <__truncdfsf2+0x1e8>
/Local/xl_ci/toolchain/riscv-gnu-toolchain/riscv-gcc/libgcc/soft-fp/truncdfsf2.c:50
80005044:	00179713          	slli	a4,a5,0x1
80005048:	00777693          	andi	a3,a4,7
8000504c:	4881                	li	a7,0
8000504e:	c285                	beqz	a3,8000506e <__truncdfsf2+0xee>
80005050:	4689                	li	a3,2
80005052:	0ad80863          	beq	a6,a3,80005102 <__truncdfsf2+0x182>
80005056:	468d                	li	a3,3
80005058:	0ad80063          	beq	a6,a3,800050f8 <__truncdfsf2+0x178>
8000505c:	4885                	li	a7,1
8000505e:	00081863          	bnez	a6,8000506e <__truncdfsf2+0xee>
/Local/xl_ci/toolchain/riscv-gnu-toolchain/riscv-gcc/libgcc/soft-fp/truncdfsf2.c:50 (discriminator 16)
80005062:	00f77693          	andi	a3,a4,15
80005066:	4611                	li	a2,4
80005068:	00c68363          	beq	a3,a2,8000506e <__truncdfsf2+0xee>
/Local/xl_ci/toolchain/riscv-gnu-toolchain/riscv-gcc/libgcc/soft-fp/truncdfsf2.c:50 (discriminator 20)
8000506c:	0711                	addi	a4,a4,4
/Local/xl_ci/toolchain/riscv-gnu-toolchain/riscv-gcc/libgcc/soft-fp/truncdfsf2.c:50 (discriminator 23)
8000506e:	836d                	srli	a4,a4,0x1b
80005070:	00174713          	xori	a4,a4,1
80005074:	8b05                	andi	a4,a4,1
80005076:	4601                	li	a2,0
80005078:	a82d                	j	800050b2 <__truncdfsf2+0x132>
/Local/xl_ci/toolchain/riscv-gnu-toolchain/riscv-gcc/libgcc/soft-fp/truncdfsf2.c:46 (discriminator 23)
8000507a:	5779                	li	a4,-2
8000507c:	40c70633          	sub	a2,a4,a2
80005080:	02000313          	li	t1,32
80005084:	00c6d633          	srl	a2,a3,a2
80005088:	4701                	li	a4,0
8000508a:	00650663          	beq	a0,t1,80005096 <__truncdfsf2+0x116>
/Local/xl_ci/toolchain/riscv-gnu-toolchain/riscv-gcc/libgcc/soft-fp/truncdfsf2.c:46 (discriminator 31)
8000508e:	ca288713          	addi	a4,a7,-862
80005092:	00e69733          	sll	a4,a3,a4
/Local/xl_ci/toolchain/riscv-gnu-toolchain/riscv-gcc/libgcc/soft-fp/truncdfsf2.c:46 (discriminator 34)
80005096:	8fd9                	or	a5,a5,a4
80005098:	00f037b3          	snez	a5,a5
8000509c:	8fd1                	or	a5,a5,a2
8000509e:	b74d                	j	80005040 <__truncdfsf2+0xc0>
/Local/xl_ci/toolchain/riscv-gnu-toolchain/riscv-gcc/libgcc/soft-fp/truncdfsf2.c:46 (discriminator 18)
800050a0:	051a                	slli	a0,a0,0x6
800050a2:	00a03533          	snez	a0,a0
800050a6:	068e                	slli	a3,a3,0x3
800050a8:	83f5                	srli	a5,a5,0x1d
800050aa:	8ec9                	or	a3,a3,a0
800050ac:	8fd5                	or	a5,a5,a3
/Local/xl_ci/toolchain/riscv-gnu-toolchain/riscv-gcc/libgcc/soft-fp/truncdfsf2.c:50 (discriminator 18)
800050ae:	4701                	li	a4,0
/Local/xl_ci/toolchain/riscv-gnu-toolchain/riscv-gcc/libgcc/soft-fp/truncdfsf2.c:38 (discriminator 18)
800050b0:	4881                	li	a7,0
/Local/xl_ci/toolchain/riscv-gnu-toolchain/riscv-gcc/libgcc/soft-fp/truncdfsf2.c:50 (discriminator 36)
800050b2:	0077f693          	andi	a3,a5,7
800050b6:	f695                	bnez	a3,80004fe2 <__truncdfsf2+0x62>
/Local/xl_ci/toolchain/riscv-gnu-toolchain/riscv-gcc/libgcc/soft-fp/truncdfsf2.c:50 (discriminator 47)
800050b8:	cf31                	beqz	a4,80005114 <__truncdfsf2+0x194>
/Local/xl_ci/toolchain/riscv-gnu-toolchain/riscv-gcc/libgcc/soft-fp/truncdfsf2.c:50 (discriminator 58)
800050ba:	0018f713          	andi	a4,a7,1
800050be:	b791                	j	80005002 <__truncdfsf2+0x82>
/Local/xl_ci/toolchain/riscv-gnu-toolchain/riscv-gcc/libgcc/soft-fp/truncdfsf2.c:46 (discriminator 2)
800050c0:	8fd5                	or	a5,a5,a3
800050c2:	00089663          	bnez	a7,800050ce <__truncdfsf2+0x14e>
/Local/xl_ci/toolchain/riscv-gnu-toolchain/riscv-gcc/libgcc/soft-fp/truncdfsf2.c:50 (discriminator 42)
800050c6:	4601                	li	a2,0
800050c8:	c7b1                	beqz	a5,80005114 <__truncdfsf2+0x194>
/Local/xl_ci/toolchain/riscv-gnu-toolchain/riscv-gcc/libgcc/soft-fp/truncdfsf2.c:46
800050ca:	4785                	li	a5,1
800050cc:	bfa5                	j	80005044 <__truncdfsf2+0xc4>
/Local/xl_ci/toolchain/riscv-gnu-toolchain/riscv-gcc/libgcc/soft-fp/truncdfsf2.c:46 (discriminator 39)
800050ce:	cbc9                	beqz	a5,80005160 <__truncdfsf2+0x1e0>
/Local/xl_ci/toolchain/riscv-gnu-toolchain/riscv-gcc/libgcc/soft-fp/truncdfsf2.c:46 (discriminator 48)
800050d0:	7ff00793          	li	a5,2047
800050d4:	02f89063          	bne	a7,a5,800050f4 <__truncdfsf2+0x174>
/Local/xl_ci/toolchain/riscv-gnu-toolchain/riscv-gcc/libgcc/soft-fp/truncdfsf2.c:46 (discriminator 52)
800050d8:	004008b7          	lui	a7,0x400
800050dc:	0116f8b3          	and	a7,a3,a7
/Local/xl_ci/toolchain/riscv-gnu-toolchain/riscv-gcc/libgcc/soft-fp/truncdfsf2.c:38 (discriminator 52)
800050e0:	0018b893          	seqz	a7,a7
800050e4:	0892                	slli	a7,a7,0x4
/Local/xl_ci/toolchain/riscv-gnu-toolchain/riscv-gcc/libgcc/soft-fp/truncdfsf2.c:46 (discriminator 56)
800050e6:	068e                	slli	a3,a3,0x3
800050e8:	020007b7          	lui	a5,0x2000
800050ec:	8fd5                	or	a5,a5,a3
800050ee:	0ff00613          	li	a2,255
800050f2:	b7c1                	j	800050b2 <__truncdfsf2+0x132>
/Local/xl_ci/toolchain/riscv-gnu-toolchain/riscv-gcc/libgcc/soft-fp/truncdfsf2.c:38
800050f4:	4881                	li	a7,0
800050f6:	bfc5                	j	800050e6 <__truncdfsf2+0x166>
/Local/xl_ci/toolchain/riscv-gnu-toolchain/riscv-gcc/libgcc/soft-fp/truncdfsf2.c:50 (discriminator 19)
800050f8:	88ae                	mv	a7,a1
800050fa:	f9b5                	bnez	a1,8000506e <__truncdfsf2+0xee>
/Local/xl_ci/toolchain/riscv-gnu-toolchain/riscv-gcc/libgcc/soft-fp/truncdfsf2.c:50 (discriminator 26)
800050fc:	0721                	addi	a4,a4,8
800050fe:	4885                	li	a7,1
80005100:	b7bd                	j	8000506e <__truncdfsf2+0xee>
/Local/xl_ci/toolchain/riscv-gnu-toolchain/riscv-gcc/libgcc/soft-fp/truncdfsf2.c:50 (discriminator 18)
80005102:	4885                	li	a7,1
80005104:	d5ad                	beqz	a1,8000506e <__truncdfsf2+0xee>
/Local/xl_ci/toolchain/riscv-gnu-toolchain/riscv-gcc/libgcc/soft-fp/truncdfsf2.c:50 (discriminator 31)
80005106:	0721                	addi	a4,a4,8
80005108:	88ae                	mv	a7,a1
8000510a:	b795                	j	8000506e <__truncdfsf2+0xee>
/Local/xl_ci/toolchain/riscv-gnu-toolchain/riscv-gcc/libgcc/soft-fp/truncdfsf2.c:46
8000510c:	4781                	li	a5,0
8000510e:	0ff00613          	li	a2,255
80005112:	4895                	li	a7,5
/Local/xl_ci/toolchain/riscv-gnu-toolchain/riscv-gcc/libgcc/soft-fp/truncdfsf2.c:50 (discriminator 62)
80005114:	04000737          	lui	a4,0x4000
80005118:	8f7d                	and	a4,a4,a5
8000511a:	cb11                	beqz	a4,8000512e <__truncdfsf2+0x1ae>
/Local/xl_ci/toolchain/riscv-gnu-toolchain/riscv-gcc/libgcc/soft-fp/truncdfsf2.c:50 (discriminator 63)
8000511c:	0605                	addi	a2,a2,1
8000511e:	0ff00713          	li	a4,255
80005122:	04e60d63          	beq	a2,a4,8000517c <__truncdfsf2+0x1fc>
/Local/xl_ci/toolchain/riscv-gnu-toolchain/riscv-gcc/libgcc/soft-fp/truncdfsf2.c:50
80005126:	fc000737          	lui	a4,0xfc000
8000512a:	177d                	addi	a4,a4,-1
8000512c:	8ff9                	and	a5,a5,a4
/Local/xl_ci/toolchain/riscv-gnu-toolchain/riscv-gcc/libgcc/soft-fp/truncdfsf2.c:50 (discriminator 79)
8000512e:	0ff00713          	li	a4,255
80005132:	838d                	srli	a5,a5,0x3
80005134:	00e61663          	bne	a2,a4,80005140 <__truncdfsf2+0x1c0>
/Local/xl_ci/toolchain/riscv-gnu-toolchain/riscv-gcc/libgcc/soft-fp/truncdfsf2.c:50 (discriminator 80)
80005138:	c781                	beqz	a5,80005140 <__truncdfsf2+0x1c0>
/Local/xl_ci/toolchain/riscv-gnu-toolchain/riscv-gcc/libgcc/soft-fp/truncdfsf2.c:50
8000513a:	004007b7          	lui	a5,0x400
8000513e:	4581                	li	a1,0
/Local/xl_ci/toolchain/riscv-gnu-toolchain/riscv-gcc/libgcc/soft-fp/truncdfsf2.c:50 (discriminator 90)
80005140:	065e                	slli	a2,a2,0x17
80005142:	7f800737          	lui	a4,0x7f800
80005146:	07a6                	slli	a5,a5,0x9
80005148:	8e79                	and	a2,a2,a4
8000514a:	83a5                	srli	a5,a5,0x9
8000514c:	8fd1                	or	a5,a5,a2
8000514e:	05fe                	slli	a1,a1,0x1f
80005150:	8fcd                	or	a5,a5,a1
/Local/xl_ci/toolchain/riscv-gnu-toolchain/riscv-gcc/libgcc/soft-fp/truncdfsf2.c:51 (discriminator 90)
80005152:	00088463          	beqz	a7,8000515a <__truncdfsf2+0x1da>
/Local/xl_ci/toolchain/riscv-gnu-toolchain/riscv-gcc/libgcc/soft-fp/truncdfsf2.c:51 (discriminator 1)
80005156:	0018a073          	csrs	fflags,a7
/Local/xl_ci/toolchain/riscv-gnu-toolchain/riscv-gcc/libgcc/soft-fp/truncdfsf2.c:54
8000515a:	f0078553          	fmv.w.x	fa0,a5
8000515e:	8082                	ret
/Local/xl_ci/toolchain/riscv-gnu-toolchain/riscv-gcc/libgcc/soft-fp/truncdfsf2.c:38
80005160:	4881                	li	a7,0
/Local/xl_ci/toolchain/riscv-gnu-toolchain/riscv-gcc/libgcc/soft-fp/truncdfsf2.c:46
80005162:	0ff00613          	li	a2,255
80005166:	b77d                	j	80005114 <__truncdfsf2+0x194>
80005168:	4601                	li	a2,0
8000516a:	4881                	li	a7,0
8000516c:	b765                	j	80005114 <__truncdfsf2+0x194>
/Local/xl_ci/toolchain/riscv-gnu-toolchain/riscv-gcc/libgcc/soft-fp/truncdfsf2.c:50 (discriminator 43)
8000516e:	e8059ae3          	bnez	a1,80005002 <__truncdfsf2+0x82>
/Local/xl_ci/toolchain/riscv-gnu-toolchain/riscv-gcc/libgcc/soft-fp/truncdfsf2.c:50 (discriminator 55)
80005172:	07a1                	addi	a5,a5,8
80005174:	b579                	j	80005002 <__truncdfsf2+0x82>
/Local/xl_ci/toolchain/riscv-gnu-toolchain/riscv-gcc/libgcc/soft-fp/truncdfsf2.c:50 (discriminator 42)
80005176:	e80586e3          	beqz	a1,80005002 <__truncdfsf2+0x82>
8000517a:	bfe5                	j	80005172 <__truncdfsf2+0x1f2>
/Local/xl_ci/toolchain/riscv-gnu-toolchain/riscv-gcc/libgcc/soft-fp/truncdfsf2.c:50 (discriminator 65)
8000517c:	4781                	li	a5,0
8000517e:	00080e63          	beqz	a6,8000519a <__truncdfsf2+0x21a>
/Local/xl_ci/toolchain/riscv-gnu-toolchain/riscv-gcc/libgcc/soft-fp/truncdfsf2.c:50 (discriminator 68)
80005182:	470d                	li	a4,3
80005184:	00e81763          	bne	a6,a4,80005192 <__truncdfsf2+0x212>
/Local/xl_ci/toolchain/riscv-gnu-toolchain/riscv-gcc/libgcc/soft-fp/truncdfsf2.c:50 (discriminator 69)
80005188:	c989                	beqz	a1,8000519a <__truncdfsf2+0x21a>
/Local/xl_ci/toolchain/riscv-gnu-toolchain/riscv-gcc/libgcc/soft-fp/truncdfsf2.c:50
8000518a:	57fd                	li	a5,-1
8000518c:	0fe00613          	li	a2,254
80005190:	a029                	j	8000519a <__truncdfsf2+0x21a>
/Local/xl_ci/toolchain/riscv-gnu-toolchain/riscv-gcc/libgcc/soft-fp/truncdfsf2.c:50 (discriminator 72)
80005192:	4709                	li	a4,2
80005194:	fee81be3          	bne	a6,a4,8000518a <__truncdfsf2+0x20a>
/Local/xl_ci/toolchain/riscv-gnu-toolchain/riscv-gcc/libgcc/soft-fp/truncdfsf2.c:50 (discriminator 73)
80005198:	d9ed                	beqz	a1,8000518a <__truncdfsf2+0x20a>
/Local/xl_ci/toolchain/riscv-gnu-toolchain/riscv-gcc/libgcc/soft-fp/truncdfsf2.c:50 (discriminator 78)
8000519a:	0058e893          	ori	a7,a7,5
8000519e:	bf41                	j	8000512e <__truncdfsf2+0x1ae>

800051a0 <__clzsi2>:
__clzsi2():
/Local/xl_ci/toolchain/riscv-gnu-toolchain/riscv-gcc/libgcc/libgcc2.c:710
800051a0:	67c1                	lui	a5,0x10
800051a2:	02f57663          	bgeu	a0,a5,800051ce <__clzsi2+0x2e>
/Local/xl_ci/toolchain/riscv-gnu-toolchain/riscv-gcc/libgcc/libgcc2.c:710 (discriminator 3)
800051a6:	0ff00793          	li	a5,255
800051aa:	00a7b7b3          	sltu	a5,a5,a0
800051ae:	078e                	slli	a5,a5,0x3
/Local/xl_ci/toolchain/riscv-gnu-toolchain/riscv-gcc/libgcc/libgcc2.c:710 (discriminator 14)
800051b0:	02000713          	li	a4,32
800051b4:	8f1d                	sub	a4,a4,a5
800051b6:	00f55533          	srl	a0,a0,a5
800051ba:	00004797          	auipc	a5,0x4
800051be:	a5e78793          	addi	a5,a5,-1442 # 80008c18 <__clz_tab>
800051c2:	953e                	add	a0,a0,a5
800051c4:	00054503          	lbu	a0,0(a0)
/Local/xl_ci/toolchain/riscv-gnu-toolchain/riscv-gcc/libgcc/libgcc2.c:713 (discriminator 14)
800051c8:	40a70533          	sub	a0,a4,a0
800051cc:	8082                	ret
/Local/xl_ci/toolchain/riscv-gnu-toolchain/riscv-gcc/libgcc/libgcc2.c:710 (discriminator 4)
800051ce:	01000737          	lui	a4,0x1000
800051d2:	47c1                	li	a5,16
800051d4:	fce56ee3          	bltu	a0,a4,800051b0 <__clzsi2+0x10>
/Local/xl_ci/toolchain/riscv-gnu-toolchain/riscv-gcc/libgcc/libgcc2.c:710
800051d8:	47e1                	li	a5,24
800051da:	bfd9                	j	800051b0 <__clzsi2+0x10>

800051dc <atexit>:
atexit():
800051dc:	85aa                	mv	a1,a0
800051de:	4681                	li	a3,0
800051e0:	4601                	li	a2,0
800051e2:	4501                	li	a0,0
800051e4:	57d0006f          	j	80005f60 <__register_exitproc>

800051e8 <__libc_fini_array>:
__libc_fini_array():
800051e8:	1141                	addi	sp,sp,-16
800051ea:	c422                	sw	s0,8(sp)
800051ec:	c226                	sw	s1,4(sp)
800051ee:	00004417          	auipc	s0,0x4
800051f2:	f6640413          	addi	s0,s0,-154 # 80009154 <__fsymtab_end>
800051f6:	00004497          	auipc	s1,0x4
800051fa:	f5e48493          	addi	s1,s1,-162 # 80009154 <__fsymtab_end>
800051fe:	8c05                	sub	s0,s0,s1
80005200:	c606                	sw	ra,12(sp)
80005202:	8409                	srai	s0,s0,0x2
80005204:	e411                	bnez	s0,80005210 <__libc_fini_array+0x28>
80005206:	40b2                	lw	ra,12(sp)
80005208:	4422                	lw	s0,8(sp)
8000520a:	4492                	lw	s1,4(sp)
8000520c:	0141                	addi	sp,sp,16
8000520e:	8082                	ret
80005210:	147d                	addi	s0,s0,-1
80005212:	00241793          	slli	a5,s0,0x2
80005216:	97a6                	add	a5,a5,s1
80005218:	439c                	lw	a5,0(a5)
8000521a:	9782                	jalr	a5
8000521c:	b7e5                	j	80005204 <__libc_fini_array+0x1c>

8000521e <__libc_init_array>:
__libc_init_array():
8000521e:	1141                	addi	sp,sp,-16
80005220:	c422                	sw	s0,8(sp)
80005222:	c226                	sw	s1,4(sp)
80005224:	00004417          	auipc	s0,0x4
80005228:	f3040413          	addi	s0,s0,-208 # 80009154 <__fsymtab_end>
8000522c:	00004497          	auipc	s1,0x4
80005230:	f2848493          	addi	s1,s1,-216 # 80009154 <__fsymtab_end>
80005234:	8c81                	sub	s1,s1,s0
80005236:	c04a                	sw	s2,0(sp)
80005238:	c606                	sw	ra,12(sp)
8000523a:	8489                	srai	s1,s1,0x2
8000523c:	4901                	li	s2,0
8000523e:	02991563          	bne	s2,s1,80005268 <__libc_init_array+0x4a>
80005242:	00004417          	auipc	s0,0x4
80005246:	f1240413          	addi	s0,s0,-238 # 80009154 <__fsymtab_end>
8000524a:	00004497          	auipc	s1,0x4
8000524e:	f0a48493          	addi	s1,s1,-246 # 80009154 <__fsymtab_end>
80005252:	8c81                	sub	s1,s1,s0
80005254:	8489                	srai	s1,s1,0x2
80005256:	4901                	li	s2,0
80005258:	00991d63          	bne	s2,s1,80005272 <__libc_init_array+0x54>
8000525c:	40b2                	lw	ra,12(sp)
8000525e:	4422                	lw	s0,8(sp)
80005260:	4492                	lw	s1,4(sp)
80005262:	4902                	lw	s2,0(sp)
80005264:	0141                	addi	sp,sp,16
80005266:	8082                	ret
80005268:	401c                	lw	a5,0(s0)
8000526a:	0905                	addi	s2,s2,1
8000526c:	0411                	addi	s0,s0,4
8000526e:	9782                	jalr	a5
80005270:	b7f9                	j	8000523e <__libc_init_array+0x20>
80005272:	401c                	lw	a5,0(s0)
80005274:	0905                	addi	s2,s2,1
80005276:	0411                	addi	s0,s0,4
80005278:	9782                	jalr	a5
8000527a:	bff9                	j	80005258 <__libc_init_array+0x3a>

8000527c <__cvt>:
__cvt():
8000527c:	7179                	addi	sp,sp,-48
8000527e:	d422                	sw	s0,40(sp)
80005280:	d04a                	sw	s2,32(sp)
80005282:	cc52                	sw	s4,24(sp)
80005284:	ca56                	sw	s5,20(sp)
80005286:	c85a                	sw	s6,16(sp)
80005288:	d606                	sw	ra,44(sp)
8000528a:	d226                	sw	s1,36(sp)
8000528c:	ce4e                	sw	s3,28(sp)
8000528e:	8b3a                	mv	s6,a4
80005290:	8a2e                	mv	s4,a1
80005292:	8432                	mv	s0,a2
80005294:	8936                	mv	s2,a3
80005296:	8ac2                	mv	s5,a6
80005298:	4701                	li	a4,0
8000529a:	00065863          	bgez	a2,800052aa <__cvt+0x2e>
8000529e:	80000737          	lui	a4,0x80000
800052a2:	00c74433          	xor	s0,a4,a2
800052a6:	02d00713          	li	a4,45
800052aa:	00e78023          	sb	a4,0(a5)
800052ae:	fdf8f493          	andi	s1,a7,-33
800052b2:	04600793          	li	a5,70
800052b6:	468d                	li	a3,3
800052b8:	00f48863          	beq	s1,a5,800052c8 <__cvt+0x4c>
800052bc:	04500793          	li	a5,69
800052c0:	4689                	li	a3,2
800052c2:	00f49363          	bne	s1,a5,800052c8 <__cvt+0x4c>
800052c6:	0905                	addi	s2,s2,1
800052c8:	87d6                	mv	a5,s5
800052ca:	00c10893          	addi	a7,sp,12
800052ce:	00810813          	addi	a6,sp,8
800052d2:	874a                	mv	a4,s2
800052d4:	85d2                	mv	a1,s4
800052d6:	8622                	mv	a2,s0
800052d8:	62d000ef          	jal	ra,80006104 <_dtoa_r>
800052dc:	04700793          	li	a5,71
800052e0:	89aa                	mv	s3,a0
800052e2:	00f49563          	bne	s1,a5,800052ec <__cvt+0x70>
800052e6:	001b7613          	andi	a2,s6,1
800052ea:	ca29                	beqz	a2,8000533c <__cvt+0xc0>
800052ec:	04600793          	li	a5,70
800052f0:	01298b33          	add	s6,s3,s2
800052f4:	02f49763          	bne	s1,a5,80005322 <__cvt+0xa6>
800052f8:	0009c703          	lbu	a4,0(s3)
800052fc:	03000793          	li	a5,48
80005300:	00f71e63          	bne	a4,a5,8000531c <__cvt+0xa0>
80005304:	4601                	li	a2,0
80005306:	4681                	li	a3,0
80005308:	8552                	mv	a0,s4
8000530a:	85a2                	mv	a1,s0
8000530c:	b35fe0ef          	jal	ra,80003e40 <__eqdf2>
80005310:	c511                	beqz	a0,8000531c <__cvt+0xa0>
80005312:	4605                	li	a2,1
80005314:	412606b3          	sub	a3,a2,s2
80005318:	00daa023          	sw	a3,0(s5)
8000531c:	000aa783          	lw	a5,0(s5)
80005320:	9b3e                	add	s6,s6,a5
80005322:	4601                	li	a2,0
80005324:	4681                	li	a3,0
80005326:	8552                	mv	a0,s4
80005328:	85a2                	mv	a1,s0
8000532a:	b17fe0ef          	jal	ra,80003e40 <__eqdf2>
8000532e:	e111                	bnez	a0,80005332 <__cvt+0xb6>
80005330:	c65a                	sw	s6,12(sp)
80005332:	03000713          	li	a4,48
80005336:	47b2                	lw	a5,12(sp)
80005338:	0367e263          	bltu	a5,s6,8000535c <__cvt+0xe0>
8000533c:	47b2                	lw	a5,12(sp)
8000533e:	5742                	lw	a4,48(sp)
80005340:	50b2                	lw	ra,44(sp)
80005342:	5422                	lw	s0,40(sp)
80005344:	413787b3          	sub	a5,a5,s3
80005348:	c31c                	sw	a5,0(a4)
8000534a:	5492                	lw	s1,36(sp)
8000534c:	5902                	lw	s2,32(sp)
8000534e:	4a62                	lw	s4,24(sp)
80005350:	4ad2                	lw	s5,20(sp)
80005352:	4b42                	lw	s6,16(sp)
80005354:	854e                	mv	a0,s3
80005356:	49f2                	lw	s3,28(sp)
80005358:	6145                	addi	sp,sp,48
8000535a:	8082                	ret
8000535c:	00178693          	addi	a3,a5,1
80005360:	c636                	sw	a3,12(sp)
80005362:	00e78023          	sb	a4,0(a5)
80005366:	bfc1                	j	80005336 <__cvt+0xba>

80005368 <__exponent>:
__exponent():
80005368:	00c50023          	sb	a2,0(a0)
8000536c:	00250793          	addi	a5,a0,2
80005370:	02b00713          	li	a4,43
80005374:	0005d663          	bgez	a1,80005380 <__exponent+0x18>
80005378:	40b005b3          	neg	a1,a1
8000537c:	02d00713          	li	a4,45
80005380:	00e500a3          	sb	a4,1(a0)
80005384:	4725                	li	a4,9
80005386:	06b75263          	bge	a4,a1,800053ea <__exponent+0x82>
8000538a:	1141                	addi	sp,sp,-16
8000538c:	00f10713          	addi	a4,sp,15
80005390:	883a                	mv	a6,a4
80005392:	48a9                	li	a7,10
80005394:	06300313          	li	t1,99
80005398:	0315e633          	rem	a2,a1,a7
8000539c:	86ba                	mv	a3,a4
8000539e:	177d                	addi	a4,a4,-1
800053a0:	03060613          	addi	a2,a2,48
800053a4:	fec68fa3          	sb	a2,-1(a3) # 7ffff <__stack_size+0x7f7ff>
800053a8:	862e                	mv	a2,a1
800053aa:	0315c5b3          	div	a1,a1,a7
800053ae:	fec345e3          	blt	t1,a2,80005398 <__exponent+0x30>
800053b2:	ffe68893          	addi	a7,a3,-2
800053b6:	03058593          	addi	a1,a1,48 # 400030 <__stack_size+0x3ff830>
800053ba:	feb70fa3          	sb	a1,-1(a4) # 7fffffff <_sp+0xeffbffff>
800053be:	863e                	mv	a2,a5
800053c0:	8746                	mv	a4,a7
800053c2:	01076d63          	bltu	a4,a6,800053dc <__exponent+0x74>
800053c6:	4701                	li	a4,0
800053c8:	01186563          	bltu	a6,a7,800053d2 <__exponent+0x6a>
800053cc:	01110713          	addi	a4,sp,17
800053d0:	8f15                	sub	a4,a4,a3
800053d2:	97ba                	add	a5,a5,a4
800053d4:	40a78533          	sub	a0,a5,a0
800053d8:	0141                	addi	sp,sp,16
800053da:	8082                	ret
800053dc:	00074583          	lbu	a1,0(a4)
800053e0:	0705                	addi	a4,a4,1
800053e2:	0605                	addi	a2,a2,1
800053e4:	feb60fa3          	sb	a1,-1(a2)
800053e8:	bfe9                	j	800053c2 <__exponent+0x5a>
800053ea:	03000793          	li	a5,48
800053ee:	00f50123          	sb	a5,2(a0)
800053f2:	03058593          	addi	a1,a1,48
800053f6:	00450793          	addi	a5,a0,4
800053fa:	00b501a3          	sb	a1,3(a0)
800053fe:	40a78533          	sub	a0,a5,a0
80005402:	8082                	ret

80005404 <_printf_float>:
_printf_float():
80005404:	7119                	addi	sp,sp,-128
80005406:	de86                	sw	ra,124(sp)
80005408:	dca2                	sw	s0,120(sp)
8000540a:	daa6                	sw	s1,116(sp)
8000540c:	842e                	mv	s0,a1
8000540e:	d8ca                	sw	s2,112(sp)
80005410:	d6ce                	sw	s3,108(sp)
80005412:	d4d2                	sw	s4,104(sp)
80005414:	d2d6                	sw	s5,100(sp)
80005416:	8a3a                	mv	s4,a4
80005418:	d0da                	sw	s6,96(sp)
8000541a:	cede                	sw	s7,92(sp)
8000541c:	cce2                	sw	s8,88(sp)
8000541e:	8932                	mv	s2,a2
80005420:	89b6                	mv	s3,a3
80005422:	cae6                	sw	s9,84(sp)
80005424:	c8ea                	sw	s10,80(sp)
80005426:	c6ee                	sw	s11,76(sp)
80005428:	84aa                	mv	s1,a0
8000542a:	4f3010ef          	jal	ra,8000711c <_localeconv_r>
8000542e:	00052c03          	lw	s8,0(a0)
80005432:	8562                	mv	a0,s8
80005434:	145000ef          	jal	ra,80005d78 <strlen>
80005438:	00042b03          	lw	s6,0(s0)
8000543c:	dc02                	sw	zero,56(sp)
8000543e:	01844a83          	lbu	s5,24(s0)
80005442:	100b7713          	andi	a4,s6,256
80005446:	000a2783          	lw	a5,0(s4)
8000544a:	8baa                	mv	s7,a0
8000544c:	cb79                	beqz	a4,80005522 <_printf_float+0x11e>
8000544e:	00478713          	addi	a4,a5,4
80005452:	00ea2023          	sw	a4,0(s4)
80005456:	439c                	lw	a5,0(a5)
80005458:	1008                	addi	a0,sp,32
8000545a:	4398                	lw	a4,0(a5)
8000545c:	d03a                	sw	a4,32(sp)
8000545e:	43d8                	lw	a4,4(a5)
80005460:	d23a                	sw	a4,36(sp)
80005462:	4798                	lw	a4,8(a5)
80005464:	d43a                	sw	a4,40(sp)
80005466:	47dc                	lw	a5,12(a5)
80005468:	d63e                	sw	a5,44(sp)
8000546a:	190030ef          	jal	ra,800085fa <__trunctfdf2>
8000546e:	c428                	sw	a0,72(s0)
80005470:	c46c                	sw	a1,76(s0)
80005472:	04c42a03          	lw	s4,76(s0)
80005476:	10004717          	auipc	a4,0x10004
8000547a:	b4a70713          	addi	a4,a4,-1206 # 90008fc0 <_impure_ptr+0x4>
8000547e:	04842c83          	lw	s9,72(s0)
80005482:	00072d03          	lw	s10,0(a4)
80005486:	00472d83          	lw	s11,4(a4)
8000548a:	001a1793          	slli	a5,s4,0x1
8000548e:	8385                	srli	a5,a5,0x1
80005490:	866a                	mv	a2,s10
80005492:	86ee                	mv	a3,s11
80005494:	8566                	mv	a0,s9
80005496:	85be                	mv	a1,a5
80005498:	ce3e                	sw	a5,28(sp)
8000549a:	949ff0ef          	jal	ra,80004de2 <__unorddf2>
8000549e:	ed49                	bnez	a0,80005538 <_printf_float+0x134>
800054a0:	47f2                	lw	a5,28(sp)
800054a2:	866a                	mv	a2,s10
800054a4:	86ee                	mv	a3,s11
800054a6:	8566                	mv	a0,s9
800054a8:	85be                	mv	a1,a5
800054aa:	a3bfe0ef          	jal	ra,80003ee4 <__ledf2>
800054ae:	08a05563          	blez	a0,80005538 <_printf_float+0x134>
800054b2:	4601                	li	a2,0
800054b4:	4681                	li	a3,0
800054b6:	8566                	mv	a0,s9
800054b8:	85d2                	mv	a1,s4
800054ba:	a2bfe0ef          	jal	ra,80003ee4 <__ledf2>
800054be:	00055663          	bgez	a0,800054ca <_printf_float+0xc6>
800054c2:	02d00793          	li	a5,45
800054c6:	04f401a3          	sb	a5,67(s0)
800054ca:	04700793          	li	a5,71
800054ce:	00004a17          	auipc	s4,0x4
800054d2:	84aa0a13          	addi	s4,s4,-1974 # 80008d18 <__clz_tab+0x100>
800054d6:	0157f663          	bgeu	a5,s5,800054e2 <_printf_float+0xde>
800054da:	00004a17          	auipc	s4,0x4
800054de:	842a0a13          	addi	s4,s4,-1982 # 80008d1c <__clz_tab+0x104>
800054e2:	ffbb7b13          	andi	s6,s6,-5
800054e6:	478d                	li	a5,3
800054e8:	01642023          	sw	s6,0(s0)
800054ec:	c81c                	sw	a5,16(s0)
800054ee:	4b01                	li	s6,0
800054f0:	874e                	mv	a4,s3
800054f2:	86ca                	mv	a3,s2
800054f4:	1870                	addi	a2,sp,60
800054f6:	85a2                	mv	a1,s0
800054f8:	8526                	mv	a0,s1
800054fa:	2ef9                	jal	800058d8 <_printf_common>
800054fc:	5cfd                	li	s9,-1
800054fe:	17951363          	bne	a0,s9,80005664 <_printf_float+0x260>
80005502:	557d                	li	a0,-1
80005504:	50f6                	lw	ra,124(sp)
80005506:	5466                	lw	s0,120(sp)
80005508:	54d6                	lw	s1,116(sp)
8000550a:	5946                	lw	s2,112(sp)
8000550c:	59b6                	lw	s3,108(sp)
8000550e:	5a26                	lw	s4,104(sp)
80005510:	5a96                	lw	s5,100(sp)
80005512:	5b06                	lw	s6,96(sp)
80005514:	4bf6                	lw	s7,92(sp)
80005516:	4c66                	lw	s8,88(sp)
80005518:	4cd6                	lw	s9,84(sp)
8000551a:	4d46                	lw	s10,80(sp)
8000551c:	4db6                	lw	s11,76(sp)
8000551e:	6109                	addi	sp,sp,128
80005520:	8082                	ret
80005522:	079d                	addi	a5,a5,7
80005524:	9be1                	andi	a5,a5,-8
80005526:	00878713          	addi	a4,a5,8
8000552a:	00ea2023          	sw	a4,0(s4)
8000552e:	4398                	lw	a4,0(a5)
80005530:	43dc                	lw	a5,4(a5)
80005532:	c438                	sw	a4,72(s0)
80005534:	c47c                	sw	a5,76(s0)
80005536:	bf35                	j	80005472 <_printf_float+0x6e>
80005538:	8666                	mv	a2,s9
8000553a:	86d2                	mv	a3,s4
8000553c:	8566                	mv	a0,s9
8000553e:	85d2                	mv	a1,s4
80005540:	8a3ff0ef          	jal	ra,80004de2 <__unorddf2>
80005544:	c505                	beqz	a0,8000556c <_printf_float+0x168>
80005546:	000a5663          	bgez	s4,80005552 <_printf_float+0x14e>
8000554a:	02d00793          	li	a5,45
8000554e:	04f401a3          	sb	a5,67(s0)
80005552:	04700793          	li	a5,71
80005556:	00003a17          	auipc	s4,0x3
8000555a:	7caa0a13          	addi	s4,s4,1994 # 80008d20 <__clz_tab+0x108>
8000555e:	f957f2e3          	bgeu	a5,s5,800054e2 <_printf_float+0xde>
80005562:	00003a17          	auipc	s4,0x3
80005566:	7c2a0a13          	addi	s4,s4,1986 # 80008d24 <__clz_tab+0x10c>
8000556a:	bfa5                	j	800054e2 <_printf_float+0xde>
8000556c:	405c                	lw	a5,4(s0)
8000556e:	577d                	li	a4,-1
80005570:	0dfafd13          	andi	s10,s5,223
80005574:	08e79363          	bne	a5,a4,800055fa <_printf_float+0x1f6>
80005578:	4799                	li	a5,6
8000557a:	c05c                	sw	a5,4(s0)
8000557c:	4054                	lw	a3,4(s0)
8000557e:	400b6713          	ori	a4,s6,1024
80005582:	183c                	addi	a5,sp,56
80005584:	c03e                	sw	a5,0(sp)
80005586:	8652                	mv	a2,s4
80005588:	03310793          	addi	a5,sp,51
8000558c:	85e6                	mv	a1,s9
8000558e:	c018                	sw	a4,0(s0)
80005590:	c202                	sw	zero,4(sp)
80005592:	88d6                	mv	a7,s5
80005594:	03410813          	addi	a6,sp,52
80005598:	8526                	mv	a0,s1
8000559a:	31cd                	jal	8000527c <__cvt>
8000559c:	04700793          	li	a5,71
800055a0:	55d2                	lw	a1,52(sp)
800055a2:	8a2a                	mv	s4,a0
800055a4:	00fd1b63          	bne	s10,a5,800055ba <_printf_float+0x1b6>
800055a8:	57f5                	li	a5,-3
800055aa:	00f5c563          	blt	a1,a5,800055b4 <_printf_float+0x1b0>
800055ae:	405c                	lw	a5,4(s0)
800055b0:	08b7d763          	bge	a5,a1,8000563e <_printf_float+0x23a>
800055b4:	1af9                	addi	s5,s5,-2
800055b6:	0ffafa93          	zext.b	s5,s5
800055ba:	06500793          	li	a5,101
800055be:	0557e563          	bltu	a5,s5,80005608 <_printf_float+0x204>
800055c2:	15fd                	addi	a1,a1,-1
800055c4:	8656                	mv	a2,s5
800055c6:	05040513          	addi	a0,s0,80
800055ca:	da2e                	sw	a1,52(sp)
800055cc:	3b71                	jal	80005368 <__exponent>
800055ce:	5762                	lw	a4,56(sp)
800055d0:	4685                	li	a3,1
800055d2:	8b2a                	mv	s6,a0
800055d4:	00a707b3          	add	a5,a4,a0
800055d8:	c81c                	sw	a5,16(s0)
800055da:	00e6c563          	blt	a3,a4,800055e4 <_printf_float+0x1e0>
800055de:	4018                	lw	a4,0(s0)
800055e0:	8b05                	andi	a4,a4,1
800055e2:	c319                	beqz	a4,800055e8 <_printf_float+0x1e4>
800055e4:	0785                	addi	a5,a5,1
800055e6:	c81c                	sw	a5,16(s0)
800055e8:	03314783          	lbu	a5,51(sp)
800055ec:	f00782e3          	beqz	a5,800054f0 <_printf_float+0xec>
800055f0:	02d00793          	li	a5,45
800055f4:	04f401a3          	sb	a5,67(s0)
800055f8:	bde5                	j	800054f0 <_printf_float+0xec>
800055fa:	04700713          	li	a4,71
800055fe:	f6ed1fe3          	bne	s10,a4,8000557c <_printf_float+0x178>
80005602:	ffad                	bnez	a5,8000557c <_printf_float+0x178>
80005604:	4785                	li	a5,1
80005606:	bf95                	j	8000557a <_printf_float+0x176>
80005608:	06600793          	li	a5,102
8000560c:	02fa9b63          	bne	s5,a5,80005642 <_printf_float+0x23e>
80005610:	405c                	lw	a5,4(s0)
80005612:	00b05b63          	blez	a1,80005628 <_printf_float+0x224>
80005616:	c80c                	sw	a1,16(s0)
80005618:	e781                	bnez	a5,80005620 <_printf_float+0x21c>
8000561a:	4018                	lw	a4,0(s0)
8000561c:	8b05                	andi	a4,a4,1
8000561e:	cf09                	beqz	a4,80005638 <_printf_float+0x234>
80005620:	0785                	addi	a5,a5,1
80005622:	97ae                	add	a5,a5,a1
80005624:	c81c                	sw	a5,16(s0)
80005626:	a809                	j	80005638 <_printf_float+0x234>
80005628:	e789                	bnez	a5,80005632 <_printf_float+0x22e>
8000562a:	4018                	lw	a4,0(s0)
8000562c:	4685                	li	a3,1
8000562e:	8b05                	andi	a4,a4,1
80005630:	c319                	beqz	a4,80005636 <_printf_float+0x232>
80005632:	00278693          	addi	a3,a5,2
80005636:	c814                	sw	a3,16(s0)
80005638:	cc2c                	sw	a1,88(s0)
8000563a:	4b01                	li	s6,0
8000563c:	b775                	j	800055e8 <_printf_float+0x1e4>
8000563e:	06700a93          	li	s5,103
80005642:	57e2                	lw	a5,56(sp)
80005644:	00f5c963          	blt	a1,a5,80005656 <_printf_float+0x252>
80005648:	401c                	lw	a5,0(s0)
8000564a:	c80c                	sw	a1,16(s0)
8000564c:	8b85                	andi	a5,a5,1
8000564e:	d7ed                	beqz	a5,80005638 <_printf_float+0x234>
80005650:	00158793          	addi	a5,a1,1
80005654:	bfc1                	j	80005624 <_printf_float+0x220>
80005656:	4705                	li	a4,1
80005658:	00b04463          	bgtz	a1,80005660 <_printf_float+0x25c>
8000565c:	4709                	li	a4,2
8000565e:	8f0d                	sub	a4,a4,a1
80005660:	97ba                	add	a5,a5,a4
80005662:	b7c9                	j	80005624 <_printf_float+0x220>
80005664:	401c                	lw	a5,0(s0)
80005666:	4007f713          	andi	a4,a5,1024
8000566a:	e315                	bnez	a4,8000568e <_printf_float+0x28a>
8000566c:	4814                	lw	a3,16(s0)
8000566e:	8652                	mv	a2,s4
80005670:	85ca                	mv	a1,s2
80005672:	8526                	mv	a0,s1
80005674:	9982                	jalr	s3
80005676:	e99506e3          	beq	a0,s9,80005502 <_printf_float+0xfe>
8000567a:	401c                	lw	a5,0(s0)
8000567c:	8b89                	andi	a5,a5,2
8000567e:	24079863          	bnez	a5,800058ce <_printf_float+0x4ca>
80005682:	57f2                	lw	a5,60(sp)
80005684:	4448                	lw	a0,12(s0)
80005686:	e6f55fe3          	bge	a0,a5,80005504 <_printf_float+0x100>
8000568a:	853e                	mv	a0,a5
8000568c:	bda5                	j	80005504 <_printf_float+0x100>
8000568e:	06500713          	li	a4,101
80005692:	19577d63          	bgeu	a4,s5,8000582c <_printf_float+0x428>
80005696:	4428                	lw	a0,72(s0)
80005698:	446c                	lw	a1,76(s0)
8000569a:	4601                	li	a2,0
8000569c:	4681                	li	a3,0
8000569e:	fa2fe0ef          	jal	ra,80003e40 <__eqdf2>
800056a2:	e939                	bnez	a0,800056f8 <_printf_float+0x2f4>
800056a4:	4685                	li	a3,1
800056a6:	00003617          	auipc	a2,0x3
800056aa:	68260613          	addi	a2,a2,1666 # 80008d28 <__clz_tab+0x110>
800056ae:	85ca                	mv	a1,s2
800056b0:	8526                	mv	a0,s1
800056b2:	9982                	jalr	s3
800056b4:	e59507e3          	beq	a0,s9,80005502 <_printf_float+0xfe>
800056b8:	5752                	lw	a4,52(sp)
800056ba:	57e2                	lw	a5,56(sp)
800056bc:	00f74563          	blt	a4,a5,800056c6 <_printf_float+0x2c2>
800056c0:	401c                	lw	a5,0(s0)
800056c2:	8b85                	andi	a5,a5,1
800056c4:	dbdd                	beqz	a5,8000567a <_printf_float+0x276>
800056c6:	86de                	mv	a3,s7
800056c8:	8662                	mv	a2,s8
800056ca:	85ca                	mv	a1,s2
800056cc:	8526                	mv	a0,s1
800056ce:	9982                	jalr	s3
800056d0:	57fd                	li	a5,-1
800056d2:	e2f508e3          	beq	a0,a5,80005502 <_printf_float+0xfe>
800056d6:	4a01                	li	s4,0
800056d8:	01a40a93          	addi	s5,s0,26
800056dc:	5b7d                	li	s6,-1
800056de:	57e2                	lw	a5,56(sp)
800056e0:	17fd                	addi	a5,a5,-1
800056e2:	f8fa5ce3          	bge	s4,a5,8000567a <_printf_float+0x276>
800056e6:	4685                	li	a3,1
800056e8:	8656                	mv	a2,s5
800056ea:	85ca                	mv	a1,s2
800056ec:	8526                	mv	a0,s1
800056ee:	9982                	jalr	s3
800056f0:	e16509e3          	beq	a0,s6,80005502 <_printf_float+0xfe>
800056f4:	0a05                	addi	s4,s4,1
800056f6:	b7e5                	j	800056de <_printf_float+0x2da>
800056f8:	57d2                	lw	a5,52(sp)
800056fa:	06f04663          	bgtz	a5,80005766 <_printf_float+0x362>
800056fe:	4685                	li	a3,1
80005700:	00003617          	auipc	a2,0x3
80005704:	62860613          	addi	a2,a2,1576 # 80008d28 <__clz_tab+0x110>
80005708:	85ca                	mv	a1,s2
8000570a:	8526                	mv	a0,s1
8000570c:	9982                	jalr	s3
8000570e:	df950ae3          	beq	a0,s9,80005502 <_printf_float+0xfe>
80005712:	57d2                	lw	a5,52(sp)
80005714:	5762                	lw	a4,56(sp)
80005716:	8fd9                	or	a5,a5,a4
80005718:	e781                	bnez	a5,80005720 <_printf_float+0x31c>
8000571a:	401c                	lw	a5,0(s0)
8000571c:	8b85                	andi	a5,a5,1
8000571e:	dfb1                	beqz	a5,8000567a <_printf_float+0x276>
80005720:	86de                	mv	a3,s7
80005722:	8662                	mv	a2,s8
80005724:	85ca                	mv	a1,s2
80005726:	8526                	mv	a0,s1
80005728:	9982                	jalr	s3
8000572a:	57fd                	li	a5,-1
8000572c:	dcf50be3          	beq	a0,a5,80005502 <_printf_float+0xfe>
80005730:	4a81                	li	s5,0
80005732:	01a40b13          	addi	s6,s0,26
80005736:	5bfd                	li	s7,-1
80005738:	57d2                	lw	a5,52(sp)
8000573a:	40f007b3          	neg	a5,a5
8000573e:	00facb63          	blt	s5,a5,80005754 <_printf_float+0x350>
80005742:	56e2                	lw	a3,56(sp)
80005744:	8652                	mv	a2,s4
80005746:	85ca                	mv	a1,s2
80005748:	8526                	mv	a0,s1
8000574a:	9982                	jalr	s3
8000574c:	57fd                	li	a5,-1
8000574e:	f2f516e3          	bne	a0,a5,8000567a <_printf_float+0x276>
80005752:	bb45                	j	80005502 <_printf_float+0xfe>
80005754:	4685                	li	a3,1
80005756:	865a                	mv	a2,s6
80005758:	85ca                	mv	a1,s2
8000575a:	8526                	mv	a0,s1
8000575c:	9982                	jalr	s3
8000575e:	db7502e3          	beq	a0,s7,80005502 <_printf_float+0xfe>
80005762:	0a85                	addi	s5,s5,1
80005764:	bfd1                	j	80005738 <_printf_float+0x334>
80005766:	4c3c                	lw	a5,88(s0)
80005768:	5ae2                	lw	s5,56(sp)
8000576a:	0157d363          	bge	a5,s5,80005770 <_printf_float+0x36c>
8000576e:	8abe                	mv	s5,a5
80005770:	07504963          	bgtz	s5,800057e2 <_printf_float+0x3de>
80005774:	4b01                	li	s6,0
80005776:	01a40d13          	addi	s10,s0,26
8000577a:	5dfd                	li	s11,-1
8000577c:	05842c83          	lw	s9,88(s0)
80005780:	87d6                	mv	a5,s5
80005782:	000ad363          	bgez	s5,80005788 <_printf_float+0x384>
80005786:	4781                	li	a5,0
80005788:	40fc87b3          	sub	a5,s9,a5
8000578c:	06fb4463          	blt	s6,a5,800057f4 <_printf_float+0x3f0>
80005790:	5752                	lw	a4,52(sp)
80005792:	57e2                	lw	a5,56(sp)
80005794:	06f74963          	blt	a4,a5,80005806 <_printf_float+0x402>
80005798:	401c                	lw	a5,0(s0)
8000579a:	8b85                	andi	a5,a5,1
8000579c:	e7ad                	bnez	a5,80005806 <_printf_float+0x402>
8000579e:	5ae2                	lw	s5,56(sp)
800057a0:	5752                	lw	a4,52(sp)
800057a2:	419a87b3          	sub	a5,s5,s9
800057a6:	40ea8ab3          	sub	s5,s5,a4
800057aa:	0157d363          	bge	a5,s5,800057b0 <_printf_float+0x3ac>
800057ae:	8abe                	mv	s5,a5
800057b0:	07504463          	bgtz	s5,80005818 <_printf_float+0x414>
800057b4:	4a01                	li	s4,0
800057b6:	01a40b13          	addi	s6,s0,26
800057ba:	5bfd                	li	s7,-1
800057bc:	5752                	lw	a4,52(sp)
800057be:	57e2                	lw	a5,56(sp)
800057c0:	8f99                	sub	a5,a5,a4
800057c2:	8756                	mv	a4,s5
800057c4:	000ad363          	bgez	s5,800057ca <_printf_float+0x3c6>
800057c8:	4701                	li	a4,0
800057ca:	8f99                	sub	a5,a5,a4
800057cc:	eafa57e3          	bge	s4,a5,8000567a <_printf_float+0x276>
800057d0:	4685                	li	a3,1
800057d2:	865a                	mv	a2,s6
800057d4:	85ca                	mv	a1,s2
800057d6:	8526                	mv	a0,s1
800057d8:	9982                	jalr	s3
800057da:	d37504e3          	beq	a0,s7,80005502 <_printf_float+0xfe>
800057de:	0a05                	addi	s4,s4,1
800057e0:	bff1                	j	800057bc <_printf_float+0x3b8>
800057e2:	86d6                	mv	a3,s5
800057e4:	8652                	mv	a2,s4
800057e6:	85ca                	mv	a1,s2
800057e8:	8526                	mv	a0,s1
800057ea:	9982                	jalr	s3
800057ec:	57fd                	li	a5,-1
800057ee:	f8f513e3          	bne	a0,a5,80005774 <_printf_float+0x370>
800057f2:	bb01                	j	80005502 <_printf_float+0xfe>
800057f4:	4685                	li	a3,1
800057f6:	866a                	mv	a2,s10
800057f8:	85ca                	mv	a1,s2
800057fa:	8526                	mv	a0,s1
800057fc:	9982                	jalr	s3
800057fe:	d1b502e3          	beq	a0,s11,80005502 <_printf_float+0xfe>
80005802:	0b05                	addi	s6,s6,1
80005804:	bfa5                	j	8000577c <_printf_float+0x378>
80005806:	86de                	mv	a3,s7
80005808:	8662                	mv	a2,s8
8000580a:	85ca                	mv	a1,s2
8000580c:	8526                	mv	a0,s1
8000580e:	9982                	jalr	s3
80005810:	57fd                	li	a5,-1
80005812:	f8f516e3          	bne	a0,a5,8000579e <_printf_float+0x39a>
80005816:	b1f5                	j	80005502 <_printf_float+0xfe>
80005818:	86d6                	mv	a3,s5
8000581a:	019a0633          	add	a2,s4,s9
8000581e:	85ca                	mv	a1,s2
80005820:	8526                	mv	a0,s1
80005822:	9982                	jalr	s3
80005824:	57fd                	li	a5,-1
80005826:	f8f517e3          	bne	a0,a5,800057b4 <_printf_float+0x3b0>
8000582a:	b9e1                	j	80005502 <_printf_float+0xfe>
8000582c:	56e2                	lw	a3,56(sp)
8000582e:	4705                	li	a4,1
80005830:	00d74463          	blt	a4,a3,80005838 <_printf_float+0x434>
80005834:	8b85                	andi	a5,a5,1
80005836:	c7b5                	beqz	a5,800058a2 <_printf_float+0x49e>
80005838:	4685                	li	a3,1
8000583a:	8652                	mv	a2,s4
8000583c:	85ca                	mv	a1,s2
8000583e:	8526                	mv	a0,s1
80005840:	9982                	jalr	s3
80005842:	5afd                	li	s5,-1
80005844:	cb550fe3          	beq	a0,s5,80005502 <_printf_float+0xfe>
80005848:	86de                	mv	a3,s7
8000584a:	8662                	mv	a2,s8
8000584c:	85ca                	mv	a1,s2
8000584e:	8526                	mv	a0,s1
80005850:	9982                	jalr	s3
80005852:	cb5508e3          	beq	a0,s5,80005502 <_printf_float+0xfe>
80005856:	4428                	lw	a0,72(s0)
80005858:	446c                	lw	a1,76(s0)
8000585a:	4601                	li	a2,0
8000585c:	4681                	li	a3,0
8000585e:	de2fe0ef          	jal	ra,80003e40 <__eqdf2>
80005862:	c91d                	beqz	a0,80005898 <_printf_float+0x494>
80005864:	56e2                	lw	a3,56(sp)
80005866:	001a0613          	addi	a2,s4,1
8000586a:	85ca                	mv	a1,s2
8000586c:	16fd                	addi	a3,a3,-1
8000586e:	8526                	mv	a0,s1
80005870:	9982                	jalr	s3
80005872:	c95508e3          	beq	a0,s5,80005502 <_printf_float+0xfe>
80005876:	86da                	mv	a3,s6
80005878:	05040613          	addi	a2,s0,80
8000587c:	b5e9                	j	80005746 <_printf_float+0x342>
8000587e:	4685                	li	a3,1
80005880:	8656                	mv	a2,s5
80005882:	85ca                	mv	a1,s2
80005884:	8526                	mv	a0,s1
80005886:	9982                	jalr	s3
80005888:	c7750de3          	beq	a0,s7,80005502 <_printf_float+0xfe>
8000588c:	0a05                	addi	s4,s4,1
8000588e:	57e2                	lw	a5,56(sp)
80005890:	17fd                	addi	a5,a5,-1
80005892:	fefa46e3          	blt	s4,a5,8000587e <_printf_float+0x47a>
80005896:	b7c5                	j	80005876 <_printf_float+0x472>
80005898:	4a01                	li	s4,0
8000589a:	01a40a93          	addi	s5,s0,26
8000589e:	5bfd                	li	s7,-1
800058a0:	b7fd                	j	8000588e <_printf_float+0x48a>
800058a2:	4685                	li	a3,1
800058a4:	8652                	mv	a2,s4
800058a6:	85ca                	mv	a1,s2
800058a8:	8526                	mv	a0,s1
800058aa:	9982                	jalr	s3
800058ac:	fd9515e3          	bne	a0,s9,80005876 <_printf_float+0x472>
800058b0:	b989                	j	80005502 <_printf_float+0xfe>
800058b2:	4685                	li	a3,1
800058b4:	8656                	mv	a2,s5
800058b6:	85ca                	mv	a1,s2
800058b8:	8526                	mv	a0,s1
800058ba:	9982                	jalr	s3
800058bc:	c56503e3          	beq	a0,s6,80005502 <_printf_float+0xfe>
800058c0:	0a05                	addi	s4,s4,1
800058c2:	445c                	lw	a5,12(s0)
800058c4:	5772                	lw	a4,60(sp)
800058c6:	8f99                	sub	a5,a5,a4
800058c8:	fefa45e3          	blt	s4,a5,800058b2 <_printf_float+0x4ae>
800058cc:	bb5d                	j	80005682 <_printf_float+0x27e>
800058ce:	4a01                	li	s4,0
800058d0:	01940a93          	addi	s5,s0,25
800058d4:	5b7d                	li	s6,-1
800058d6:	b7f5                	j	800058c2 <_printf_float+0x4be>

800058d8 <_printf_common>:
_printf_common():
800058d8:	7179                	addi	sp,sp,-48
800058da:	cc52                	sw	s4,24(sp)
800058dc:	499c                	lw	a5,16(a1)
800058de:	8a3a                	mv	s4,a4
800058e0:	4598                	lw	a4,8(a1)
800058e2:	d422                	sw	s0,40(sp)
800058e4:	d226                	sw	s1,36(sp)
800058e6:	ce4e                	sw	s3,28(sp)
800058e8:	ca56                	sw	s5,20(sp)
800058ea:	d606                	sw	ra,44(sp)
800058ec:	d04a                	sw	s2,32(sp)
800058ee:	c85a                	sw	s6,16(sp)
800058f0:	c65e                	sw	s7,12(sp)
800058f2:	89aa                	mv	s3,a0
800058f4:	842e                	mv	s0,a1
800058f6:	84b2                	mv	s1,a2
800058f8:	8ab6                	mv	s5,a3
800058fa:	00e7d363          	bge	a5,a4,80005900 <_printf_common+0x28>
800058fe:	87ba                	mv	a5,a4
80005900:	c09c                	sw	a5,0(s1)
80005902:	04344703          	lbu	a4,67(s0)
80005906:	c319                	beqz	a4,8000590c <_printf_common+0x34>
80005908:	0785                	addi	a5,a5,1
8000590a:	c09c                	sw	a5,0(s1)
8000590c:	401c                	lw	a5,0(s0)
8000590e:	0207f793          	andi	a5,a5,32
80005912:	c781                	beqz	a5,8000591a <_printf_common+0x42>
80005914:	409c                	lw	a5,0(s1)
80005916:	0789                	addi	a5,a5,2
80005918:	c09c                	sw	a5,0(s1)
8000591a:	00042903          	lw	s2,0(s0)
8000591e:	00697913          	andi	s2,s2,6
80005922:	00091a63          	bnez	s2,80005936 <_printf_common+0x5e>
80005926:	01940b13          	addi	s6,s0,25
8000592a:	5bfd                	li	s7,-1
8000592c:	445c                	lw	a5,12(s0)
8000592e:	4098                	lw	a4,0(s1)
80005930:	8f99                	sub	a5,a5,a4
80005932:	04f94c63          	blt	s2,a5,8000598a <_printf_common+0xb2>
80005936:	04344783          	lbu	a5,67(s0)
8000593a:	00f036b3          	snez	a3,a5
8000593e:	401c                	lw	a5,0(s0)
80005940:	0207f793          	andi	a5,a5,32
80005944:	eba5                	bnez	a5,800059b4 <_printf_common+0xdc>
80005946:	04340613          	addi	a2,s0,67
8000594a:	85d6                	mv	a1,s5
8000594c:	854e                	mv	a0,s3
8000594e:	9a02                	jalr	s4
80005950:	57fd                	li	a5,-1
80005952:	04f50363          	beq	a0,a5,80005998 <_printf_common+0xc0>
80005956:	401c                	lw	a5,0(s0)
80005958:	4611                	li	a2,4
8000595a:	4098                	lw	a4,0(s1)
8000595c:	8b99                	andi	a5,a5,6
8000595e:	4454                	lw	a3,12(s0)
80005960:	4481                	li	s1,0
80005962:	00c79763          	bne	a5,a2,80005970 <_printf_common+0x98>
80005966:	40e684b3          	sub	s1,a3,a4
8000596a:	0004d363          	bgez	s1,80005970 <_printf_common+0x98>
8000596e:	4481                	li	s1,0
80005970:	441c                	lw	a5,8(s0)
80005972:	4818                	lw	a4,16(s0)
80005974:	00f75463          	bge	a4,a5,8000597c <_printf_common+0xa4>
80005978:	8f99                	sub	a5,a5,a4
8000597a:	94be                	add	s1,s1,a5
8000597c:	4901                	li	s2,0
8000597e:	0469                	addi	s0,s0,26
80005980:	5b7d                	li	s6,-1
80005982:	05249863          	bne	s1,s2,800059d2 <_printf_common+0xfa>
80005986:	4501                	li	a0,0
80005988:	a809                	j	8000599a <_printf_common+0xc2>
8000598a:	4685                	li	a3,1
8000598c:	865a                	mv	a2,s6
8000598e:	85d6                	mv	a1,s5
80005990:	854e                	mv	a0,s3
80005992:	9a02                	jalr	s4
80005994:	01751e63          	bne	a0,s7,800059b0 <_printf_common+0xd8>
80005998:	557d                	li	a0,-1
8000599a:	50b2                	lw	ra,44(sp)
8000599c:	5422                	lw	s0,40(sp)
8000599e:	5492                	lw	s1,36(sp)
800059a0:	5902                	lw	s2,32(sp)
800059a2:	49f2                	lw	s3,28(sp)
800059a4:	4a62                	lw	s4,24(sp)
800059a6:	4ad2                	lw	s5,20(sp)
800059a8:	4b42                	lw	s6,16(sp)
800059aa:	4bb2                	lw	s7,12(sp)
800059ac:	6145                	addi	sp,sp,48
800059ae:	8082                	ret
800059b0:	0905                	addi	s2,s2,1
800059b2:	bfad                	j	8000592c <_printf_common+0x54>
800059b4:	00d40733          	add	a4,s0,a3
800059b8:	03000613          	li	a2,48
800059bc:	04c701a3          	sb	a2,67(a4)
800059c0:	04544703          	lbu	a4,69(s0)
800059c4:	00168793          	addi	a5,a3,1
800059c8:	97a2                	add	a5,a5,s0
800059ca:	0689                	addi	a3,a3,2
800059cc:	04e781a3          	sb	a4,67(a5)
800059d0:	bf9d                	j	80005946 <_printf_common+0x6e>
800059d2:	4685                	li	a3,1
800059d4:	8622                	mv	a2,s0
800059d6:	85d6                	mv	a1,s5
800059d8:	854e                	mv	a0,s3
800059da:	9a02                	jalr	s4
800059dc:	fb650ee3          	beq	a0,s6,80005998 <_printf_common+0xc0>
800059e0:	0905                	addi	s2,s2,1
800059e2:	b745                	j	80005982 <_printf_common+0xaa>

800059e4 <_printf_i>:
_printf_i():
800059e4:	7179                	addi	sp,sp,-48
800059e6:	d422                	sw	s0,40(sp)
800059e8:	d226                	sw	s1,36(sp)
800059ea:	d04a                	sw	s2,32(sp)
800059ec:	ce4e                	sw	s3,28(sp)
800059ee:	d606                	sw	ra,44(sp)
800059f0:	cc52                	sw	s4,24(sp)
800059f2:	ca56                	sw	s5,20(sp)
800059f4:	c85a                	sw	s6,16(sp)
800059f6:	0185c803          	lbu	a6,24(a1)
800059fa:	07800793          	li	a5,120
800059fe:	84aa                	mv	s1,a0
80005a00:	842e                	mv	s0,a1
80005a02:	8932                	mv	s2,a2
80005a04:	89b6                	mv	s3,a3
80005a06:	0107ee63          	bltu	a5,a6,80005a22 <_printf_i+0x3e>
80005a0a:	06200793          	li	a5,98
80005a0e:	04358693          	addi	a3,a1,67
80005a12:	0107ed63          	bltu	a5,a6,80005a2c <_printf_i+0x48>
80005a16:	1c080563          	beqz	a6,80005be0 <_printf_i+0x1fc>
80005a1a:	05800793          	li	a5,88
80005a1e:	12f80a63          	beq	a6,a5,80005b52 <_printf_i+0x16e>
80005a22:	04240a93          	addi	s5,s0,66
80005a26:	05040123          	sb	a6,66(s0)
80005a2a:	a815                	j	80005a5e <_printf_i+0x7a>
80005a2c:	f9d80793          	addi	a5,a6,-99
80005a30:	0ff7f793          	zext.b	a5,a5
80005a34:	4655                	li	a2,21
80005a36:	fef666e3          	bltu	a2,a5,80005a22 <_printf_i+0x3e>
80005a3a:	00003617          	auipc	a2,0x3
80005a3e:	31a60613          	addi	a2,a2,794 # 80008d54 <__clz_tab+0x13c>
80005a42:	078a                	slli	a5,a5,0x2
80005a44:	97b2                	add	a5,a5,a2
80005a46:	439c                	lw	a5,0(a5)
80005a48:	97b2                	add	a5,a5,a2
80005a4a:	8782                	jr	a5
80005a4c:	431c                	lw	a5,0(a4)
80005a4e:	04258a93          	addi	s5,a1,66
80005a52:	00478693          	addi	a3,a5,4
80005a56:	439c                	lw	a5,0(a5)
80005a58:	c314                	sw	a3,0(a4)
80005a5a:	04f58123          	sb	a5,66(a1)
80005a5e:	4785                	li	a5,1
80005a60:	a265                	j	80005c08 <_printf_i+0x224>
80005a62:	419c                	lw	a5,0(a1)
80005a64:	4308                	lw	a0,0(a4)
80005a66:	0807f613          	andi	a2,a5,128
80005a6a:	00450593          	addi	a1,a0,4
80005a6e:	c20d                	beqz	a2,80005a90 <_printf_i+0xac>
80005a70:	411c                	lw	a5,0(a0)
80005a72:	c30c                	sw	a1,0(a4)
80005a74:	0007d863          	bgez	a5,80005a84 <_printf_i+0xa0>
80005a78:	02d00713          	li	a4,45
80005a7c:	40f007b3          	neg	a5,a5
80005a80:	04e401a3          	sb	a4,67(s0)
80005a84:	00003617          	auipc	a2,0x3
80005a88:	2a860613          	addi	a2,a2,680 # 80008d2c <__clz_tab+0x114>
80005a8c:	4829                	li	a6,10
80005a8e:	a0a1                	j	80005ad6 <_printf_i+0xf2>
80005a90:	0407f613          	andi	a2,a5,64
80005a94:	411c                	lw	a5,0(a0)
80005a96:	c30c                	sw	a1,0(a4)
80005a98:	de71                	beqz	a2,80005a74 <_printf_i+0x90>
80005a9a:	07c2                	slli	a5,a5,0x10
80005a9c:	87c1                	srai	a5,a5,0x10
80005a9e:	bfd9                	j	80005a74 <_printf_i+0x90>
80005aa0:	4190                	lw	a2,0(a1)
80005aa2:	431c                	lw	a5,0(a4)
80005aa4:	08067513          	andi	a0,a2,128
80005aa8:	00478593          	addi	a1,a5,4
80005aac:	c501                	beqz	a0,80005ab4 <_printf_i+0xd0>
80005aae:	c30c                	sw	a1,0(a4)
80005ab0:	439c                	lw	a5,0(a5)
80005ab2:	a039                	j	80005ac0 <_printf_i+0xdc>
80005ab4:	04067613          	andi	a2,a2,64
80005ab8:	c30c                	sw	a1,0(a4)
80005aba:	da7d                	beqz	a2,80005ab0 <_printf_i+0xcc>
80005abc:	0007d783          	lhu	a5,0(a5)
80005ac0:	06f00713          	li	a4,111
80005ac4:	00003617          	auipc	a2,0x3
80005ac8:	26860613          	addi	a2,a2,616 # 80008d2c <__clz_tab+0x114>
80005acc:	0ee80463          	beq	a6,a4,80005bb4 <_printf_i+0x1d0>
80005ad0:	4829                	li	a6,10
80005ad2:	040401a3          	sb	zero,67(s0)
80005ad6:	4058                	lw	a4,4(s0)
80005ad8:	c418                	sw	a4,8(s0)
80005ada:	00074563          	bltz	a4,80005ae4 <_printf_i+0x100>
80005ade:	400c                	lw	a1,0(s0)
80005ae0:	99ed                	andi	a1,a1,-5
80005ae2:	c00c                	sw	a1,0(s0)
80005ae4:	e399                	bnez	a5,80005aea <_printf_i+0x106>
80005ae6:	8ab6                	mv	s5,a3
80005ae8:	cf19                	beqz	a4,80005b06 <_printf_i+0x122>
80005aea:	8ab6                	mv	s5,a3
80005aec:	0307f733          	remu	a4,a5,a6
80005af0:	1afd                	addi	s5,s5,-1
80005af2:	9732                	add	a4,a4,a2
80005af4:	00074703          	lbu	a4,0(a4)
80005af8:	00ea8023          	sb	a4,0(s5)
80005afc:	873e                	mv	a4,a5
80005afe:	0307d7b3          	divu	a5,a5,a6
80005b02:	ff0775e3          	bgeu	a4,a6,80005aec <_printf_i+0x108>
80005b06:	47a1                	li	a5,8
80005b08:	00f81e63          	bne	a6,a5,80005b24 <_printf_i+0x140>
80005b0c:	401c                	lw	a5,0(s0)
80005b0e:	8b85                	andi	a5,a5,1
80005b10:	cb91                	beqz	a5,80005b24 <_printf_i+0x140>
80005b12:	4058                	lw	a4,4(s0)
80005b14:	481c                	lw	a5,16(s0)
80005b16:	00e7c763          	blt	a5,a4,80005b24 <_printf_i+0x140>
80005b1a:	03000793          	li	a5,48
80005b1e:	fefa8fa3          	sb	a5,-1(s5)
80005b22:	1afd                	addi	s5,s5,-1
80005b24:	415686b3          	sub	a3,a3,s5
80005b28:	c814                	sw	a3,16(s0)
80005b2a:	874e                	mv	a4,s3
80005b2c:	86ca                	mv	a3,s2
80005b2e:	0070                	addi	a2,sp,12
80005b30:	85a2                	mv	a1,s0
80005b32:	8526                	mv	a0,s1
80005b34:	3355                	jal	800058d8 <_printf_common>
80005b36:	5a7d                	li	s4,-1
80005b38:	0d451c63          	bne	a0,s4,80005c10 <_printf_i+0x22c>
80005b3c:	557d                	li	a0,-1
80005b3e:	50b2                	lw	ra,44(sp)
80005b40:	5422                	lw	s0,40(sp)
80005b42:	5492                	lw	s1,36(sp)
80005b44:	5902                	lw	s2,32(sp)
80005b46:	49f2                	lw	s3,28(sp)
80005b48:	4a62                	lw	s4,24(sp)
80005b4a:	4ad2                	lw	s5,20(sp)
80005b4c:	4b42                	lw	s6,16(sp)
80005b4e:	6145                	addi	sp,sp,48
80005b50:	8082                	ret
80005b52:	050582a3          	sb	a6,69(a1)
80005b56:	00003617          	auipc	a2,0x3
80005b5a:	1d660613          	addi	a2,a2,470 # 80008d2c <__clz_tab+0x114>
80005b5e:	400c                	lw	a1,0(s0)
80005b60:	4308                	lw	a0,0(a4)
80005b62:	0805f813          	andi	a6,a1,128
80005b66:	411c                	lw	a5,0(a0)
80005b68:	0511                	addi	a0,a0,4
80005b6a:	02080d63          	beqz	a6,80005ba4 <_printf_i+0x1c0>
80005b6e:	c308                	sw	a0,0(a4)
80005b70:	0015f713          	andi	a4,a1,1
80005b74:	c701                	beqz	a4,80005b7c <_printf_i+0x198>
80005b76:	0205e593          	ori	a1,a1,32
80005b7a:	c00c                	sw	a1,0(s0)
80005b7c:	4841                	li	a6,16
80005b7e:	fbb1                	bnez	a5,80005ad2 <_printf_i+0xee>
80005b80:	4018                	lw	a4,0(s0)
80005b82:	fdf77713          	andi	a4,a4,-33
80005b86:	c018                	sw	a4,0(s0)
80005b88:	b7a9                	j	80005ad2 <_printf_i+0xee>
80005b8a:	419c                	lw	a5,0(a1)
80005b8c:	0207e793          	ori	a5,a5,32
80005b90:	c19c                	sw	a5,0(a1)
80005b92:	07800793          	li	a5,120
80005b96:	04f402a3          	sb	a5,69(s0)
80005b9a:	00003617          	auipc	a2,0x3
80005b9e:	1a660613          	addi	a2,a2,422 # 80008d40 <__clz_tab+0x128>
80005ba2:	bf75                	j	80005b5e <_printf_i+0x17a>
80005ba4:	0405f813          	andi	a6,a1,64
80005ba8:	c308                	sw	a0,0(a4)
80005baa:	fc0803e3          	beqz	a6,80005b70 <_printf_i+0x18c>
80005bae:	07c2                	slli	a5,a5,0x10
80005bb0:	83c1                	srli	a5,a5,0x10
80005bb2:	bf7d                	j	80005b70 <_printf_i+0x18c>
80005bb4:	4821                	li	a6,8
80005bb6:	bf31                	j	80005ad2 <_printf_i+0xee>
80005bb8:	4190                	lw	a2,0(a1)
80005bba:	431c                	lw	a5,0(a4)
80005bbc:	49cc                	lw	a1,20(a1)
80005bbe:	08067813          	andi	a6,a2,128
80005bc2:	00478513          	addi	a0,a5,4
80005bc6:	00080663          	beqz	a6,80005bd2 <_printf_i+0x1ee>
80005bca:	c308                	sw	a0,0(a4)
80005bcc:	439c                	lw	a5,0(a5)
80005bce:	c38c                	sw	a1,0(a5)
80005bd0:	a801                	j	80005be0 <_printf_i+0x1fc>
80005bd2:	c308                	sw	a0,0(a4)
80005bd4:	04067613          	andi	a2,a2,64
80005bd8:	439c                	lw	a5,0(a5)
80005bda:	da75                	beqz	a2,80005bce <_printf_i+0x1ea>
80005bdc:	00b79023          	sh	a1,0(a5)
80005be0:	00042823          	sw	zero,16(s0)
80005be4:	8ab6                	mv	s5,a3
80005be6:	b791                	j	80005b2a <_printf_i+0x146>
80005be8:	431c                	lw	a5,0(a4)
80005bea:	41d0                	lw	a2,4(a1)
80005bec:	4581                	li	a1,0
80005bee:	00478693          	addi	a3,a5,4
80005bf2:	c314                	sw	a3,0(a4)
80005bf4:	0007aa83          	lw	s5,0(a5)
80005bf8:	8556                	mv	a0,s5
80005bfa:	632010ef          	jal	ra,8000722c <memchr>
80005bfe:	c501                	beqz	a0,80005c06 <_printf_i+0x222>
80005c00:	41550533          	sub	a0,a0,s5
80005c04:	c048                	sw	a0,4(s0)
80005c06:	405c                	lw	a5,4(s0)
80005c08:	c81c                	sw	a5,16(s0)
80005c0a:	040401a3          	sb	zero,67(s0)
80005c0e:	bf31                	j	80005b2a <_printf_i+0x146>
80005c10:	4814                	lw	a3,16(s0)
80005c12:	8656                	mv	a2,s5
80005c14:	85ca                	mv	a1,s2
80005c16:	8526                	mv	a0,s1
80005c18:	9982                	jalr	s3
80005c1a:	f34501e3          	beq	a0,s4,80005b3c <_printf_i+0x158>
80005c1e:	401c                	lw	a5,0(s0)
80005c20:	8b89                	andi	a5,a5,2
80005c22:	e78d                	bnez	a5,80005c4c <_printf_i+0x268>
80005c24:	47b2                	lw	a5,12(sp)
80005c26:	4448                	lw	a0,12(s0)
80005c28:	f0f55be3          	bge	a0,a5,80005b3e <_printf_i+0x15a>
80005c2c:	853e                	mv	a0,a5
80005c2e:	bf01                	j	80005b3e <_printf_i+0x15a>
80005c30:	4685                	li	a3,1
80005c32:	8656                	mv	a2,s5
80005c34:	85ca                	mv	a1,s2
80005c36:	8526                	mv	a0,s1
80005c38:	9982                	jalr	s3
80005c3a:	f16501e3          	beq	a0,s6,80005b3c <_printf_i+0x158>
80005c3e:	0a05                	addi	s4,s4,1
80005c40:	445c                	lw	a5,12(s0)
80005c42:	4732                	lw	a4,12(sp)
80005c44:	8f99                	sub	a5,a5,a4
80005c46:	fefa45e3          	blt	s4,a5,80005c30 <_printf_i+0x24c>
80005c4a:	bfe9                	j	80005c24 <_printf_i+0x240>
80005c4c:	4a01                	li	s4,0
80005c4e:	01940a93          	addi	s5,s0,25
80005c52:	5b7d                	li	s6,-1
80005c54:	b7f5                	j	80005c40 <_printf_i+0x25c>

80005c56 <iprintf>:
printf():
80005c56:	715d                	addi	sp,sp,-80
80005c58:	d422                	sw	s0,40(sp)
80005c5a:	d606                	sw	ra,44(sp)
80005c5c:	842a                	mv	s0,a0
80005c5e:	da2e                	sw	a1,52(sp)
80005c60:	dc32                	sw	a2,56(sp)
80005c62:	de36                	sw	a3,60(sp)
80005c64:	c0ba                	sw	a4,64(sp)
80005c66:	c2be                	sw	a5,68(sp)
80005c68:	c4c2                	sw	a6,72(sp)
80005c6a:	c6c6                	sw	a7,76(sp)
80005c6c:	80c1a503          	lw	a0,-2036(gp) # 90008fbc <_impure_ptr>
80005c70:	c519                	beqz	a0,80005c7e <iprintf+0x28>
80005c72:	4d1c                	lw	a5,24(a0)
80005c74:	e789                	bnez	a5,80005c7e <iprintf+0x28>
80005c76:	c62a                	sw	a0,12(sp)
80005c78:	33c010ef          	jal	ra,80006fb4 <__sinit>
80005c7c:	4532                	lw	a0,12(sp)
80005c7e:	450c                	lw	a1,8(a0)
80005c80:	1854                	addi	a3,sp,52
80005c82:	8622                	mv	a2,s0
80005c84:	ce36                	sw	a3,28(sp)
80005c86:	1d4020ef          	jal	ra,80007e5a <_vfiprintf_r>
80005c8a:	50b2                	lw	ra,44(sp)
80005c8c:	5422                	lw	s0,40(sp)
80005c8e:	6161                	addi	sp,sp,80
80005c90:	8082                	ret

80005c92 <_puts_r>:
_puts_r():
80005c92:	1101                	addi	sp,sp,-32
80005c94:	ca26                	sw	s1,20(sp)
80005c96:	c84a                	sw	s2,16(sp)
80005c98:	ce06                	sw	ra,28(sp)
80005c9a:	cc22                	sw	s0,24(sp)
80005c9c:	c64e                	sw	s3,12(sp)
80005c9e:	c452                	sw	s4,8(sp)
80005ca0:	84aa                	mv	s1,a0
80005ca2:	892e                	mv	s2,a1
80005ca4:	c509                	beqz	a0,80005cae <_puts_r+0x1c>
80005ca6:	4d1c                	lw	a5,24(a0)
80005ca8:	e399                	bnez	a5,80005cae <_puts_r+0x1c>
80005caa:	30a010ef          	jal	ra,80006fb4 <__sinit>
80005cae:	4c9c                	lw	a5,24(s1)
80005cb0:	4480                	lw	s0,8(s1)
80005cb2:	e781                	bnez	a5,80005cba <_puts_r+0x28>
80005cb4:	8526                	mv	a0,s1
80005cb6:	2fe010ef          	jal	ra,80006fb4 <__sinit>
80005cba:	00003797          	auipc	a5,0x3
80005cbe:	1a278793          	addi	a5,a5,418 # 80008e5c <__sf_fake_stdin>
80005cc2:	02f41c63          	bne	s0,a5,80005cfa <_puts_r+0x68>
80005cc6:	40c0                	lw	s0,4(s1)
80005cc8:	00c45783          	lhu	a5,12(s0)
80005ccc:	8ba1                	andi	a5,a5,8
80005cce:	c7b1                	beqz	a5,80005d1a <_puts_r+0x88>
80005cd0:	481c                	lw	a5,16(s0)
80005cd2:	c7a1                	beqz	a5,80005d1a <_puts_r+0x88>
80005cd4:	59fd                	li	s3,-1
80005cd6:	4a29                	li	s4,10
80005cd8:	441c                	lw	a5,8(s0)
80005cda:	00094583          	lbu	a1,0(s2) # 800000 <__stack_size+0x7ff800>
80005cde:	17fd                	addi	a5,a5,-1
80005ce0:	e9b1                	bnez	a1,80005d34 <_puts_r+0xa2>
80005ce2:	c41c                	sw	a5,8(s0)
80005ce4:	0607de63          	bgez	a5,80005d60 <_puts_r+0xce>
80005ce8:	8622                	mv	a2,s0
80005cea:	45a9                	li	a1,10
80005cec:	8526                	mv	a0,s1
80005cee:	2045                	jal	80005d8e <__swbuf_r>
80005cf0:	57fd                	li	a5,-1
80005cf2:	02f50863          	beq	a0,a5,80005d22 <_puts_r+0x90>
80005cf6:	4529                	li	a0,10
80005cf8:	a035                	j	80005d24 <_puts_r+0x92>
80005cfa:	00003797          	auipc	a5,0x3
80005cfe:	18278793          	addi	a5,a5,386 # 80008e7c <__sf_fake_stdout>
80005d02:	00f41463          	bne	s0,a5,80005d0a <_puts_r+0x78>
80005d06:	4480                	lw	s0,8(s1)
80005d08:	b7c1                	j	80005cc8 <_puts_r+0x36>
80005d0a:	00003797          	auipc	a5,0x3
80005d0e:	13278793          	addi	a5,a5,306 # 80008e3c <__sf_fake_stderr>
80005d12:	faf41be3          	bne	s0,a5,80005cc8 <_puts_r+0x36>
80005d16:	44c0                	lw	s0,12(s1)
80005d18:	bf45                	j	80005cc8 <_puts_r+0x36>
80005d1a:	85a2                	mv	a1,s0
80005d1c:	8526                	mv	a0,s1
80005d1e:	2a1d                	jal	80005e54 <__swsetup_r>
80005d20:	d955                	beqz	a0,80005cd4 <_puts_r+0x42>
80005d22:	557d                	li	a0,-1
80005d24:	40f2                	lw	ra,28(sp)
80005d26:	4462                	lw	s0,24(sp)
80005d28:	44d2                	lw	s1,20(sp)
80005d2a:	4942                	lw	s2,16(sp)
80005d2c:	49b2                	lw	s3,12(sp)
80005d2e:	4a22                	lw	s4,8(sp)
80005d30:	6105                	addi	sp,sp,32
80005d32:	8082                	ret
80005d34:	c41c                	sw	a5,8(s0)
80005d36:	0905                	addi	s2,s2,1
80005d38:	0007d763          	bgez	a5,80005d46 <_puts_r+0xb4>
80005d3c:	4c18                	lw	a4,24(s0)
80005d3e:	00e7cb63          	blt	a5,a4,80005d54 <_puts_r+0xc2>
80005d42:	01458963          	beq	a1,s4,80005d54 <_puts_r+0xc2>
80005d46:	401c                	lw	a5,0(s0)
80005d48:	00178713          	addi	a4,a5,1
80005d4c:	c018                	sw	a4,0(s0)
80005d4e:	00b78023          	sb	a1,0(a5)
80005d52:	b759                	j	80005cd8 <_puts_r+0x46>
80005d54:	8622                	mv	a2,s0
80005d56:	8526                	mv	a0,s1
80005d58:	281d                	jal	80005d8e <__swbuf_r>
80005d5a:	f7351fe3          	bne	a0,s3,80005cd8 <_puts_r+0x46>
80005d5e:	b7d1                	j	80005d22 <_puts_r+0x90>
80005d60:	401c                	lw	a5,0(s0)
80005d62:	00178713          	addi	a4,a5,1
80005d66:	c018                	sw	a4,0(s0)
80005d68:	4729                	li	a4,10
80005d6a:	00e78023          	sb	a4,0(a5)
80005d6e:	b761                	j	80005cf6 <_puts_r+0x64>

80005d70 <puts>:
puts():
80005d70:	85aa                	mv	a1,a0
80005d72:	80c1a503          	lw	a0,-2036(gp) # 90008fbc <_impure_ptr>
80005d76:	bf31                	j	80005c92 <_puts_r>

80005d78 <strlen>:
strlen():
80005d78:	87aa                	mv	a5,a0
80005d7a:	0007c703          	lbu	a4,0(a5)
80005d7e:	0785                	addi	a5,a5,1
80005d80:	ff6d                	bnez	a4,80005d7a <strlen+0x2>
80005d82:	40a78533          	sub	a0,a5,a0
80005d86:	157d                	addi	a0,a0,-1
80005d88:	8082                	ret

80005d8a <isatty>:
isatty():
80005d8a:	bbcfa06f          	j	80000146 <_isatty>

80005d8e <__swbuf_r>:
__swbuf_r():
80005d8e:	1101                	addi	sp,sp,-32
80005d90:	cc22                	sw	s0,24(sp)
80005d92:	ca26                	sw	s1,20(sp)
80005d94:	c84a                	sw	s2,16(sp)
80005d96:	ce06                	sw	ra,28(sp)
80005d98:	c64e                	sw	s3,12(sp)
80005d9a:	84aa                	mv	s1,a0
80005d9c:	892e                	mv	s2,a1
80005d9e:	8432                	mv	s0,a2
80005da0:	c509                	beqz	a0,80005daa <__swbuf_r+0x1c>
80005da2:	4d1c                	lw	a5,24(a0)
80005da4:	e399                	bnez	a5,80005daa <__swbuf_r+0x1c>
80005da6:	20e010ef          	jal	ra,80006fb4 <__sinit>
80005daa:	00003797          	auipc	a5,0x3
80005dae:	0b278793          	addi	a5,a5,178 # 80008e5c <__sf_fake_stdin>
80005db2:	06f41b63          	bne	s0,a5,80005e28 <__swbuf_r+0x9a>
80005db6:	40c0                	lw	s0,4(s1)
80005db8:	4c1c                	lw	a5,24(s0)
80005dba:	c41c                	sw	a5,8(s0)
80005dbc:	00c45783          	lhu	a5,12(s0)
80005dc0:	8ba1                	andi	a5,a5,8
80005dc2:	c3d9                	beqz	a5,80005e48 <__swbuf_r+0xba>
80005dc4:	481c                	lw	a5,16(s0)
80005dc6:	c3c9                	beqz	a5,80005e48 <__swbuf_r+0xba>
80005dc8:	481c                	lw	a5,16(s0)
80005dca:	4008                	lw	a0,0(s0)
80005dcc:	0ff97993          	zext.b	s3,s2
80005dd0:	0ff97913          	zext.b	s2,s2
80005dd4:	8d1d                	sub	a0,a0,a5
80005dd6:	485c                	lw	a5,20(s0)
80005dd8:	00f54763          	blt	a0,a5,80005de6 <__swbuf_r+0x58>
80005ddc:	85a2                	mv	a1,s0
80005dde:	8526                	mv	a0,s1
80005de0:	0b8010ef          	jal	ra,80006e98 <_fflush_r>
80005de4:	e535                	bnez	a0,80005e50 <__swbuf_r+0xc2>
80005de6:	441c                	lw	a5,8(s0)
80005de8:	0505                	addi	a0,a0,1
80005dea:	17fd                	addi	a5,a5,-1
80005dec:	c41c                	sw	a5,8(s0)
80005dee:	401c                	lw	a5,0(s0)
80005df0:	00178713          	addi	a4,a5,1
80005df4:	c018                	sw	a4,0(s0)
80005df6:	01378023          	sb	s3,0(a5)
80005dfa:	485c                	lw	a5,20(s0)
80005dfc:	00a78963          	beq	a5,a0,80005e0e <__swbuf_r+0x80>
80005e00:	00c45783          	lhu	a5,12(s0)
80005e04:	8b85                	andi	a5,a5,1
80005e06:	cb89                	beqz	a5,80005e18 <__swbuf_r+0x8a>
80005e08:	47a9                	li	a5,10
80005e0a:	00f91763          	bne	s2,a5,80005e18 <__swbuf_r+0x8a>
80005e0e:	85a2                	mv	a1,s0
80005e10:	8526                	mv	a0,s1
80005e12:	086010ef          	jal	ra,80006e98 <_fflush_r>
80005e16:	ed0d                	bnez	a0,80005e50 <__swbuf_r+0xc2>
80005e18:	40f2                	lw	ra,28(sp)
80005e1a:	4462                	lw	s0,24(sp)
80005e1c:	44d2                	lw	s1,20(sp)
80005e1e:	49b2                	lw	s3,12(sp)
80005e20:	854a                	mv	a0,s2
80005e22:	4942                	lw	s2,16(sp)
80005e24:	6105                	addi	sp,sp,32
80005e26:	8082                	ret
80005e28:	00003797          	auipc	a5,0x3
80005e2c:	05478793          	addi	a5,a5,84 # 80008e7c <__sf_fake_stdout>
80005e30:	00f41463          	bne	s0,a5,80005e38 <__swbuf_r+0xaa>
80005e34:	4480                	lw	s0,8(s1)
80005e36:	b749                	j	80005db8 <__swbuf_r+0x2a>
80005e38:	00003797          	auipc	a5,0x3
80005e3c:	00478793          	addi	a5,a5,4 # 80008e3c <__sf_fake_stderr>
80005e40:	f6f41ce3          	bne	s0,a5,80005db8 <__swbuf_r+0x2a>
80005e44:	44c0                	lw	s0,12(s1)
80005e46:	bf8d                	j	80005db8 <__swbuf_r+0x2a>
80005e48:	85a2                	mv	a1,s0
80005e4a:	8526                	mv	a0,s1
80005e4c:	2021                	jal	80005e54 <__swsetup_r>
80005e4e:	dd2d                	beqz	a0,80005dc8 <__swbuf_r+0x3a>
80005e50:	597d                	li	s2,-1
80005e52:	b7d9                	j	80005e18 <__swbuf_r+0x8a>

80005e54 <__swsetup_r>:
__swsetup_r():
80005e54:	1141                	addi	sp,sp,-16
80005e56:	c422                	sw	s0,8(sp)
80005e58:	c226                	sw	s1,4(sp)
80005e5a:	c04a                	sw	s2,0(sp)
80005e5c:	c606                	sw	ra,12(sp)
80005e5e:	80c1a483          	lw	s1,-2036(gp) # 90008fbc <_impure_ptr>
80005e62:	892a                	mv	s2,a0
80005e64:	842e                	mv	s0,a1
80005e66:	c491                	beqz	s1,80005e72 <__swsetup_r+0x1e>
80005e68:	4c9c                	lw	a5,24(s1)
80005e6a:	e781                	bnez	a5,80005e72 <__swsetup_r+0x1e>
80005e6c:	8526                	mv	a0,s1
80005e6e:	146010ef          	jal	ra,80006fb4 <__sinit>
80005e72:	00003797          	auipc	a5,0x3
80005e76:	fea78793          	addi	a5,a5,-22 # 80008e5c <__sf_fake_stdin>
80005e7a:	02f41763          	bne	s0,a5,80005ea8 <__swsetup_r+0x54>
80005e7e:	40c0                	lw	s0,4(s1)
80005e80:	00c41783          	lh	a5,12(s0)
80005e84:	01079713          	slli	a4,a5,0x10
80005e88:	0087f693          	andi	a3,a5,8
80005e8c:	8341                	srli	a4,a4,0x10
80005e8e:	eab5                	bnez	a3,80005f02 <__swsetup_r+0xae>
80005e90:	01077693          	andi	a3,a4,16
80005e94:	ea95                	bnez	a3,80005ec8 <__swsetup_r+0x74>
80005e96:	4725                	li	a4,9
80005e98:	00e92023          	sw	a4,0(s2)
80005e9c:	0407e793          	ori	a5,a5,64
80005ea0:	00f41623          	sh	a5,12(s0)
80005ea4:	557d                	li	a0,-1
80005ea6:	a045                	j	80005f46 <__swsetup_r+0xf2>
80005ea8:	00003797          	auipc	a5,0x3
80005eac:	fd478793          	addi	a5,a5,-44 # 80008e7c <__sf_fake_stdout>
80005eb0:	00f41463          	bne	s0,a5,80005eb8 <__swsetup_r+0x64>
80005eb4:	4480                	lw	s0,8(s1)
80005eb6:	b7e9                	j	80005e80 <__swsetup_r+0x2c>
80005eb8:	00003797          	auipc	a5,0x3
80005ebc:	f8478793          	addi	a5,a5,-124 # 80008e3c <__sf_fake_stderr>
80005ec0:	fcf410e3          	bne	s0,a5,80005e80 <__swsetup_r+0x2c>
80005ec4:	44c0                	lw	s0,12(s1)
80005ec6:	bf6d                	j	80005e80 <__swsetup_r+0x2c>
80005ec8:	8b11                	andi	a4,a4,4
80005eca:	c715                	beqz	a4,80005ef6 <__swsetup_r+0xa2>
80005ecc:	584c                	lw	a1,52(s0)
80005ece:	c991                	beqz	a1,80005ee2 <__swsetup_r+0x8e>
80005ed0:	04440793          	addi	a5,s0,68
80005ed4:	00f58563          	beq	a1,a5,80005ede <__swsetup_r+0x8a>
80005ed8:	854a                	mv	a0,s2
80005eda:	5a7010ef          	jal	ra,80007c80 <_free_r>
80005ede:	02042a23          	sw	zero,52(s0)
80005ee2:	00c45783          	lhu	a5,12(s0)
80005ee6:	00042223          	sw	zero,4(s0)
80005eea:	fdb7f793          	andi	a5,a5,-37
80005eee:	00f41623          	sh	a5,12(s0)
80005ef2:	481c                	lw	a5,16(s0)
80005ef4:	c01c                	sw	a5,0(s0)
80005ef6:	00c45783          	lhu	a5,12(s0)
80005efa:	0087e793          	ori	a5,a5,8
80005efe:	00f41623          	sh	a5,12(s0)
80005f02:	481c                	lw	a5,16(s0)
80005f04:	ef89                	bnez	a5,80005f1e <__swsetup_r+0xca>
80005f06:	00c45783          	lhu	a5,12(s0)
80005f0a:	20000713          	li	a4,512
80005f0e:	2807f793          	andi	a5,a5,640
80005f12:	00e78663          	beq	a5,a4,80005f1e <__swsetup_r+0xca>
80005f16:	85a2                	mv	a1,s0
80005f18:	854a                	mv	a0,s2
80005f1a:	268010ef          	jal	ra,80007182 <__smakebuf_r>
80005f1e:	00c41783          	lh	a5,12(s0)
80005f22:	01079713          	slli	a4,a5,0x10
80005f26:	0017f693          	andi	a3,a5,1
80005f2a:	8341                	srli	a4,a4,0x10
80005f2c:	c29d                	beqz	a3,80005f52 <__swsetup_r+0xfe>
80005f2e:	4854                	lw	a3,20(s0)
80005f30:	00042423          	sw	zero,8(s0)
80005f34:	40d006b3          	neg	a3,a3
80005f38:	cc14                	sw	a3,24(s0)
80005f3a:	4814                	lw	a3,16(s0)
80005f3c:	4501                	li	a0,0
80005f3e:	e681                	bnez	a3,80005f46 <__swsetup_r+0xf2>
80005f40:	08077713          	andi	a4,a4,128
80005f44:	ff21                	bnez	a4,80005e9c <__swsetup_r+0x48>
80005f46:	40b2                	lw	ra,12(sp)
80005f48:	4422                	lw	s0,8(sp)
80005f4a:	4492                	lw	s1,4(sp)
80005f4c:	4902                	lw	s2,0(sp)
80005f4e:	0141                	addi	sp,sp,16
80005f50:	8082                	ret
80005f52:	00277693          	andi	a3,a4,2
80005f56:	4601                	li	a2,0
80005f58:	e291                	bnez	a3,80005f5c <__swsetup_r+0x108>
80005f5a:	4850                	lw	a2,20(s0)
80005f5c:	c410                	sw	a2,8(s0)
80005f5e:	bff1                	j	80005f3a <__swsetup_r+0xe6>

80005f60 <__register_exitproc>:
__register_exitproc():
80005f60:	88aa                	mv	a7,a0
80005f62:	88818513          	addi	a0,gp,-1912 # 90009038 <_global_atexit>
80005f66:	411c                	lw	a5,0(a0)
80005f68:	ef91                	bnez	a5,80005f84 <__register_exitproc+0x24>
80005f6a:	1000e717          	auipc	a4,0x1000e
80005f6e:	dfe70713          	addi	a4,a4,-514 # 90013d68 <_global_atexit0>
80005f72:	c118                	sw	a4,0(a0)
80005f74:	00000513          	li	a0,0
80005f78:	87ba                	mv	a5,a4
80005f7a:	c509                	beqz	a0,80005f84 <__register_exitproc+0x24>
80005f7c:	411c                	lw	a5,0(a0)
80005f7e:	08f72423          	sw	a5,136(a4)
80005f82:	87ba                	mv	a5,a4
80005f84:	43d8                	lw	a4,4(a5)
80005f86:	487d                	li	a6,31
80005f88:	557d                	li	a0,-1
80005f8a:	04e84663          	blt	a6,a4,80005fd6 <__register_exitproc+0x76>
80005f8e:	02088d63          	beqz	a7,80005fc8 <__register_exitproc+0x68>
80005f92:	0887a803          	lw	a6,136(a5)
80005f96:	04080063          	beqz	a6,80005fd6 <__register_exitproc+0x76>
80005f9a:	00271513          	slli	a0,a4,0x2
80005f9e:	9542                	add	a0,a0,a6
80005fa0:	c110                	sw	a2,0(a0)
80005fa2:	10082303          	lw	t1,256(a6)
80005fa6:	4605                	li	a2,1
80005fa8:	00e61633          	sll	a2,a2,a4
80005fac:	00c36333          	or	t1,t1,a2
80005fb0:	10682023          	sw	t1,256(a6)
80005fb4:	08d52023          	sw	a3,128(a0)
80005fb8:	4689                	li	a3,2
80005fba:	00d89763          	bne	a7,a3,80005fc8 <__register_exitproc+0x68>
80005fbe:	10482683          	lw	a3,260(a6)
80005fc2:	8e55                	or	a2,a2,a3
80005fc4:	10c82223          	sw	a2,260(a6)
80005fc8:	00170693          	addi	a3,a4,1
80005fcc:	070a                	slli	a4,a4,0x2
80005fce:	c3d4                	sw	a3,4(a5)
80005fd0:	97ba                	add	a5,a5,a4
80005fd2:	c78c                	sw	a1,8(a5)
80005fd4:	4501                	li	a0,0
80005fd6:	8082                	ret

80005fd8 <quorem>:
quorem():
80005fd8:	1101                	addi	sp,sp,-32
80005fda:	cc22                	sw	s0,24(sp)
80005fdc:	491c                	lw	a5,16(a0)
80005fde:	4980                	lw	s0,16(a1)
80005fe0:	ce06                	sw	ra,28(sp)
80005fe2:	ca26                	sw	s1,20(sp)
80005fe4:	c84a                	sw	s2,16(sp)
80005fe6:	c64e                	sw	s3,12(sp)
80005fe8:	c452                	sw	s4,8(sp)
80005fea:	c256                	sw	s5,4(sp)
80005fec:	1087ca63          	blt	a5,s0,80006100 <quorem+0x128>
80005ff0:	147d                	addi	s0,s0,-1
80005ff2:	00241613          	slli	a2,s0,0x2
80005ff6:	01458a13          	addi	s4,a1,20
80005ffa:	00ca0ab3          	add	s5,s4,a2
80005ffe:	01450993          	addi	s3,a0,20
80006002:	000aa783          	lw	a5,0(s5)
80006006:	964e                	add	a2,a2,s3
80006008:	4218                	lw	a4,0(a2)
8000600a:	0785                	addi	a5,a5,1
8000600c:	892a                	mv	s2,a0
8000600e:	02f754b3          	divu	s1,a4,a5
80006012:	06f76263          	bltu	a4,a5,80006076 <quorem+0x9e>
80006016:	6541                	lui	a0,0x10
80006018:	8852                	mv	a6,s4
8000601a:	88ce                	mv	a7,s3
8000601c:	4301                	li	t1,0
8000601e:	4e01                	li	t3,0
80006020:	157d                	addi	a0,a0,-1
80006022:	00082683          	lw	a3,0(a6)
80006026:	0891                	addi	a7,a7,4
80006028:	0811                	addi	a6,a6,4
8000602a:	00a6f7b3          	and	a5,a3,a0
8000602e:	82c1                	srli	a3,a3,0x10
80006030:	029787b3          	mul	a5,a5,s1
80006034:	029686b3          	mul	a3,a3,s1
80006038:	979a                	add	a5,a5,t1
8000603a:	0107d713          	srli	a4,a5,0x10
8000603e:	8fe9                	and	a5,a5,a0
80006040:	40fe07b3          	sub	a5,t3,a5
80006044:	96ba                	add	a3,a3,a4
80006046:	ffc8a703          	lw	a4,-4(a7) # 3ffffc <__stack_size+0x3ff7fc>
8000604a:	0106d313          	srli	t1,a3,0x10
8000604e:	8ee9                	and	a3,a3,a0
80006050:	00a77e33          	and	t3,a4,a0
80006054:	97f2                	add	a5,a5,t3
80006056:	8341                	srli	a4,a4,0x10
80006058:	8f15                	sub	a4,a4,a3
8000605a:	4107d693          	srai	a3,a5,0x10
8000605e:	9736                	add	a4,a4,a3
80006060:	41075e13          	srai	t3,a4,0x10
80006064:	8fe9                	and	a5,a5,a0
80006066:	0742                	slli	a4,a4,0x10
80006068:	8fd9                	or	a5,a5,a4
8000606a:	fef8ae23          	sw	a5,-4(a7)
8000606e:	fb0afae3          	bgeu	s5,a6,80006022 <quorem+0x4a>
80006072:	421c                	lw	a5,0(a2)
80006074:	c7bd                	beqz	a5,800060e2 <quorem+0x10a>
80006076:	854a                	mv	a0,s2
80006078:	153010ef          	jal	ra,800079ca <__mcmp>
8000607c:	04054663          	bltz	a0,800060c8 <quorem+0xf0>
80006080:	66c1                	lui	a3,0x10
80006082:	0485                	addi	s1,s1,1
80006084:	864e                	mv	a2,s3
80006086:	4581                	li	a1,0
80006088:	16fd                	addi	a3,a3,-1
8000608a:	000a2503          	lw	a0,0(s4)
8000608e:	421c                	lw	a5,0(a2)
80006090:	0611                	addi	a2,a2,4
80006092:	00d57733          	and	a4,a0,a3
80006096:	8d99                	sub	a1,a1,a4
80006098:	00d7f733          	and	a4,a5,a3
8000609c:	972e                	add	a4,a4,a1
8000609e:	83c1                	srli	a5,a5,0x10
800060a0:	8141                	srli	a0,a0,0x10
800060a2:	41075593          	srai	a1,a4,0x10
800060a6:	8f89                	sub	a5,a5,a0
800060a8:	97ae                	add	a5,a5,a1
800060aa:	4107d593          	srai	a1,a5,0x10
800060ae:	8f75                	and	a4,a4,a3
800060b0:	07c2                	slli	a5,a5,0x10
800060b2:	8fd9                	or	a5,a5,a4
800060b4:	0a11                	addi	s4,s4,4
800060b6:	fef62e23          	sw	a5,-4(a2)
800060ba:	fd4af8e3          	bgeu	s5,s4,8000608a <quorem+0xb2>
800060be:	00241793          	slli	a5,s0,0x2
800060c2:	97ce                	add	a5,a5,s3
800060c4:	4398                	lw	a4,0(a5)
800060c6:	c71d                	beqz	a4,800060f4 <quorem+0x11c>
800060c8:	8526                	mv	a0,s1
800060ca:	40f2                	lw	ra,28(sp)
800060cc:	4462                	lw	s0,24(sp)
800060ce:	44d2                	lw	s1,20(sp)
800060d0:	4942                	lw	s2,16(sp)
800060d2:	49b2                	lw	s3,12(sp)
800060d4:	4a22                	lw	s4,8(sp)
800060d6:	4a92                	lw	s5,4(sp)
800060d8:	6105                	addi	sp,sp,32
800060da:	8082                	ret
800060dc:	421c                	lw	a5,0(a2)
800060de:	e789                	bnez	a5,800060e8 <quorem+0x110>
800060e0:	147d                	addi	s0,s0,-1
800060e2:	1671                	addi	a2,a2,-4
800060e4:	fec9ece3          	bltu	s3,a2,800060dc <quorem+0x104>
800060e8:	00892823          	sw	s0,16(s2)
800060ec:	b769                	j	80006076 <quorem+0x9e>
800060ee:	4398                	lw	a4,0(a5)
800060f0:	e709                	bnez	a4,800060fa <quorem+0x122>
800060f2:	147d                	addi	s0,s0,-1
800060f4:	17f1                	addi	a5,a5,-4
800060f6:	fef9ece3          	bltu	s3,a5,800060ee <quorem+0x116>
800060fa:	00892823          	sw	s0,16(s2)
800060fe:	b7e9                	j	800060c8 <quorem+0xf0>
80006100:	4501                	li	a0,0
80006102:	b7e1                	j	800060ca <quorem+0xf2>

80006104 <_dtoa_r>:
_dtoa_r():
80006104:	7135                	addi	sp,sp,-160
80006106:	dc3e                	sw	a5,56(sp)
80006108:	515c                	lw	a5,36(a0)
8000610a:	cd22                	sw	s0,152(sp)
8000610c:	cb26                	sw	s1,148(sp)
8000610e:	c94a                	sw	s2,144(sp)
80006110:	c74e                	sw	s3,140(sp)
80006112:	c552                	sw	s4,136(sp)
80006114:	d8ea                	sw	s10,112(sp)
80006116:	cf06                	sw	ra,156(sp)
80006118:	c356                	sw	s5,132(sp)
8000611a:	c15a                	sw	s6,128(sp)
8000611c:	dede                	sw	s7,124(sp)
8000611e:	dce2                	sw	s8,120(sp)
80006120:	dae6                	sw	s9,116(sp)
80006122:	d6ee                	sw	s11,108(sp)
80006124:	cc3a                	sw	a4,24(sp)
80006126:	ce46                	sw	a7,28(sp)
80006128:	c82e                	sw	a1,16(sp)
8000612a:	892a                	mv	s2,a0
8000612c:	84ae                	mv	s1,a1
8000612e:	8432                	mv	s0,a2
80006130:	8d36                	mv	s10,a3
80006132:	8a42                	mv	s4,a6
80006134:	89b2                	mv	s3,a2
80006136:	ef85                	bnez	a5,8000616e <_dtoa_r+0x6a>
80006138:	4541                	li	a0,16
8000613a:	0e8010ef          	jal	ra,80007222 <malloc>
8000613e:	02a92223          	sw	a0,36(s2)
80006142:	ed11                	bnez	a0,8000615e <_dtoa_r+0x5a>
80006144:	00003697          	auipc	a3,0x3
80006148:	c7868693          	addi	a3,a3,-904 # 80008dbc <__clz_tab+0x1a4>
8000614c:	4601                	li	a2,0
8000614e:	0ea00593          	li	a1,234
80006152:	00003517          	auipc	a0,0x3
80006156:	c8250513          	addi	a0,a0,-894 # 80008dd4 <__clz_tab+0x1bc>
8000615a:	0ac020ef          	jal	ra,80008206 <__assert_func>
8000615e:	00052223          	sw	zero,4(a0)
80006162:	00052423          	sw	zero,8(a0)
80006166:	00052023          	sw	zero,0(a0)
8000616a:	00052623          	sw	zero,12(a0)
8000616e:	02492783          	lw	a5,36(s2)
80006172:	438c                	lw	a1,0(a5)
80006174:	cd91                	beqz	a1,80006190 <_dtoa_r+0x8c>
80006176:	43d8                	lw	a4,4(a5)
80006178:	4785                	li	a5,1
8000617a:	854a                	mv	a0,s2
8000617c:	00e797b3          	sll	a5,a5,a4
80006180:	c59c                	sw	a5,8(a1)
80006182:	c1d8                	sw	a4,4(a1)
80006184:	2f2010ef          	jal	ra,80007476 <_Bfree>
80006188:	02492783          	lw	a5,36(s2)
8000618c:	0007a023          	sw	zero,0(a5)
80006190:	06045663          	bgez	s0,800061fc <_dtoa_r+0xf8>
80006194:	4785                	li	a5,1
80006196:	0406                	slli	s0,s0,0x1
80006198:	00fa2023          	sw	a5,0(s4)
8000619c:	00145993          	srli	s3,s0,0x1
800061a0:	7ff007b7          	lui	a5,0x7ff00
800061a4:	00f9f733          	and	a4,s3,a5
800061a8:	04f71d63          	bne	a4,a5,80006202 <_dtoa_r+0xfe>
800061ac:	5762                	lw	a4,56(sp)
800061ae:	6789                	lui	a5,0x2
800061b0:	09b2                	slli	s3,s3,0xc
800061b2:	70f78793          	addi	a5,a5,1807 # 270f <__stack_size+0x1f0f>
800061b6:	00c9d993          	srli	s3,s3,0xc
800061ba:	c31c                	sw	a5,0(a4)
800061bc:	0099e4b3          	or	s1,s3,s1
800061c0:	32048ee3          	beqz	s1,80006cfc <_dtoa_r+0xbf8>
800061c4:	47f2                	lw	a5,28(sp)
800061c6:	00003b17          	auipc	s6,0x3
800061ca:	bf2b0b13          	addi	s6,s6,-1038 # 80008db8 <__clz_tab+0x1a0>
800061ce:	c799                	beqz	a5,800061dc <_dtoa_r+0xd8>
800061d0:	00003797          	auipc	a5,0x3
800061d4:	beb78793          	addi	a5,a5,-1045 # 80008dbb <__clz_tab+0x1a3>
800061d8:	4772                	lw	a4,28(sp)
800061da:	c31c                	sw	a5,0(a4)
800061dc:	40fa                	lw	ra,156(sp)
800061de:	446a                	lw	s0,152(sp)
800061e0:	44da                	lw	s1,148(sp)
800061e2:	494a                	lw	s2,144(sp)
800061e4:	49ba                	lw	s3,140(sp)
800061e6:	4a2a                	lw	s4,136(sp)
800061e8:	4a9a                	lw	s5,132(sp)
800061ea:	5bf6                	lw	s7,124(sp)
800061ec:	5c66                	lw	s8,120(sp)
800061ee:	5cd6                	lw	s9,116(sp)
800061f0:	5d46                	lw	s10,112(sp)
800061f2:	5db6                	lw	s11,108(sp)
800061f4:	855a                	mv	a0,s6
800061f6:	4b0a                	lw	s6,128(sp)
800061f8:	610d                	addi	sp,sp,160
800061fa:	8082                	ret
800061fc:	000a2023          	sw	zero,0(s4)
80006200:	b745                	j	800061a0 <_dtoa_r+0x9c>
80006202:	4601                	li	a2,0
80006204:	4681                	li	a3,0
80006206:	8526                	mv	a0,s1
80006208:	85ce                	mv	a1,s3
8000620a:	d426                	sw	s1,40(sp)
8000620c:	d64e                	sw	s3,44(sp)
8000620e:	c33fd0ef          	jal	ra,80003e40 <__eqdf2>
80006212:	ed19                	bnez	a0,80006230 <_dtoa_r+0x12c>
80006214:	5762                	lw	a4,56(sp)
80006216:	4785                	li	a5,1
80006218:	00003b17          	auipc	s6,0x3
8000621c:	b10b0b13          	addi	s6,s6,-1264 # 80008d28 <__clz_tab+0x110>
80006220:	c31c                	sw	a5,0(a4)
80006222:	47f2                	lw	a5,28(sp)
80006224:	dfc5                	beqz	a5,800061dc <_dtoa_r+0xd8>
80006226:	00003797          	auipc	a5,0x3
8000622a:	b0378793          	addi	a5,a5,-1277 # 80008d29 <__clz_tab+0x111>
8000622e:	b76d                	j	800061d8 <_dtoa_r+0xd4>
80006230:	08b8                	addi	a4,sp,88
80006232:	08f4                	addi	a3,sp,92
80006234:	864e                	mv	a2,s3
80006236:	85a6                	mv	a1,s1
80006238:	854a                	mv	a0,s2
8000623a:	0149da13          	srli	s4,s3,0x14
8000623e:	11f010ef          	jal	ra,80007b5c <__d2b>
80006242:	7ffa7a13          	andi	s4,s4,2047
80006246:	4be6                	lw	s7,88(sp)
80006248:	842a                	mv	s0,a0
8000624a:	120a0263          	beqz	s4,8000636e <_dtoa_r+0x26a>
8000624e:	57b2                	lw	a5,44(sp)
80006250:	5522                	lw	a0,40(sp)
80006252:	c01a0a13          	addi	s4,s4,-1023
80006256:	00c79593          	slli	a1,a5,0xc
8000625a:	81b1                	srli	a1,a1,0xc
8000625c:	3ff007b7          	lui	a5,0x3ff00
80006260:	8ddd                	or	a1,a1,a5
80006262:	c082                	sw	zero,64(sp)
80006264:	10003797          	auipc	a5,0x10003
80006268:	d6478793          	addi	a5,a5,-668 # 90008fc8 <_impure_ptr+0xc>
8000626c:	4390                	lw	a2,0(a5)
8000626e:	43d4                	lw	a3,4(a5)
80006270:	abefe0ef          	jal	ra,8000452e <__subdf3>
80006274:	10003797          	auipc	a5,0x10003
80006278:	d5c78793          	addi	a5,a5,-676 # 90008fd0 <_impure_ptr+0x14>
8000627c:	4390                	lw	a2,0(a5)
8000627e:	43d4                	lw	a3,4(a5)
80006280:	d13fd0ef          	jal	ra,80003f92 <__muldf3>
80006284:	10003797          	auipc	a5,0x10003
80006288:	d5478793          	addi	a5,a5,-684 # 90008fd8 <_impure_ptr+0x1c>
8000628c:	4390                	lw	a2,0(a5)
8000628e:	43d4                	lw	a3,4(a5)
80006290:	c7dfc0ef          	jal	ra,80002f0c <__adddf3>
80006294:	8aaa                	mv	s5,a0
80006296:	8552                	mv	a0,s4
80006298:	84ae                	mv	s1,a1
8000629a:	bc3fe0ef          	jal	ra,80004e5c <__floatsidf>
8000629e:	10003797          	auipc	a5,0x10003
800062a2:	d4278793          	addi	a5,a5,-702 # 90008fe0 <_impure_ptr+0x24>
800062a6:	4390                	lw	a2,0(a5)
800062a8:	43d4                	lw	a3,4(a5)
800062aa:	ce9fd0ef          	jal	ra,80003f92 <__muldf3>
800062ae:	862a                	mv	a2,a0
800062b0:	86ae                	mv	a3,a1
800062b2:	8556                	mv	a0,s5
800062b4:	85a6                	mv	a1,s1
800062b6:	c57fc0ef          	jal	ra,80002f0c <__adddf3>
800062ba:	8aaa                	mv	s5,a0
800062bc:	8b2e                	mv	s6,a1
800062be:	228020ef          	jal	ra,800084e6 <__fixdfsi>
800062c2:	84aa                	mv	s1,a0
800062c4:	4601                	li	a2,0
800062c6:	4681                	li	a3,0
800062c8:	8556                	mv	a0,s5
800062ca:	85da                	mv	a1,s6
800062cc:	c19fd0ef          	jal	ra,80003ee4 <__ledf2>
800062d0:	00055b63          	bgez	a0,800062e6 <_dtoa_r+0x1e2>
800062d4:	8526                	mv	a0,s1
800062d6:	b87fe0ef          	jal	ra,80004e5c <__floatsidf>
800062da:	8656                	mv	a2,s5
800062dc:	86da                	mv	a3,s6
800062de:	b63fd0ef          	jal	ra,80003e40 <__eqdf2>
800062e2:	c111                	beqz	a0,800062e6 <_dtoa_r+0x1e2>
800062e4:	14fd                	addi	s1,s1,-1
800062e6:	4705                	li	a4,1
800062e8:	47d9                	li	a5,22
800062ea:	d83a                	sw	a4,48(sp)
800062ec:	0297e363          	bltu	a5,s1,80006312 <_dtoa_r+0x20e>
800062f0:	00349713          	slli	a4,s1,0x3
800062f4:	00003797          	auipc	a5,0x3
800062f8:	c2478793          	addi	a5,a5,-988 # 80008f18 <__mprec_tens>
800062fc:	97ba                	add	a5,a5,a4
800062fe:	4390                	lw	a2,0(a5)
80006300:	43d4                	lw	a3,4(a5)
80006302:	5522                	lw	a0,40(sp)
80006304:	55b2                	lw	a1,44(sp)
80006306:	bdffd0ef          	jal	ra,80003ee4 <__ledf2>
8000630a:	00055363          	bgez	a0,80006310 <_dtoa_r+0x20c>
8000630e:	14fd                	addi	s1,s1,-1
80006310:	d802                	sw	zero,48(sp)
80006312:	414b8a33          	sub	s4,s7,s4
80006316:	fffa0c93          	addi	s9,s4,-1
8000631a:	4c01                	li	s8,0
8000631c:	000cd663          	bgez	s9,80006328 <_dtoa_r+0x224>
80006320:	4c05                	li	s8,1
80006322:	414c0c33          	sub	s8,s8,s4
80006326:	4c81                	li	s9,0
80006328:	0804c363          	bltz	s1,800063ae <_dtoa_r+0x2aa>
8000632c:	9ca6                	add	s9,s9,s1
8000632e:	d026                	sw	s1,32(sp)
80006330:	4a81                	li	s5,0
80006332:	47a5                	li	a5,9
80006334:	0fa7e263          	bltu	a5,s10,80006418 <_dtoa_r+0x314>
80006338:	4795                	li	a5,5
8000633a:	4a05                	li	s4,1
8000633c:	01a7d463          	bge	a5,s10,80006344 <_dtoa_r+0x240>
80006340:	1d71                	addi	s10,s10,-4
80006342:	4a01                	li	s4,0
80006344:	4791                	li	a5,4
80006346:	06fd0a63          	beq	s10,a5,800063ba <_dtoa_r+0x2b6>
8000634a:	4795                	li	a5,5
8000634c:	0afd0a63          	beq	s10,a5,80006400 <_dtoa_r+0x2fc>
80006350:	4789                	li	a5,2
80006352:	0afd0563          	beq	s10,a5,800063fc <_dtoa_r+0x2f8>
80006356:	478d                	li	a5,3
80006358:	ca02                	sw	zero,20(sp)
8000635a:	0afd0563          	beq	s10,a5,80006404 <_dtoa_r+0x300>
8000635e:	4785                	li	a5,1
80006360:	ca3e                	sw	a5,20(sp)
80006362:	57fd                	li	a5,-1
80006364:	c63e                	sw	a5,12(sp)
80006366:	5bfd                	li	s7,-1
80006368:	47c9                	li	a5,18
8000636a:	cc02                	sw	zero,24(sp)
8000636c:	a08d                	j	800063ce <_dtoa_r+0x2ca>
8000636e:	4a76                	lw	s4,92(sp)
80006370:	02000793          	li	a5,32
80006374:	9a5e                	add	s4,s4,s7
80006376:	432a0593          	addi	a1,s4,1074
8000637a:	02b7d563          	bge	a5,a1,800063a4 <_dtoa_r+0x2a0>
8000637e:	04000513          	li	a0,64
80006382:	8d0d                	sub	a0,a0,a1
80006384:	412a0593          	addi	a1,s4,1042
80006388:	00a99533          	sll	a0,s3,a0
8000638c:	00b4d4b3          	srl	s1,s1,a1
80006390:	8d45                	or	a0,a0,s1
80006392:	218020ef          	jal	ra,800085aa <__floatunsidf>
80006396:	fe1007b7          	lui	a5,0xfe100
8000639a:	95be                	add	a1,a1,a5
8000639c:	4785                	li	a5,1
8000639e:	1a7d                	addi	s4,s4,-1
800063a0:	c0be                	sw	a5,64(sp)
800063a2:	b5c9                	j	80006264 <_dtoa_r+0x160>
800063a4:	40b78533          	sub	a0,a5,a1
800063a8:	00a49533          	sll	a0,s1,a0
800063ac:	b7dd                	j	80006392 <_dtoa_r+0x28e>
800063ae:	409c0c33          	sub	s8,s8,s1
800063b2:	40900ab3          	neg	s5,s1
800063b6:	d002                	sw	zero,32(sp)
800063b8:	bfad                	j	80006332 <_dtoa_r+0x22e>
800063ba:	4785                	li	a5,1
800063bc:	ca3e                	sw	a5,20(sp)
800063be:	47e2                	lw	a5,24(sp)
800063c0:	04f04f63          	bgtz	a5,8000641e <_dtoa_r+0x31a>
800063c4:	4785                	li	a5,1
800063c6:	4705                	li	a4,1
800063c8:	c63e                	sw	a5,12(sp)
800063ca:	4b85                	li	s7,1
800063cc:	cc3a                	sw	a4,24(sp)
800063ce:	02492683          	lw	a3,36(s2)
800063d2:	4711                	li	a4,4
800063d4:	0006a223          	sw	zero,4(a3)
800063d8:	01470613          	addi	a2,a4,20
800063dc:	42cc                	lw	a1,4(a3)
800063de:	04c7f463          	bgeu	a5,a2,80006426 <_dtoa_r+0x322>
800063e2:	854a                	mv	a0,s2
800063e4:	7e7000ef          	jal	ra,800073ca <_Balloc>
800063e8:	8b2a                	mv	s6,a0
800063ea:	e131                	bnez	a0,8000642e <_dtoa_r+0x32a>
800063ec:	00003697          	auipc	a3,0x3
800063f0:	a3c68693          	addi	a3,a3,-1476 # 80008e28 <__clz_tab+0x210>
800063f4:	4601                	li	a2,0
800063f6:	1aa00593          	li	a1,426
800063fa:	bba1                	j	80006152 <_dtoa_r+0x4e>
800063fc:	ca02                	sw	zero,20(sp)
800063fe:	b7c1                	j	800063be <_dtoa_r+0x2ba>
80006400:	4785                	li	a5,1
80006402:	ca3e                	sw	a5,20(sp)
80006404:	47e2                	lw	a5,24(sp)
80006406:	97a6                	add	a5,a5,s1
80006408:	c63e                	sw	a5,12(sp)
8000640a:	00178b93          	addi	s7,a5,1 # fe100001 <_sp+0x6e0c0001>
8000640e:	87de                	mv	a5,s7
80006410:	fb704fe3          	bgtz	s7,800063ce <_dtoa_r+0x2ca>
80006414:	4785                	li	a5,1
80006416:	bf65                	j	800063ce <_dtoa_r+0x2ca>
80006418:	4a05                	li	s4,1
8000641a:	4d01                	li	s10,0
8000641c:	b789                	j	8000635e <_dtoa_r+0x25a>
8000641e:	47e2                	lw	a5,24(sp)
80006420:	c63e                	sw	a5,12(sp)
80006422:	8bbe                	mv	s7,a5
80006424:	b76d                	j	800063ce <_dtoa_r+0x2ca>
80006426:	0585                	addi	a1,a1,1
80006428:	c2cc                	sw	a1,4(a3)
8000642a:	0706                	slli	a4,a4,0x1
8000642c:	b775                	j	800063d8 <_dtoa_r+0x2d4>
8000642e:	02492783          	lw	a5,36(s2)
80006432:	c388                	sw	a0,0(a5)
80006434:	47b9                	li	a5,14
80006436:	1577e463          	bltu	a5,s7,8000657e <_dtoa_r+0x47a>
8000643a:	140a0263          	beqz	s4,8000657e <_dtoa_r+0x47a>
8000643e:	1c905763          	blez	s1,8000660c <_dtoa_r+0x508>
80006442:	00f4f793          	andi	a5,s1,15
80006446:	00379713          	slli	a4,a5,0x3
8000644a:	4044dd93          	srai	s11,s1,0x4
8000644e:	00003797          	auipc	a5,0x3
80006452:	aca78793          	addi	a5,a5,-1334 # 80008f18 <__mprec_tens>
80006456:	97ba                	add	a5,a5,a4
80006458:	010df693          	andi	a3,s11,16
8000645c:	4398                	lw	a4,0(a5)
8000645e:	4a09                	li	s4,2
80006460:	43dc                	lw	a5,4(a5)
80006462:	c685                	beqz	a3,8000648a <_dtoa_r+0x386>
80006464:	00003697          	auipc	a3,0x3
80006468:	a8c68693          	addi	a3,a3,-1396 # 80008ef0 <__mprec_bigtens>
8000646c:	5290                	lw	a2,32(a3)
8000646e:	5522                	lw	a0,40(sp)
80006470:	52d4                	lw	a3,36(a3)
80006472:	55b2                	lw	a1,44(sp)
80006474:	da3e                	sw	a5,52(sp)
80006476:	d23a                	sw	a4,36(sp)
80006478:	b3efd0ef          	jal	ra,800037b6 <__divdf3>
8000647c:	57d2                	lw	a5,52(sp)
8000647e:	5712                	lw	a4,36(sp)
80006480:	00fdfd93          	andi	s11,s11,15
80006484:	c82a                	sw	a0,16(sp)
80006486:	89ae                	mv	s3,a1
80006488:	4a0d                	li	s4,3
8000648a:	00003817          	auipc	a6,0x3
8000648e:	a6680813          	addi	a6,a6,-1434 # 80008ef0 <__mprec_bigtens>
80006492:	140d9963          	bnez	s11,800065e4 <_dtoa_r+0x4e0>
80006496:	863a                	mv	a2,a4
80006498:	4742                	lw	a4,16(sp)
8000649a:	86be                	mv	a3,a5
8000649c:	85ce                	mv	a1,s3
8000649e:	853a                	mv	a0,a4
800064a0:	b16fd0ef          	jal	ra,800037b6 <__divdf3>
800064a4:	c82a                	sw	a0,16(sp)
800064a6:	89ae                	mv	s3,a1
800064a8:	57c2                	lw	a5,48(sp)
800064aa:	1c078663          	beqz	a5,80006676 <_dtoa_r+0x572>
800064ae:	4742                	lw	a4,16(sp)
800064b0:	10003697          	auipc	a3,0x10003
800064b4:	b3868693          	addi	a3,a3,-1224 # 90008fe8 <_impure_ptr+0x2c>
800064b8:	4290                	lw	a2,0(a3)
800064ba:	42d4                	lw	a3,4(a3)
800064bc:	853a                	mv	a0,a4
800064be:	85ce                	mv	a1,s3
800064c0:	da3a                	sw	a4,52(sp)
800064c2:	d24e                	sw	s3,36(sp)
800064c4:	a21fd0ef          	jal	ra,80003ee4 <__ledf2>
800064c8:	1a055763          	bgez	a0,80006676 <_dtoa_r+0x572>
800064cc:	1a0b8863          	beqz	s7,8000667c <_dtoa_r+0x578>
800064d0:	47b2                	lw	a5,12(sp)
800064d2:	0af05363          	blez	a5,80006578 <_dtoa_r+0x474>
800064d6:	5752                	lw	a4,52(sp)
800064d8:	10003697          	auipc	a3,0x10003
800064dc:	b1868693          	addi	a3,a3,-1256 # 90008ff0 <_impure_ptr+0x34>
800064e0:	4290                	lw	a2,0(a3)
800064e2:	42d4                	lw	a3,4(a3)
800064e4:	85ce                	mv	a1,s3
800064e6:	853a                	mv	a0,a4
800064e8:	aabfd0ef          	jal	ra,80003f92 <__muldf3>
800064ec:	4832                	lw	a6,12(sp)
800064ee:	fff48d93          	addi	s11,s1,-1
800064f2:	c82a                	sw	a0,16(sp)
800064f4:	89ae                	mv	s3,a1
800064f6:	0a05                	addi	s4,s4,1
800064f8:	4742                	lw	a4,16(sp)
800064fa:	8552                	mv	a0,s4
800064fc:	c2c2                	sw	a6,68(sp)
800064fe:	de3a                	sw	a4,60(sp)
80006500:	d24e                	sw	s3,36(sp)
80006502:	da4e                	sw	s3,52(sp)
80006504:	959fe0ef          	jal	ra,80004e5c <__floatsidf>
80006508:	5772                	lw	a4,60(sp)
8000650a:	86ce                	mv	a3,s3
8000650c:	863a                	mv	a2,a4
8000650e:	a85fd0ef          	jal	ra,80003f92 <__muldf3>
80006512:	10003697          	auipc	a3,0x10003
80006516:	ae668693          	addi	a3,a3,-1306 # 90008ff8 <_impure_ptr+0x3c>
8000651a:	4290                	lw	a2,0(a3)
8000651c:	42d4                	lw	a3,4(a3)
8000651e:	9effc0ef          	jal	ra,80002f0c <__adddf3>
80006522:	4816                	lw	a6,68(sp)
80006524:	fcc00337          	lui	t1,0xfcc00
80006528:	932e                	add	t1,t1,a1
8000652a:	14081c63          	bnez	a6,80006682 <_dtoa_r+0x57e>
8000652e:	5772                	lw	a4,60(sp)
80006530:	10003697          	auipc	a3,0x10003
80006534:	ad068693          	addi	a3,a3,-1328 # 90009000 <_impure_ptr+0x44>
80006538:	4290                	lw	a2,0(a3)
8000653a:	42d4                	lw	a3,4(a3)
8000653c:	d22a                	sw	a0,36(sp)
8000653e:	85ce                	mv	a1,s3
80006540:	853a                	mv	a0,a4
80006542:	c81a                	sw	t1,16(sp)
80006544:	febfd0ef          	jal	ra,8000452e <__subdf3>
80006548:	5892                	lw	a7,36(sp)
8000654a:	4342                	lw	t1,16(sp)
8000654c:	8a2a                	mv	s4,a0
8000654e:	8646                	mv	a2,a7
80006550:	869a                	mv	a3,t1
80006552:	89ae                	mv	s3,a1
80006554:	6e5010ef          	jal	ra,80008438 <__gedf2>
80006558:	5aa04a63          	bgtz	a0,80006b0c <_dtoa_r+0xa08>
8000655c:	4342                	lw	t1,16(sp)
8000655e:	5892                	lw	a7,36(sp)
80006560:	800007b7          	lui	a5,0x80000
80006564:	0067c7b3          	xor	a5,a5,t1
80006568:	8646                	mv	a2,a7
8000656a:	86be                	mv	a3,a5
8000656c:	8552                	mv	a0,s4
8000656e:	85ce                	mv	a1,s3
80006570:	975fd0ef          	jal	ra,80003ee4 <__ledf2>
80006574:	58054963          	bltz	a0,80006b06 <_dtoa_r+0xa02>
80006578:	57a2                	lw	a5,40(sp)
8000657a:	59b2                	lw	s3,44(sp)
8000657c:	c83e                	sw	a5,16(sp)
8000657e:	4776                	lw	a4,92(sp)
80006580:	36074463          	bltz	a4,800068e8 <_dtoa_r+0x7e4>
80006584:	47b9                	li	a5,14
80006586:	3697c163          	blt	a5,s1,800068e8 <_dtoa_r+0x7e4>
8000658a:	00349713          	slli	a4,s1,0x3
8000658e:	00003797          	auipc	a5,0x3
80006592:	98a78793          	addi	a5,a5,-1654 # 80008f18 <__mprec_tens>
80006596:	97ba                	add	a5,a5,a4
80006598:	0007aa03          	lw	s4,0(a5)
8000659c:	0047aa83          	lw	s5,4(a5)
800065a0:	47e2                	lw	a5,24(sp)
800065a2:	2607d363          	bgez	a5,80006808 <_dtoa_r+0x704>
800065a6:	27704163          	bgtz	s7,80006808 <_dtoa_r+0x704>
800065aa:	540b9e63          	bnez	s7,80006b06 <_dtoa_r+0xa02>
800065ae:	10003797          	auipc	a5,0x10003
800065b2:	a5278793          	addi	a5,a5,-1454 # 90009000 <_impure_ptr+0x44>
800065b6:	4390                	lw	a2,0(a5)
800065b8:	43d4                	lw	a3,4(a5)
800065ba:	8552                	mv	a0,s4
800065bc:	85d6                	mv	a1,s5
800065be:	9d5fd0ef          	jal	ra,80003f92 <__muldf3>
800065c2:	4742                	lw	a4,16(sp)
800065c4:	86ce                	mv	a3,s3
800065c6:	4a81                	li	s5,0
800065c8:	863a                	mv	a2,a4
800065ca:	66f010ef          	jal	ra,80008438 <__gedf2>
800065ce:	4a01                	li	s4,0
800065d0:	50055363          	bgez	a0,80006ad6 <_dtoa_r+0x9d2>
800065d4:	03100793          	li	a5,49
800065d8:	001b0993          	addi	s3,s6,1
800065dc:	00fb0023          	sb	a5,0(s6)
800065e0:	0485                	addi	s1,s1,1
800065e2:	a9f5                	j	80006ade <_dtoa_r+0x9da>
800065e4:	001df693          	andi	a3,s11,1
800065e8:	ce91                	beqz	a3,80006604 <_dtoa_r+0x500>
800065ea:	00082603          	lw	a2,0(a6)
800065ee:	00482683          	lw	a3,4(a6)
800065f2:	853a                	mv	a0,a4
800065f4:	85be                	mv	a1,a5
800065f6:	d242                	sw	a6,36(sp)
800065f8:	99bfd0ef          	jal	ra,80003f92 <__muldf3>
800065fc:	5812                	lw	a6,36(sp)
800065fe:	0a05                	addi	s4,s4,1
80006600:	872a                	mv	a4,a0
80006602:	87ae                	mv	a5,a1
80006604:	401ddd93          	srai	s11,s11,0x1
80006608:	0821                	addi	a6,a6,8
8000660a:	b561                	j	80006492 <_dtoa_r+0x38e>
8000660c:	4a09                	li	s4,2
8000660e:	e8048de3          	beqz	s1,800064a8 <_dtoa_r+0x3a4>
80006612:	40900db3          	neg	s11,s1
80006616:	00fdf793          	andi	a5,s11,15
8000661a:	00379713          	slli	a4,a5,0x3
8000661e:	00003797          	auipc	a5,0x3
80006622:	8fa78793          	addi	a5,a5,-1798 # 80008f18 <__mprec_tens>
80006626:	97ba                	add	a5,a5,a4
80006628:	43d4                	lw	a3,4(a5)
8000662a:	4390                	lw	a2,0(a5)
8000662c:	5522                	lw	a0,40(sp)
8000662e:	55b2                	lw	a1,44(sp)
80006630:	404ddd93          	srai	s11,s11,0x4
80006634:	95ffd0ef          	jal	ra,80003f92 <__muldf3>
80006638:	87aa                	mv	a5,a0
8000663a:	c82a                	sw	a0,16(sp)
8000663c:	89ae                	mv	s3,a1
8000663e:	00003717          	auipc	a4,0x3
80006642:	8b270713          	addi	a4,a4,-1870 # 80008ef0 <__mprec_bigtens>
80006646:	4681                	li	a3,0
80006648:	000d9663          	bnez	s11,80006654 <_dtoa_r+0x550>
8000664c:	e4068ee3          	beqz	a3,800064a8 <_dtoa_r+0x3a4>
80006650:	c83e                	sw	a5,16(sp)
80006652:	bd91                	j	800064a6 <_dtoa_r+0x3a2>
80006654:	001df613          	andi	a2,s11,1
80006658:	ca19                	beqz	a2,8000666e <_dtoa_r+0x56a>
8000665a:	4354                	lw	a3,4(a4)
8000665c:	4310                	lw	a2,0(a4)
8000665e:	853e                	mv	a0,a5
80006660:	d23a                	sw	a4,36(sp)
80006662:	931fd0ef          	jal	ra,80003f92 <__muldf3>
80006666:	5712                	lw	a4,36(sp)
80006668:	0a05                	addi	s4,s4,1
8000666a:	87aa                	mv	a5,a0
8000666c:	4685                	li	a3,1
8000666e:	401ddd93          	srai	s11,s11,0x1
80006672:	0721                	addi	a4,a4,8
80006674:	bfd1                	j	80006648 <_dtoa_r+0x544>
80006676:	8da6                	mv	s11,s1
80006678:	885e                	mv	a6,s7
8000667a:	bdbd                	j	800064f8 <_dtoa_r+0x3f4>
8000667c:	8da6                	mv	s11,s1
8000667e:	4801                	li	a6,0
80006680:	bda5                	j	800064f8 <_dtoa_r+0x3f4>
80006682:	fff80793          	addi	a5,a6,-1
80006686:	00379713          	slli	a4,a5,0x3
8000668a:	00003797          	auipc	a5,0x3
8000668e:	88e78793          	addi	a5,a5,-1906 # 80008f18 <__mprec_tens>
80006692:	97ba                	add	a5,a5,a4
80006694:	4390                	lw	a2,0(a5)
80006696:	43d4                	lw	a3,4(a5)
80006698:	010b07b3          	add	a5,s6,a6
8000669c:	de3e                	sw	a5,60(sp)
8000669e:	47d2                	lw	a5,20(sp)
800066a0:	8a2a                	mv	s4,a0
800066a2:	899a                	mv	s3,t1
800066a4:	c7dd                	beqz	a5,80006752 <_dtoa_r+0x64e>
800066a6:	10003797          	auipc	a5,0x10003
800066aa:	96278793          	addi	a5,a5,-1694 # 90009008 <_impure_ptr+0x4c>
800066ae:	4388                	lw	a0,0(a5)
800066b0:	43cc                	lw	a1,4(a5)
800066b2:	904fd0ef          	jal	ra,800037b6 <__divdf3>
800066b6:	8652                	mv	a2,s4
800066b8:	86ce                	mv	a3,s3
800066ba:	e75fd0ef          	jal	ra,8000452e <__subdf3>
800066be:	8a2a                	mv	s4,a0
800066c0:	da2e                	sw	a1,52(sp)
800066c2:	89da                	mv	s3,s6
800066c4:	5592                	lw	a1,36(sp)
800066c6:	4542                	lw	a0,16(sp)
800066c8:	0985                	addi	s3,s3,1
800066ca:	61d010ef          	jal	ra,800084e6 <__fixdfsi>
800066ce:	c2aa                	sw	a0,68(sp)
800066d0:	f8cfe0ef          	jal	ra,80004e5c <__floatsidf>
800066d4:	862a                	mv	a2,a0
800066d6:	86ae                	mv	a3,a1
800066d8:	4542                	lw	a0,16(sp)
800066da:	5592                	lw	a1,36(sp)
800066dc:	e53fd0ef          	jal	ra,8000452e <__subdf3>
800066e0:	4796                	lw	a5,68(sp)
800066e2:	56d2                	lw	a3,52(sp)
800066e4:	8652                	mv	a2,s4
800066e6:	03078793          	addi	a5,a5,48
800066ea:	fef98fa3          	sb	a5,-1(s3)
800066ee:	c82a                	sw	a0,16(sp)
800066f0:	d22e                	sw	a1,36(sp)
800066f2:	ff2fd0ef          	jal	ra,80003ee4 <__ledf2>
800066f6:	0e054c63          	bltz	a0,800067ee <_dtoa_r+0x6ea>
800066fa:	10003797          	auipc	a5,0x10003
800066fe:	8ee78793          	addi	a5,a5,-1810 # 90008fe8 <_impure_ptr+0x2c>
80006702:	4642                	lw	a2,16(sp)
80006704:	5692                	lw	a3,36(sp)
80006706:	4388                	lw	a0,0(a5)
80006708:	43cc                	lw	a1,4(a5)
8000670a:	e25fd0ef          	jal	ra,8000452e <__subdf3>
8000670e:	56d2                	lw	a3,52(sp)
80006710:	8652                	mv	a2,s4
80006712:	fd2fd0ef          	jal	ra,80003ee4 <__ledf2>
80006716:	18054263          	bltz	a0,8000689a <_dtoa_r+0x796>
8000671a:	57f2                	lw	a5,60(sp)
8000671c:	e4f98ee3          	beq	s3,a5,80006578 <_dtoa_r+0x474>
80006720:	10003797          	auipc	a5,0x10003
80006724:	8d078793          	addi	a5,a5,-1840 # 90008ff0 <_impure_ptr+0x34>
80006728:	4390                	lw	a2,0(a5)
8000672a:	43d4                	lw	a3,4(a5)
8000672c:	55d2                	lw	a1,52(sp)
8000672e:	8552                	mv	a0,s4
80006730:	863fd0ef          	jal	ra,80003f92 <__muldf3>
80006734:	10003797          	auipc	a5,0x10003
80006738:	8bc78793          	addi	a5,a5,-1860 # 90008ff0 <_impure_ptr+0x34>
8000673c:	da2e                	sw	a1,52(sp)
8000673e:	4390                	lw	a2,0(a5)
80006740:	5592                	lw	a1,36(sp)
80006742:	43d4                	lw	a3,4(a5)
80006744:	8a2a                	mv	s4,a0
80006746:	4542                	lw	a0,16(sp)
80006748:	84bfd0ef          	jal	ra,80003f92 <__muldf3>
8000674c:	c82a                	sw	a0,16(sp)
8000674e:	d22e                	sw	a1,36(sp)
80006750:	bf95                	j	800066c4 <_dtoa_r+0x5c0>
80006752:	859a                	mv	a1,t1
80006754:	83ffd0ef          	jal	ra,80003f92 <__muldf3>
80006758:	57f2                	lw	a5,60(sp)
8000675a:	c2aa                	sw	a0,68(sp)
8000675c:	c4ae                	sw	a1,72(sp)
8000675e:	da3e                	sw	a5,52(sp)
80006760:	89da                	mv	s3,s6
80006762:	4542                	lw	a0,16(sp)
80006764:	5592                	lw	a1,36(sp)
80006766:	0985                	addi	s3,s3,1
80006768:	57f010ef          	jal	ra,800084e6 <__fixdfsi>
8000676c:	c6aa                	sw	a0,76(sp)
8000676e:	eeefe0ef          	jal	ra,80004e5c <__floatsidf>
80006772:	862a                	mv	a2,a0
80006774:	86ae                	mv	a3,a1
80006776:	4542                	lw	a0,16(sp)
80006778:	5592                	lw	a1,36(sp)
8000677a:	db5fd0ef          	jal	ra,8000452e <__subdf3>
8000677e:	47b6                	lw	a5,76(sp)
80006780:	c82e                	sw	a1,16(sp)
80006782:	8a2a                	mv	s4,a0
80006784:	03078793          	addi	a5,a5,48
80006788:	fef98fa3          	sb	a5,-1(s3)
8000678c:	57f2                	lw	a5,60(sp)
8000678e:	06f99263          	bne	s3,a5,800067f2 <_dtoa_r+0x6ee>
80006792:	10003797          	auipc	a5,0x10003
80006796:	87678793          	addi	a5,a5,-1930 # 90009008 <_impure_ptr+0x4c>
8000679a:	4390                	lw	a2,0(a5)
8000679c:	43d4                	lw	a3,4(a5)
8000679e:	4516                	lw	a0,68(sp)
800067a0:	45a6                	lw	a1,72(sp)
800067a2:	f6afc0ef          	jal	ra,80002f0c <__adddf3>
800067a6:	86ae                	mv	a3,a1
800067a8:	45c2                	lw	a1,16(sp)
800067aa:	862a                	mv	a2,a0
800067ac:	8552                	mv	a0,s4
800067ae:	48b010ef          	jal	ra,80008438 <__gedf2>
800067b2:	0ea04463          	bgtz	a0,8000689a <_dtoa_r+0x796>
800067b6:	10003797          	auipc	a5,0x10003
800067ba:	85278793          	addi	a5,a5,-1966 # 90009008 <_impure_ptr+0x4c>
800067be:	4616                	lw	a2,68(sp)
800067c0:	46a6                	lw	a3,72(sp)
800067c2:	4388                	lw	a0,0(a5)
800067c4:	43cc                	lw	a1,4(a5)
800067c6:	d69fd0ef          	jal	ra,8000452e <__subdf3>
800067ca:	86ae                	mv	a3,a1
800067cc:	45c2                	lw	a1,16(sp)
800067ce:	862a                	mv	a2,a0
800067d0:	8552                	mv	a0,s4
800067d2:	f12fd0ef          	jal	ra,80003ee4 <__ledf2>
800067d6:	da0551e3          	bgez	a0,80006578 <_dtoa_r+0x474>
800067da:	03000793          	li	a5,48
800067de:	59d2                	lw	s3,52(sp)
800067e0:	fff98713          	addi	a4,s3,-1
800067e4:	da3a                	sw	a4,52(sp)
800067e6:	fff9c703          	lbu	a4,-1(s3)
800067ea:	fef70ae3          	beq	a4,a5,800067de <_dtoa_r+0x6da>
800067ee:	84ee                	mv	s1,s11
800067f0:	a069                	j	8000687a <_dtoa_r+0x776>
800067f2:	10002797          	auipc	a5,0x10002
800067f6:	7fe78793          	addi	a5,a5,2046 # 90008ff0 <_impure_ptr+0x34>
800067fa:	4390                	lw	a2,0(a5)
800067fc:	43d4                	lw	a3,4(a5)
800067fe:	f94fd0ef          	jal	ra,80003f92 <__muldf3>
80006802:	c82a                	sw	a0,16(sp)
80006804:	d22e                	sw	a1,36(sp)
80006806:	bfb1                	j	80006762 <_dtoa_r+0x65e>
80006808:	4542                	lw	a0,16(sp)
8000680a:	8dce                	mv	s11,s3
8000680c:	001b0c93          	addi	s9,s6,1
80006810:	8d2a                	mv	s10,a0
80006812:	9bda                	add	s7,s7,s6
80006814:	8652                	mv	a2,s4
80006816:	86d6                	mv	a3,s5
80006818:	856a                	mv	a0,s10
8000681a:	85ee                	mv	a1,s11
8000681c:	f9bfc0ef          	jal	ra,800037b6 <__divdf3>
80006820:	4c7010ef          	jal	ra,800084e6 <__fixdfsi>
80006824:	8c2a                	mv	s8,a0
80006826:	e36fe0ef          	jal	ra,80004e5c <__floatsidf>
8000682a:	8652                	mv	a2,s4
8000682c:	86d6                	mv	a3,s5
8000682e:	f64fd0ef          	jal	ra,80003f92 <__muldf3>
80006832:	86ae                	mv	a3,a1
80006834:	862a                	mv	a2,a0
80006836:	85ee                	mv	a1,s11
80006838:	856a                	mv	a0,s10
8000683a:	cf5fd0ef          	jal	ra,8000452e <__subdf3>
8000683e:	030c0693          	addi	a3,s8,48
80006842:	fedc8fa3          	sb	a3,-1(s9)
80006846:	89e6                	mv	s3,s9
80006848:	079b9f63          	bne	s7,s9,800068c6 <_dtoa_r+0x7c2>
8000684c:	862a                	mv	a2,a0
8000684e:	86ae                	mv	a3,a1
80006850:	ebcfc0ef          	jal	ra,80002f0c <__adddf3>
80006854:	8652                	mv	a2,s4
80006856:	86d6                	mv	a3,s5
80006858:	8caa                	mv	s9,a0
8000685a:	8bae                	mv	s7,a1
8000685c:	3dd010ef          	jal	ra,80008438 <__gedf2>
80006860:	02a04c63          	bgtz	a0,80006898 <_dtoa_r+0x794>
80006864:	8652                	mv	a2,s4
80006866:	86d6                	mv	a3,s5
80006868:	8566                	mv	a0,s9
8000686a:	85de                	mv	a1,s7
8000686c:	dd4fd0ef          	jal	ra,80003e40 <__eqdf2>
80006870:	e509                	bnez	a0,8000687a <_dtoa_r+0x776>
80006872:	001c7c13          	andi	s8,s8,1
80006876:	020c1163          	bnez	s8,80006898 <_dtoa_r+0x794>
8000687a:	85a2                	mv	a1,s0
8000687c:	854a                	mv	a0,s2
8000687e:	3f9000ef          	jal	ra,80007476 <_Bfree>
80006882:	57e2                	lw	a5,56(sp)
80006884:	00098023          	sb	zero,0(s3)
80006888:	0485                	addi	s1,s1,1
8000688a:	c384                	sw	s1,0(a5)
8000688c:	47f2                	lw	a5,28(sp)
8000688e:	940787e3          	beqz	a5,800061dc <_dtoa_r+0xd8>
80006892:	0137a023          	sw	s3,0(a5)
80006896:	b299                	j	800061dc <_dtoa_r+0xd8>
80006898:	8da6                	mv	s11,s1
8000689a:	87ce                	mv	a5,s3
8000689c:	03900713          	li	a4,57
800068a0:	89be                	mv	s3,a5
800068a2:	fff7c683          	lbu	a3,-1(a5)
800068a6:	17fd                	addi	a5,a5,-1
800068a8:	00e69963          	bne	a3,a4,800068ba <_dtoa_r+0x7b6>
800068ac:	fefb1ae3          	bne	s6,a5,800068a0 <_dtoa_r+0x79c>
800068b0:	03000713          	li	a4,48
800068b4:	0d85                	addi	s11,s11,1
800068b6:	00eb0023          	sb	a4,0(s6)
800068ba:	0007c703          	lbu	a4,0(a5)
800068be:	0705                	addi	a4,a4,1
800068c0:	00e78023          	sb	a4,0(a5)
800068c4:	b72d                	j	800067ee <_dtoa_r+0x6ea>
800068c6:	10002797          	auipc	a5,0x10002
800068ca:	72a78793          	addi	a5,a5,1834 # 90008ff0 <_impure_ptr+0x34>
800068ce:	4390                	lw	a2,0(a5)
800068d0:	43d4                	lw	a3,4(a5)
800068d2:	0c85                	addi	s9,s9,1
800068d4:	ebefd0ef          	jal	ra,80003f92 <__muldf3>
800068d8:	4601                	li	a2,0
800068da:	4681                	li	a3,0
800068dc:	8d2a                	mv	s10,a0
800068de:	8dae                	mv	s11,a1
800068e0:	d60fd0ef          	jal	ra,80003e40 <__eqdf2>
800068e4:	f905                	bnez	a0,80006814 <_dtoa_r+0x710>
800068e6:	bf51                	j	8000687a <_dtoa_r+0x776>
800068e8:	47d2                	lw	a5,20(sp)
800068ea:	0e078f63          	beqz	a5,800069e8 <_dtoa_r+0x8e4>
800068ee:	4785                	li	a5,1
800068f0:	0da7c563          	blt	a5,s10,800069ba <_dtoa_r+0x8b6>
800068f4:	4786                	lw	a5,64(sp)
800068f6:	43370713          	addi	a4,a4,1075
800068fa:	e789                	bnez	a5,80006904 <_dtoa_r+0x800>
800068fc:	47e6                	lw	a5,88(sp)
800068fe:	03600713          	li	a4,54
80006902:	8f1d                	sub	a4,a4,a5
80006904:	87d6                	mv	a5,s5
80006906:	8de2                	mv	s11,s8
80006908:	4585                	li	a1,1
8000690a:	854a                	mv	a0,s2
8000690c:	d23e                	sw	a5,36(sp)
8000690e:	9c3a                	add	s8,s8,a4
80006910:	9cba                	add	s9,s9,a4
80006912:	52f000ef          	jal	ra,80007640 <__i2b>
80006916:	5792                	lw	a5,36(sp)
80006918:	8a2a                	mv	s4,a0
8000691a:	01b05e63          	blez	s11,80006936 <_dtoa_r+0x832>
8000691e:	01905c63          	blez	s9,80006936 <_dtoa_r+0x832>
80006922:	876e                	mv	a4,s11
80006924:	01bcd363          	bge	s9,s11,8000692a <_dtoa_r+0x826>
80006928:	8766                	mv	a4,s9
8000692a:	40ec0c33          	sub	s8,s8,a4
8000692e:	40ed8db3          	sub	s11,s11,a4
80006932:	40ec8cb3          	sub	s9,s9,a4
80006936:	040a8363          	beqz	s5,8000697c <_dtoa_r+0x878>
8000693a:	4752                	lw	a4,20(sp)
8000693c:	cb55                	beqz	a4,800069f0 <_dtoa_r+0x8ec>
8000693e:	02f05663          	blez	a5,8000696a <_dtoa_r+0x866>
80006942:	863e                	mv	a2,a5
80006944:	85d2                	mv	a1,s4
80006946:	854a                	mv	a0,s2
80006948:	d43e                	sw	a5,40(sp)
8000694a:	6ab000ef          	jal	ra,800077f4 <__pow5mult>
8000694e:	8622                	mv	a2,s0
80006950:	85aa                	mv	a1,a0
80006952:	8a2a                	mv	s4,a0
80006954:	854a                	mv	a0,s2
80006956:	521000ef          	jal	ra,80007676 <__multiply>
8000695a:	d22a                	sw	a0,36(sp)
8000695c:	85a2                	mv	a1,s0
8000695e:	854a                	mv	a0,s2
80006960:	317000ef          	jal	ra,80007476 <_Bfree>
80006964:	5712                	lw	a4,36(sp)
80006966:	57a2                	lw	a5,40(sp)
80006968:	843a                	mv	s0,a4
8000696a:	40fa8633          	sub	a2,s5,a5
8000696e:	00fa8763          	beq	s5,a5,8000697c <_dtoa_r+0x878>
80006972:	85a2                	mv	a1,s0
80006974:	854a                	mv	a0,s2
80006976:	67f000ef          	jal	ra,800077f4 <__pow5mult>
8000697a:	842a                	mv	s0,a0
8000697c:	4585                	li	a1,1
8000697e:	854a                	mv	a0,s2
80006980:	4c1000ef          	jal	ra,80007640 <__i2b>
80006984:	5782                	lw	a5,32(sp)
80006986:	8aaa                	mv	s5,a0
80006988:	06f05663          	blez	a5,800069f4 <_dtoa_r+0x8f0>
8000698c:	863e                	mv	a2,a5
8000698e:	85aa                	mv	a1,a0
80006990:	854a                	mv	a0,s2
80006992:	663000ef          	jal	ra,800077f4 <__pow5mult>
80006996:	4785                	li	a5,1
80006998:	8aaa                	mv	s5,a0
8000699a:	07a7d163          	bge	a5,s10,800069fc <_dtoa_r+0x8f8>
8000699e:	d202                	sw	zero,36(sp)
800069a0:	010aa783          	lw	a5,16(s5)
800069a4:	078d                	addi	a5,a5,3
800069a6:	078a                	slli	a5,a5,0x2
800069a8:	97d6                	add	a5,a5,s5
800069aa:	43c8                	lw	a0,4(a5)
800069ac:	3e5000ef          	jal	ra,80007590 <__hi0bits>
800069b0:	02000793          	li	a5,32
800069b4:	40a78533          	sub	a0,a5,a0
800069b8:	a0ad                	j	80006a22 <_dtoa_r+0x91e>
800069ba:	fffb8793          	addi	a5,s7,-1
800069be:	00faca63          	blt	s5,a5,800069d2 <_dtoa_r+0x8ce>
800069c2:	40fa87b3          	sub	a5,s5,a5
800069c6:	000bde63          	bgez	s7,800069e2 <_dtoa_r+0x8de>
800069ca:	417c0db3          	sub	s11,s8,s7
800069ce:	4701                	li	a4,0
800069d0:	bf25                	j	80006908 <_dtoa_r+0x804>
800069d2:	5702                	lw	a4,32(sp)
800069d4:	41578ab3          	sub	s5,a5,s5
800069d8:	9756                	add	a4,a4,s5
800069da:	d03a                	sw	a4,32(sp)
800069dc:	8abe                	mv	s5,a5
800069de:	4781                	li	a5,0
800069e0:	b7dd                	j	800069c6 <_dtoa_r+0x8c2>
800069e2:	8de2                	mv	s11,s8
800069e4:	875e                	mv	a4,s7
800069e6:	b70d                	j	80006908 <_dtoa_r+0x804>
800069e8:	87d6                	mv	a5,s5
800069ea:	8de2                	mv	s11,s8
800069ec:	4a01                	li	s4,0
800069ee:	b735                	j	8000691a <_dtoa_r+0x816>
800069f0:	8656                	mv	a2,s5
800069f2:	b741                	j	80006972 <_dtoa_r+0x86e>
800069f4:	4785                	li	a5,1
800069f6:	d202                	sw	zero,36(sp)
800069f8:	03a7c263          	blt	a5,s10,80006a1c <_dtoa_r+0x918>
800069fc:	47c2                	lw	a5,16(sp)
800069fe:	d202                	sw	zero,36(sp)
80006a00:	ef91                	bnez	a5,80006a1c <_dtoa_r+0x918>
80006a02:	00c99793          	slli	a5,s3,0xc
80006a06:	eb99                	bnez	a5,80006a1c <_dtoa_r+0x918>
80006a08:	7ff005b7          	lui	a1,0x7ff00
80006a0c:	00b9f9b3          	and	s3,s3,a1
80006a10:	00098663          	beqz	s3,80006a1c <_dtoa_r+0x918>
80006a14:	4785                	li	a5,1
80006a16:	0c05                	addi	s8,s8,1
80006a18:	0c85                	addi	s9,s9,1
80006a1a:	d23e                	sw	a5,36(sp)
80006a1c:	5782                	lw	a5,32(sp)
80006a1e:	4505                	li	a0,1
80006a20:	f3c1                	bnez	a5,800069a0 <_dtoa_r+0x89c>
80006a22:	9566                	add	a0,a0,s9
80006a24:	897d                	andi	a0,a0,31
80006a26:	c149                	beqz	a0,80006aa8 <_dtoa_r+0x9a4>
80006a28:	02000793          	li	a5,32
80006a2c:	8f89                	sub	a5,a5,a0
80006a2e:	4711                	li	a4,4
80006a30:	06f75963          	bge	a4,a5,80006aa2 <_dtoa_r+0x99e>
80006a34:	47f1                	li	a5,28
80006a36:	40a78533          	sub	a0,a5,a0
80006a3a:	9c2a                	add	s8,s8,a0
80006a3c:	9daa                	add	s11,s11,a0
80006a3e:	9caa                	add	s9,s9,a0
80006a40:	01805863          	blez	s8,80006a50 <_dtoa_r+0x94c>
80006a44:	85a2                	mv	a1,s0
80006a46:	8662                	mv	a2,s8
80006a48:	854a                	mv	a0,s2
80006a4a:	67d000ef          	jal	ra,800078c6 <__lshift>
80006a4e:	842a                	mv	s0,a0
80006a50:	01905863          	blez	s9,80006a60 <_dtoa_r+0x95c>
80006a54:	85d6                	mv	a1,s5
80006a56:	8666                	mv	a2,s9
80006a58:	854a                	mv	a0,s2
80006a5a:	66d000ef          	jal	ra,800078c6 <__lshift>
80006a5e:	8aaa                	mv	s5,a0
80006a60:	57c2                	lw	a5,48(sp)
80006a62:	c7a9                	beqz	a5,80006aac <_dtoa_r+0x9a8>
80006a64:	85d6                	mv	a1,s5
80006a66:	8522                	mv	a0,s0
80006a68:	763000ef          	jal	ra,800079ca <__mcmp>
80006a6c:	04055063          	bgez	a0,80006aac <_dtoa_r+0x9a8>
80006a70:	85a2                	mv	a1,s0
80006a72:	4681                	li	a3,0
80006a74:	4629                	li	a2,10
80006a76:	854a                	mv	a0,s2
80006a78:	25f000ef          	jal	ra,800074d6 <__multadd>
80006a7c:	47d2                	lw	a5,20(sp)
80006a7e:	14fd                	addi	s1,s1,-1
80006a80:	842a                	mv	s0,a0
80006a82:	28078a63          	beqz	a5,80006d16 <_dtoa_r+0xc12>
80006a86:	85d2                	mv	a1,s4
80006a88:	4681                	li	a3,0
80006a8a:	4629                	li	a2,10
80006a8c:	854a                	mv	a0,s2
80006a8e:	249000ef          	jal	ra,800074d6 <__multadd>
80006a92:	47b2                	lw	a5,12(sp)
80006a94:	8a2a                	mv	s4,a0
80006a96:	08f04363          	bgtz	a5,80006b1c <_dtoa_r+0xa18>
80006a9a:	4789                	li	a5,2
80006a9c:	01a7ce63          	blt	a5,s10,80006ab8 <_dtoa_r+0x9b4>
80006aa0:	a8b5                	j	80006b1c <_dtoa_r+0xa18>
80006aa2:	f8e78fe3          	beq	a5,a4,80006a40 <_dtoa_r+0x93c>
80006aa6:	853e                	mv	a0,a5
80006aa8:	0571                	addi	a0,a0,28
80006aaa:	bf41                	j	80006a3a <_dtoa_r+0x936>
80006aac:	07704463          	bgtz	s7,80006b14 <_dtoa_r+0xa10>
80006ab0:	4789                	li	a5,2
80006ab2:	07a7d163          	bge	a5,s10,80006b14 <_dtoa_r+0xa10>
80006ab6:	c65e                	sw	s7,12(sp)
80006ab8:	47b2                	lw	a5,12(sp)
80006aba:	ef91                	bnez	a5,80006ad6 <_dtoa_r+0x9d2>
80006abc:	85d6                	mv	a1,s5
80006abe:	4681                	li	a3,0
80006ac0:	4615                	li	a2,5
80006ac2:	854a                	mv	a0,s2
80006ac4:	213000ef          	jal	ra,800074d6 <__multadd>
80006ac8:	8aaa                	mv	s5,a0
80006aca:	85aa                	mv	a1,a0
80006acc:	8522                	mv	a0,s0
80006ace:	6fd000ef          	jal	ra,800079ca <__mcmp>
80006ad2:	b0a041e3          	bgtz	a0,800065d4 <_dtoa_r+0x4d0>
80006ad6:	47e2                	lw	a5,24(sp)
80006ad8:	89da                	mv	s3,s6
80006ada:	fff7c493          	not	s1,a5
80006ade:	4c01                	li	s8,0
80006ae0:	85d6                	mv	a1,s5
80006ae2:	854a                	mv	a0,s2
80006ae4:	193000ef          	jal	ra,80007476 <_Bfree>
80006ae8:	d80a09e3          	beqz	s4,8000687a <_dtoa_r+0x776>
80006aec:	000c0863          	beqz	s8,80006afc <_dtoa_r+0x9f8>
80006af0:	014c0663          	beq	s8,s4,80006afc <_dtoa_r+0x9f8>
80006af4:	85e2                	mv	a1,s8
80006af6:	854a                	mv	a0,s2
80006af8:	17f000ef          	jal	ra,80007476 <_Bfree>
80006afc:	85d2                	mv	a1,s4
80006afe:	854a                	mv	a0,s2
80006b00:	177000ef          	jal	ra,80007476 <_Bfree>
80006b04:	bb9d                	j	8000687a <_dtoa_r+0x776>
80006b06:	4a81                	li	s5,0
80006b08:	4a01                	li	s4,0
80006b0a:	b7f1                	j	80006ad6 <_dtoa_r+0x9d2>
80006b0c:	84ee                	mv	s1,s11
80006b0e:	4a81                	li	s5,0
80006b10:	4a01                	li	s4,0
80006b12:	b4c9                	j	800065d4 <_dtoa_r+0x4d0>
80006b14:	47d2                	lw	a5,20(sp)
80006b16:	c65e                	sw	s7,12(sp)
80006b18:	20078563          	beqz	a5,80006d22 <_dtoa_r+0xc1e>
80006b1c:	01b05863          	blez	s11,80006b2c <_dtoa_r+0xa28>
80006b20:	85d2                	mv	a1,s4
80006b22:	866e                	mv	a2,s11
80006b24:	854a                	mv	a0,s2
80006b26:	5a1000ef          	jal	ra,800078c6 <__lshift>
80006b2a:	8a2a                	mv	s4,a0
80006b2c:	5792                	lw	a5,36(sp)
80006b2e:	8552                	mv	a0,s4
80006b30:	cf9d                	beqz	a5,80006b6e <_dtoa_r+0xa6a>
80006b32:	004a2583          	lw	a1,4(s4)
80006b36:	854a                	mv	a0,s2
80006b38:	093000ef          	jal	ra,800073ca <_Balloc>
80006b3c:	89aa                	mv	s3,a0
80006b3e:	e911                	bnez	a0,80006b52 <_dtoa_r+0xa4e>
80006b40:	00002697          	auipc	a3,0x2
80006b44:	2e868693          	addi	a3,a3,744 # 80008e28 <__clz_tab+0x210>
80006b48:	4601                	li	a2,0
80006b4a:	2ea00593          	li	a1,746
80006b4e:	e04ff06f          	j	80006152 <_dtoa_r+0x4e>
80006b52:	010a2603          	lw	a2,16(s4)
80006b56:	00ca0593          	addi	a1,s4,12
80006b5a:	0531                	addi	a0,a0,12
80006b5c:	0609                	addi	a2,a2,2
80006b5e:	060a                	slli	a2,a2,0x2
80006b60:	6e6000ef          	jal	ra,80007246 <memcpy>
80006b64:	4605                	li	a2,1
80006b66:	85ce                	mv	a1,s3
80006b68:	854a                	mv	a0,s2
80006b6a:	55d000ef          	jal	ra,800078c6 <__lshift>
80006b6e:	47b2                	lw	a5,12(sp)
80006b70:	8c52                	mv	s8,s4
80006b72:	001b0b93          	addi	s7,s6,1
80006b76:	97da                	add	a5,a5,s6
80006b78:	cc3e                	sw	a5,24(sp)
80006b7a:	47c2                	lw	a5,16(sp)
80006b7c:	8a2a                	mv	s4,a0
80006b7e:	8b85                	andi	a5,a5,1
80006b80:	ca3e                	sw	a5,20(sp)
80006b82:	fffb8793          	addi	a5,s7,-1
80006b86:	85d6                	mv	a1,s5
80006b88:	8522                	mv	a0,s0
80006b8a:	c63e                	sw	a5,12(sp)
80006b8c:	c4cff0ef          	jal	ra,80005fd8 <quorem>
80006b90:	c82a                	sw	a0,16(sp)
80006b92:	85e2                	mv	a1,s8
80006b94:	03050c93          	addi	s9,a0,48
80006b98:	8522                	mv	a0,s0
80006b9a:	631000ef          	jal	ra,800079ca <__mcmp>
80006b9e:	85d6                	mv	a1,s5
80006ba0:	8daa                	mv	s11,a0
80006ba2:	8652                	mv	a2,s4
80006ba4:	854a                	mv	a0,s2
80006ba6:	65b000ef          	jal	ra,80007a00 <__mdiff>
80006baa:	4554                	lw	a3,12(a0)
80006bac:	85aa                	mv	a1,a0
80006bae:	4705                	li	a4,1
80006bb0:	e699                	bnez	a3,80006bbe <_dtoa_r+0xaba>
80006bb2:	d02a                	sw	a0,32(sp)
80006bb4:	8522                	mv	a0,s0
80006bb6:	615000ef          	jal	ra,800079ca <__mcmp>
80006bba:	5582                	lw	a1,32(sp)
80006bbc:	872a                	mv	a4,a0
80006bbe:	854a                	mv	a0,s2
80006bc0:	d03a                	sw	a4,32(sp)
80006bc2:	0b5000ef          	jal	ra,80007476 <_Bfree>
80006bc6:	5702                	lw	a4,32(sp)
80006bc8:	47d2                	lw	a5,20(sp)
80006bca:	89de                	mv	s3,s7
80006bcc:	00ed66b3          	or	a3,s10,a4
80006bd0:	8edd                	or	a3,a3,a5
80006bd2:	ee91                	bnez	a3,80006bee <_dtoa_r+0xaea>
80006bd4:	03900713          	li	a4,57
80006bd8:	04ec8963          	beq	s9,a4,80006c2a <_dtoa_r+0xb26>
80006bdc:	01b05563          	blez	s11,80006be6 <_dtoa_r+0xae2>
80006be0:	47c2                	lw	a5,16(sp)
80006be2:	03178c93          	addi	s9,a5,49
80006be6:	47b2                	lw	a5,12(sp)
80006be8:	01978023          	sb	s9,0(a5)
80006bec:	bdd5                	j	80006ae0 <_dtoa_r+0x9dc>
80006bee:	000dc963          	bltz	s11,80006c00 <_dtoa_r+0xafc>
80006bf2:	47d2                	lw	a5,20(sp)
80006bf4:	01bd6db3          	or	s11,s10,s11
80006bf8:	00fdedb3          	or	s11,s11,a5
80006bfc:	040d9963          	bnez	s11,80006c4e <_dtoa_r+0xb4a>
80006c00:	fee053e3          	blez	a4,80006be6 <_dtoa_r+0xae2>
80006c04:	85a2                	mv	a1,s0
80006c06:	4605                	li	a2,1
80006c08:	854a                	mv	a0,s2
80006c0a:	4bd000ef          	jal	ra,800078c6 <__lshift>
80006c0e:	85d6                	mv	a1,s5
80006c10:	842a                	mv	s0,a0
80006c12:	5b9000ef          	jal	ra,800079ca <__mcmp>
80006c16:	00a04663          	bgtz	a0,80006c22 <_dtoa_r+0xb1e>
80006c1a:	f571                	bnez	a0,80006be6 <_dtoa_r+0xae2>
80006c1c:	001cf713          	andi	a4,s9,1
80006c20:	d379                	beqz	a4,80006be6 <_dtoa_r+0xae2>
80006c22:	03900713          	li	a4,57
80006c26:	faec9de3          	bne	s9,a4,80006be0 <_dtoa_r+0xadc>
80006c2a:	4732                	lw	a4,12(sp)
80006c2c:	03900793          	li	a5,57
80006c30:	00f70023          	sb	a5,0(a4)
80006c34:	87ce                	mv	a5,s3
80006c36:	03900693          	li	a3,57
80006c3a:	89be                	mv	s3,a5
80006c3c:	fff9c703          	lbu	a4,-1(s3)
80006c40:	17fd                	addi	a5,a5,-1
80006c42:	0ad70563          	beq	a4,a3,80006cec <_dtoa_r+0xbe8>
80006c46:	0705                	addi	a4,a4,1
80006c48:	00e78023          	sb	a4,0(a5)
80006c4c:	bd51                	j	80006ae0 <_dtoa_r+0x9dc>
80006c4e:	00e05c63          	blez	a4,80006c66 <_dtoa_r+0xb62>
80006c52:	03900713          	li	a4,57
80006c56:	fcec8ae3          	beq	s9,a4,80006c2a <_dtoa_r+0xb26>
80006c5a:	4732                	lw	a4,12(sp)
80006c5c:	001c8793          	addi	a5,s9,1
80006c60:	00f70023          	sb	a5,0(a4)
80006c64:	bdb5                	j	80006ae0 <_dtoa_r+0x9dc>
80006c66:	47e2                	lw	a5,24(sp)
80006c68:	ff9b8fa3          	sb	s9,-1(s7)
80006c6c:	05778763          	beq	a5,s7,80006cba <_dtoa_r+0xbb6>
80006c70:	85a2                	mv	a1,s0
80006c72:	4681                	li	a3,0
80006c74:	4629                	li	a2,10
80006c76:	854a                	mv	a0,s2
80006c78:	05f000ef          	jal	ra,800074d6 <__multadd>
80006c7c:	842a                	mv	s0,a0
80006c7e:	4681                	li	a3,0
80006c80:	4629                	li	a2,10
80006c82:	85e2                	mv	a1,s8
80006c84:	854a                	mv	a0,s2
80006c86:	014c1863          	bne	s8,s4,80006c96 <_dtoa_r+0xb92>
80006c8a:	04d000ef          	jal	ra,800074d6 <__multadd>
80006c8e:	8c2a                	mv	s8,a0
80006c90:	8a2a                	mv	s4,a0
80006c92:	0b85                	addi	s7,s7,1
80006c94:	b5fd                	j	80006b82 <_dtoa_r+0xa7e>
80006c96:	041000ef          	jal	ra,800074d6 <__multadd>
80006c9a:	85d2                	mv	a1,s4
80006c9c:	8c2a                	mv	s8,a0
80006c9e:	4681                	li	a3,0
80006ca0:	4629                	li	a2,10
80006ca2:	854a                	mv	a0,s2
80006ca4:	033000ef          	jal	ra,800074d6 <__multadd>
80006ca8:	8a2a                	mv	s4,a0
80006caa:	b7e5                	j	80006c92 <_dtoa_r+0xb8e>
80006cac:	47b2                	lw	a5,12(sp)
80006cae:	4985                	li	s3,1
80006cb0:	00f05363          	blez	a5,80006cb6 <_dtoa_r+0xbb2>
80006cb4:	89be                	mv	s3,a5
80006cb6:	99da                	add	s3,s3,s6
80006cb8:	4c01                	li	s8,0
80006cba:	85a2                	mv	a1,s0
80006cbc:	4605                	li	a2,1
80006cbe:	854a                	mv	a0,s2
80006cc0:	407000ef          	jal	ra,800078c6 <__lshift>
80006cc4:	85d6                	mv	a1,s5
80006cc6:	842a                	mv	s0,a0
80006cc8:	503000ef          	jal	ra,800079ca <__mcmp>
80006ccc:	f6a044e3          	bgtz	a0,80006c34 <_dtoa_r+0xb30>
80006cd0:	e501                	bnez	a0,80006cd8 <_dtoa_r+0xbd4>
80006cd2:	001cf793          	andi	a5,s9,1
80006cd6:	ffb9                	bnez	a5,80006c34 <_dtoa_r+0xb30>
80006cd8:	87ce                	mv	a5,s3
80006cda:	03000713          	li	a4,48
80006cde:	89be                	mv	s3,a5
80006ce0:	fff7c683          	lbu	a3,-1(a5)
80006ce4:	17fd                	addi	a5,a5,-1
80006ce6:	fee68ce3          	beq	a3,a4,80006cde <_dtoa_r+0xbda>
80006cea:	bbdd                	j	80006ae0 <_dtoa_r+0x9dc>
80006cec:	f4fb17e3          	bne	s6,a5,80006c3a <_dtoa_r+0xb36>
80006cf0:	03100793          	li	a5,49
80006cf4:	0485                	addi	s1,s1,1
80006cf6:	00fb0023          	sb	a5,0(s6)
80006cfa:	b3dd                	j	80006ae0 <_dtoa_r+0x9dc>
80006cfc:	4772                	lw	a4,28(sp)
80006cfe:	00002b17          	auipc	s6,0x2
80006d02:	0aeb0b13          	addi	s6,s6,174 # 80008dac <__clz_tab+0x194>
80006d06:	00002797          	auipc	a5,0x2
80006d0a:	0ae78793          	addi	a5,a5,174 # 80008db4 <__clz_tab+0x19c>
80006d0e:	cc071563          	bnez	a4,800061d8 <_dtoa_r+0xd4>
80006d12:	ccaff06f          	j	800061dc <_dtoa_r+0xd8>
80006d16:	47b2                	lw	a5,12(sp)
80006d18:	00f04563          	bgtz	a5,80006d22 <_dtoa_r+0xc1e>
80006d1c:	4789                	li	a5,2
80006d1e:	d9a7cde3          	blt	a5,s10,80006ab8 <_dtoa_r+0x9b4>
80006d22:	4981                	li	s3,0
80006d24:	85d6                	mv	a1,s5
80006d26:	8522                	mv	a0,s0
80006d28:	ab0ff0ef          	jal	ra,80005fd8 <quorem>
80006d2c:	47b2                	lw	a5,12(sp)
80006d2e:	013b0733          	add	a4,s6,s3
80006d32:	03050c93          	addi	s9,a0,48
80006d36:	01970023          	sb	s9,0(a4)
80006d3a:	0985                	addi	s3,s3,1
80006d3c:	f6f9d8e3          	bge	s3,a5,80006cac <_dtoa_r+0xba8>
80006d40:	85a2                	mv	a1,s0
80006d42:	4681                	li	a3,0
80006d44:	4629                	li	a2,10
80006d46:	854a                	mv	a0,s2
80006d48:	78e000ef          	jal	ra,800074d6 <__multadd>
80006d4c:	842a                	mv	s0,a0
80006d4e:	bfd9                	j	80006d24 <_dtoa_r+0xc20>

80006d50 <__sflush_r>:
__sflush_r():
80006d50:	00c5d783          	lhu	a5,12(a1) # 7ff0000c <__stack_size+0x7feff80c>
80006d54:	1101                	addi	sp,sp,-32
80006d56:	cc22                	sw	s0,24(sp)
80006d58:	ca26                	sw	s1,20(sp)
80006d5a:	ce06                	sw	ra,28(sp)
80006d5c:	c84a                	sw	s2,16(sp)
80006d5e:	c64e                	sw	s3,12(sp)
80006d60:	0087f713          	andi	a4,a5,8
80006d64:	84aa                	mv	s1,a0
80006d66:	842e                	mv	s0,a1
80006d68:	e37d                	bnez	a4,80006e4e <__sflush_r+0xfe>
80006d6a:	41d8                	lw	a4,4(a1)
80006d6c:	00e04763          	bgtz	a4,80006d7a <__sflush_r+0x2a>
80006d70:	41b8                	lw	a4,64(a1)
80006d72:	00e04463          	bgtz	a4,80006d7a <__sflush_r+0x2a>
80006d76:	4501                	li	a0,0
80006d78:	a87d                	j	80006e36 <__sflush_r+0xe6>
80006d7a:	5458                	lw	a4,44(s0)
80006d7c:	df6d                	beqz	a4,80006d76 <__sflush_r+0x26>
80006d7e:	6685                	lui	a3,0x1
80006d80:	0004a903          	lw	s2,0(s1)
80006d84:	8ff5                	and	a5,a5,a3
80006d86:	0004a023          	sw	zero,0(s1)
80006d8a:	cfad                	beqz	a5,80006e04 <__sflush_r+0xb4>
80006d8c:	4868                	lw	a0,84(s0)
80006d8e:	00c45783          	lhu	a5,12(s0)
80006d92:	8b91                	andi	a5,a5,4
80006d94:	c799                	beqz	a5,80006da2 <__sflush_r+0x52>
80006d96:	405c                	lw	a5,4(s0)
80006d98:	8d1d                	sub	a0,a0,a5
80006d9a:	585c                	lw	a5,52(s0)
80006d9c:	c399                	beqz	a5,80006da2 <__sflush_r+0x52>
80006d9e:	403c                	lw	a5,64(s0)
80006da0:	8d1d                	sub	a0,a0,a5
80006da2:	545c                	lw	a5,44(s0)
80006da4:	500c                	lw	a1,32(s0)
80006da6:	862a                	mv	a2,a0
80006da8:	4681                	li	a3,0
80006daa:	8526                	mv	a0,s1
80006dac:	9782                	jalr	a5
80006dae:	57fd                	li	a5,-1
80006db0:	00c45703          	lhu	a4,12(s0)
80006db4:	00f51d63          	bne	a0,a5,80006dce <__sflush_r+0x7e>
80006db8:	4094                	lw	a3,0(s1)
80006dba:	47f5                	li	a5,29
80006dbc:	08d7e463          	bltu	a5,a3,80006e44 <__sflush_r+0xf4>
80006dc0:	204007b7          	lui	a5,0x20400
80006dc4:	0785                	addi	a5,a5,1
80006dc6:	00d7d7b3          	srl	a5,a5,a3
80006dca:	8b85                	andi	a5,a5,1
80006dcc:	cfa5                	beqz	a5,80006e44 <__sflush_r+0xf4>
80006dce:	481c                	lw	a5,16(s0)
80006dd0:	00042223          	sw	zero,4(s0)
80006dd4:	c01c                	sw	a5,0(s0)
80006dd6:	6785                	lui	a5,0x1
80006dd8:	8f7d                	and	a4,a4,a5
80006dda:	c719                	beqz	a4,80006de8 <__sflush_r+0x98>
80006ddc:	57fd                	li	a5,-1
80006dde:	00f51463          	bne	a0,a5,80006de6 <__sflush_r+0x96>
80006de2:	409c                	lw	a5,0(s1)
80006de4:	e391                	bnez	a5,80006de8 <__sflush_r+0x98>
80006de6:	c868                	sw	a0,84(s0)
80006de8:	584c                	lw	a1,52(s0)
80006dea:	0124a023          	sw	s2,0(s1)
80006dee:	d5c1                	beqz	a1,80006d76 <__sflush_r+0x26>
80006df0:	04440793          	addi	a5,s0,68
80006df4:	00f58563          	beq	a1,a5,80006dfe <__sflush_r+0xae>
80006df8:	8526                	mv	a0,s1
80006dfa:	687000ef          	jal	ra,80007c80 <_free_r>
80006dfe:	02042a23          	sw	zero,52(s0)
80006e02:	bf95                	j	80006d76 <__sflush_r+0x26>
80006e04:	500c                	lw	a1,32(s0)
80006e06:	4685                	li	a3,1
80006e08:	4601                	li	a2,0
80006e0a:	8526                	mv	a0,s1
80006e0c:	9702                	jalr	a4
80006e0e:	57fd                	li	a5,-1
80006e10:	f6f51fe3          	bne	a0,a5,80006d8e <__sflush_r+0x3e>
80006e14:	409c                	lw	a5,0(s1)
80006e16:	dfa5                	beqz	a5,80006d8e <__sflush_r+0x3e>
80006e18:	4775                	li	a4,29
80006e1a:	00e78563          	beq	a5,a4,80006e24 <__sflush_r+0xd4>
80006e1e:	4759                	li	a4,22
80006e20:	00e79563          	bne	a5,a4,80006e2a <__sflush_r+0xda>
80006e24:	0124a023          	sw	s2,0(s1)
80006e28:	b7b9                	j	80006d76 <__sflush_r+0x26>
80006e2a:	00c45783          	lhu	a5,12(s0)
80006e2e:	0407e793          	ori	a5,a5,64
80006e32:	00f41623          	sh	a5,12(s0)
80006e36:	40f2                	lw	ra,28(sp)
80006e38:	4462                	lw	s0,24(sp)
80006e3a:	44d2                	lw	s1,20(sp)
80006e3c:	4942                	lw	s2,16(sp)
80006e3e:	49b2                	lw	s3,12(sp)
80006e40:	6105                	addi	sp,sp,32
80006e42:	8082                	ret
80006e44:	04076713          	ori	a4,a4,64
80006e48:	00e41623          	sh	a4,12(s0)
80006e4c:	b7ed                	j	80006e36 <__sflush_r+0xe6>
80006e4e:	0105a983          	lw	s3,16(a1)
80006e52:	f20982e3          	beqz	s3,80006d76 <__sflush_r+0x26>
80006e56:	0005a903          	lw	s2,0(a1)
80006e5a:	8b8d                	andi	a5,a5,3
80006e5c:	0135a023          	sw	s3,0(a1)
80006e60:	41390933          	sub	s2,s2,s3
80006e64:	4701                	li	a4,0
80006e66:	e391                	bnez	a5,80006e6a <__sflush_r+0x11a>
80006e68:	49d8                	lw	a4,20(a1)
80006e6a:	c418                	sw	a4,8(s0)
80006e6c:	f12055e3          	blez	s2,80006d76 <__sflush_r+0x26>
80006e70:	541c                	lw	a5,40(s0)
80006e72:	500c                	lw	a1,32(s0)
80006e74:	86ca                	mv	a3,s2
80006e76:	864e                	mv	a2,s3
80006e78:	8526                	mv	a0,s1
80006e7a:	9782                	jalr	a5
80006e7c:	00a04a63          	bgtz	a0,80006e90 <__sflush_r+0x140>
80006e80:	00c45783          	lhu	a5,12(s0)
80006e84:	557d                	li	a0,-1
80006e86:	0407e793          	ori	a5,a5,64
80006e8a:	00f41623          	sh	a5,12(s0)
80006e8e:	b765                	j	80006e36 <__sflush_r+0xe6>
80006e90:	99aa                	add	s3,s3,a0
80006e92:	40a90933          	sub	s2,s2,a0
80006e96:	bfd9                	j	80006e6c <__sflush_r+0x11c>

80006e98 <_fflush_r>:
_fflush_r():
80006e98:	499c                	lw	a5,16(a1)
80006e9a:	cfb9                	beqz	a5,80006ef8 <_fflush_r+0x60>
80006e9c:	1101                	addi	sp,sp,-32
80006e9e:	cc22                	sw	s0,24(sp)
80006ea0:	ce06                	sw	ra,28(sp)
80006ea2:	842a                	mv	s0,a0
80006ea4:	c511                	beqz	a0,80006eb0 <_fflush_r+0x18>
80006ea6:	4d1c                	lw	a5,24(a0)
80006ea8:	e781                	bnez	a5,80006eb0 <_fflush_r+0x18>
80006eaa:	c62e                	sw	a1,12(sp)
80006eac:	2221                	jal	80006fb4 <__sinit>
80006eae:	45b2                	lw	a1,12(sp)
80006eb0:	00002797          	auipc	a5,0x2
80006eb4:	fac78793          	addi	a5,a5,-84 # 80008e5c <__sf_fake_stdin>
80006eb8:	00f59b63          	bne	a1,a5,80006ece <_fflush_r+0x36>
80006ebc:	404c                	lw	a1,4(s0)
80006ebe:	00c59783          	lh	a5,12(a1)
80006ec2:	c795                	beqz	a5,80006eee <_fflush_r+0x56>
80006ec4:	8522                	mv	a0,s0
80006ec6:	4462                	lw	s0,24(sp)
80006ec8:	40f2                	lw	ra,28(sp)
80006eca:	6105                	addi	sp,sp,32
80006ecc:	b551                	j	80006d50 <__sflush_r>
80006ece:	00002797          	auipc	a5,0x2
80006ed2:	fae78793          	addi	a5,a5,-82 # 80008e7c <__sf_fake_stdout>
80006ed6:	00f59463          	bne	a1,a5,80006ede <_fflush_r+0x46>
80006eda:	440c                	lw	a1,8(s0)
80006edc:	b7cd                	j	80006ebe <_fflush_r+0x26>
80006ede:	00002797          	auipc	a5,0x2
80006ee2:	f5e78793          	addi	a5,a5,-162 # 80008e3c <__sf_fake_stderr>
80006ee6:	fcf59ce3          	bne	a1,a5,80006ebe <_fflush_r+0x26>
80006eea:	444c                	lw	a1,12(s0)
80006eec:	bfc9                	j	80006ebe <_fflush_r+0x26>
80006eee:	40f2                	lw	ra,28(sp)
80006ef0:	4462                	lw	s0,24(sp)
80006ef2:	4501                	li	a0,0
80006ef4:	6105                	addi	sp,sp,32
80006ef6:	8082                	ret
80006ef8:	4501                	li	a0,0
80006efa:	8082                	ret

80006efc <std>:
std():
80006efc:	1141                	addi	sp,sp,-16
80006efe:	c422                	sw	s0,8(sp)
80006f00:	c606                	sw	ra,12(sp)
80006f02:	842a                	mv	s0,a0
80006f04:	00b51623          	sh	a1,12(a0)
80006f08:	00c51723          	sh	a2,14(a0)
80006f0c:	00052023          	sw	zero,0(a0)
80006f10:	00052223          	sw	zero,4(a0)
80006f14:	00052423          	sw	zero,8(a0)
80006f18:	06052223          	sw	zero,100(a0)
80006f1c:	00052823          	sw	zero,16(a0)
80006f20:	00052a23          	sw	zero,20(a0)
80006f24:	00052c23          	sw	zero,24(a0)
80006f28:	4621                	li	a2,8
80006f2a:	4581                	li	a1,0
80006f2c:	05c50513          	addi	a0,a0,92
80006f30:	2ecd                	jal	80007322 <memset>
80006f32:	00001797          	auipc	a5,0x1
80006f36:	1ee78793          	addi	a5,a5,494 # 80008120 <__sread>
80006f3a:	d05c                	sw	a5,36(s0)
80006f3c:	00001797          	auipc	a5,0x1
80006f40:	21478793          	addi	a5,a5,532 # 80008150 <__swrite>
80006f44:	d41c                	sw	a5,40(s0)
80006f46:	00001797          	auipc	a5,0x1
80006f4a:	25878793          	addi	a5,a5,600 # 8000819e <__sseek>
80006f4e:	d45c                	sw	a5,44(s0)
80006f50:	00001797          	auipc	a5,0x1
80006f54:	28478793          	addi	a5,a5,644 # 800081d4 <__sclose>
80006f58:	40b2                	lw	ra,12(sp)
80006f5a:	d000                	sw	s0,32(s0)
80006f5c:	d81c                	sw	a5,48(s0)
80006f5e:	4422                	lw	s0,8(sp)
80006f60:	0141                	addi	sp,sp,16
80006f62:	8082                	ret

80006f64 <_cleanup_r>:
_cleanup_r():
80006f64:	00000597          	auipc	a1,0x0
80006f68:	f3458593          	addi	a1,a1,-204 # 80006e98 <_fflush_r>
80006f6c:	a299                	j	800070b2 <_fwalk_reent>

80006f6e <__sfmoreglue>:
__sfmoreglue():
80006f6e:	1141                	addi	sp,sp,-16
80006f70:	c226                	sw	s1,4(sp)
80006f72:	06800613          	li	a2,104
80006f76:	fff58493          	addi	s1,a1,-1
80006f7a:	02c484b3          	mul	s1,s1,a2
80006f7e:	c04a                	sw	s2,0(sp)
80006f80:	892e                	mv	s2,a1
80006f82:	c422                	sw	s0,8(sp)
80006f84:	c606                	sw	ra,12(sp)
80006f86:	07448593          	addi	a1,s1,116
80006f8a:	595000ef          	jal	ra,80007d1e <_malloc_r>
80006f8e:	842a                	mv	s0,a0
80006f90:	c919                	beqz	a0,80006fa6 <__sfmoreglue+0x38>
80006f92:	00052023          	sw	zero,0(a0)
80006f96:	01252223          	sw	s2,4(a0)
80006f9a:	0531                	addi	a0,a0,12
80006f9c:	c408                	sw	a0,8(s0)
80006f9e:	06848613          	addi	a2,s1,104
80006fa2:	4581                	li	a1,0
80006fa4:	2ebd                	jal	80007322 <memset>
80006fa6:	40b2                	lw	ra,12(sp)
80006fa8:	8522                	mv	a0,s0
80006faa:	4422                	lw	s0,8(sp)
80006fac:	4492                	lw	s1,4(sp)
80006fae:	4902                	lw	s2,0(sp)
80006fb0:	0141                	addi	sp,sp,16
80006fb2:	8082                	ret

80006fb4 <__sinit>:
__sinit():
80006fb4:	4d1c                	lw	a5,24(a0)
80006fb6:	e3ad                	bnez	a5,80007018 <__sinit+0x64>
80006fb8:	1141                	addi	sp,sp,-16
80006fba:	c422                	sw	s0,8(sp)
80006fbc:	c606                	sw	ra,12(sp)
80006fbe:	00000797          	auipc	a5,0x0
80006fc2:	fa678793          	addi	a5,a5,-90 # 80006f64 <_cleanup_r>
80006fc6:	d51c                	sw	a5,40(a0)
80006fc8:	04052423          	sw	zero,72(a0)
80006fcc:	04052623          	sw	zero,76(a0)
80006fd0:	04052823          	sw	zero,80(a0)
80006fd4:	8601a783          	lw	a5,-1952(gp) # 90009010 <_global_impure_ptr>
80006fd8:	842a                	mv	s0,a0
80006fda:	00f51463          	bne	a0,a5,80006fe2 <__sinit+0x2e>
80006fde:	4785                	li	a5,1
80006fe0:	cd1c                	sw	a5,24(a0)
80006fe2:	8522                	mv	a0,s0
80006fe4:	281d                	jal	8000701a <__sfp>
80006fe6:	c048                	sw	a0,4(s0)
80006fe8:	8522                	mv	a0,s0
80006fea:	2805                	jal	8000701a <__sfp>
80006fec:	c408                	sw	a0,8(s0)
80006fee:	8522                	mv	a0,s0
80006ff0:	202d                	jal	8000701a <__sfp>
80006ff2:	c448                	sw	a0,12(s0)
80006ff4:	4048                	lw	a0,4(s0)
80006ff6:	4601                	li	a2,0
80006ff8:	4591                	li	a1,4
80006ffa:	3709                	jal	80006efc <std>
80006ffc:	4408                	lw	a0,8(s0)
80006ffe:	4605                	li	a2,1
80007000:	45a5                	li	a1,9
80007002:	3ded                	jal	80006efc <std>
80007004:	4448                	lw	a0,12(s0)
80007006:	4609                	li	a2,2
80007008:	45c9                	li	a1,18
8000700a:	3dcd                	jal	80006efc <std>
8000700c:	4785                	li	a5,1
8000700e:	40b2                	lw	ra,12(sp)
80007010:	cc1c                	sw	a5,24(s0)
80007012:	4422                	lw	s0,8(sp)
80007014:	0141                	addi	sp,sp,16
80007016:	8082                	ret
80007018:	8082                	ret

8000701a <__sfp>:
__sfp():
8000701a:	1141                	addi	sp,sp,-16
8000701c:	c226                	sw	s1,4(sp)
8000701e:	8601a483          	lw	s1,-1952(gp) # 90009010 <_global_impure_ptr>
80007022:	4c9c                	lw	a5,24(s1)
80007024:	c04a                	sw	s2,0(sp)
80007026:	c606                	sw	ra,12(sp)
80007028:	c422                	sw	s0,8(sp)
8000702a:	892a                	mv	s2,a0
8000702c:	e399                	bnez	a5,80007032 <__sfp+0x18>
8000702e:	8526                	mv	a0,s1
80007030:	3751                	jal	80006fb4 <__sinit>
80007032:	04848493          	addi	s1,s1,72
80007036:	4480                	lw	s0,8(s1)
80007038:	40dc                	lw	a5,4(s1)
8000703a:	17fd                	addi	a5,a5,-1
8000703c:	0007d663          	bgez	a5,80007048 <__sfp+0x2e>
80007040:	409c                	lw	a5,0(s1)
80007042:	cfb1                	beqz	a5,8000709e <__sfp+0x84>
80007044:	4084                	lw	s1,0(s1)
80007046:	bfc5                	j	80007036 <__sfp+0x1c>
80007048:	00c41703          	lh	a4,12(s0)
8000704c:	e731                	bnez	a4,80007098 <__sfp+0x7e>
8000704e:	77c1                	lui	a5,0xffff0
80007050:	0785                	addi	a5,a5,1
80007052:	06042223          	sw	zero,100(s0)
80007056:	00042023          	sw	zero,0(s0)
8000705a:	00042223          	sw	zero,4(s0)
8000705e:	00042423          	sw	zero,8(s0)
80007062:	c45c                	sw	a5,12(s0)
80007064:	00042823          	sw	zero,16(s0)
80007068:	00042a23          	sw	zero,20(s0)
8000706c:	00042c23          	sw	zero,24(s0)
80007070:	4621                	li	a2,8
80007072:	4581                	li	a1,0
80007074:	05c40513          	addi	a0,s0,92
80007078:	246d                	jal	80007322 <memset>
8000707a:	02042a23          	sw	zero,52(s0)
8000707e:	02042c23          	sw	zero,56(s0)
80007082:	04042423          	sw	zero,72(s0)
80007086:	04042623          	sw	zero,76(s0)
8000708a:	40b2                	lw	ra,12(sp)
8000708c:	8522                	mv	a0,s0
8000708e:	4422                	lw	s0,8(sp)
80007090:	4492                	lw	s1,4(sp)
80007092:	4902                	lw	s2,0(sp)
80007094:	0141                	addi	sp,sp,16
80007096:	8082                	ret
80007098:	06840413          	addi	s0,s0,104
8000709c:	bf79                	j	8000703a <__sfp+0x20>
8000709e:	4591                	li	a1,4
800070a0:	854a                	mv	a0,s2
800070a2:	35f1                	jal	80006f6e <__sfmoreglue>
800070a4:	c088                	sw	a0,0(s1)
800070a6:	842a                	mv	s0,a0
800070a8:	fd51                	bnez	a0,80007044 <__sfp+0x2a>
800070aa:	47b1                	li	a5,12
800070ac:	00f92023          	sw	a5,0(s2)
800070b0:	bfe9                	j	8000708a <__sfp+0x70>

800070b2 <_fwalk_reent>:
_fwalk_reent():
800070b2:	7179                	addi	sp,sp,-48
800070b4:	d422                	sw	s0,40(sp)
800070b6:	d04a                	sw	s2,32(sp)
800070b8:	ce4e                	sw	s3,28(sp)
800070ba:	cc52                	sw	s4,24(sp)
800070bc:	c85a                	sw	s6,16(sp)
800070be:	c65e                	sw	s7,12(sp)
800070c0:	d606                	sw	ra,44(sp)
800070c2:	d226                	sw	s1,36(sp)
800070c4:	ca56                	sw	s5,20(sp)
800070c6:	892a                	mv	s2,a0
800070c8:	8a2e                	mv	s4,a1
800070ca:	04850413          	addi	s0,a0,72
800070ce:	4981                	li	s3,0
800070d0:	4b05                	li	s6,1
800070d2:	5bfd                	li	s7,-1
800070d4:	4404                	lw	s1,8(s0)
800070d6:	00442a83          	lw	s5,4(s0)
800070da:	1afd                	addi	s5,s5,-1
800070dc:	020ad063          	bgez	s5,800070fc <_fwalk_reent+0x4a>
800070e0:	4000                	lw	s0,0(s0)
800070e2:	f86d                	bnez	s0,800070d4 <_fwalk_reent+0x22>
800070e4:	50b2                	lw	ra,44(sp)
800070e6:	5422                	lw	s0,40(sp)
800070e8:	5492                	lw	s1,36(sp)
800070ea:	5902                	lw	s2,32(sp)
800070ec:	4a62                	lw	s4,24(sp)
800070ee:	4ad2                	lw	s5,20(sp)
800070f0:	4b42                	lw	s6,16(sp)
800070f2:	4bb2                	lw	s7,12(sp)
800070f4:	854e                	mv	a0,s3
800070f6:	49f2                	lw	s3,28(sp)
800070f8:	6145                	addi	sp,sp,48
800070fa:	8082                	ret
800070fc:	00c4d783          	lhu	a5,12(s1)
80007100:	00fb7b63          	bgeu	s6,a5,80007116 <_fwalk_reent+0x64>
80007104:	00e49783          	lh	a5,14(s1)
80007108:	01778763          	beq	a5,s7,80007116 <_fwalk_reent+0x64>
8000710c:	85a6                	mv	a1,s1
8000710e:	854a                	mv	a0,s2
80007110:	9a02                	jalr	s4
80007112:	00a9e9b3          	or	s3,s3,a0
80007116:	06848493          	addi	s1,s1,104
8000711a:	b7c1                	j	800070da <_fwalk_reent+0x28>

8000711c <_localeconv_r>:
_localeconv_r():
8000711c:	10002517          	auipc	a0,0x10002
80007120:	e1850513          	addi	a0,a0,-488 # 90008f34 <__global_locale+0xf0>
80007124:	8082                	ret

80007126 <__swhatbuf_r>:
__swhatbuf_r():
80007126:	7159                	addi	sp,sp,-112
80007128:	d0ca                	sw	s2,96(sp)
8000712a:	892e                	mv	s2,a1
8000712c:	00e59583          	lh	a1,14(a1)
80007130:	d4a2                	sw	s0,104(sp)
80007132:	d2a6                	sw	s1,100(sp)
80007134:	d686                	sw	ra,108(sp)
80007136:	8432                	mv	s0,a2
80007138:	84b6                	mv	s1,a3
8000713a:	0005dc63          	bgez	a1,80007152 <__swhatbuf_r+0x2c>
8000713e:	00c91783          	lh	a5,12(s2)
80007142:	0004a023          	sw	zero,0(s1)
80007146:	0807f793          	andi	a5,a5,128
8000714a:	e395                	bnez	a5,8000716e <__swhatbuf_r+0x48>
8000714c:	40000793          	li	a5,1024
80007150:	a00d                	j	80007172 <__swhatbuf_r+0x4c>
80007152:	0030                	addi	a2,sp,8
80007154:	136010ef          	jal	ra,8000828a <_fstat_r>
80007158:	fe0543e3          	bltz	a0,8000713e <__swhatbuf_r+0x18>
8000715c:	4732                	lw	a4,12(sp)
8000715e:	67bd                	lui	a5,0xf
80007160:	8ff9                	and	a5,a5,a4
80007162:	7779                	lui	a4,0xffffe
80007164:	97ba                	add	a5,a5,a4
80007166:	0017b793          	seqz	a5,a5
8000716a:	c09c                	sw	a5,0(s1)
8000716c:	b7c5                	j	8000714c <__swhatbuf_r+0x26>
8000716e:	04000793          	li	a5,64
80007172:	50b6                	lw	ra,108(sp)
80007174:	c01c                	sw	a5,0(s0)
80007176:	5426                	lw	s0,104(sp)
80007178:	5496                	lw	s1,100(sp)
8000717a:	5906                	lw	s2,96(sp)
8000717c:	4501                	li	a0,0
8000717e:	6165                	addi	sp,sp,112
80007180:	8082                	ret

80007182 <__smakebuf_r>:
__smakebuf_r():
80007182:	00c5d783          	lhu	a5,12(a1)
80007186:	1101                	addi	sp,sp,-32
80007188:	cc22                	sw	s0,24(sp)
8000718a:	ce06                	sw	ra,28(sp)
8000718c:	ca26                	sw	s1,20(sp)
8000718e:	c84a                	sw	s2,16(sp)
80007190:	8b89                	andi	a5,a5,2
80007192:	842e                	mv	s0,a1
80007194:	cf89                	beqz	a5,800071ae <__smakebuf_r+0x2c>
80007196:	04740793          	addi	a5,s0,71
8000719a:	c01c                	sw	a5,0(s0)
8000719c:	c81c                	sw	a5,16(s0)
8000719e:	4785                	li	a5,1
800071a0:	c85c                	sw	a5,20(s0)
800071a2:	40f2                	lw	ra,28(sp)
800071a4:	4462                	lw	s0,24(sp)
800071a6:	44d2                	lw	s1,20(sp)
800071a8:	4942                	lw	s2,16(sp)
800071aa:	6105                	addi	sp,sp,32
800071ac:	8082                	ret
800071ae:	0074                	addi	a3,sp,12
800071b0:	0030                	addi	a2,sp,8
800071b2:	892a                	mv	s2,a0
800071b4:	3f8d                	jal	80007126 <__swhatbuf_r>
800071b6:	45a2                	lw	a1,8(sp)
800071b8:	84aa                	mv	s1,a0
800071ba:	854a                	mv	a0,s2
800071bc:	363000ef          	jal	ra,80007d1e <_malloc_r>
800071c0:	ed01                	bnez	a0,800071d8 <__smakebuf_r+0x56>
800071c2:	00c41783          	lh	a5,12(s0)
800071c6:	2007f713          	andi	a4,a5,512
800071ca:	ff61                	bnez	a4,800071a2 <__smakebuf_r+0x20>
800071cc:	9bf1                	andi	a5,a5,-4
800071ce:	0027e793          	ori	a5,a5,2
800071d2:	00f41623          	sh	a5,12(s0)
800071d6:	b7c1                	j	80007196 <__smakebuf_r+0x14>
800071d8:	00000797          	auipc	a5,0x0
800071dc:	d8c78793          	addi	a5,a5,-628 # 80006f64 <_cleanup_r>
800071e0:	02f92423          	sw	a5,40(s2)
800071e4:	00c45783          	lhu	a5,12(s0)
800071e8:	c008                	sw	a0,0(s0)
800071ea:	c808                	sw	a0,16(s0)
800071ec:	0807e793          	ori	a5,a5,128
800071f0:	00f41623          	sh	a5,12(s0)
800071f4:	47a2                	lw	a5,8(sp)
800071f6:	c85c                	sw	a5,20(s0)
800071f8:	47b2                	lw	a5,12(sp)
800071fa:	cf91                	beqz	a5,80007216 <__smakebuf_r+0x94>
800071fc:	00e41583          	lh	a1,14(s0)
80007200:	854a                	mv	a0,s2
80007202:	0b2010ef          	jal	ra,800082b4 <_isatty_r>
80007206:	c901                	beqz	a0,80007216 <__smakebuf_r+0x94>
80007208:	00c45783          	lhu	a5,12(s0)
8000720c:	9bf1                	andi	a5,a5,-4
8000720e:	0017e793          	ori	a5,a5,1
80007212:	00f41623          	sh	a5,12(s0)
80007216:	00c45503          	lhu	a0,12(s0)
8000721a:	8cc9                	or	s1,s1,a0
8000721c:	00941623          	sh	s1,12(s0)
80007220:	b749                	j	800071a2 <__smakebuf_r+0x20>

80007222 <malloc>:
malloc():
80007222:	85aa                	mv	a1,a0
80007224:	80c1a503          	lw	a0,-2036(gp) # 90008fbc <_impure_ptr>
80007228:	2f70006f          	j	80007d1e <_malloc_r>

8000722c <memchr>:
memchr():
8000722c:	0ff5f593          	zext.b	a1,a1
80007230:	962a                	add	a2,a2,a0
80007232:	00c51463          	bne	a0,a2,8000723a <memchr+0xe>
80007236:	4501                	li	a0,0
80007238:	8082                	ret
8000723a:	00054783          	lbu	a5,0(a0)
8000723e:	feb78de3          	beq	a5,a1,80007238 <memchr+0xc>
80007242:	0505                	addi	a0,a0,1
80007244:	b7fd                	j	80007232 <memchr+0x6>

80007246 <memcpy>:
memcpy():
80007246:	00a5c7b3          	xor	a5,a1,a0
8000724a:	8b8d                	andi	a5,a5,3
8000724c:	00c506b3          	add	a3,a0,a2
80007250:	e781                	bnez	a5,80007258 <memcpy+0x12>
80007252:	478d                	li	a5,3
80007254:	00c7ee63          	bltu	a5,a2,80007270 <memcpy+0x2a>
80007258:	87aa                	mv	a5,a0
8000725a:	06d57163          	bgeu	a0,a3,800072bc <memcpy+0x76>
8000725e:	0005c703          	lbu	a4,0(a1)
80007262:	0785                	addi	a5,a5,1
80007264:	0585                	addi	a1,a1,1
80007266:	fee78fa3          	sb	a4,-1(a5)
8000726a:	fed7eae3          	bltu	a5,a3,8000725e <memcpy+0x18>
8000726e:	8082                	ret
80007270:	00357713          	andi	a4,a0,3
80007274:	87aa                	mv	a5,a0
80007276:	cb11                	beqz	a4,8000728a <memcpy+0x44>
80007278:	0005c703          	lbu	a4,0(a1)
8000727c:	0785                	addi	a5,a5,1
8000727e:	0585                	addi	a1,a1,1
80007280:	fee78fa3          	sb	a4,-1(a5)
80007284:	0037f713          	andi	a4,a5,3
80007288:	b7fd                	j	80007276 <memcpy+0x30>
8000728a:	ffc6f713          	andi	a4,a3,-4
8000728e:	40f70833          	sub	a6,a4,a5
80007292:	02000613          	li	a2,32
80007296:	03064463          	blt	a2,a6,800072be <memcpy+0x78>
8000729a:	882e                	mv	a6,a1
8000729c:	863e                	mv	a2,a5
8000729e:	06e66b63          	bltu	a2,a4,80007314 <memcpy+0xce>
800072a2:	ffd78813          	addi	a6,a5,-3
800072a6:	4601                	li	a2,0
800072a8:	01076663          	bltu	a4,a6,800072b4 <memcpy+0x6e>
800072ac:	070d                	addi	a4,a4,3
800072ae:	8f1d                	sub	a4,a4,a5
800072b0:	ffc77613          	andi	a2,a4,-4
800072b4:	97b2                	add	a5,a5,a2
800072b6:	95b2                	add	a1,a1,a2
800072b8:	fad7e3e3          	bltu	a5,a3,8000725e <memcpy+0x18>
800072bc:	8082                	ret
800072be:	0005a383          	lw	t2,0(a1)
800072c2:	0045a283          	lw	t0,4(a1)
800072c6:	0085af83          	lw	t6,8(a1)
800072ca:	00c5af03          	lw	t5,12(a1)
800072ce:	0105ae83          	lw	t4,16(a1)
800072d2:	0145ae03          	lw	t3,20(a1)
800072d6:	0185a303          	lw	t1,24(a1)
800072da:	01c5a883          	lw	a7,28(a1)
800072de:	0077a023          	sw	t2,0(a5)
800072e2:	0057a223          	sw	t0,4(a5)
800072e6:	0205a803          	lw	a6,32(a1)
800072ea:	01f7a423          	sw	t6,8(a5)
800072ee:	01e7a623          	sw	t5,12(a5)
800072f2:	01d7a823          	sw	t4,16(a5)
800072f6:	01c7aa23          	sw	t3,20(a5)
800072fa:	0067ac23          	sw	t1,24(a5)
800072fe:	0117ae23          	sw	a7,28(a5)
80007302:	02478793          	addi	a5,a5,36
80007306:	02458593          	addi	a1,a1,36
8000730a:	ff07ae23          	sw	a6,-4(a5)
8000730e:	40f70833          	sub	a6,a4,a5
80007312:	b751                	j	80007296 <memcpy+0x50>
80007314:	00082883          	lw	a7,0(a6)
80007318:	0611                	addi	a2,a2,4
8000731a:	0811                	addi	a6,a6,4
8000731c:	ff162e23          	sw	a7,-4(a2)
80007320:	bfbd                	j	8000729e <memcpy+0x58>

80007322 <memset>:
memset():
80007322:	433d                	li	t1,15
80007324:	872a                	mv	a4,a0
80007326:	02c37363          	bgeu	t1,a2,8000734c <memset+0x2a>
8000732a:	00f77793          	andi	a5,a4,15
8000732e:	efbd                	bnez	a5,800073ac <memset+0x8a>
80007330:	e5ad                	bnez	a1,8000739a <memset+0x78>
80007332:	ff067693          	andi	a3,a2,-16
80007336:	8a3d                	andi	a2,a2,15
80007338:	96ba                	add	a3,a3,a4
8000733a:	c30c                	sw	a1,0(a4)
8000733c:	c34c                	sw	a1,4(a4)
8000733e:	c70c                	sw	a1,8(a4)
80007340:	c74c                	sw	a1,12(a4)
80007342:	0741                	addi	a4,a4,16
80007344:	fed76be3          	bltu	a4,a3,8000733a <memset+0x18>
80007348:	e211                	bnez	a2,8000734c <memset+0x2a>
8000734a:	8082                	ret
8000734c:	40c306b3          	sub	a3,t1,a2
80007350:	068a                	slli	a3,a3,0x2
80007352:	00000297          	auipc	t0,0x0
80007356:	9696                	add	a3,a3,t0
80007358:	00a68067          	jr	10(a3) # 100a <__stack_size+0x80a>
8000735c:	00b70723          	sb	a1,14(a4) # ffffe00e <_sp+0x6ffbe00e>
80007360:	00b706a3          	sb	a1,13(a4)
80007364:	00b70623          	sb	a1,12(a4)
80007368:	00b705a3          	sb	a1,11(a4)
8000736c:	00b70523          	sb	a1,10(a4)
80007370:	00b704a3          	sb	a1,9(a4)
80007374:	00b70423          	sb	a1,8(a4)
80007378:	00b703a3          	sb	a1,7(a4)
8000737c:	00b70323          	sb	a1,6(a4)
80007380:	00b702a3          	sb	a1,5(a4)
80007384:	00b70223          	sb	a1,4(a4)
80007388:	00b701a3          	sb	a1,3(a4)
8000738c:	00b70123          	sb	a1,2(a4)
80007390:	00b700a3          	sb	a1,1(a4)
80007394:	00b70023          	sb	a1,0(a4)
80007398:	8082                	ret
8000739a:	0ff5f593          	zext.b	a1,a1
8000739e:	00859693          	slli	a3,a1,0x8
800073a2:	8dd5                	or	a1,a1,a3
800073a4:	01059693          	slli	a3,a1,0x10
800073a8:	8dd5                	or	a1,a1,a3
800073aa:	b761                	j	80007332 <memset+0x10>
800073ac:	00279693          	slli	a3,a5,0x2
800073b0:	00000297          	auipc	t0,0x0
800073b4:	9696                	add	a3,a3,t0
800073b6:	8286                	mv	t0,ra
800073b8:	fa8680e7          	jalr	-88(a3)
800073bc:	8096                	mv	ra,t0
800073be:	17c1                	addi	a5,a5,-16
800073c0:	8f1d                	sub	a4,a4,a5
800073c2:	963e                	add	a2,a2,a5
800073c4:	f8c374e3          	bgeu	t1,a2,8000734c <memset+0x2a>
800073c8:	b7a5                	j	80007330 <memset+0xe>

800073ca <_Balloc>:
_Balloc():
800073ca:	515c                	lw	a5,36(a0)
800073cc:	1141                	addi	sp,sp,-16
800073ce:	c422                	sw	s0,8(sp)
800073d0:	c226                	sw	s1,4(sp)
800073d2:	c606                	sw	ra,12(sp)
800073d4:	c04a                	sw	s2,0(sp)
800073d6:	842a                	mv	s0,a0
800073d8:	84ae                	mv	s1,a1
800073da:	eb95                	bnez	a5,8000740e <_Balloc+0x44>
800073dc:	4541                	li	a0,16
800073de:	3591                	jal	80007222 <malloc>
800073e0:	d048                	sw	a0,36(s0)
800073e2:	ed11                	bnez	a0,800073fe <_Balloc+0x34>
800073e4:	00002697          	auipc	a3,0x2
800073e8:	9d868693          	addi	a3,a3,-1576 # 80008dbc <__clz_tab+0x1a4>
800073ec:	4601                	li	a2,0
800073ee:	06600593          	li	a1,102
800073f2:	00002517          	auipc	a0,0x2
800073f6:	aaa50513          	addi	a0,a0,-1366 # 80008e9c <__sf_fake_stdout+0x20>
800073fa:	60d000ef          	jal	ra,80008206 <__assert_func>
800073fe:	00052223          	sw	zero,4(a0)
80007402:	00052423          	sw	zero,8(a0)
80007406:	00052023          	sw	zero,0(a0)
8000740a:	00052623          	sw	zero,12(a0)
8000740e:	02442903          	lw	s2,36(s0)
80007412:	00c92783          	lw	a5,12(s2)
80007416:	c79d                	beqz	a5,80007444 <_Balloc+0x7a>
80007418:	5058                	lw	a4,36(s0)
8000741a:	00249793          	slli	a5,s1,0x2
8000741e:	4758                	lw	a4,12(a4)
80007420:	97ba                	add	a5,a5,a4
80007422:	4388                	lw	a0,0(a5)
80007424:	e131                	bnez	a0,80007468 <_Balloc+0x9e>
80007426:	4905                	li	s2,1
80007428:	00991933          	sll	s2,s2,s1
8000742c:	00590613          	addi	a2,s2,5
80007430:	060a                	slli	a2,a2,0x2
80007432:	4585                	li	a1,1
80007434:	8522                	mv	a0,s0
80007436:	015000ef          	jal	ra,80007c4a <_calloc_r>
8000743a:	c105                	beqz	a0,8000745a <_Balloc+0x90>
8000743c:	c144                	sw	s1,4(a0)
8000743e:	01252423          	sw	s2,8(a0)
80007442:	a02d                	j	8000746c <_Balloc+0xa2>
80007444:	02100613          	li	a2,33
80007448:	4591                	li	a1,4
8000744a:	8522                	mv	a0,s0
8000744c:	7fe000ef          	jal	ra,80007c4a <_calloc_r>
80007450:	505c                	lw	a5,36(s0)
80007452:	00a92623          	sw	a0,12(s2)
80007456:	47dc                	lw	a5,12(a5)
80007458:	f3e1                	bnez	a5,80007418 <_Balloc+0x4e>
8000745a:	4501                	li	a0,0
8000745c:	40b2                	lw	ra,12(sp)
8000745e:	4422                	lw	s0,8(sp)
80007460:	4492                	lw	s1,4(sp)
80007462:	4902                	lw	s2,0(sp)
80007464:	0141                	addi	sp,sp,16
80007466:	8082                	ret
80007468:	4118                	lw	a4,0(a0)
8000746a:	c398                	sw	a4,0(a5)
8000746c:	00052823          	sw	zero,16(a0)
80007470:	00052623          	sw	zero,12(a0)
80007474:	b7e5                	j	8000745c <_Balloc+0x92>

80007476 <_Bfree>:
_Bfree():
80007476:	515c                	lw	a5,36(a0)
80007478:	1141                	addi	sp,sp,-16
8000747a:	c422                	sw	s0,8(sp)
8000747c:	c226                	sw	s1,4(sp)
8000747e:	c606                	sw	ra,12(sp)
80007480:	84aa                	mv	s1,a0
80007482:	842e                	mv	s0,a1
80007484:	eb95                	bnez	a5,800074b8 <_Bfree+0x42>
80007486:	4541                	li	a0,16
80007488:	3b69                	jal	80007222 <malloc>
8000748a:	d0c8                	sw	a0,36(s1)
8000748c:	ed11                	bnez	a0,800074a8 <_Bfree+0x32>
8000748e:	00002697          	auipc	a3,0x2
80007492:	92e68693          	addi	a3,a3,-1746 # 80008dbc <__clz_tab+0x1a4>
80007496:	4601                	li	a2,0
80007498:	08a00593          	li	a1,138
8000749c:	00002517          	auipc	a0,0x2
800074a0:	a0050513          	addi	a0,a0,-1536 # 80008e9c <__sf_fake_stdout+0x20>
800074a4:	563000ef          	jal	ra,80008206 <__assert_func>
800074a8:	00052223          	sw	zero,4(a0)
800074ac:	00052423          	sw	zero,8(a0)
800074b0:	00052023          	sw	zero,0(a0)
800074b4:	00052623          	sw	zero,12(a0)
800074b8:	c811                	beqz	s0,800074cc <_Bfree+0x56>
800074ba:	50d4                	lw	a3,36(s1)
800074bc:	405c                	lw	a5,4(s0)
800074be:	00279713          	slli	a4,a5,0x2
800074c2:	46dc                	lw	a5,12(a3)
800074c4:	97ba                	add	a5,a5,a4
800074c6:	4398                	lw	a4,0(a5)
800074c8:	c018                	sw	a4,0(s0)
800074ca:	c380                	sw	s0,0(a5)
800074cc:	40b2                	lw	ra,12(sp)
800074ce:	4422                	lw	s0,8(sp)
800074d0:	4492                	lw	s1,4(sp)
800074d2:	0141                	addi	sp,sp,16
800074d4:	8082                	ret

800074d6 <__multadd>:
__multadd():
800074d6:	1101                	addi	sp,sp,-32
800074d8:	cc22                	sw	s0,24(sp)
800074da:	c84a                	sw	s2,16(sp)
800074dc:	c64e                	sw	s3,12(sp)
800074de:	0105a903          	lw	s2,16(a1)
800074e2:	842e                	mv	s0,a1
800074e4:	89b6                	mv	s3,a3
800074e6:	01458693          	addi	a3,a1,20
800074ea:	65c1                	lui	a1,0x10
800074ec:	ca26                	sw	s1,20(sp)
800074ee:	ce06                	sw	ra,28(sp)
800074f0:	84aa                	mv	s1,a0
800074f2:	c452                	sw	s4,8(sp)
800074f4:	4501                	li	a0,0
800074f6:	15fd                	addi	a1,a1,-1
800074f8:	429c                	lw	a5,0(a3)
800074fa:	0691                	addi	a3,a3,4
800074fc:	0505                	addi	a0,a0,1
800074fe:	00b7f733          	and	a4,a5,a1
80007502:	02c70733          	mul	a4,a4,a2
80007506:	83c1                	srli	a5,a5,0x10
80007508:	02c787b3          	mul	a5,a5,a2
8000750c:	974e                	add	a4,a4,s3
8000750e:	01075813          	srli	a6,a4,0x10
80007512:	8f6d                	and	a4,a4,a1
80007514:	97c2                	add	a5,a5,a6
80007516:	0107d993          	srli	s3,a5,0x10
8000751a:	07c2                	slli	a5,a5,0x10
8000751c:	97ba                	add	a5,a5,a4
8000751e:	fef6ae23          	sw	a5,-4(a3)
80007522:	fd254be3          	blt	a0,s2,800074f8 <__multadd+0x22>
80007526:	04098c63          	beqz	s3,8000757e <__multadd+0xa8>
8000752a:	441c                	lw	a5,8(s0)
8000752c:	04f94063          	blt	s2,a5,8000756c <__multadd+0x96>
80007530:	404c                	lw	a1,4(s0)
80007532:	8526                	mv	a0,s1
80007534:	0585                	addi	a1,a1,1
80007536:	3d51                	jal	800073ca <_Balloc>
80007538:	8a2a                	mv	s4,a0
8000753a:	ed11                	bnez	a0,80007556 <__multadd+0x80>
8000753c:	00002697          	auipc	a3,0x2
80007540:	8ec68693          	addi	a3,a3,-1812 # 80008e28 <__clz_tab+0x210>
80007544:	4601                	li	a2,0
80007546:	0b500593          	li	a1,181
8000754a:	00002517          	auipc	a0,0x2
8000754e:	95250513          	addi	a0,a0,-1710 # 80008e9c <__sf_fake_stdout+0x20>
80007552:	4b5000ef          	jal	ra,80008206 <__assert_func>
80007556:	4810                	lw	a2,16(s0)
80007558:	00c40593          	addi	a1,s0,12
8000755c:	0531                	addi	a0,a0,12
8000755e:	0609                	addi	a2,a2,2
80007560:	060a                	slli	a2,a2,0x2
80007562:	31d5                	jal	80007246 <memcpy>
80007564:	85a2                	mv	a1,s0
80007566:	8526                	mv	a0,s1
80007568:	3739                	jal	80007476 <_Bfree>
8000756a:	8452                	mv	s0,s4
8000756c:	00490793          	addi	a5,s2,4
80007570:	078a                	slli	a5,a5,0x2
80007572:	97a2                	add	a5,a5,s0
80007574:	0137a223          	sw	s3,4(a5)
80007578:	0905                	addi	s2,s2,1
8000757a:	01242823          	sw	s2,16(s0)
8000757e:	40f2                	lw	ra,28(sp)
80007580:	8522                	mv	a0,s0
80007582:	4462                	lw	s0,24(sp)
80007584:	44d2                	lw	s1,20(sp)
80007586:	4942                	lw	s2,16(sp)
80007588:	49b2                	lw	s3,12(sp)
8000758a:	4a22                	lw	s4,8(sp)
8000758c:	6105                	addi	sp,sp,32
8000758e:	8082                	ret

80007590 <__hi0bits>:
__hi0bits():
80007590:	7741                	lui	a4,0xffff0
80007592:	8f69                	and	a4,a4,a0
80007594:	87aa                	mv	a5,a0
80007596:	4501                	li	a0,0
80007598:	e319                	bnez	a4,8000759e <__hi0bits+0xe>
8000759a:	07c2                	slli	a5,a5,0x10
8000759c:	4541                	li	a0,16
8000759e:	ff000737          	lui	a4,0xff000
800075a2:	8f7d                	and	a4,a4,a5
800075a4:	e319                	bnez	a4,800075aa <__hi0bits+0x1a>
800075a6:	0521                	addi	a0,a0,8
800075a8:	07a2                	slli	a5,a5,0x8
800075aa:	f0000737          	lui	a4,0xf0000
800075ae:	8f7d                	and	a4,a4,a5
800075b0:	e319                	bnez	a4,800075b6 <__hi0bits+0x26>
800075b2:	0511                	addi	a0,a0,4
800075b4:	0792                	slli	a5,a5,0x4
800075b6:	c0000737          	lui	a4,0xc0000
800075ba:	8f7d                	and	a4,a4,a5
800075bc:	e319                	bnez	a4,800075c2 <__hi0bits+0x32>
800075be:	0509                	addi	a0,a0,2
800075c0:	078a                	slli	a5,a5,0x2
800075c2:	0007c963          	bltz	a5,800075d4 <__hi0bits+0x44>
800075c6:	40000737          	lui	a4,0x40000
800075ca:	8ff9                	and	a5,a5,a4
800075cc:	0505                	addi	a0,a0,1
800075ce:	e399                	bnez	a5,800075d4 <__hi0bits+0x44>
800075d0:	02000513          	li	a0,32
800075d4:	8082                	ret

800075d6 <__lo0bits>:
__lo0bits():
800075d6:	411c                	lw	a5,0(a0)
800075d8:	872a                	mv	a4,a0
800075da:	0077f693          	andi	a3,a5,7
800075de:	c285                	beqz	a3,800075fe <__lo0bits+0x28>
800075e0:	0017f693          	andi	a3,a5,1
800075e4:	4501                	li	a0,0
800075e6:	eea1                	bnez	a3,8000763e <__lo0bits+0x68>
800075e8:	0027f693          	andi	a3,a5,2
800075ec:	c689                	beqz	a3,800075f6 <__lo0bits+0x20>
800075ee:	8385                	srli	a5,a5,0x1
800075f0:	c31c                	sw	a5,0(a4)
800075f2:	4505                	li	a0,1
800075f4:	8082                	ret
800075f6:	8389                	srli	a5,a5,0x2
800075f8:	c31c                	sw	a5,0(a4)
800075fa:	4509                	li	a0,2
800075fc:	8082                	ret
800075fe:	01079693          	slli	a3,a5,0x10
80007602:	82c1                	srli	a3,a3,0x10
80007604:	4501                	li	a0,0
80007606:	e299                	bnez	a3,8000760c <__lo0bits+0x36>
80007608:	83c1                	srli	a5,a5,0x10
8000760a:	4541                	li	a0,16
8000760c:	0ff7f693          	zext.b	a3,a5
80007610:	e299                	bnez	a3,80007616 <__lo0bits+0x40>
80007612:	0521                	addi	a0,a0,8
80007614:	83a1                	srli	a5,a5,0x8
80007616:	00f7f693          	andi	a3,a5,15
8000761a:	e299                	bnez	a3,80007620 <__lo0bits+0x4a>
8000761c:	0511                	addi	a0,a0,4
8000761e:	8391                	srli	a5,a5,0x4
80007620:	0037f693          	andi	a3,a5,3
80007624:	e299                	bnez	a3,8000762a <__lo0bits+0x54>
80007626:	0509                	addi	a0,a0,2
80007628:	8389                	srli	a5,a5,0x2
8000762a:	0017f693          	andi	a3,a5,1
8000762e:	e681                	bnez	a3,80007636 <__lo0bits+0x60>
80007630:	8385                	srli	a5,a5,0x1
80007632:	0505                	addi	a0,a0,1
80007634:	c399                	beqz	a5,8000763a <__lo0bits+0x64>
80007636:	c31c                	sw	a5,0(a4)
80007638:	8082                	ret
8000763a:	02000513          	li	a0,32
8000763e:	8082                	ret

80007640 <__i2b>:
__i2b():
80007640:	1141                	addi	sp,sp,-16
80007642:	c422                	sw	s0,8(sp)
80007644:	842e                	mv	s0,a1
80007646:	4585                	li	a1,1
80007648:	c606                	sw	ra,12(sp)
8000764a:	3341                	jal	800073ca <_Balloc>
8000764c:	ed11                	bnez	a0,80007668 <__i2b+0x28>
8000764e:	00001697          	auipc	a3,0x1
80007652:	7da68693          	addi	a3,a3,2010 # 80008e28 <__clz_tab+0x210>
80007656:	4601                	li	a2,0
80007658:	14000593          	li	a1,320
8000765c:	00002517          	auipc	a0,0x2
80007660:	84050513          	addi	a0,a0,-1984 # 80008e9c <__sf_fake_stdout+0x20>
80007664:	3a3000ef          	jal	ra,80008206 <__assert_func>
80007668:	40b2                	lw	ra,12(sp)
8000766a:	c940                	sw	s0,20(a0)
8000766c:	4422                	lw	s0,8(sp)
8000766e:	4705                	li	a4,1
80007670:	c918                	sw	a4,16(a0)
80007672:	0141                	addi	sp,sp,16
80007674:	8082                	ret

80007676 <__multiply>:
__multiply():
80007676:	4998                	lw	a4,16(a1)
80007678:	4a1c                	lw	a5,16(a2)
8000767a:	1101                	addi	sp,sp,-32
8000767c:	cc22                	sw	s0,24(sp)
8000767e:	c84a                	sw	s2,16(sp)
80007680:	ce06                	sw	ra,28(sp)
80007682:	ca26                	sw	s1,20(sp)
80007684:	c64e                	sw	s3,12(sp)
80007686:	c452                	sw	s4,8(sp)
80007688:	842e                	mv	s0,a1
8000768a:	8932                	mv	s2,a2
8000768c:	00f75463          	bge	a4,a5,80007694 <__multiply+0x1e>
80007690:	8432                	mv	s0,a2
80007692:	892e                	mv	s2,a1
80007694:	01042a03          	lw	s4,16(s0)
80007698:	01092983          	lw	s3,16(s2)
8000769c:	441c                	lw	a5,8(s0)
8000769e:	404c                	lw	a1,4(s0)
800076a0:	013a04b3          	add	s1,s4,s3
800076a4:	0097d363          	bge	a5,s1,800076aa <__multiply+0x34>
800076a8:	0585                	addi	a1,a1,1
800076aa:	3305                	jal	800073ca <_Balloc>
800076ac:	ed11                	bnez	a0,800076c8 <__multiply+0x52>
800076ae:	00001697          	auipc	a3,0x1
800076b2:	77a68693          	addi	a3,a3,1914 # 80008e28 <__clz_tab+0x210>
800076b6:	4601                	li	a2,0
800076b8:	15d00593          	li	a1,349
800076bc:	00001517          	auipc	a0,0x1
800076c0:	7e050513          	addi	a0,a0,2016 # 80008e9c <__sf_fake_stdout+0x20>
800076c4:	343000ef          	jal	ra,80008206 <__assert_func>
800076c8:	01450693          	addi	a3,a0,20
800076cc:	00249813          	slli	a6,s1,0x2
800076d0:	9836                	add	a6,a6,a3
800076d2:	87b6                	mv	a5,a3
800076d4:	0507ea63          	bltu	a5,a6,80007728 <__multiply+0xb2>
800076d8:	01440313          	addi	t1,s0,20
800076dc:	002a1593          	slli	a1,s4,0x2
800076e0:	01490613          	addi	a2,s2,20
800076e4:	00299893          	slli	a7,s3,0x2
800076e8:	959a                	add	a1,a1,t1
800076ea:	01540793          	addi	a5,s0,21
800076ee:	98b2                	add	a7,a7,a2
800076f0:	4e11                	li	t3,4
800076f2:	00f5e863          	bltu	a1,a5,80007702 <__multiply+0x8c>
800076f6:	40858433          	sub	s0,a1,s0
800076fa:	142d                	addi	s0,s0,-21
800076fc:	9871                	andi	s0,s0,-4
800076fe:	00440e13          	addi	t3,s0,4
80007702:	6ec1                	lui	t4,0x10
80007704:	1efd                	addi	t4,t4,-1
80007706:	03166563          	bltu	a2,a7,80007730 <__multiply+0xba>
8000770a:	00905663          	blez	s1,80007716 <__multiply+0xa0>
8000770e:	ffc82783          	lw	a5,-4(a6)
80007712:	1871                	addi	a6,a6,-4
80007714:	cff1                	beqz	a5,800077f0 <__multiply+0x17a>
80007716:	40f2                	lw	ra,28(sp)
80007718:	4462                	lw	s0,24(sp)
8000771a:	c904                	sw	s1,16(a0)
8000771c:	4942                	lw	s2,16(sp)
8000771e:	44d2                	lw	s1,20(sp)
80007720:	49b2                	lw	s3,12(sp)
80007722:	4a22                	lw	s4,8(sp)
80007724:	6105                	addi	sp,sp,32
80007726:	8082                	ret
80007728:	0007a023          	sw	zero,0(a5)
8000772c:	0791                	addi	a5,a5,4
8000772e:	b75d                	j	800076d4 <__multiply+0x5e>
80007730:	00062f83          	lw	t6,0(a2)
80007734:	01dfffb3          	and	t6,t6,t4
80007738:	040f8b63          	beqz	t6,8000778e <__multiply+0x118>
8000773c:	83b6                	mv	t2,a3
8000773e:	829a                	mv	t0,t1
80007740:	4901                	li	s2,0
80007742:	0002a703          	lw	a4,0(t0) # 800073b0 <memset+0x8e>
80007746:	0003a403          	lw	s0,0(t2) # 10000 <__stack_size+0xf800>
8000774a:	0391                	addi	t2,t2,4
8000774c:	01d77f33          	and	t5,a4,t4
80007750:	03ff0f33          	mul	t5,t5,t6
80007754:	01d477b3          	and	a5,s0,t4
80007758:	8041                	srli	s0,s0,0x10
8000775a:	0291                	addi	t0,t0,4
8000775c:	9f3e                	add	t5,t5,a5
8000775e:	01075793          	srli	a5,a4,0x10
80007762:	03f787b3          	mul	a5,a5,t6
80007766:	9f4a                	add	t5,t5,s2
80007768:	010f5713          	srli	a4,t5,0x10
8000776c:	01df7f33          	and	t5,t5,t4
80007770:	97a2                	add	a5,a5,s0
80007772:	97ba                	add	a5,a5,a4
80007774:	0107d913          	srli	s2,a5,0x10
80007778:	07c2                	slli	a5,a5,0x10
8000777a:	01e7e7b3          	or	a5,a5,t5
8000777e:	fef3ae23          	sw	a5,-4(t2)
80007782:	fcb2e0e3          	bltu	t0,a1,80007742 <__multiply+0xcc>
80007786:	01c687b3          	add	a5,a3,t3
8000778a:	0127a023          	sw	s2,0(a5)
8000778e:	00265383          	lhu	t2,2(a2)
80007792:	04038c63          	beqz	t2,800077ea <__multiply+0x174>
80007796:	429c                	lw	a5,0(a3)
80007798:	8fb6                	mv	t6,a3
8000779a:	8f1a                	mv	t5,t1
8000779c:	4281                	li	t0,0
8000779e:	000f2703          	lw	a4,0(t5)
800077a2:	002fd403          	lhu	s0,2(t6)
800077a6:	01d7f7b3          	and	a5,a5,t4
800077aa:	01d77733          	and	a4,a4,t4
800077ae:	02770733          	mul	a4,a4,t2
800077b2:	0f91                	addi	t6,t6,4
800077b4:	0f11                	addi	t5,t5,4
800077b6:	9722                	add	a4,a4,s0
800077b8:	9716                	add	a4,a4,t0
800077ba:	01071293          	slli	t0,a4,0x10
800077be:	00f2e7b3          	or	a5,t0,a5
800077c2:	feffae23          	sw	a5,-4(t6)
800077c6:	ffef5783          	lhu	a5,-2(t5)
800077ca:	000fa283          	lw	t0,0(t6)
800077ce:	8341                	srli	a4,a4,0x10
800077d0:	027787b3          	mul	a5,a5,t2
800077d4:	01d2f2b3          	and	t0,t0,t4
800077d8:	9796                	add	a5,a5,t0
800077da:	97ba                	add	a5,a5,a4
800077dc:	0107d293          	srli	t0,a5,0x10
800077e0:	fabf6fe3          	bltu	t5,a1,8000779e <__multiply+0x128>
800077e4:	01c68733          	add	a4,a3,t3
800077e8:	c31c                	sw	a5,0(a4)
800077ea:	0611                	addi	a2,a2,4
800077ec:	0691                	addi	a3,a3,4
800077ee:	bf21                	j	80007706 <__multiply+0x90>
800077f0:	14fd                	addi	s1,s1,-1
800077f2:	bf21                	j	8000770a <__multiply+0x94>

800077f4 <__pow5mult>:
__pow5mult():
800077f4:	1101                	addi	sp,sp,-32
800077f6:	ca26                	sw	s1,20(sp)
800077f8:	c84a                	sw	s2,16(sp)
800077fa:	c64e                	sw	s3,12(sp)
800077fc:	ce06                	sw	ra,28(sp)
800077fe:	cc22                	sw	s0,24(sp)
80007800:	c452                	sw	s4,8(sp)
80007802:	00367793          	andi	a5,a2,3
80007806:	892a                	mv	s2,a0
80007808:	84b2                	mv	s1,a2
8000780a:	89ae                	mv	s3,a1
8000780c:	cf81                	beqz	a5,80007824 <__pow5mult+0x30>
8000780e:	17fd                	addi	a5,a5,-1
80007810:	00001717          	auipc	a4,0x1
80007814:	7d070713          	addi	a4,a4,2000 # 80008fe0 <p05.0>
80007818:	078a                	slli	a5,a5,0x2
8000781a:	97ba                	add	a5,a5,a4
8000781c:	4390                	lw	a2,0(a5)
8000781e:	4681                	li	a3,0
80007820:	395d                	jal	800074d6 <__multadd>
80007822:	89aa                	mv	s3,a0
80007824:	8489                	srai	s1,s1,0x2
80007826:	c4d9                	beqz	s1,800078b4 <__pow5mult+0xc0>
80007828:	02492783          	lw	a5,36(s2)
8000782c:	ef85                	bnez	a5,80007864 <__pow5mult+0x70>
8000782e:	4541                	li	a0,16
80007830:	9f3ff0ef          	jal	ra,80007222 <malloc>
80007834:	02a92223          	sw	a0,36(s2)
80007838:	ed11                	bnez	a0,80007854 <__pow5mult+0x60>
8000783a:	00001697          	auipc	a3,0x1
8000783e:	58268693          	addi	a3,a3,1410 # 80008dbc <__clz_tab+0x1a4>
80007842:	4601                	li	a2,0
80007844:	1ae00593          	li	a1,430
80007848:	00001517          	auipc	a0,0x1
8000784c:	65450513          	addi	a0,a0,1620 # 80008e9c <__sf_fake_stdout+0x20>
80007850:	1b7000ef          	jal	ra,80008206 <__assert_func>
80007854:	00052223          	sw	zero,4(a0)
80007858:	00052423          	sw	zero,8(a0)
8000785c:	00052023          	sw	zero,0(a0)
80007860:	00052623          	sw	zero,12(a0)
80007864:	02492a03          	lw	s4,36(s2)
80007868:	008a2403          	lw	s0,8(s4)
8000786c:	e811                	bnez	s0,80007880 <__pow5mult+0x8c>
8000786e:	27100593          	li	a1,625
80007872:	854a                	mv	a0,s2
80007874:	33f1                	jal	80007640 <__i2b>
80007876:	00aa2423          	sw	a0,8(s4)
8000787a:	842a                	mv	s0,a0
8000787c:	00052023          	sw	zero,0(a0)
80007880:	0014f793          	andi	a5,s1,1
80007884:	cb99                	beqz	a5,8000789a <__pow5mult+0xa6>
80007886:	85ce                	mv	a1,s3
80007888:	8622                	mv	a2,s0
8000788a:	854a                	mv	a0,s2
8000788c:	33ed                	jal	80007676 <__multiply>
8000788e:	8a2a                	mv	s4,a0
80007890:	85ce                	mv	a1,s3
80007892:	854a                	mv	a0,s2
80007894:	be3ff0ef          	jal	ra,80007476 <_Bfree>
80007898:	89d2                	mv	s3,s4
8000789a:	8485                	srai	s1,s1,0x1
8000789c:	cc81                	beqz	s1,800078b4 <__pow5mult+0xc0>
8000789e:	4008                	lw	a0,0(s0)
800078a0:	e901                	bnez	a0,800078b0 <__pow5mult+0xbc>
800078a2:	8622                	mv	a2,s0
800078a4:	85a2                	mv	a1,s0
800078a6:	854a                	mv	a0,s2
800078a8:	33f9                	jal	80007676 <__multiply>
800078aa:	c008                	sw	a0,0(s0)
800078ac:	00052023          	sw	zero,0(a0)
800078b0:	842a                	mv	s0,a0
800078b2:	b7f9                	j	80007880 <__pow5mult+0x8c>
800078b4:	40f2                	lw	ra,28(sp)
800078b6:	4462                	lw	s0,24(sp)
800078b8:	44d2                	lw	s1,20(sp)
800078ba:	4942                	lw	s2,16(sp)
800078bc:	4a22                	lw	s4,8(sp)
800078be:	854e                	mv	a0,s3
800078c0:	49b2                	lw	s3,12(sp)
800078c2:	6105                	addi	sp,sp,32
800078c4:	8082                	ret

800078c6 <__lshift>:
__lshift():
800078c6:	1101                	addi	sp,sp,-32
800078c8:	cc22                	sw	s0,24(sp)
800078ca:	842e                	mv	s0,a1
800078cc:	c05a                	sw	s6,0(sp)
800078ce:	01042b03          	lw	s6,16(s0)
800078d2:	ca26                	sw	s1,20(sp)
800078d4:	41cc                	lw	a1,4(a1)
800078d6:	40565493          	srai	s1,a2,0x5
800078da:	441c                	lw	a5,8(s0)
800078dc:	9b26                	add	s6,s6,s1
800078de:	c84a                	sw	s2,16(sp)
800078e0:	c452                	sw	s4,8(sp)
800078e2:	c256                	sw	s5,4(sp)
800078e4:	ce06                	sw	ra,28(sp)
800078e6:	c64e                	sw	s3,12(sp)
800078e8:	8aaa                	mv	s5,a0
800078ea:	8932                	mv	s2,a2
800078ec:	001b0a13          	addi	s4,s6,1
800078f0:	0347c463          	blt	a5,s4,80007918 <__lshift+0x52>
800078f4:	8556                	mv	a0,s5
800078f6:	ad5ff0ef          	jal	ra,800073ca <_Balloc>
800078fa:	89aa                	mv	s3,a0
800078fc:	e10d                	bnez	a0,8000791e <__lshift+0x58>
800078fe:	00001697          	auipc	a3,0x1
80007902:	52a68693          	addi	a3,a3,1322 # 80008e28 <__clz_tab+0x210>
80007906:	4601                	li	a2,0
80007908:	1d900593          	li	a1,473
8000790c:	00001517          	auipc	a0,0x1
80007910:	59050513          	addi	a0,a0,1424 # 80008e9c <__sf_fake_stdout+0x20>
80007914:	0f3000ef          	jal	ra,80008206 <__assert_func>
80007918:	0585                	addi	a1,a1,1
8000791a:	0786                	slli	a5,a5,0x1
8000791c:	bfd1                	j	800078f0 <__lshift+0x2a>
8000791e:	01450793          	addi	a5,a0,20
80007922:	86be                	mv	a3,a5
80007924:	4701                	li	a4,0
80007926:	0691                	addi	a3,a3,4
80007928:	08974563          	blt	a4,s1,800079b2 <__lshift+0xec>
8000792c:	0004d363          	bgez	s1,80007932 <__lshift+0x6c>
80007930:	4481                	li	s1,0
80007932:	048a                	slli	s1,s1,0x2
80007934:	009786b3          	add	a3,a5,s1
80007938:	481c                	lw	a5,16(s0)
8000793a:	01440713          	addi	a4,s0,20
8000793e:	01f97613          	andi	a2,s2,31
80007942:	078a                	slli	a5,a5,0x2
80007944:	97ba                	add	a5,a5,a4
80007946:	ca35                	beqz	a2,800079ba <__lshift+0xf4>
80007948:	02000813          	li	a6,32
8000794c:	40c80833          	sub	a6,a6,a2
80007950:	88b6                	mv	a7,a3
80007952:	4581                	li	a1,0
80007954:	4308                	lw	a0,0(a4)
80007956:	0891                	addi	a7,a7,4
80007958:	0711                	addi	a4,a4,4
8000795a:	00c51533          	sll	a0,a0,a2
8000795e:	8dc9                	or	a1,a1,a0
80007960:	feb8ae23          	sw	a1,-4(a7)
80007964:	ffc72583          	lw	a1,-4(a4)
80007968:	0105d5b3          	srl	a1,a1,a6
8000796c:	fef764e3          	bltu	a4,a5,80007954 <__lshift+0x8e>
80007970:	01540713          	addi	a4,s0,21
80007974:	4611                	li	a2,4
80007976:	00e7e763          	bltu	a5,a4,80007984 <__lshift+0xbe>
8000797a:	8f81                	sub	a5,a5,s0
8000797c:	17ad                	addi	a5,a5,-21
8000797e:	9bf1                	andi	a5,a5,-4
80007980:	00478613          	addi	a2,a5,4
80007984:	96b2                	add	a3,a3,a2
80007986:	c28c                	sw	a1,0(a3)
80007988:	c199                	beqz	a1,8000798e <__lshift+0xc8>
8000798a:	002b0a13          	addi	s4,s6,2
8000798e:	1a7d                	addi	s4,s4,-1
80007990:	0149a823          	sw	s4,16(s3)
80007994:	8556                	mv	a0,s5
80007996:	85a2                	mv	a1,s0
80007998:	adfff0ef          	jal	ra,80007476 <_Bfree>
8000799c:	40f2                	lw	ra,28(sp)
8000799e:	4462                	lw	s0,24(sp)
800079a0:	44d2                	lw	s1,20(sp)
800079a2:	4942                	lw	s2,16(sp)
800079a4:	4a22                	lw	s4,8(sp)
800079a6:	4a92                	lw	s5,4(sp)
800079a8:	4b02                	lw	s6,0(sp)
800079aa:	854e                	mv	a0,s3
800079ac:	49b2                	lw	s3,12(sp)
800079ae:	6105                	addi	sp,sp,32
800079b0:	8082                	ret
800079b2:	fe06ae23          	sw	zero,-4(a3)
800079b6:	0705                	addi	a4,a4,1
800079b8:	b7bd                	j	80007926 <__lshift+0x60>
800079ba:	4310                	lw	a2,0(a4)
800079bc:	0711                	addi	a4,a4,4
800079be:	0691                	addi	a3,a3,4
800079c0:	fec6ae23          	sw	a2,-4(a3)
800079c4:	fef76be3          	bltu	a4,a5,800079ba <__lshift+0xf4>
800079c8:	b7d9                	j	8000798e <__lshift+0xc8>

800079ca <__mcmp>:
__mcmp():
800079ca:	4914                	lw	a3,16(a0)
800079cc:	4998                	lw	a4,16(a1)
800079ce:	87aa                	mv	a5,a0
800079d0:	40e68533          	sub	a0,a3,a4
800079d4:	02e69563          	bne	a3,a4,800079fe <__mcmp+0x34>
800079d8:	070a                	slli	a4,a4,0x2
800079da:	07d1                	addi	a5,a5,20
800079dc:	05d1                	addi	a1,a1,20
800079de:	00e786b3          	add	a3,a5,a4
800079e2:	95ba                	add	a1,a1,a4
800079e4:	16f1                	addi	a3,a3,-4
800079e6:	15f1                	addi	a1,a1,-4
800079e8:	4290                	lw	a2,0(a3)
800079ea:	4198                	lw	a4,0(a1)
800079ec:	00e60763          	beq	a2,a4,800079fa <__mcmp+0x30>
800079f0:	557d                	li	a0,-1
800079f2:	00e66663          	bltu	a2,a4,800079fe <__mcmp+0x34>
800079f6:	4505                	li	a0,1
800079f8:	8082                	ret
800079fa:	fed7e5e3          	bltu	a5,a3,800079e4 <__mcmp+0x1a>
800079fe:	8082                	ret

80007a00 <__mdiff>:
__mdiff():
80007a00:	1101                	addi	sp,sp,-32
80007a02:	cc22                	sw	s0,24(sp)
80007a04:	842e                	mv	s0,a1
80007a06:	c84a                	sw	s2,16(sp)
80007a08:	85b2                	mv	a1,a2
80007a0a:	892a                	mv	s2,a0
80007a0c:	8522                	mv	a0,s0
80007a0e:	ca26                	sw	s1,20(sp)
80007a10:	ce06                	sw	ra,28(sp)
80007a12:	c64e                	sw	s3,12(sp)
80007a14:	84b2                	mv	s1,a2
80007a16:	3f55                	jal	800079ca <__mcmp>
80007a18:	ed15                	bnez	a0,80007a54 <__mdiff+0x54>
80007a1a:	4581                	li	a1,0
80007a1c:	854a                	mv	a0,s2
80007a1e:	9adff0ef          	jal	ra,800073ca <_Balloc>
80007a22:	ed11                	bnez	a0,80007a3e <__mdiff+0x3e>
80007a24:	00001697          	auipc	a3,0x1
80007a28:	40468693          	addi	a3,a3,1028 # 80008e28 <__clz_tab+0x210>
80007a2c:	4601                	li	a2,0
80007a2e:	23200593          	li	a1,562
80007a32:	00001517          	auipc	a0,0x1
80007a36:	46a50513          	addi	a0,a0,1130 # 80008e9c <__sf_fake_stdout+0x20>
80007a3a:	7cc000ef          	jal	ra,80008206 <__assert_func>
80007a3e:	4785                	li	a5,1
80007a40:	c91c                	sw	a5,16(a0)
80007a42:	00052a23          	sw	zero,20(a0)
80007a46:	40f2                	lw	ra,28(sp)
80007a48:	4462                	lw	s0,24(sp)
80007a4a:	44d2                	lw	s1,20(sp)
80007a4c:	4942                	lw	s2,16(sp)
80007a4e:	49b2                	lw	s3,12(sp)
80007a50:	6105                	addi	sp,sp,32
80007a52:	8082                	ret
80007a54:	4985                	li	s3,1
80007a56:	00054663          	bltz	a0,80007a62 <__mdiff+0x62>
80007a5a:	87a6                	mv	a5,s1
80007a5c:	4981                	li	s3,0
80007a5e:	84a2                	mv	s1,s0
80007a60:	843e                	mv	s0,a5
80007a62:	40cc                	lw	a1,4(s1)
80007a64:	854a                	mv	a0,s2
80007a66:	965ff0ef          	jal	ra,800073ca <_Balloc>
80007a6a:	e909                	bnez	a0,80007a7c <__mdiff+0x7c>
80007a6c:	00001697          	auipc	a3,0x1
80007a70:	3bc68693          	addi	a3,a3,956 # 80008e28 <__clz_tab+0x210>
80007a74:	4601                	li	a2,0
80007a76:	24000593          	li	a1,576
80007a7a:	bf65                	j	80007a32 <__mdiff+0x32>
80007a7c:	0104a803          	lw	a6,16(s1)
80007a80:	4818                	lw	a4,16(s0)
80007a82:	01448893          	addi	a7,s1,20
80007a86:	00281693          	slli	a3,a6,0x2
80007a8a:	01440793          	addi	a5,s0,20
80007a8e:	070a                	slli	a4,a4,0x2
80007a90:	6ec1                	lui	t4,0x10
80007a92:	01352623          	sw	s3,12(a0)
80007a96:	96c6                	add	a3,a3,a7
80007a98:	97ba                	add	a5,a5,a4
80007a9a:	01450613          	addi	a2,a0,20
80007a9e:	4e51                	li	t3,20
80007aa0:	4301                	li	t1,0
80007aa2:	1efd                	addi	t4,t4,-1
80007aa4:	01c48733          	add	a4,s1,t3
80007aa8:	4318                	lw	a4,0(a4)
80007aaa:	01c405b3          	add	a1,s0,t3
80007aae:	0005af03          	lw	t5,0(a1) # 10000 <__stack_size+0xf800>
80007ab2:	01d775b3          	and	a1,a4,t4
80007ab6:	959a                	add	a1,a1,t1
80007ab8:	01df7333          	and	t1,t5,t4
80007abc:	406585b3          	sub	a1,a1,t1
80007ac0:	010f5f13          	srli	t5,t5,0x10
80007ac4:	8341                	srli	a4,a4,0x10
80007ac6:	4105d313          	srai	t1,a1,0x10
80007aca:	41e70733          	sub	a4,a4,t5
80007ace:	971a                	add	a4,a4,t1
80007ad0:	41075313          	srai	t1,a4,0x10
80007ad4:	01d5f5b3          	and	a1,a1,t4
80007ad8:	0742                	slli	a4,a4,0x10
80007ada:	01c50f33          	add	t5,a0,t3
80007ade:	8f4d                	or	a4,a4,a1
80007ae0:	0e11                	addi	t3,t3,4
80007ae2:	00ef2023          	sw	a4,0(t5)
80007ae6:	008e0733          	add	a4,t3,s0
80007aea:	faf76de3          	bltu	a4,a5,80007aa4 <__mdiff+0xa4>
80007aee:	01540593          	addi	a1,s0,21
80007af2:	4711                	li	a4,4
80007af4:	00b7e763          	bltu	a5,a1,80007b02 <__mdiff+0x102>
80007af8:	8f81                	sub	a5,a5,s0
80007afa:	17ad                	addi	a5,a5,-21
80007afc:	9bf1                	andi	a5,a5,-4
80007afe:	00478713          	addi	a4,a5,4
80007b02:	98ba                	add	a7,a7,a4
80007b04:	6e41                	lui	t3,0x10
80007b06:	9732                	add	a4,a4,a2
80007b08:	8eba                	mv	t4,a4
80007b0a:	85c6                	mv	a1,a7
80007b0c:	1e7d                	addi	t3,t3,-1
80007b0e:	02d5e263          	bltu	a1,a3,80007b32 <__mdiff+0x132>
80007b12:	ffd88613          	addi	a2,a7,-3
80007b16:	4781                	li	a5,0
80007b18:	00c6e663          	bltu	a3,a2,80007b24 <__mdiff+0x124>
80007b1c:	068d                	addi	a3,a3,3
80007b1e:	411687b3          	sub	a5,a3,a7
80007b22:	9bf1                	andi	a5,a5,-4
80007b24:	97ba                	add	a5,a5,a4
80007b26:	17f1                	addi	a5,a5,-4
80007b28:	4398                	lw	a4,0(a5)
80007b2a:	c71d                	beqz	a4,80007b58 <__mdiff+0x158>
80007b2c:	01052823          	sw	a6,16(a0)
80007b30:	bf19                	j	80007a46 <__mdiff+0x46>
80007b32:	419c                	lw	a5,0(a1)
80007b34:	0e91                	addi	t4,t4,4
80007b36:	0591                	addi	a1,a1,4
80007b38:	01c7f633          	and	a2,a5,t3
80007b3c:	961a                	add	a2,a2,t1
80007b3e:	41065313          	srai	t1,a2,0x10
80007b42:	83c1                	srli	a5,a5,0x10
80007b44:	979a                	add	a5,a5,t1
80007b46:	4107d313          	srai	t1,a5,0x10
80007b4a:	01c67633          	and	a2,a2,t3
80007b4e:	07c2                	slli	a5,a5,0x10
80007b50:	8fd1                	or	a5,a5,a2
80007b52:	fefeae23          	sw	a5,-4(t4) # fffc <__stack_size+0xf7fc>
80007b56:	bf65                	j	80007b0e <__mdiff+0x10e>
80007b58:	187d                	addi	a6,a6,-1
80007b5a:	b7f1                	j	80007b26 <__mdiff+0x126>

80007b5c <__d2b>:
__d2b():
80007b5c:	7179                	addi	sp,sp,-48
80007b5e:	d226                	sw	s1,36(sp)
80007b60:	84ae                	mv	s1,a1
80007b62:	4585                	li	a1,1
80007b64:	d422                	sw	s0,40(sp)
80007b66:	d04a                	sw	s2,32(sp)
80007b68:	ce4e                	sw	s3,28(sp)
80007b6a:	d606                	sw	ra,44(sp)
80007b6c:	cc52                	sw	s4,24(sp)
80007b6e:	8432                	mv	s0,a2
80007b70:	89b6                	mv	s3,a3
80007b72:	893a                	mv	s2,a4
80007b74:	857ff0ef          	jal	ra,800073ca <_Balloc>
80007b78:	ed09                	bnez	a0,80007b92 <__d2b+0x36>
80007b7a:	00001697          	auipc	a3,0x1
80007b7e:	2ae68693          	addi	a3,a3,686 # 80008e28 <__clz_tab+0x210>
80007b82:	4601                	li	a2,0
80007b84:	30a00593          	li	a1,778
80007b88:	00001517          	auipc	a0,0x1
80007b8c:	31450513          	addi	a0,a0,788 # 80008e9c <__sf_fake_stdout+0x20>
80007b90:	2d9d                	jal	80008206 <__assert_func>
80007b92:	00100737          	lui	a4,0x100
80007b96:	fff70793          	addi	a5,a4,-1 # fffff <__stack_size+0xff7ff>
80007b9a:	8fe1                	and	a5,a5,s0
80007b9c:	8051                	srli	s0,s0,0x14
80007b9e:	7ff47413          	andi	s0,s0,2047
80007ba2:	8a2a                	mv	s4,a0
80007ba4:	e035                	bnez	s0,80007c08 <__d2b+0xac>
80007ba6:	c63e                	sw	a5,12(sp)
80007ba8:	c4ad                	beqz	s1,80007c12 <__d2b+0xb6>
80007baa:	0028                	addi	a0,sp,8
80007bac:	c426                	sw	s1,8(sp)
80007bae:	a29ff0ef          	jal	ra,800075d6 <__lo0bits>
80007bb2:	46a2                	lw	a3,8(sp)
80007bb4:	cd21                	beqz	a0,80007c0c <__d2b+0xb0>
80007bb6:	4732                	lw	a4,12(sp)
80007bb8:	02000793          	li	a5,32
80007bbc:	8f89                	sub	a5,a5,a0
80007bbe:	00f717b3          	sll	a5,a4,a5
80007bc2:	8fd5                	or	a5,a5,a3
80007bc4:	00a75733          	srl	a4,a4,a0
80007bc8:	00fa2a23          	sw	a5,20(s4)
80007bcc:	c63a                	sw	a4,12(sp)
80007bce:	44b2                	lw	s1,12(sp)
80007bd0:	009a2c23          	sw	s1,24(s4)
80007bd4:	009034b3          	snez	s1,s1
80007bd8:	0485                	addi	s1,s1,1
80007bda:	009a2823          	sw	s1,16(s4)
80007bde:	c439                	beqz	s0,80007c2c <__d2b+0xd0>
80007be0:	bcd40413          	addi	s0,s0,-1075
80007be4:	942a                	add	s0,s0,a0
80007be6:	03500793          	li	a5,53
80007bea:	0089a023          	sw	s0,0(s3)
80007bee:	40a78533          	sub	a0,a5,a0
80007bf2:	00a92023          	sw	a0,0(s2)
80007bf6:	50b2                	lw	ra,44(sp)
80007bf8:	5422                	lw	s0,40(sp)
80007bfa:	5492                	lw	s1,36(sp)
80007bfc:	5902                	lw	s2,32(sp)
80007bfe:	49f2                	lw	s3,28(sp)
80007c00:	8552                	mv	a0,s4
80007c02:	4a62                	lw	s4,24(sp)
80007c04:	6145                	addi	sp,sp,48
80007c06:	8082                	ret
80007c08:	8fd9                	or	a5,a5,a4
80007c0a:	bf71                	j	80007ba6 <__d2b+0x4a>
80007c0c:	00da2a23          	sw	a3,20(s4)
80007c10:	bf7d                	j	80007bce <__d2b+0x72>
80007c12:	0068                	addi	a0,sp,12
80007c14:	9c3ff0ef          	jal	ra,800075d6 <__lo0bits>
80007c18:	47b2                	lw	a5,12(sp)
80007c1a:	02050513          	addi	a0,a0,32
80007c1e:	4485                	li	s1,1
80007c20:	00fa2a23          	sw	a5,20(s4)
80007c24:	4785                	li	a5,1
80007c26:	00fa2823          	sw	a5,16(s4)
80007c2a:	bf55                	j	80007bde <__d2b+0x82>
80007c2c:	bce50793          	addi	a5,a0,-1074
80007c30:	00f9a023          	sw	a5,0(s3)
80007c34:	00249793          	slli	a5,s1,0x2
80007c38:	97d2                	add	a5,a5,s4
80007c3a:	4b88                	lw	a0,16(a5)
80007c3c:	0496                	slli	s1,s1,0x5
80007c3e:	953ff0ef          	jal	ra,80007590 <__hi0bits>
80007c42:	8c89                	sub	s1,s1,a0
80007c44:	00992023          	sw	s1,0(s2)
80007c48:	b77d                	j	80007bf6 <__d2b+0x9a>

80007c4a <_calloc_r>:
_calloc_r():
80007c4a:	8732                	mv	a4,a2
80007c4c:	02e5b7b3          	mulhu	a5,a1,a4
80007c50:	1101                	addi	sp,sp,-32
80007c52:	ce06                	sw	ra,28(sp)
80007c54:	cc22                	sw	s0,24(sp)
80007c56:	02c58633          	mul	a2,a1,a2
80007c5a:	cb89                	beqz	a5,80007c6c <_calloc_r+0x22>
80007c5c:	47b1                	li	a5,12
80007c5e:	c11c                	sw	a5,0(a0)
80007c60:	4401                	li	s0,0
80007c62:	40f2                	lw	ra,28(sp)
80007c64:	8522                	mv	a0,s0
80007c66:	4462                	lw	s0,24(sp)
80007c68:	6105                	addi	sp,sp,32
80007c6a:	8082                	ret
80007c6c:	85b2                	mv	a1,a2
80007c6e:	c632                	sw	a2,12(sp)
80007c70:	207d                	jal	80007d1e <_malloc_r>
80007c72:	842a                	mv	s0,a0
80007c74:	d57d                	beqz	a0,80007c62 <_calloc_r+0x18>
80007c76:	4632                	lw	a2,12(sp)
80007c78:	4581                	li	a1,0
80007c7a:	ea8ff0ef          	jal	ra,80007322 <memset>
80007c7e:	b7d5                	j	80007c62 <_calloc_r+0x18>

80007c80 <_free_r>:
_free_r():
80007c80:	cdd1                	beqz	a1,80007d1c <_free_r+0x9c>
80007c82:	ffc5a783          	lw	a5,-4(a1)
80007c86:	1101                	addi	sp,sp,-32
80007c88:	cc22                	sw	s0,24(sp)
80007c8a:	ce06                	sw	ra,28(sp)
80007c8c:	ffc58413          	addi	s0,a1,-4
80007c90:	0007d363          	bgez	a5,80007c96 <_free_r+0x16>
80007c94:	943e                	add	s0,s0,a5
80007c96:	c62a                	sw	a0,12(sp)
80007c98:	256d                	jal	80008342 <__malloc_lock>
80007c9a:	88c18713          	addi	a4,gp,-1908 # 9000903c <__malloc_free_list>
80007c9e:	431c                	lw	a5,0(a4)
80007ca0:	4532                	lw	a0,12(sp)
80007ca2:	eb81                	bnez	a5,80007cb2 <_free_r+0x32>
80007ca4:	00042223          	sw	zero,4(s0)
80007ca8:	c300                	sw	s0,0(a4)
80007caa:	4462                	lw	s0,24(sp)
80007cac:	40f2                	lw	ra,28(sp)
80007cae:	6105                	addi	sp,sp,32
80007cb0:	ad51                	j	80008344 <__malloc_unlock>
80007cb2:	00f47d63          	bgeu	s0,a5,80007ccc <_free_r+0x4c>
80007cb6:	4010                	lw	a2,0(s0)
80007cb8:	00c406b3          	add	a3,s0,a2
80007cbc:	00d79663          	bne	a5,a3,80007cc8 <_free_r+0x48>
80007cc0:	4394                	lw	a3,0(a5)
80007cc2:	43dc                	lw	a5,4(a5)
80007cc4:	96b2                	add	a3,a3,a2
80007cc6:	c014                	sw	a3,0(s0)
80007cc8:	c05c                	sw	a5,4(s0)
80007cca:	bff9                	j	80007ca8 <_free_r+0x28>
80007ccc:	873e                	mv	a4,a5
80007cce:	43dc                	lw	a5,4(a5)
80007cd0:	c399                	beqz	a5,80007cd6 <_free_r+0x56>
80007cd2:	fef47de3          	bgeu	s0,a5,80007ccc <_free_r+0x4c>
80007cd6:	4314                	lw	a3,0(a4)
80007cd8:	00d70633          	add	a2,a4,a3
80007cdc:	00861f63          	bne	a2,s0,80007cfa <_free_r+0x7a>
80007ce0:	4010                	lw	a2,0(s0)
80007ce2:	96b2                	add	a3,a3,a2
80007ce4:	c314                	sw	a3,0(a4)
80007ce6:	00d70633          	add	a2,a4,a3
80007cea:	fcc790e3          	bne	a5,a2,80007caa <_free_r+0x2a>
80007cee:	4390                	lw	a2,0(a5)
80007cf0:	43dc                	lw	a5,4(a5)
80007cf2:	96b2                	add	a3,a3,a2
80007cf4:	c314                	sw	a3,0(a4)
80007cf6:	c35c                	sw	a5,4(a4)
80007cf8:	bf4d                	j	80007caa <_free_r+0x2a>
80007cfa:	00c47563          	bgeu	s0,a2,80007d04 <_free_r+0x84>
80007cfe:	47b1                	li	a5,12
80007d00:	c11c                	sw	a5,0(a0)
80007d02:	b765                	j	80007caa <_free_r+0x2a>
80007d04:	4010                	lw	a2,0(s0)
80007d06:	00c406b3          	add	a3,s0,a2
80007d0a:	00d79663          	bne	a5,a3,80007d16 <_free_r+0x96>
80007d0e:	4394                	lw	a3,0(a5)
80007d10:	43dc                	lw	a5,4(a5)
80007d12:	96b2                	add	a3,a3,a2
80007d14:	c014                	sw	a3,0(s0)
80007d16:	c05c                	sw	a5,4(s0)
80007d18:	c340                	sw	s0,4(a4)
80007d1a:	bf41                	j	80007caa <_free_r+0x2a>
80007d1c:	8082                	ret

80007d1e <_malloc_r>:
_malloc_r():
80007d1e:	1101                	addi	sp,sp,-32
80007d20:	ca26                	sw	s1,20(sp)
80007d22:	00358493          	addi	s1,a1,3
80007d26:	98f1                	andi	s1,s1,-4
80007d28:	c84a                	sw	s2,16(sp)
80007d2a:	ce06                	sw	ra,28(sp)
80007d2c:	cc22                	sw	s0,24(sp)
80007d2e:	c64e                	sw	s3,12(sp)
80007d30:	04a1                	addi	s1,s1,8
80007d32:	47b1                	li	a5,12
80007d34:	892a                	mv	s2,a0
80007d36:	04f4f063          	bgeu	s1,a5,80007d76 <_malloc_r+0x58>
80007d3a:	44b1                	li	s1,12
80007d3c:	02b4ef63          	bltu	s1,a1,80007d7a <_malloc_r+0x5c>
80007d40:	854a                	mv	a0,s2
80007d42:	2501                	jal	80008342 <__malloc_lock>
80007d44:	88c18693          	addi	a3,gp,-1908 # 9000903c <__malloc_free_list>
80007d48:	4298                	lw	a4,0(a3)
80007d4a:	843a                	mv	s0,a4
80007d4c:	e031                	bnez	s0,80007d90 <_malloc_r+0x72>
80007d4e:	89018413          	addi	s0,gp,-1904 # 90009040 <__malloc_sbrk_start>
80007d52:	401c                	lw	a5,0(s0)
80007d54:	e789                	bnez	a5,80007d5e <_malloc_r+0x40>
80007d56:	4581                	li	a1,0
80007d58:	854a                	mv	a0,s2
80007d5a:	2e79                	jal	800080f8 <_sbrk_r>
80007d5c:	c008                	sw	a0,0(s0)
80007d5e:	85a6                	mv	a1,s1
80007d60:	854a                	mv	a0,s2
80007d62:	2e59                	jal	800080f8 <_sbrk_r>
80007d64:	59fd                	li	s3,-1
80007d66:	07351863          	bne	a0,s3,80007dd6 <_malloc_r+0xb8>
80007d6a:	47b1                	li	a5,12
80007d6c:	00f92023          	sw	a5,0(s2)
80007d70:	854a                	mv	a0,s2
80007d72:	2bc9                	jal	80008344 <__malloc_unlock>
80007d74:	a031                	j	80007d80 <_malloc_r+0x62>
80007d76:	fc04d3e3          	bgez	s1,80007d3c <_malloc_r+0x1e>
80007d7a:	47b1                	li	a5,12
80007d7c:	00f92023          	sw	a5,0(s2)
80007d80:	4501                	li	a0,0
80007d82:	40f2                	lw	ra,28(sp)
80007d84:	4462                	lw	s0,24(sp)
80007d86:	44d2                	lw	s1,20(sp)
80007d88:	4942                	lw	s2,16(sp)
80007d8a:	49b2                	lw	s3,12(sp)
80007d8c:	6105                	addi	sp,sp,32
80007d8e:	8082                	ret
80007d90:	401c                	lw	a5,0(s0)
80007d92:	8f85                	sub	a5,a5,s1
80007d94:	0207ce63          	bltz	a5,80007dd0 <_malloc_r+0xb2>
80007d98:	462d                	li	a2,11
80007d9a:	00f67663          	bgeu	a2,a5,80007da6 <_malloc_r+0x88>
80007d9e:	c01c                	sw	a5,0(s0)
80007da0:	943e                	add	s0,s0,a5
80007da2:	c004                	sw	s1,0(s0)
80007da4:	a029                	j	80007dae <_malloc_r+0x90>
80007da6:	405c                	lw	a5,4(s0)
80007da8:	02871263          	bne	a4,s0,80007dcc <_malloc_r+0xae>
80007dac:	c29c                	sw	a5,0(a3)
80007dae:	854a                	mv	a0,s2
80007db0:	2b51                	jal	80008344 <__malloc_unlock>
80007db2:	00b40513          	addi	a0,s0,11
80007db6:	00440793          	addi	a5,s0,4
80007dba:	9961                	andi	a0,a0,-8
80007dbc:	40f50733          	sub	a4,a0,a5
80007dc0:	fcf501e3          	beq	a0,a5,80007d82 <_malloc_r+0x64>
80007dc4:	943a                	add	s0,s0,a4
80007dc6:	8f89                	sub	a5,a5,a0
80007dc8:	c01c                	sw	a5,0(s0)
80007dca:	bf65                	j	80007d82 <_malloc_r+0x64>
80007dcc:	c35c                	sw	a5,4(a4)
80007dce:	b7c5                	j	80007dae <_malloc_r+0x90>
80007dd0:	8722                	mv	a4,s0
80007dd2:	4040                	lw	s0,4(s0)
80007dd4:	bfa5                	j	80007d4c <_malloc_r+0x2e>
80007dd6:	00350413          	addi	s0,a0,3
80007dda:	9871                	andi	s0,s0,-4
80007ddc:	fc8503e3          	beq	a0,s0,80007da2 <_malloc_r+0x84>
80007de0:	40a405b3          	sub	a1,s0,a0
80007de4:	854a                	mv	a0,s2
80007de6:	2e09                	jal	800080f8 <_sbrk_r>
80007de8:	fb351de3          	bne	a0,s3,80007da2 <_malloc_r+0x84>
80007dec:	bfbd                	j	80007d6a <_malloc_r+0x4c>

80007dee <__sfputc_r>:
__sfputc_r():
80007dee:	461c                	lw	a5,8(a2)
80007df0:	17fd                	addi	a5,a5,-1
80007df2:	c61c                	sw	a5,8(a2)
80007df4:	0007da63          	bgez	a5,80007e08 <__sfputc_r+0x1a>
80007df8:	4e18                	lw	a4,24(a2)
80007dfa:	00e7c563          	blt	a5,a4,80007e04 <__sfputc_r+0x16>
80007dfe:	47a9                	li	a5,10
80007e00:	00f59463          	bne	a1,a5,80007e08 <__sfputc_r+0x1a>
80007e04:	f8bfd06f          	j	80005d8e <__swbuf_r>
80007e08:	421c                	lw	a5,0(a2)
80007e0a:	852e                	mv	a0,a1
80007e0c:	00178713          	addi	a4,a5,1
80007e10:	c218                	sw	a4,0(a2)
80007e12:	00b78023          	sb	a1,0(a5)
80007e16:	8082                	ret

80007e18 <__sfputs_r>:
__sfputs_r():
80007e18:	1101                	addi	sp,sp,-32
80007e1a:	cc22                	sw	s0,24(sp)
80007e1c:	ca26                	sw	s1,20(sp)
80007e1e:	c84a                	sw	s2,16(sp)
80007e20:	c64e                	sw	s3,12(sp)
80007e22:	c452                	sw	s4,8(sp)
80007e24:	ce06                	sw	ra,28(sp)
80007e26:	892a                	mv	s2,a0
80007e28:	89ae                	mv	s3,a1
80007e2a:	8432                	mv	s0,a2
80007e2c:	00d604b3          	add	s1,a2,a3
80007e30:	5a7d                	li	s4,-1
80007e32:	00941463          	bne	s0,s1,80007e3a <__sfputs_r+0x22>
80007e36:	4501                	li	a0,0
80007e38:	a809                	j	80007e4a <__sfputs_r+0x32>
80007e3a:	00044583          	lbu	a1,0(s0)
80007e3e:	864e                	mv	a2,s3
80007e40:	854a                	mv	a0,s2
80007e42:	3775                	jal	80007dee <__sfputc_r>
80007e44:	0405                	addi	s0,s0,1
80007e46:	ff4516e3          	bne	a0,s4,80007e32 <__sfputs_r+0x1a>
80007e4a:	40f2                	lw	ra,28(sp)
80007e4c:	4462                	lw	s0,24(sp)
80007e4e:	44d2                	lw	s1,20(sp)
80007e50:	4942                	lw	s2,16(sp)
80007e52:	49b2                	lw	s3,12(sp)
80007e54:	4a22                	lw	s4,8(sp)
80007e56:	6105                	addi	sp,sp,32
80007e58:	8082                	ret

80007e5a <_vfiprintf_r>:
_vfiprintf_r():
80007e5a:	7135                	addi	sp,sp,-160
80007e5c:	cd22                	sw	s0,152(sp)
80007e5e:	cb26                	sw	s1,148(sp)
80007e60:	c94a                	sw	s2,144(sp)
80007e62:	c74e                	sw	s3,140(sp)
80007e64:	cf06                	sw	ra,156(sp)
80007e66:	c552                	sw	s4,136(sp)
80007e68:	c356                	sw	s5,132(sp)
80007e6a:	c15a                	sw	s6,128(sp)
80007e6c:	dede                	sw	s7,124(sp)
80007e6e:	dce2                	sw	s8,120(sp)
80007e70:	dae6                	sw	s9,116(sp)
80007e72:	89aa                	mv	s3,a0
80007e74:	84ae                	mv	s1,a1
80007e76:	8932                	mv	s2,a2
80007e78:	8436                	mv	s0,a3
80007e7a:	c509                	beqz	a0,80007e84 <_vfiprintf_r+0x2a>
80007e7c:	4d1c                	lw	a5,24(a0)
80007e7e:	e399                	bnez	a5,80007e84 <_vfiprintf_r+0x2a>
80007e80:	934ff0ef          	jal	ra,80006fb4 <__sinit>
80007e84:	00001797          	auipc	a5,0x1
80007e88:	fd878793          	addi	a5,a5,-40 # 80008e5c <__sf_fake_stdin>
80007e8c:	0cf49c63          	bne	s1,a5,80007f64 <_vfiprintf_r+0x10a>
80007e90:	0049a483          	lw	s1,4(s3)
80007e94:	00c4d783          	lhu	a5,12(s1)
80007e98:	8ba1                	andi	a5,a5,8
80007e9a:	c7fd                	beqz	a5,80007f88 <_vfiprintf_r+0x12e>
80007e9c:	489c                	lw	a5,16(s1)
80007e9e:	c7ed                	beqz	a5,80007f88 <_vfiprintf_r+0x12e>
80007ea0:	02000793          	li	a5,32
80007ea4:	02f104a3          	sb	a5,41(sp)
80007ea8:	03000793          	li	a5,48
80007eac:	d202                	sw	zero,36(sp)
80007eae:	02f10523          	sb	a5,42(sp)
80007eb2:	c622                	sw	s0,12(sp)
80007eb4:	02500b93          	li	s7,37
80007eb8:	00001a97          	auipc	s5,0x1
80007ebc:	134a8a93          	addi	s5,s5,308 # 80008fec <p05.0+0xc>
80007ec0:	4c05                	li	s8,1
80007ec2:	4b29                	li	s6,10
80007ec4:	844a                	mv	s0,s2
80007ec6:	00044783          	lbu	a5,0(s0)
80007eca:	c399                	beqz	a5,80007ed0 <_vfiprintf_r+0x76>
80007ecc:	0f779163          	bne	a5,s7,80007fae <_vfiprintf_r+0x154>
80007ed0:	41240cb3          	sub	s9,s0,s2
80007ed4:	01240d63          	beq	s0,s2,80007eee <_vfiprintf_r+0x94>
80007ed8:	86e6                	mv	a3,s9
80007eda:	864a                	mv	a2,s2
80007edc:	85a6                	mv	a1,s1
80007ede:	854e                	mv	a0,s3
80007ee0:	3f25                	jal	80007e18 <__sfputs_r>
80007ee2:	57fd                	li	a5,-1
80007ee4:	1ef50763          	beq	a0,a5,800080d2 <_vfiprintf_r+0x278>
80007ee8:	5792                	lw	a5,36(sp)
80007eea:	97e6                	add	a5,a5,s9
80007eec:	d23e                	sw	a5,36(sp)
80007eee:	00044783          	lbu	a5,0(s0)
80007ef2:	1e078063          	beqz	a5,800080d2 <_vfiprintf_r+0x278>
80007ef6:	57fd                	li	a5,-1
80007ef8:	00140913          	addi	s2,s0,1
80007efc:	c802                	sw	zero,16(sp)
80007efe:	ce02                	sw	zero,28(sp)
80007f00:	ca3e                	sw	a5,20(sp)
80007f02:	cc02                	sw	zero,24(sp)
80007f04:	040109a3          	sb	zero,83(sp)
80007f08:	d482                	sw	zero,104(sp)
80007f0a:	00094583          	lbu	a1,0(s2)
80007f0e:	4615                	li	a2,5
80007f10:	8556                	mv	a0,s5
80007f12:	b1aff0ef          	jal	ra,8000722c <memchr>
80007f16:	47c2                	lw	a5,16(sp)
80007f18:	00190413          	addi	s0,s2,1
80007f1c:	e959                	bnez	a0,80007fb2 <_vfiprintf_r+0x158>
80007f1e:	0107f713          	andi	a4,a5,16
80007f22:	c709                	beqz	a4,80007f2c <_vfiprintf_r+0xd2>
80007f24:	02000713          	li	a4,32
80007f28:	04e109a3          	sb	a4,83(sp)
80007f2c:	0087f713          	andi	a4,a5,8
80007f30:	c709                	beqz	a4,80007f3a <_vfiprintf_r+0xe0>
80007f32:	02b00713          	li	a4,43
80007f36:	04e109a3          	sb	a4,83(sp)
80007f3a:	00094683          	lbu	a3,0(s2)
80007f3e:	02a00713          	li	a4,42
80007f42:	08e68063          	beq	a3,a4,80007fc2 <_vfiprintf_r+0x168>
80007f46:	47f2                	lw	a5,28(sp)
80007f48:	844a                	mv	s0,s2
80007f4a:	4681                	li	a3,0
80007f4c:	4625                	li	a2,9
80007f4e:	00044703          	lbu	a4,0(s0)
80007f52:	00140593          	addi	a1,s0,1
80007f56:	fd070713          	addi	a4,a4,-48
80007f5a:	0ae67963          	bgeu	a2,a4,8000800c <_vfiprintf_r+0x1b2>
80007f5e:	cab5                	beqz	a3,80007fd2 <_vfiprintf_r+0x178>
80007f60:	ce3e                	sw	a5,28(sp)
80007f62:	a885                	j	80007fd2 <_vfiprintf_r+0x178>
80007f64:	00001797          	auipc	a5,0x1
80007f68:	f1878793          	addi	a5,a5,-232 # 80008e7c <__sf_fake_stdout>
80007f6c:	00f49563          	bne	s1,a5,80007f76 <_vfiprintf_r+0x11c>
80007f70:	0089a483          	lw	s1,8(s3)
80007f74:	b705                	j	80007e94 <_vfiprintf_r+0x3a>
80007f76:	00001797          	auipc	a5,0x1
80007f7a:	ec678793          	addi	a5,a5,-314 # 80008e3c <__sf_fake_stderr>
80007f7e:	f0f49be3          	bne	s1,a5,80007e94 <_vfiprintf_r+0x3a>
80007f82:	00c9a483          	lw	s1,12(s3)
80007f86:	b739                	j	80007e94 <_vfiprintf_r+0x3a>
80007f88:	85a6                	mv	a1,s1
80007f8a:	854e                	mv	a0,s3
80007f8c:	ec9fd0ef          	jal	ra,80005e54 <__swsetup_r>
80007f90:	d901                	beqz	a0,80007ea0 <_vfiprintf_r+0x46>
80007f92:	557d                	li	a0,-1
80007f94:	40fa                	lw	ra,156(sp)
80007f96:	446a                	lw	s0,152(sp)
80007f98:	44da                	lw	s1,148(sp)
80007f9a:	494a                	lw	s2,144(sp)
80007f9c:	49ba                	lw	s3,140(sp)
80007f9e:	4a2a                	lw	s4,136(sp)
80007fa0:	4a9a                	lw	s5,132(sp)
80007fa2:	4b0a                	lw	s6,128(sp)
80007fa4:	5bf6                	lw	s7,124(sp)
80007fa6:	5c66                	lw	s8,120(sp)
80007fa8:	5cd6                	lw	s9,116(sp)
80007faa:	610d                	addi	sp,sp,160
80007fac:	8082                	ret
80007fae:	0405                	addi	s0,s0,1
80007fb0:	bf19                	j	80007ec6 <_vfiprintf_r+0x6c>
80007fb2:	41550533          	sub	a0,a0,s5
80007fb6:	00ac1533          	sll	a0,s8,a0
80007fba:	8fc9                	or	a5,a5,a0
80007fbc:	c83e                	sw	a5,16(sp)
80007fbe:	8922                	mv	s2,s0
80007fc0:	b7a9                	j	80007f0a <_vfiprintf_r+0xb0>
80007fc2:	4732                	lw	a4,12(sp)
80007fc4:	00470693          	addi	a3,a4,4
80007fc8:	4318                	lw	a4,0(a4)
80007fca:	c636                	sw	a3,12(sp)
80007fcc:	02074963          	bltz	a4,80007ffe <_vfiprintf_r+0x1a4>
80007fd0:	ce3a                	sw	a4,28(sp)
80007fd2:	00044703          	lbu	a4,0(s0)
80007fd6:	02e00793          	li	a5,46
80007fda:	04f71f63          	bne	a4,a5,80008038 <_vfiprintf_r+0x1de>
80007fde:	00144703          	lbu	a4,1(s0)
80007fe2:	02a00793          	li	a5,42
80007fe6:	02f71b63          	bne	a4,a5,8000801c <_vfiprintf_r+0x1c2>
80007fea:	47b2                	lw	a5,12(sp)
80007fec:	0409                	addi	s0,s0,2
80007fee:	00478713          	addi	a4,a5,4
80007ff2:	439c                	lw	a5,0(a5)
80007ff4:	c63a                	sw	a4,12(sp)
80007ff6:	0207c163          	bltz	a5,80008018 <_vfiprintf_r+0x1be>
80007ffa:	ca3e                	sw	a5,20(sp)
80007ffc:	a835                	j	80008038 <_vfiprintf_r+0x1de>
80007ffe:	40e00733          	neg	a4,a4
80008002:	0027e793          	ori	a5,a5,2
80008006:	ce3a                	sw	a4,28(sp)
80008008:	c83e                	sw	a5,16(sp)
8000800a:	b7e1                	j	80007fd2 <_vfiprintf_r+0x178>
8000800c:	036787b3          	mul	a5,a5,s6
80008010:	842e                	mv	s0,a1
80008012:	4685                	li	a3,1
80008014:	97ba                	add	a5,a5,a4
80008016:	bf25                	j	80007f4e <_vfiprintf_r+0xf4>
80008018:	57fd                	li	a5,-1
8000801a:	b7c5                	j	80007ffa <_vfiprintf_r+0x1a0>
8000801c:	0405                	addi	s0,s0,1
8000801e:	ca02                	sw	zero,20(sp)
80008020:	4681                	li	a3,0
80008022:	4781                	li	a5,0
80008024:	4625                	li	a2,9
80008026:	00044703          	lbu	a4,0(s0)
8000802a:	00140593          	addi	a1,s0,1
8000802e:	fd070713          	addi	a4,a4,-48
80008032:	06e67863          	bgeu	a2,a4,800080a2 <_vfiprintf_r+0x248>
80008036:	f2f1                	bnez	a3,80007ffa <_vfiprintf_r+0x1a0>
80008038:	00044583          	lbu	a1,0(s0)
8000803c:	460d                	li	a2,3
8000803e:	00001517          	auipc	a0,0x1
80008042:	fb650513          	addi	a0,a0,-74 # 80008ff4 <p05.0+0x14>
80008046:	9e6ff0ef          	jal	ra,8000722c <memchr>
8000804a:	cd11                	beqz	a0,80008066 <_vfiprintf_r+0x20c>
8000804c:	00001797          	auipc	a5,0x1
80008050:	fa878793          	addi	a5,a5,-88 # 80008ff4 <p05.0+0x14>
80008054:	8d1d                	sub	a0,a0,a5
80008056:	04000793          	li	a5,64
8000805a:	00a797b3          	sll	a5,a5,a0
8000805e:	4542                	lw	a0,16(sp)
80008060:	0405                	addi	s0,s0,1
80008062:	8d5d                	or	a0,a0,a5
80008064:	c82a                	sw	a0,16(sp)
80008066:	00044583          	lbu	a1,0(s0)
8000806a:	4619                	li	a2,6
8000806c:	00001517          	auipc	a0,0x1
80008070:	f8c50513          	addi	a0,a0,-116 # 80008ff8 <p05.0+0x18>
80008074:	00140913          	addi	s2,s0,1
80008078:	02b10423          	sb	a1,40(sp)
8000807c:	9b0ff0ef          	jal	ra,8000722c <memchr>
80008080:	c12d                	beqz	a0,800080e2 <_vfiprintf_r+0x288>
80008082:	ffffd797          	auipc	a5,0xffffd
80008086:	38278793          	addi	a5,a5,898 # 80005404 <_printf_float>
8000808a:	e795                	bnez	a5,800080b6 <_vfiprintf_r+0x25c>
8000808c:	4742                	lw	a4,16(sp)
8000808e:	47b2                	lw	a5,12(sp)
80008090:	10077713          	andi	a4,a4,256
80008094:	cf09                	beqz	a4,800080ae <_vfiprintf_r+0x254>
80008096:	0791                	addi	a5,a5,4
80008098:	c63e                	sw	a5,12(sp)
8000809a:	5792                	lw	a5,36(sp)
8000809c:	97d2                	add	a5,a5,s4
8000809e:	d23e                	sw	a5,36(sp)
800080a0:	b515                	j	80007ec4 <_vfiprintf_r+0x6a>
800080a2:	036787b3          	mul	a5,a5,s6
800080a6:	842e                	mv	s0,a1
800080a8:	4685                	li	a3,1
800080aa:	97ba                	add	a5,a5,a4
800080ac:	bfad                	j	80008026 <_vfiprintf_r+0x1cc>
800080ae:	079d                	addi	a5,a5,7
800080b0:	9be1                	andi	a5,a5,-8
800080b2:	07a1                	addi	a5,a5,8
800080b4:	b7d5                	j	80008098 <_vfiprintf_r+0x23e>
800080b6:	0078                	addi	a4,sp,12
800080b8:	00000697          	auipc	a3,0x0
800080bc:	d6068693          	addi	a3,a3,-672 # 80007e18 <__sfputs_r>
800080c0:	8626                	mv	a2,s1
800080c2:	080c                	addi	a1,sp,16
800080c4:	854e                	mv	a0,s3
800080c6:	b3efd0ef          	jal	ra,80005404 <_printf_float>
800080ca:	57fd                	li	a5,-1
800080cc:	8a2a                	mv	s4,a0
800080ce:	fcf516e3          	bne	a0,a5,8000809a <_vfiprintf_r+0x240>
800080d2:	00c4d783          	lhu	a5,12(s1)
800080d6:	0407f793          	andi	a5,a5,64
800080da:	ea079ce3          	bnez	a5,80007f92 <_vfiprintf_r+0x138>
800080de:	5512                	lw	a0,36(sp)
800080e0:	bd55                	j	80007f94 <_vfiprintf_r+0x13a>
800080e2:	0078                	addi	a4,sp,12
800080e4:	00000697          	auipc	a3,0x0
800080e8:	d3468693          	addi	a3,a3,-716 # 80007e18 <__sfputs_r>
800080ec:	8626                	mv	a2,s1
800080ee:	080c                	addi	a1,sp,16
800080f0:	854e                	mv	a0,s3
800080f2:	8f3fd0ef          	jal	ra,800059e4 <_printf_i>
800080f6:	bfd1                	j	800080ca <_vfiprintf_r+0x270>

800080f8 <_sbrk_r>:
_sbrk_r():
800080f8:	1141                	addi	sp,sp,-16
800080fa:	c422                	sw	s0,8(sp)
800080fc:	842a                	mv	s0,a0
800080fe:	852e                	mv	a0,a1
80008100:	8801a223          	sw	zero,-1916(gp) # 90009034 <errno>
80008104:	c606                	sw	ra,12(sp)
80008106:	8d4f80ef          	jal	ra,800001da <_sbrk>
8000810a:	57fd                	li	a5,-1
8000810c:	00f51663          	bne	a0,a5,80008118 <_sbrk_r+0x20>
80008110:	8841a783          	lw	a5,-1916(gp) # 90009034 <errno>
80008114:	c391                	beqz	a5,80008118 <_sbrk_r+0x20>
80008116:	c01c                	sw	a5,0(s0)
80008118:	40b2                	lw	ra,12(sp)
8000811a:	4422                	lw	s0,8(sp)
8000811c:	0141                	addi	sp,sp,16
8000811e:	8082                	ret

80008120 <__sread>:
__sread():
80008120:	1141                	addi	sp,sp,-16
80008122:	c422                	sw	s0,8(sp)
80008124:	842e                	mv	s0,a1
80008126:	00e59583          	lh	a1,14(a1)
8000812a:	c606                	sw	ra,12(sp)
8000812c:	2c29                	jal	80008346 <_read_r>
8000812e:	00054963          	bltz	a0,80008140 <__sread+0x20>
80008132:	487c                	lw	a5,84(s0)
80008134:	97aa                	add	a5,a5,a0
80008136:	c87c                	sw	a5,84(s0)
80008138:	40b2                	lw	ra,12(sp)
8000813a:	4422                	lw	s0,8(sp)
8000813c:	0141                	addi	sp,sp,16
8000813e:	8082                	ret
80008140:	00c45783          	lhu	a5,12(s0)
80008144:	777d                	lui	a4,0xfffff
80008146:	177d                	addi	a4,a4,-1
80008148:	8ff9                	and	a5,a5,a4
8000814a:	00f41623          	sh	a5,12(s0)
8000814e:	b7ed                	j	80008138 <__sread+0x18>

80008150 <__swrite>:
__swrite():
80008150:	00c5d783          	lhu	a5,12(a1)
80008154:	1101                	addi	sp,sp,-32
80008156:	cc22                	sw	s0,24(sp)
80008158:	ca26                	sw	s1,20(sp)
8000815a:	c84a                	sw	s2,16(sp)
8000815c:	c64e                	sw	s3,12(sp)
8000815e:	ce06                	sw	ra,28(sp)
80008160:	1007f793          	andi	a5,a5,256
80008164:	84aa                	mv	s1,a0
80008166:	842e                	mv	s0,a1
80008168:	8932                	mv	s2,a2
8000816a:	89b6                	mv	s3,a3
8000816c:	c791                	beqz	a5,80008178 <__swrite+0x28>
8000816e:	00e59583          	lh	a1,14(a1)
80008172:	4689                	li	a3,2
80008174:	4601                	li	a2,0
80008176:	229d                	jal	800082dc <_lseek_r>
80008178:	00c45783          	lhu	a5,12(s0)
8000817c:	777d                	lui	a4,0xfffff
8000817e:	177d                	addi	a4,a4,-1
80008180:	8ff9                	and	a5,a5,a4
80008182:	00e41583          	lh	a1,14(s0)
80008186:	00f41623          	sh	a5,12(s0)
8000818a:	4462                	lw	s0,24(sp)
8000818c:	40f2                	lw	ra,28(sp)
8000818e:	86ce                	mv	a3,s3
80008190:	864a                	mv	a2,s2
80008192:	49b2                	lw	s3,12(sp)
80008194:	4942                	lw	s2,16(sp)
80008196:	8526                	mv	a0,s1
80008198:	44d2                	lw	s1,20(sp)
8000819a:	6105                	addi	sp,sp,32
8000819c:	a83d                	j	800081da <_write_r>

8000819e <__sseek>:
__sseek():
8000819e:	1141                	addi	sp,sp,-16
800081a0:	c422                	sw	s0,8(sp)
800081a2:	842e                	mv	s0,a1
800081a4:	00e59583          	lh	a1,14(a1)
800081a8:	c606                	sw	ra,12(sp)
800081aa:	2a0d                	jal	800082dc <_lseek_r>
800081ac:	57fd                	li	a5,-1
800081ae:	00c45703          	lhu	a4,12(s0)
800081b2:	00f51b63          	bne	a0,a5,800081c8 <__sseek+0x2a>
800081b6:	77fd                	lui	a5,0xfffff
800081b8:	17fd                	addi	a5,a5,-1
800081ba:	8ff9                	and	a5,a5,a4
800081bc:	00f41623          	sh	a5,12(s0)
800081c0:	40b2                	lw	ra,12(sp)
800081c2:	4422                	lw	s0,8(sp)
800081c4:	0141                	addi	sp,sp,16
800081c6:	8082                	ret
800081c8:	6785                	lui	a5,0x1
800081ca:	8fd9                	or	a5,a5,a4
800081cc:	00f41623          	sh	a5,12(s0)
800081d0:	c868                	sw	a0,84(s0)
800081d2:	b7fd                	j	800081c0 <__sseek+0x22>

800081d4 <__sclose>:
__sclose():
800081d4:	00e59583          	lh	a1,14(a1)
800081d8:	a095                	j	8000823c <_close_r>

800081da <_write_r>:
_write_r():
800081da:	1141                	addi	sp,sp,-16
800081dc:	c422                	sw	s0,8(sp)
800081de:	842a                	mv	s0,a0
800081e0:	852e                	mv	a0,a1
800081e2:	85b2                	mv	a1,a2
800081e4:	8636                	mv	a2,a3
800081e6:	8801a223          	sw	zero,-1916(gp) # 90009034 <errno>
800081ea:	c606                	sw	ra,12(sp)
800081ec:	86af80ef          	jal	ra,80000256 <_write>
800081f0:	57fd                	li	a5,-1
800081f2:	00f51663          	bne	a0,a5,800081fe <_write_r+0x24>
800081f6:	8841a783          	lw	a5,-1916(gp) # 90009034 <errno>
800081fa:	c391                	beqz	a5,800081fe <_write_r+0x24>
800081fc:	c01c                	sw	a5,0(s0)
800081fe:	40b2                	lw	ra,12(sp)
80008200:	4422                	lw	s0,8(sp)
80008202:	0141                	addi	sp,sp,16
80008204:	8082                	ret

80008206 <__assert_func>:
__assert_func():
80008206:	1141                	addi	sp,sp,-16
80008208:	80c1a783          	lw	a5,-2036(gp) # 90008fbc <_impure_ptr>
8000820c:	8832                	mv	a6,a2
8000820e:	c606                	sw	ra,12(sp)
80008210:	88aa                	mv	a7,a0
80008212:	872e                	mv	a4,a1
80008214:	47c8                	lw	a0,12(a5)
80008216:	8636                	mv	a2,a3
80008218:	00001797          	auipc	a5,0x1
8000821c:	de878793          	addi	a5,a5,-536 # 80009000 <p05.0+0x20>
80008220:	00081763          	bnez	a6,8000822e <__assert_func+0x28>
80008224:	00001797          	auipc	a5,0x1
80008228:	de878793          	addi	a5,a5,-536 # 8000900c <p05.0+0x2c>
8000822c:	883e                	mv	a6,a5
8000822e:	86c6                	mv	a3,a7
80008230:	00001597          	auipc	a1,0x1
80008234:	de058593          	addi	a1,a1,-544 # 80009010 <p05.0+0x30>
80008238:	2035                	jal	80008264 <fiprintf>
8000823a:	2aa1                	jal	80008392 <abort>

8000823c <_close_r>:
_close_r():
8000823c:	1141                	addi	sp,sp,-16
8000823e:	c422                	sw	s0,8(sp)
80008240:	842a                	mv	s0,a0
80008242:	852e                	mv	a0,a1
80008244:	8801a223          	sw	zero,-1916(gp) # 90009034 <errno>
80008248:	c606                	sw	ra,12(sp)
8000824a:	e7ff70ef          	jal	ra,800000c8 <_close>
8000824e:	57fd                	li	a5,-1
80008250:	00f51663          	bne	a0,a5,8000825c <_close_r+0x20>
80008254:	8841a783          	lw	a5,-1916(gp) # 90009034 <errno>
80008258:	c391                	beqz	a5,8000825c <_close_r+0x20>
8000825a:	c01c                	sw	a5,0(s0)
8000825c:	40b2                	lw	ra,12(sp)
8000825e:	4422                	lw	s0,8(sp)
80008260:	0141                	addi	sp,sp,16
80008262:	8082                	ret

80008264 <fiprintf>:
fprintf():
80008264:	7139                	addi	sp,sp,-64
80008266:	d432                	sw	a2,40(sp)
80008268:	d636                	sw	a3,44(sp)
8000826a:	862e                	mv	a2,a1
8000826c:	1034                	addi	a3,sp,40
8000826e:	85aa                	mv	a1,a0
80008270:	80c1a503          	lw	a0,-2036(gp) # 90008fbc <_impure_ptr>
80008274:	ce06                	sw	ra,28(sp)
80008276:	d83a                	sw	a4,48(sp)
80008278:	da3e                	sw	a5,52(sp)
8000827a:	dc42                	sw	a6,56(sp)
8000827c:	de46                	sw	a7,60(sp)
8000827e:	c636                	sw	a3,12(sp)
80008280:	bdbff0ef          	jal	ra,80007e5a <_vfiprintf_r>
80008284:	40f2                	lw	ra,28(sp)
80008286:	6121                	addi	sp,sp,64
80008288:	8082                	ret

8000828a <_fstat_r>:
_fstat_r():
8000828a:	1141                	addi	sp,sp,-16
8000828c:	c422                	sw	s0,8(sp)
8000828e:	842a                	mv	s0,a0
80008290:	852e                	mv	a0,a1
80008292:	85b2                	mv	a1,a2
80008294:	8801a223          	sw	zero,-1916(gp) # 90009034 <errno>
80008298:	c606                	sw	ra,12(sp)
8000829a:	e5df70ef          	jal	ra,800000f6 <_fstat>
8000829e:	57fd                	li	a5,-1
800082a0:	00f51663          	bne	a0,a5,800082ac <_fstat_r+0x22>
800082a4:	8841a783          	lw	a5,-1916(gp) # 90009034 <errno>
800082a8:	c391                	beqz	a5,800082ac <_fstat_r+0x22>
800082aa:	c01c                	sw	a5,0(s0)
800082ac:	40b2                	lw	ra,12(sp)
800082ae:	4422                	lw	s0,8(sp)
800082b0:	0141                	addi	sp,sp,16
800082b2:	8082                	ret

800082b4 <_isatty_r>:
_isatty_r():
800082b4:	1141                	addi	sp,sp,-16
800082b6:	c422                	sw	s0,8(sp)
800082b8:	842a                	mv	s0,a0
800082ba:	852e                	mv	a0,a1
800082bc:	8801a223          	sw	zero,-1916(gp) # 90009034 <errno>
800082c0:	c606                	sw	ra,12(sp)
800082c2:	e85f70ef          	jal	ra,80000146 <_isatty>
800082c6:	57fd                	li	a5,-1
800082c8:	00f51663          	bne	a0,a5,800082d4 <_isatty_r+0x20>
800082cc:	8841a783          	lw	a5,-1916(gp) # 90009034 <errno>
800082d0:	c391                	beqz	a5,800082d4 <_isatty_r+0x20>
800082d2:	c01c                	sw	a5,0(s0)
800082d4:	40b2                	lw	ra,12(sp)
800082d6:	4422                	lw	s0,8(sp)
800082d8:	0141                	addi	sp,sp,16
800082da:	8082                	ret

800082dc <_lseek_r>:
_lseek_r():
800082dc:	1141                	addi	sp,sp,-16
800082de:	c422                	sw	s0,8(sp)
800082e0:	842a                	mv	s0,a0
800082e2:	852e                	mv	a0,a1
800082e4:	85b2                	mv	a1,a2
800082e6:	8636                	mv	a2,a3
800082e8:	8801a223          	sw	zero,-1916(gp) # 90009034 <errno>
800082ec:	c606                	sw	ra,12(sp)
800082ee:	e8df70ef          	jal	ra,8000017a <_lseek>
800082f2:	57fd                	li	a5,-1
800082f4:	00f51663          	bne	a0,a5,80008300 <_lseek_r+0x24>
800082f8:	8841a783          	lw	a5,-1916(gp) # 90009034 <errno>
800082fc:	c391                	beqz	a5,80008300 <_lseek_r+0x24>
800082fe:	c01c                	sw	a5,0(s0)
80008300:	40b2                	lw	ra,12(sp)
80008302:	4422                	lw	s0,8(sp)
80008304:	0141                	addi	sp,sp,16
80008306:	8082                	ret

80008308 <__ascii_mbtowc>:
__ascii_mbtowc():
80008308:	e185                	bnez	a1,80008328 <__ascii_mbtowc+0x20>
8000830a:	1141                	addi	sp,sp,-16
8000830c:	006c                	addi	a1,sp,12
8000830e:	4501                	li	a0,0
80008310:	ca11                	beqz	a2,80008324 <__ascii_mbtowc+0x1c>
80008312:	5579                	li	a0,-2
80008314:	ca81                	beqz	a3,80008324 <__ascii_mbtowc+0x1c>
80008316:	00064783          	lbu	a5,0(a2)
8000831a:	c19c                	sw	a5,0(a1)
8000831c:	00064503          	lbu	a0,0(a2)
80008320:	00a03533          	snez	a0,a0
80008324:	0141                	addi	sp,sp,16
80008326:	8082                	ret
80008328:	4501                	li	a0,0
8000832a:	ca19                	beqz	a2,80008340 <__ascii_mbtowc+0x38>
8000832c:	5579                	li	a0,-2
8000832e:	ca89                	beqz	a3,80008340 <__ascii_mbtowc+0x38>
80008330:	00064783          	lbu	a5,0(a2)
80008334:	c19c                	sw	a5,0(a1)
80008336:	00064503          	lbu	a0,0(a2)
8000833a:	00a03533          	snez	a0,a0
8000833e:	8082                	ret
80008340:	8082                	ret

80008342 <__malloc_lock>:
__malloc_lock():
80008342:	8082                	ret

80008344 <__malloc_unlock>:
__malloc_unlock():
80008344:	8082                	ret

80008346 <_read_r>:
_read_r():
80008346:	1141                	addi	sp,sp,-16
80008348:	c422                	sw	s0,8(sp)
8000834a:	842a                	mv	s0,a0
8000834c:	852e                	mv	a0,a1
8000834e:	85b2                	mv	a1,a2
80008350:	8636                	mv	a2,a3
80008352:	8801a223          	sw	zero,-1916(gp) # 90009034 <errno>
80008356:	c606                	sw	ra,12(sp)
80008358:	e3ff70ef          	jal	ra,80000196 <_read>
8000835c:	57fd                	li	a5,-1
8000835e:	00f51663          	bne	a0,a5,8000836a <_read_r+0x24>
80008362:	8841a783          	lw	a5,-1916(gp) # 90009034 <errno>
80008366:	c391                	beqz	a5,8000836a <_read_r+0x24>
80008368:	c01c                	sw	a5,0(s0)
8000836a:	40b2                	lw	ra,12(sp)
8000836c:	4422                	lw	s0,8(sp)
8000836e:	0141                	addi	sp,sp,16
80008370:	8082                	ret

80008372 <__ascii_wctomb>:
__ascii_wctomb():
80008372:	cd91                	beqz	a1,8000838e <__ascii_wctomb+0x1c>
80008374:	0ff00793          	li	a5,255
80008378:	00c7f763          	bgeu	a5,a2,80008386 <__ascii_wctomb+0x14>
8000837c:	08a00793          	li	a5,138
80008380:	c11c                	sw	a5,0(a0)
80008382:	557d                	li	a0,-1
80008384:	8082                	ret
80008386:	00c58023          	sb	a2,0(a1)
8000838a:	4505                	li	a0,1
8000838c:	8082                	ret
8000838e:	4501                	li	a0,0
80008390:	8082                	ret

80008392 <abort>:
abort():
80008392:	1141                	addi	sp,sp,-16
80008394:	4519                	li	a0,6
80008396:	c606                	sw	ra,12(sp)
80008398:	20ad                	jal	80008402 <raise>
8000839a:	4505                	li	a0,1
8000839c:	d49f70ef          	jal	ra,800000e4 <_exit>

800083a0 <_raise_r>:
_raise_r():
800083a0:	1101                	addi	sp,sp,-32
800083a2:	cc22                	sw	s0,24(sp)
800083a4:	ce06                	sw	ra,28(sp)
800083a6:	47fd                	li	a5,31
800083a8:	842a                	mv	s0,a0
800083aa:	00b7f963          	bgeu	a5,a1,800083bc <_raise_r+0x1c>
800083ae:	47d9                	li	a5,22
800083b0:	c11c                	sw	a5,0(a0)
800083b2:	557d                	li	a0,-1
800083b4:	40f2                	lw	ra,28(sp)
800083b6:	4462                	lw	s0,24(sp)
800083b8:	6105                	addi	sp,sp,32
800083ba:	8082                	ret
800083bc:	417c                	lw	a5,68(a0)
800083be:	862e                	mv	a2,a1
800083c0:	c791                	beqz	a5,800083cc <_raise_r+0x2c>
800083c2:	00259713          	slli	a4,a1,0x2
800083c6:	97ba                	add	a5,a5,a4
800083c8:	4398                	lw	a4,0(a5)
800083ca:	eb19                	bnez	a4,800083e0 <_raise_r+0x40>
800083cc:	8522                	mv	a0,s0
800083ce:	c632                	sw	a2,12(sp)
800083d0:	2095                	jal	80008434 <_getpid_r>
800083d2:	85aa                	mv	a1,a0
800083d4:	8522                	mv	a0,s0
800083d6:	4462                	lw	s0,24(sp)
800083d8:	4632                	lw	a2,12(sp)
800083da:	40f2                	lw	ra,28(sp)
800083dc:	6105                	addi	sp,sp,32
800083de:	a035                	j	8000840a <_kill_r>
800083e0:	4685                	li	a3,1
800083e2:	4501                	li	a0,0
800083e4:	fcd708e3          	beq	a4,a3,800083b4 <_raise_r+0x14>
800083e8:	56fd                	li	a3,-1
800083ea:	00d71663          	bne	a4,a3,800083f6 <_raise_r+0x56>
800083ee:	47d9                	li	a5,22
800083f0:	c01c                	sw	a5,0(s0)
800083f2:	4505                	li	a0,1
800083f4:	b7c1                	j	800083b4 <_raise_r+0x14>
800083f6:	852e                	mv	a0,a1
800083f8:	0007a023          	sw	zero,0(a5)
800083fc:	9702                	jalr	a4
800083fe:	4501                	li	a0,0
80008400:	bf55                	j	800083b4 <_raise_r+0x14>

80008402 <raise>:
raise():
80008402:	85aa                	mv	a1,a0
80008404:	80c1a503          	lw	a0,-2036(gp) # 90008fbc <_impure_ptr>
80008408:	bf61                	j	800083a0 <_raise_r>

8000840a <_kill_r>:
_kill_r():
8000840a:	1141                	addi	sp,sp,-16
8000840c:	c422                	sw	s0,8(sp)
8000840e:	842a                	mv	s0,a0
80008410:	852e                	mv	a0,a1
80008412:	85b2                	mv	a1,a2
80008414:	8801a223          	sw	zero,-1916(gp) # 90009034 <errno>
80008418:	c606                	sw	ra,12(sp)
8000841a:	d41f70ef          	jal	ra,8000015a <_kill>
8000841e:	57fd                	li	a5,-1
80008420:	00f51663          	bne	a0,a5,8000842c <_kill_r+0x22>
80008424:	8841a783          	lw	a5,-1916(gp) # 90009034 <errno>
80008428:	c391                	beqz	a5,8000842c <_kill_r+0x22>
8000842a:	c01c                	sw	a5,0(s0)
8000842c:	40b2                	lw	ra,12(sp)
8000842e:	4422                	lw	s0,8(sp)
80008430:	0141                	addi	sp,sp,16
80008432:	8082                	ret

80008434 <_getpid_r>:
_getpid_r():
80008434:	d03f706f          	j	80000136 <_getpid>

80008438 <__gedf2>:
__gedf2():
/Local/xl_ci/toolchain/riscv-gnu-toolchain/riscv-gcc/libgcc/soft-fp/gedf2.c:36
80008438:	87aa                	mv	a5,a0
/Local/xl_ci/toolchain/riscv-gnu-toolchain/riscv-gcc/libgcc/soft-fp/gedf2.c:42
8000843a:	00202773          	frrm	a4
/Local/xl_ci/toolchain/riscv-gnu-toolchain/riscv-gcc/libgcc/soft-fp/gedf2.c:43
8000843e:	00100737          	lui	a4,0x100
80008442:	177d                	addi	a4,a4,-1
80008444:	0145d813          	srli	a6,a1,0x14
80008448:	00b778b3          	and	a7,a4,a1
8000844c:	832a                	mv	t1,a0
8000844e:	7ff87813          	andi	a6,a6,2047
80008452:	01f5d513          	srli	a0,a1,0x1f
/Local/xl_ci/toolchain/riscv-gnu-toolchain/riscv-gcc/libgcc/soft-fp/gedf2.c:45
80008456:	7ff00e93          	li	t4,2047
/Local/xl_ci/toolchain/riscv-gnu-toolchain/riscv-gcc/libgcc/soft-fp/gedf2.c:44
8000845a:	0146d593          	srli	a1,a3,0x14
8000845e:	8f75                	and	a4,a4,a3
80008460:	8e32                	mv	t3,a2
80008462:	7ff5f593          	andi	a1,a1,2047
80008466:	82fd                	srli	a3,a3,0x1f
/Local/xl_ci/toolchain/riscv-gnu-toolchain/riscv-gcc/libgcc/soft-fp/gedf2.c:45
80008468:	01d81a63          	bne	a6,t4,8000847c <__gedf2+0x44>
/Local/xl_ci/toolchain/riscv-gnu-toolchain/riscv-gcc/libgcc/soft-fp/gedf2.c:45 (discriminator 20)
8000846c:	00f8eeb3          	or	t4,a7,a5
80008470:	060e8663          	beqz	t4,800084dc <__gedf2+0xa4>
/Local/xl_ci/toolchain/riscv-gnu-toolchain/riscv-gcc/libgcc/soft-fp/gedf2.c:46 (discriminator 1)
80008474:	00186073          	csrsi	fflags,16
80008478:	5579                	li	a0,-2
8000847a:	8082                	ret
/Local/xl_ci/toolchain/riscv-gnu-toolchain/riscv-gcc/libgcc/soft-fp/gedf2.c:45 (discriminator 23)
8000847c:	01d59663          	bne	a1,t4,80008488 <__gedf2+0x50>
/Local/xl_ci/toolchain/riscv-gnu-toolchain/riscv-gcc/libgcc/soft-fp/gedf2.c:45 (discriminator 24)
80008480:	00c76eb3          	or	t4,a4,a2
80008484:	fe0e98e3          	bnez	t4,80008474 <__gedf2+0x3c>
/Local/xl_ci/toolchain/riscv-gnu-toolchain/riscv-gcc/libgcc/soft-fp/gedf2.c:45 (discriminator 62)
80008488:	04081c63          	bnez	a6,800084e0 <__gedf2+0xa8>
/Local/xl_ci/toolchain/riscv-gnu-toolchain/riscv-gcc/libgcc/soft-fp/gedf2.c:45 (discriminator 63)
8000848c:	00f8e7b3          	or	a5,a7,a5
80008490:	0017b793          	seqz	a5,a5
80008494:	e199                	bnez	a1,8000849a <__gedf2+0x62>
/Local/xl_ci/toolchain/riscv-gnu-toolchain/riscv-gcc/libgcc/soft-fp/gedf2.c:45 (discriminator 69)
80008496:	8e59                	or	a2,a2,a4
80008498:	ce0d                	beqz	a2,800084d2 <__gedf2+0x9a>
/Local/xl_ci/toolchain/riscv-gnu-toolchain/riscv-gcc/libgcc/soft-fp/gedf2.c:45
8000849a:	eb81                	bnez	a5,800084aa <__gedf2+0x72>
8000849c:	00d51463          	bne	a0,a3,800084a4 <__gedf2+0x6c>
/Local/xl_ci/toolchain/riscv-gnu-toolchain/riscv-gcc/libgcc/soft-fp/gedf2.c:45 (discriminator 95)
800084a0:	0105d963          	bge	a1,a6,800084b2 <__gedf2+0x7a>
/Local/xl_ci/toolchain/riscv-gnu-toolchain/riscv-gcc/libgcc/soft-fp/gedf2.c:45 (discriminator 119)
800084a4:	c50d                	beqz	a0,800084ce <__gedf2+0x96>
/Local/xl_ci/toolchain/riscv-gnu-toolchain/riscv-gcc/libgcc/soft-fp/gedf2.c:45
800084a6:	557d                	li	a0,-1
800084a8:	8082                	ret
/Local/xl_ci/toolchain/riscv-gnu-toolchain/riscv-gcc/libgcc/soft-fp/gedf2.c:45 (discriminator 80)
800084aa:	557d                	li	a0,-1
800084ac:	c691                	beqz	a3,800084b8 <__gedf2+0x80>
/Local/xl_ci/toolchain/riscv-gnu-toolchain/riscv-gcc/libgcc/soft-fp/gedf2.c:45
800084ae:	8536                	mv	a0,a3
800084b0:	8082                	ret
/Local/xl_ci/toolchain/riscv-gnu-toolchain/riscv-gcc/libgcc/soft-fp/gedf2.c:45 (discriminator 102)
800084b2:	00b85463          	bge	a6,a1,800084ba <__gedf2+0x82>
/Local/xl_ci/toolchain/riscv-gnu-toolchain/riscv-gcc/libgcc/soft-fp/gedf2.c:45 (discriminator 130)
800084b6:	d965                	beqz	a0,800084a6 <__gedf2+0x6e>
/Local/xl_ci/toolchain/riscv-gnu-toolchain/riscv-gcc/libgcc/soft-fp/gedf2.c:49
800084b8:	8082                	ret
/Local/xl_ci/toolchain/riscv-gnu-toolchain/riscv-gcc/libgcc/soft-fp/gedf2.c:45 (discriminator 109)
800084ba:	ff1765e3          	bltu	a4,a7,800084a4 <__gedf2+0x6c>
/Local/xl_ci/toolchain/riscv-gnu-toolchain/riscv-gcc/libgcc/soft-fp/gedf2.c:45 (discriminator 116)
800084be:	00e89c63          	bne	a7,a4,800084d6 <__gedf2+0x9e>
/Local/xl_ci/toolchain/riscv-gnu-toolchain/riscv-gcc/libgcc/soft-fp/gedf2.c:45 (discriminator 117)
800084c2:	fe6e61e3          	bltu	t3,t1,800084a4 <__gedf2+0x6c>
/Local/xl_ci/toolchain/riscv-gnu-toolchain/riscv-gcc/libgcc/soft-fp/gedf2.c:45 (discriminator 128)
800084c6:	ffc368e3          	bltu	t1,t3,800084b6 <__gedf2+0x7e>
/Local/xl_ci/toolchain/riscv-gnu-toolchain/riscv-gcc/libgcc/soft-fp/gedf2.c:45
800084ca:	4501                	li	a0,0
800084cc:	8082                	ret
800084ce:	4505                	li	a0,1
800084d0:	8082                	ret
800084d2:	ffe5                	bnez	a5,800084ca <__gedf2+0x92>
800084d4:	bfc1                	j	800084a4 <__gedf2+0x6c>
800084d6:	fee8e0e3          	bltu	a7,a4,800084b6 <__gedf2+0x7e>
800084da:	bfc5                	j	800084ca <__gedf2+0x92>
800084dc:	fb0582e3          	beq	a1,a6,80008480 <__gedf2+0x48>
800084e0:	fdd5                	bnez	a1,8000849c <__gedf2+0x64>
800084e2:	4781                	li	a5,0
800084e4:	bf4d                	j	80008496 <__gedf2+0x5e>

800084e6 <__fixdfsi>:
__fixdfsi():
/Local/xl_ci/toolchain/riscv-gnu-toolchain/riscv-gcc/libgcc/soft-fp/fixdfsi.c:36
800084e6:	882a                	mv	a6,a0
/Local/xl_ci/toolchain/riscv-gnu-toolchain/riscv-gcc/libgcc/soft-fp/fixdfsi.c:41
800084e8:	002027f3          	frrm	a5
/Local/xl_ci/toolchain/riscv-gnu-toolchain/riscv-gcc/libgcc/soft-fp/fixdfsi.c:42
800084ec:	001007b7          	lui	a5,0x100
800084f0:	0145d693          	srli	a3,a1,0x14
800084f4:	fff78613          	addi	a2,a5,-1 # fffff <__stack_size+0xff7ff>
800084f8:	7ff6f693          	andi	a3,a3,2047
/Local/xl_ci/toolchain/riscv-gnu-toolchain/riscv-gcc/libgcc/soft-fp/fixdfsi.c:43
800084fc:	3fe00713          	li	a4,1022
/Local/xl_ci/toolchain/riscv-gnu-toolchain/riscv-gcc/libgcc/soft-fp/fixdfsi.c:42
80008500:	8e6d                	and	a2,a2,a1
80008502:	81fd                	srli	a1,a1,0x1f
/Local/xl_ci/toolchain/riscv-gnu-toolchain/riscv-gcc/libgcc/soft-fp/fixdfsi.c:43
80008504:	00d74663          	blt	a4,a3,80008510 <__fixdfsi+0x2a>
/Local/xl_ci/toolchain/riscv-gnu-toolchain/riscv-gcc/libgcc/soft-fp/fixdfsi.c:43 (discriminator 1)
80008508:	ead1                	bnez	a3,8000859c <__fixdfsi+0xb6>
/Local/xl_ci/toolchain/riscv-gnu-toolchain/riscv-gcc/libgcc/soft-fp/fixdfsi.c:43 (discriminator 3)
8000850a:	8d51                	or	a0,a0,a2
8000850c:	e941                	bnez	a0,8000859c <__fixdfsi+0xb6>
8000850e:	8082                	ret
/Local/xl_ci/toolchain/riscv-gnu-toolchain/riscv-gcc/libgcc/soft-fp/fixdfsi.c:43 (discriminator 10)
80008510:	41d00713          	li	a4,1053
80008514:	02d75863          	bge	a4,a3,80008544 <__fixdfsi+0x5e>
/Local/xl_ci/toolchain/riscv-gnu-toolchain/riscv-gcc/libgcc/soft-fp/fixdfsi.c:43 (discriminator 14)
80008518:	80000737          	lui	a4,0x80000
8000851c:	fff74713          	not	a4,a4
80008520:	00e58533          	add	a0,a1,a4
80008524:	cdbd                	beqz	a1,800085a2 <__fixdfsi+0xbc>
/Local/xl_ci/toolchain/riscv-gnu-toolchain/riscv-gcc/libgcc/soft-fp/fixdfsi.c:43 (discriminator 20)
80008526:	41e00793          	li	a5,1054
8000852a:	4741                	li	a4,16
8000852c:	04f69263          	bne	a3,a5,80008570 <__fixdfsi+0x8a>
/Local/xl_ci/toolchain/riscv-gnu-toolchain/riscv-gcc/libgcc/soft-fp/fixdfsi.c:43 (discriminator 22)
80008530:	00b61793          	slli	a5,a2,0xb
80008534:	01585613          	srli	a2,a6,0x15
80008538:	8fd1                	or	a5,a5,a2
8000853a:	eb9d                	bnez	a5,80008570 <__fixdfsi+0x8a>
/Local/xl_ci/toolchain/riscv-gnu-toolchain/riscv-gcc/libgcc/soft-fp/fixdfsi.c:43 (discriminator 25)
8000853c:	00b81713          	slli	a4,a6,0xb
80008540:	e33d                	bnez	a4,800085a6 <__fixdfsi+0xc0>
80008542:	8082                	ret
/Local/xl_ci/toolchain/riscv-gnu-toolchain/riscv-gcc/libgcc/soft-fp/fixdfsi.c:43 (discriminator 13)
80008544:	43300513          	li	a0,1075
80008548:	8d15                	sub	a0,a0,a3
8000854a:	477d                	li	a4,31
8000854c:	8fd1                	or	a5,a5,a2
8000854e:	02a74463          	blt	a4,a0,80008576 <__fixdfsi+0x90>
/Local/xl_ci/toolchain/riscv-gnu-toolchain/riscv-gcc/libgcc/soft-fp/fixdfsi.c:43 (discriminator 30)
80008552:	bed68613          	addi	a2,a3,-1043
80008556:	00c816b3          	sll	a3,a6,a2
8000855a:	00c797b3          	sll	a5,a5,a2
8000855e:	00a85533          	srl	a0,a6,a0
80008562:	00d03733          	snez	a4,a3
80008566:	8d5d                	or	a0,a0,a5
/Local/xl_ci/toolchain/riscv-gnu-toolchain/riscv-gcc/libgcc/soft-fp/fixdfsi.c:43 (discriminator 43)
80008568:	c199                	beqz	a1,8000856e <__fixdfsi+0x88>
/Local/xl_ci/toolchain/riscv-gnu-toolchain/riscv-gcc/libgcc/soft-fp/fixdfsi.c:43 (discriminator 45)
8000856a:	40a00533          	neg	a0,a0
/Local/xl_ci/toolchain/riscv-gnu-toolchain/riscv-gcc/libgcc/soft-fp/fixdfsi.c:44 (discriminator 59)
8000856e:	c319                	beqz	a4,80008574 <__fixdfsi+0x8e>
/Local/xl_ci/toolchain/riscv-gnu-toolchain/riscv-gcc/libgcc/soft-fp/fixdfsi.c:44 (discriminator 1)
80008570:	00172073          	csrs	fflags,a4
/Local/xl_ci/toolchain/riscv-gnu-toolchain/riscv-gcc/libgcc/soft-fp/fixdfsi.c:47 (discriminator 3)
80008574:	8082                	ret
/Local/xl_ci/toolchain/riscv-gnu-toolchain/riscv-gcc/libgcc/soft-fp/fixdfsi.c:43 (discriminator 31)
80008576:	02000613          	li	a2,32
8000857a:	4701                	li	a4,0
8000857c:	00c50663          	beq	a0,a2,80008588 <__fixdfsi+0xa2>
/Local/xl_ci/toolchain/riscv-gnu-toolchain/riscv-gcc/libgcc/soft-fp/fixdfsi.c:43 (discriminator 39)
80008580:	c0d68713          	addi	a4,a3,-1011
80008584:	00e79733          	sll	a4,a5,a4
/Local/xl_ci/toolchain/riscv-gnu-toolchain/riscv-gcc/libgcc/soft-fp/fixdfsi.c:43 (discriminator 42)
80008588:	41300513          	li	a0,1043
8000858c:	01076733          	or	a4,a4,a6
80008590:	8d15                	sub	a0,a0,a3
80008592:	00e03733          	snez	a4,a4
80008596:	00a7d533          	srl	a0,a5,a0
8000859a:	b7f9                	j	80008568 <__fixdfsi+0x82>
/Local/xl_ci/toolchain/riscv-gnu-toolchain/riscv-gcc/libgcc/soft-fp/fixdfsi.c:43
8000859c:	4501                	li	a0,0
8000859e:	4705                	li	a4,1
800085a0:	bfc1                	j	80008570 <__fixdfsi+0x8a>
800085a2:	4741                	li	a4,16
800085a4:	b7f1                	j	80008570 <__fixdfsi+0x8a>
800085a6:	872e                	mv	a4,a1
800085a8:	b7e1                	j	80008570 <__fixdfsi+0x8a>

800085aa <__floatunsidf>:
__floatunsidf():
/Local/xl_ci/toolchain/riscv-gnu-toolchain/riscv-gcc/libgcc/soft-fp/floatunsidf.c:37
800085aa:	1141                	addi	sp,sp,-16
800085ac:	c422                	sw	s0,8(sp)
800085ae:	c606                	sw	ra,12(sp)
800085b0:	842a                	mv	s0,a0
/Local/xl_ci/toolchain/riscv-gnu-toolchain/riscv-gcc/libgcc/soft-fp/floatunsidf.c:41
800085b2:	c129                	beqz	a0,800085f4 <__floatunsidf+0x4a>
/Local/xl_ci/toolchain/riscv-gnu-toolchain/riscv-gcc/libgcc/soft-fp/floatunsidf.c:41 (discriminator 6)
800085b4:	bedfc0ef          	jal	ra,800051a0 <__clzsi2>
800085b8:	41e00713          	li	a4,1054
800085bc:	47a9                	li	a5,10
800085be:	8f09                	sub	a4,a4,a0
800085c0:	02a7c463          	blt	a5,a0,800085e8 <__floatunsidf+0x3e>
/Local/xl_ci/toolchain/riscv-gnu-toolchain/riscv-gcc/libgcc/soft-fp/floatunsidf.c:41 (discriminator 23)
800085c4:	47ad                	li	a5,11
800085c6:	8f89                	sub	a5,a5,a0
800085c8:	0555                	addi	a0,a0,21
800085ca:	00f457b3          	srl	a5,s0,a5
800085ce:	00a41433          	sll	s0,s0,a0
/Local/xl_ci/toolchain/riscv-gnu-toolchain/riscv-gcc/libgcc/soft-fp/floatunsidf.c:45 (discriminator 126)
800085d2:	40b2                	lw	ra,12(sp)
800085d4:	8522                	mv	a0,s0
/Local/xl_ci/toolchain/riscv-gnu-toolchain/riscv-gcc/libgcc/soft-fp/floatunsidf.c:42 (discriminator 126)
800085d6:	07b2                	slli	a5,a5,0xc
/Local/xl_ci/toolchain/riscv-gnu-toolchain/riscv-gcc/libgcc/soft-fp/floatunsidf.c:45 (discriminator 126)
800085d8:	4422                	lw	s0,8(sp)
/Local/xl_ci/toolchain/riscv-gnu-toolchain/riscv-gcc/libgcc/soft-fp/floatunsidf.c:42 (discriminator 126)
800085da:	0752                	slli	a4,a4,0x14
800085dc:	83b1                	srli	a5,a5,0xc
800085de:	00f766b3          	or	a3,a4,a5
/Local/xl_ci/toolchain/riscv-gnu-toolchain/riscv-gcc/libgcc/soft-fp/floatunsidf.c:45 (discriminator 126)
800085e2:	85b6                	mv	a1,a3
800085e4:	0141                	addi	sp,sp,16
800085e6:	8082                	ret
/Local/xl_ci/toolchain/riscv-gnu-toolchain/riscv-gcc/libgcc/soft-fp/floatunsidf.c:41 (discriminator 24)
800085e8:	ff550793          	addi	a5,a0,-11
800085ec:	00f417b3          	sll	a5,s0,a5
800085f0:	4401                	li	s0,0
800085f2:	b7c5                	j	800085d2 <__floatunsidf+0x28>
/Local/xl_ci/toolchain/riscv-gnu-toolchain/riscv-gcc/libgcc/soft-fp/floatunsidf.c:41
800085f4:	4781                	li	a5,0
800085f6:	4701                	li	a4,0
800085f8:	bfe9                	j	800085d2 <__floatunsidf+0x28>

800085fa <__trunctfdf2>:
__trunctfdf2():
/Local/xl_ci/toolchain/riscv-gnu-toolchain/riscv-gcc/libgcc/soft-fp/trunctfdf2.c:37
800085fa:	7179                	addi	sp,sp,-48
800085fc:	d422                	sw	s0,40(sp)
800085fe:	d606                	sw	ra,44(sp)
80008600:	d226                	sw	s1,36(sp)
80008602:	d04a                	sw	s2,32(sp)
80008604:	4114                	lw	a3,0(a0)
80008606:	4158                	lw	a4,4(a0)
80008608:	451c                	lw	a5,8(a0)
8000860a:	4540                	lw	s0,12(a0)
/Local/xl_ci/toolchain/riscv-gnu-toolchain/riscv-gcc/libgcc/soft-fp/trunctfdf2.c:43
8000860c:	002024f3          	frrm	s1
/Local/xl_ci/toolchain/riscv-gnu-toolchain/riscv-gcc/libgcc/soft-fp/trunctfdf2.c:44
80008610:	c43e                	sw	a5,8(sp)
80008612:	cc3e                	sw	a5,24(sp)
80008614:	01041793          	slli	a5,s0,0x10
80008618:	83c1                	srli	a5,a5,0x10
8000861a:	00141593          	slli	a1,s0,0x1
8000861e:	0808                	addi	a0,sp,16
80008620:	c622                	sw	s0,12(sp)
80008622:	ce3e                	sw	a5,28(sp)
80008624:	c036                	sw	a3,0(sp)
80008626:	c23a                	sw	a4,4(sp)
80008628:	c836                	sw	a3,16(sp)
8000862a:	ca3a                	sw	a4,20(sp)
8000862c:	0115de13          	srli	t3,a1,0x11
80008630:	807d                	srli	s0,s0,0x1f
80008632:	087c                	addi	a5,sp,28
80008634:	862a                	mv	a2,a0
/Local/xl_ci/toolchain/riscv-gnu-toolchain/riscv-gcc/libgcc/soft-fp/trunctfdf2.c:44 (discriminator 8)
80008636:	4394                	lw	a3,0(a5)
80008638:	ffc7a703          	lw	a4,-4(a5)
8000863c:	17f1                	addi	a5,a5,-4
8000863e:	068e                	slli	a3,a3,0x3
80008640:	8375                	srli	a4,a4,0x1d
80008642:	8ed9                	or	a3,a3,a4
80008644:	c3d4                	sw	a3,4(a5)
80008646:	fef518e3          	bne	a0,a5,80008636 <__trunctfdf2+0x3c>
/Local/xl_ci/toolchain/riscv-gnu-toolchain/riscv-gcc/libgcc/soft-fp/trunctfdf2.c:44 (discriminator 9)
8000864a:	47c2                	lw	a5,16(sp)
/Local/xl_ci/toolchain/riscv-gnu-toolchain/riscv-gcc/libgcc/soft-fp/trunctfdf2.c:46 (discriminator 9)
8000864c:	6321                	lui	t1,0x8
8000864e:	001e0713          	addi	a4,t3,1 # 10001 <__stack_size+0xf801>
/Local/xl_ci/toolchain/riscv-gnu-toolchain/riscv-gcc/libgcc/soft-fp/trunctfdf2.c:44 (discriminator 9)
80008652:	00379813          	slli	a6,a5,0x3
/Local/xl_ci/toolchain/riscv-gnu-toolchain/riscv-gcc/libgcc/soft-fp/trunctfdf2.c:46 (discriminator 9)
80008656:	ffe30793          	addi	a5,t1,-2 # 7ffe <__stack_size+0x77fe>
/Local/xl_ci/toolchain/riscv-gnu-toolchain/riscv-gcc/libgcc/soft-fp/trunctfdf2.c:44 (discriminator 9)
8000865a:	c842                	sw	a6,16(sp)
/Local/xl_ci/toolchain/riscv-gnu-toolchain/riscv-gcc/libgcc/soft-fp/trunctfdf2.c:46 (discriminator 9)
8000865c:	8f7d                	and	a4,a4,a5
8000865e:	18070d63          	beqz	a4,800087f8 <__trunctfdf2+0x1fe>
/Local/xl_ci/toolchain/riscv-gnu-toolchain/riscv-gcc/libgcc/soft-fp/trunctfdf2.c:46 (discriminator 1)
80008662:	77f1                	lui	a5,0xffffc
80008664:	40078793          	addi	a5,a5,1024 # ffffc400 <_sp+0x6ffbc400>
80008668:	00fe05b3          	add	a1,t3,a5
8000866c:	7fe00793          	li	a5,2046
80008670:	06b7d063          	bge	a5,a1,800086d0 <__trunctfdf2+0xd6>
/Local/xl_ci/toolchain/riscv-gnu-toolchain/riscv-gcc/libgcc/soft-fp/trunctfdf2.c:46 (discriminator 3)
80008674:	24048663          	beqz	s1,800088c0 <__trunctfdf2+0x2c6>
/Local/xl_ci/toolchain/riscv-gnu-toolchain/riscv-gcc/libgcc/soft-fp/trunctfdf2.c:46 (discriminator 6)
80008678:	478d                	li	a5,3
8000867a:	00f49a63          	bne	s1,a5,8000868e <__trunctfdf2+0x94>
/Local/xl_ci/toolchain/riscv-gnu-toolchain/riscv-gcc/libgcc/soft-fp/trunctfdf2.c:46 (discriminator 7)
8000867e:	24040163          	beqz	s0,800088c0 <__trunctfdf2+0x2c6>
/Local/xl_ci/toolchain/riscv-gnu-toolchain/riscv-gcc/libgcc/soft-fp/trunctfdf2.c:46
80008682:	7fe00593          	li	a1,2046
80008686:	57fd                	li	a5,-1
80008688:	557d                	li	a0,-1
/Local/xl_ci/toolchain/riscv-gnu-toolchain/riscv-gcc/libgcc/soft-fp/trunctfdf2.c:50
8000868a:	4701                	li	a4,0
8000868c:	a819                	j	800086a2 <__trunctfdf2+0xa8>
/Local/xl_ci/toolchain/riscv-gnu-toolchain/riscv-gcc/libgcc/soft-fp/trunctfdf2.c:46 (discriminator 10)
8000868e:	4789                	li	a5,2
80008690:	fef499e3          	bne	s1,a5,80008682 <__trunctfdf2+0x88>
/Local/xl_ci/toolchain/riscv-gnu-toolchain/riscv-gcc/libgcc/soft-fp/trunctfdf2.c:46 (discriminator 11)
80008694:	22041663          	bnez	s0,800088c0 <__trunctfdf2+0x2c6>
/Local/xl_ci/toolchain/riscv-gnu-toolchain/riscv-gcc/libgcc/soft-fp/trunctfdf2.c:50
80008698:	4701                	li	a4,0
/Local/xl_ci/toolchain/riscv-gnu-toolchain/riscv-gcc/libgcc/soft-fp/trunctfdf2.c:46
8000869a:	7fe00593          	li	a1,2046
8000869e:	57fd                	li	a5,-1
800086a0:	557d                	li	a0,-1
800086a2:	4815                	li	a6,5
/Local/xl_ci/toolchain/riscv-gnu-toolchain/riscv-gcc/libgcc/soft-fp/trunctfdf2.c:50 (discriminator 37)
800086a4:	4689                	li	a3,2
800086a6:	00186813          	ori	a6,a6,1
800086aa:	2ad48363          	beq	s1,a3,80008950 <__trunctfdf2+0x356>
/Local/xl_ci/toolchain/riscv-gnu-toolchain/riscv-gcc/libgcc/soft-fp/trunctfdf2.c:50
800086ae:	468d                	li	a3,3
800086b0:	28d48c63          	beq	s1,a3,80008948 <__trunctfdf2+0x34e>
800086b4:	28049f63          	bnez	s1,80008952 <__trunctfdf2+0x358>
/Local/xl_ci/toolchain/riscv-gnu-toolchain/riscv-gcc/libgcc/soft-fp/trunctfdf2.c:50 (discriminator 40)
800086b8:	00f7f693          	andi	a3,a5,15
800086bc:	4611                	li	a2,4
800086be:	28c68a63          	beq	a3,a2,80008952 <__trunctfdf2+0x358>
/Local/xl_ci/toolchain/riscv-gnu-toolchain/riscv-gcc/libgcc/soft-fp/trunctfdf2.c:50 (discriminator 44)
800086c2:	00478693          	addi	a3,a5,4
/Local/xl_ci/toolchain/riscv-gnu-toolchain/riscv-gcc/libgcc/soft-fp/trunctfdf2.c:50 (discriminator 55)
800086c6:	00f6b7b3          	sltu	a5,a3,a5
800086ca:	953e                	add	a0,a0,a5
800086cc:	87b6                	mv	a5,a3
800086ce:	a451                	j	80008952 <__trunctfdf2+0x358>
/Local/xl_ci/toolchain/riscv-gnu-toolchain/riscv-gcc/libgcc/soft-fp/trunctfdf2.c:46 (discriminator 4)
800086d0:	04b05363          	blez	a1,80008716 <__trunctfdf2+0x11c>
/Local/xl_ci/toolchain/riscv-gnu-toolchain/riscv-gcc/libgcc/soft-fp/trunctfdf2.c:46
800086d4:	4662                	lw	a2,24(sp)
800086d6:	46f2                	lw	a3,28(sp)
800086d8:	4752                	lw	a4,20(sp)
800086da:	01c65793          	srli	a5,a2,0x1c
800086de:	0692                	slli	a3,a3,0x4
800086e0:	8edd                	or	a3,a3,a5
800086e2:	00471793          	slli	a5,a4,0x4
800086e6:	0107e7b3          	or	a5,a5,a6
800086ea:	8371                	srli	a4,a4,0x1c
800086ec:	0612                	slli	a2,a2,0x4
800086ee:	00f037b3          	snez	a5,a5
800086f2:	8f51                	or	a4,a4,a2
800086f4:	8fd9                	or	a5,a5,a4
800086f6:	ca36                	sw	a3,20(sp)
800086f8:	c83e                	sw	a5,16(sp)
/Local/xl_ci/toolchain/riscv-gnu-toolchain/riscv-gcc/libgcc/soft-fp/trunctfdf2.c:46 (discriminator 59)
800086fa:	47c2                	lw	a5,16(sp)
800086fc:	4552                	lw	a0,20(sp)
/Local/xl_ci/toolchain/riscv-gnu-toolchain/riscv-gcc/libgcc/soft-fp/trunctfdf2.c:50 (discriminator 59)
800086fe:	10058b63          	beqz	a1,80008814 <__trunctfdf2+0x21a>
/Local/xl_ci/toolchain/riscv-gnu-toolchain/riscv-gcc/libgcc/soft-fp/trunctfdf2.c:50
80008702:	4701                	li	a4,0
/Local/xl_ci/toolchain/riscv-gnu-toolchain/riscv-gcc/libgcc/soft-fp/trunctfdf2.c:38
80008704:	4801                	li	a6,0
/Local/xl_ci/toolchain/riscv-gnu-toolchain/riscv-gcc/libgcc/soft-fp/trunctfdf2.c:50 (discriminator 36)
80008706:	0077f693          	andi	a3,a5,7
8000870a:	fec9                	bnez	a3,800086a4 <__trunctfdf2+0xaa>
/Local/xl_ci/toolchain/riscv-gnu-toolchain/riscv-gcc/libgcc/soft-fp/trunctfdf2.c:50 (discriminator 47)
8000870c:	1a070f63          	beqz	a4,800088ca <__trunctfdf2+0x2d0>
/Local/xl_ci/toolchain/riscv-gnu-toolchain/riscv-gcc/libgcc/soft-fp/trunctfdf2.c:50 (discriminator 58)
80008710:	00187713          	andi	a4,a6,1
80008714:	ac3d                	j	80008952 <__trunctfdf2+0x358>
/Local/xl_ci/toolchain/riscv-gnu-toolchain/riscv-gcc/libgcc/soft-fp/trunctfdf2.c:46 (discriminator 18)
80008716:	fcc00793          	li	a5,-52
8000871a:	00f5d763          	bge	a1,a5,80008728 <__trunctfdf2+0x12e>
/Local/xl_ci/toolchain/riscv-gnu-toolchain/riscv-gcc/libgcc/soft-fp/trunctfdf2.c:46 (discriminator 20)
8000871e:	ca02                	sw	zero,20(sp)
80008720:	4785                	li	a5,1
/Local/xl_ci/toolchain/riscv-gnu-toolchain/riscv-gcc/libgcc/soft-fp/trunctfdf2.c:46 (discriminator 37)
80008722:	c83e                	sw	a5,16(sp)
80008724:	4581                	li	a1,0
80008726:	bfd1                	j	800086fa <__trunctfdf2+0x100>
/Local/xl_ci/toolchain/riscv-gnu-toolchain/riscv-gcc/libgcc/soft-fp/trunctfdf2.c:46 (discriminator 21)
80008728:	47f2                	lw	a5,28(sp)
8000872a:	00080737          	lui	a4,0x80
8000872e:	86aa                	mv	a3,a0
80008730:	00f768b3          	or	a7,a4,a5
80008734:	03d00793          	li	a5,61
80008738:	40b785b3          	sub	a1,a5,a1
8000873c:	ce46                	sw	a7,28(sp)
8000873e:	4055d793          	srai	a5,a1,0x5
80008742:	4901                	li	s2,0
80008744:	4701                	li	a4,0
/Local/xl_ci/toolchain/riscv-gnu-toolchain/riscv-gcc/libgcc/soft-fp/trunctfdf2.c:46 (discriminator 25)
80008746:	0006a803          	lw	a6,0(a3)
8000874a:	0705                	addi	a4,a4,1
8000874c:	0691                	addi	a3,a3,4
8000874e:	01096933          	or	s2,s2,a6
80008752:	fee79ae3          	bne	a5,a4,80008746 <__trunctfdf2+0x14c>
/Local/xl_ci/toolchain/riscv-gnu-toolchain/riscv-gcc/libgcc/soft-fp/trunctfdf2.c:46 (discriminator 26)
80008756:	01f5f713          	andi	a4,a1,31
8000875a:	00279693          	slli	a3,a5,0x2
8000875e:	e30d                	bnez	a4,80008780 <__trunctfdf2+0x186>
/Local/xl_ci/toolchain/riscv-gnu-toolchain/riscv-gcc/libgcc/soft-fp/trunctfdf2.c:46
80008760:	458d                	li	a1,3
80008762:	8d9d                	sub	a1,a1,a5
/Local/xl_ci/toolchain/riscv-gnu-toolchain/riscv-gcc/libgcc/soft-fp/trunctfdf2.c:46 (discriminator 31)
80008764:	00d60833          	add	a6,a2,a3
80008768:	00082803          	lw	a6,0(a6)
8000876c:	0705                	addi	a4,a4,1
8000876e:	01062023          	sw	a6,0(a2)
80008772:	0611                	addi	a2,a2,4
80008774:	fee5d8e3          	bge	a1,a4,80008764 <__trunctfdf2+0x16a>
80008778:	4711                	li	a4,4
8000877a:	40f707b3          	sub	a5,a4,a5
8000877e:	a081                	j	800087be <__trunctfdf2+0x1c4>
80008780:	5e71                	li	t3,-4
80008782:	03c78e33          	mul	t3,a5,t3
/Local/xl_ci/toolchain/riscv-gnu-toolchain/riscv-gcc/libgcc/soft-fp/trunctfdf2.c:46 (discriminator 28)
80008786:	1010                	addi	a2,sp,32
80008788:	9636                	add	a2,a2,a3
8000878a:	ff062603          	lw	a2,-16(a2)
8000878e:	02000813          	li	a6,32
80008792:	40e80833          	sub	a6,a6,a4
80008796:	01061633          	sll	a2,a2,a6
8000879a:	00c96933          	or	s2,s2,a2
8000879e:	460d                	li	a2,3
800087a0:	96aa                	add	a3,a3,a0
800087a2:	4301                	li	t1,0
800087a4:	8e1d                	sub	a2,a2,a5
/Local/xl_ci/toolchain/riscv-gnu-toolchain/riscv-gcc/libgcc/soft-fp/trunctfdf2.c:46 (discriminator 32)
800087a6:	02c34963          	blt	t1,a2,800087d8 <__trunctfdf2+0x1de>
/Local/xl_ci/toolchain/riscv-gnu-toolchain/riscv-gcc/libgcc/soft-fp/trunctfdf2.c:46 (discriminator 35)
800087aa:	4691                	li	a3,4
800087ac:	40f687b3          	sub	a5,a3,a5
800087b0:	060a                	slli	a2,a2,0x2
800087b2:	1014                	addi	a3,sp,32
800087b4:	9636                	add	a2,a2,a3
800087b6:	00e8d733          	srl	a4,a7,a4
800087ba:	fee62823          	sw	a4,-16(a2)
/Local/xl_ci/toolchain/riscv-gnu-toolchain/riscv-gcc/libgcc/soft-fp/trunctfdf2.c:46 (discriminator 37)
800087be:	4611                	li	a2,4
800087c0:	8e1d                	sub	a2,a2,a5
800087c2:	078a                	slli	a5,a5,0x2
800087c4:	953e                	add	a0,a0,a5
800087c6:	060a                	slli	a2,a2,0x2
800087c8:	4581                	li	a1,0
800087ca:	b59fe0ef          	jal	ra,80007322 <memset>
800087ce:	4742                	lw	a4,16(sp)
800087d0:	012037b3          	snez	a5,s2
800087d4:	8fd9                	or	a5,a5,a4
800087d6:	b7b1                	j	80008722 <__trunctfdf2+0x128>
/Local/xl_ci/toolchain/riscv-gnu-toolchain/riscv-gcc/libgcc/soft-fp/trunctfdf2.c:46 (discriminator 34)
800087d8:	428c                	lw	a1,0(a3)
800087da:	0046ae83          	lw	t4,4(a3)
800087de:	01c68f33          	add	t5,a3,t3
800087e2:	00e5d5b3          	srl	a1,a1,a4
800087e6:	010e9eb3          	sll	t4,t4,a6
800087ea:	01d5e5b3          	or	a1,a1,t4
800087ee:	00bf2023          	sw	a1,0(t5)
800087f2:	0305                	addi	t1,t1,1
800087f4:	0691                	addi	a3,a3,4
800087f6:	bf45                	j	800087a6 <__trunctfdf2+0x1ac>
/Local/xl_ci/toolchain/riscv-gnu-toolchain/riscv-gcc/libgcc/soft-fp/trunctfdf2.c:46 (discriminator 2)
800087f8:	45d2                	lw	a1,20(sp)
800087fa:	4662                	lw	a2,24(sp)
800087fc:	48f2                	lw	a7,28(sp)
800087fe:	00b666b3          	or	a3,a2,a1
80008802:	0116e6b3          	or	a3,a3,a7
80008806:	0106e533          	or	a0,a3,a6
8000880a:	040e1c63          	bnez	t3,80008862 <__trunctfdf2+0x268>
/Local/xl_ci/toolchain/riscv-gnu-toolchain/riscv-gcc/libgcc/soft-fp/trunctfdf2.c:46 (discriminator 65)
8000880e:	00a037b3          	snez	a5,a0
80008812:	4501                	li	a0,0
/Local/xl_ci/toolchain/riscv-gnu-toolchain/riscv-gcc/libgcc/soft-fp/trunctfdf2.c:50 (discriminator 1)
80008814:	00f56733          	or	a4,a0,a5
80008818:	12070363          	beqz	a4,8000893e <__trunctfdf2+0x344>
/Local/xl_ci/toolchain/riscv-gnu-toolchain/riscv-gcc/libgcc/soft-fp/trunctfdf2.c:50
8000881c:	01f7d693          	srli	a3,a5,0x1f
80008820:	00151713          	slli	a4,a0,0x1
80008824:	9736                	add	a4,a4,a3
80008826:	00179693          	slli	a3,a5,0x1
8000882a:	0076f613          	andi	a2,a3,7
8000882e:	4801                	li	a6,0
80008830:	c21d                	beqz	a2,80008856 <__trunctfdf2+0x25c>
80008832:	4609                	li	a2,2
80008834:	06c48d63          	beq	s1,a2,800088ae <__trunctfdf2+0x2b4>
80008838:	460d                	li	a2,3
8000883a:	06c48163          	beq	s1,a2,8000889c <__trunctfdf2+0x2a2>
8000883e:	4805                	li	a6,1
80008840:	e899                	bnez	s1,80008856 <__trunctfdf2+0x25c>
/Local/xl_ci/toolchain/riscv-gnu-toolchain/riscv-gcc/libgcc/soft-fp/trunctfdf2.c:50 (discriminator 16)
80008842:	00f6f613          	andi	a2,a3,15
80008846:	4591                	li	a1,4
80008848:	00b60763          	beq	a2,a1,80008856 <__trunctfdf2+0x25c>
/Local/xl_ci/toolchain/riscv-gnu-toolchain/riscv-gcc/libgcc/soft-fp/trunctfdf2.c:50 (discriminator 20)
8000884c:	ffc6b693          	sltiu	a3,a3,-4
80008850:	0016c693          	xori	a3,a3,1
80008854:	9736                	add	a4,a4,a3
/Local/xl_ci/toolchain/riscv-gnu-toolchain/riscv-gcc/libgcc/soft-fp/trunctfdf2.c:50 (discriminator 23)
80008856:	8361                	srli	a4,a4,0x18
80008858:	00174713          	xori	a4,a4,1
8000885c:	8b05                	andi	a4,a4,1
8000885e:	4581                	li	a1,0
80008860:	b55d                	j	80008706 <__trunctfdf2+0x10c>
/Local/xl_ci/toolchain/riscv-gnu-toolchain/riscv-gcc/libgcc/soft-fp/trunctfdf2.c:46 (discriminator 62)
80008862:	c969                	beqz	a0,80008934 <__trunctfdf2+0x33a>
/Local/xl_ci/toolchain/riscv-gnu-toolchain/riscv-gcc/libgcc/soft-fp/trunctfdf2.c:46 (discriminator 88)
80008864:	137d                	addi	t1,t1,-1
/Local/xl_ci/toolchain/riscv-gnu-toolchain/riscv-gcc/libgcc/soft-fp/trunctfdf2.c:38 (discriminator 88)
80008866:	4801                	li	a6,0
/Local/xl_ci/toolchain/riscv-gnu-toolchain/riscv-gcc/libgcc/soft-fp/trunctfdf2.c:46 (discriminator 88)
80008868:	006e1963          	bne	t3,t1,8000887a <__trunctfdf2+0x280>
/Local/xl_ci/toolchain/riscv-gnu-toolchain/riscv-gcc/libgcc/soft-fp/trunctfdf2.c:46 (discriminator 92)
8000886c:	00040837          	lui	a6,0x40
80008870:	0108f833          	and	a6,a7,a6
/Local/xl_ci/toolchain/riscv-gnu-toolchain/riscv-gcc/libgcc/soft-fp/trunctfdf2.c:38 (discriminator 92)
80008874:	00183813          	seqz	a6,a6
80008878:	0812                	slli	a6,a6,0x4
/Local/xl_ci/toolchain/riscv-gnu-toolchain/riscv-gcc/libgcc/soft-fp/trunctfdf2.c:46 (discriminator 96)
8000887a:	01c5d793          	srli	a5,a1,0x1c
8000887e:	0892                	slli	a7,a7,0x4
80008880:	00461593          	slli	a1,a2,0x4
80008884:	8271                	srli	a2,a2,0x1c
80008886:	8fcd                	or	a5,a5,a1
80008888:	01166633          	or	a2,a2,a7
8000888c:	004006b7          	lui	a3,0x400
80008890:	9be1                	andi	a5,a5,-8
80008892:	00d66533          	or	a0,a2,a3
80008896:	7ff00593          	li	a1,2047
8000889a:	b5b5                	j	80008706 <__trunctfdf2+0x10c>
/Local/xl_ci/toolchain/riscv-gnu-toolchain/riscv-gcc/libgcc/soft-fp/trunctfdf2.c:50 (discriminator 19)
8000889c:	8822                	mv	a6,s0
8000889e:	fc45                	bnez	s0,80008856 <__trunctfdf2+0x25c>
/Local/xl_ci/toolchain/riscv-gnu-toolchain/riscv-gcc/libgcc/soft-fp/trunctfdf2.c:50 (discriminator 26)
800088a0:	ff86b693          	sltiu	a3,a3,-8
800088a4:	0016c693          	xori	a3,a3,1
800088a8:	9736                	add	a4,a4,a3
800088aa:	4805                	li	a6,1
800088ac:	b76d                	j	80008856 <__trunctfdf2+0x25c>
/Local/xl_ci/toolchain/riscv-gnu-toolchain/riscv-gcc/libgcc/soft-fp/trunctfdf2.c:50 (discriminator 18)
800088ae:	4805                	li	a6,1
800088b0:	d05d                	beqz	s0,80008856 <__trunctfdf2+0x25c>
/Local/xl_ci/toolchain/riscv-gnu-toolchain/riscv-gcc/libgcc/soft-fp/trunctfdf2.c:50 (discriminator 31)
800088b2:	ff86b693          	sltiu	a3,a3,-8
800088b6:	0016c693          	xori	a3,a3,1
800088ba:	9736                	add	a4,a4,a3
800088bc:	8822                	mv	a6,s0
800088be:	bf61                	j	80008856 <__trunctfdf2+0x25c>
/Local/xl_ci/toolchain/riscv-gnu-toolchain/riscv-gcc/libgcc/soft-fp/trunctfdf2.c:46
800088c0:	7ff00593          	li	a1,2047
800088c4:	4781                	li	a5,0
800088c6:	4501                	li	a0,0
800088c8:	4815                	li	a6,5
/Local/xl_ci/toolchain/riscv-gnu-toolchain/riscv-gcc/libgcc/soft-fp/trunctfdf2.c:50 (discriminator 62)
800088ca:	00800737          	lui	a4,0x800
800088ce:	8f69                	and	a4,a4,a0
800088d0:	cb11                	beqz	a4,800088e4 <__trunctfdf2+0x2ea>
/Local/xl_ci/toolchain/riscv-gnu-toolchain/riscv-gcc/libgcc/soft-fp/trunctfdf2.c:50 (discriminator 63)
800088d2:	0585                	addi	a1,a1,1
800088d4:	7ff00713          	li	a4,2047
800088d8:	08e58163          	beq	a1,a4,8000895a <__trunctfdf2+0x360>
/Local/xl_ci/toolchain/riscv-gnu-toolchain/riscv-gcc/libgcc/soft-fp/trunctfdf2.c:50
800088dc:	ff800737          	lui	a4,0xff800
800088e0:	177d                	addi	a4,a4,-1
800088e2:	8d79                	and	a0,a0,a4
/Local/xl_ci/toolchain/riscv-gnu-toolchain/riscv-gcc/libgcc/soft-fp/trunctfdf2.c:50 (discriminator 79)
800088e4:	0037d713          	srli	a4,a5,0x3
800088e8:	01d51793          	slli	a5,a0,0x1d
800088ec:	8fd9                	or	a5,a5,a4
800088ee:	7ff00713          	li	a4,2047
800088f2:	00355693          	srli	a3,a0,0x3
800088f6:	00e59963          	bne	a1,a4,80008908 <__trunctfdf2+0x30e>
/Local/xl_ci/toolchain/riscv-gnu-toolchain/riscv-gcc/libgcc/soft-fp/trunctfdf2.c:50 (discriminator 80)
800088fa:	8fd5                	or	a5,a5,a3
800088fc:	4681                	li	a3,0
800088fe:	c789                	beqz	a5,80008908 <__trunctfdf2+0x30e>
/Local/xl_ci/toolchain/riscv-gnu-toolchain/riscv-gcc/libgcc/soft-fp/trunctfdf2.c:50
80008900:	000806b7          	lui	a3,0x80
80008904:	4781                	li	a5,0
80008906:	4401                	li	s0,0
/Local/xl_ci/toolchain/riscv-gnu-toolchain/riscv-gcc/libgcc/soft-fp/trunctfdf2.c:50 (discriminator 90)
80008908:	7ff00737          	lui	a4,0x7ff00
8000890c:	05d2                	slli	a1,a1,0x14
8000890e:	06b2                	slli	a3,a3,0xc
80008910:	8df9                	and	a1,a1,a4
80008912:	82b1                	srli	a3,a3,0xc
80008914:	8ecd                	or	a3,a3,a1
80008916:	047e                	slli	s0,s0,0x1f
80008918:	0086e733          	or	a4,a3,s0
8000891c:	853e                	mv	a0,a5
8000891e:	85ba                	mv	a1,a4
/Local/xl_ci/toolchain/riscv-gnu-toolchain/riscv-gcc/libgcc/soft-fp/trunctfdf2.c:51 (discriminator 90)
80008920:	00080463          	beqz	a6,80008928 <__trunctfdf2+0x32e>
/Local/xl_ci/toolchain/riscv-gnu-toolchain/riscv-gcc/libgcc/soft-fp/trunctfdf2.c:51 (discriminator 1)
80008924:	00182073          	csrs	fflags,a6
/Local/xl_ci/toolchain/riscv-gnu-toolchain/riscv-gcc/libgcc/soft-fp/trunctfdf2.c:54
80008928:	50b2                	lw	ra,44(sp)
8000892a:	5422                	lw	s0,40(sp)
8000892c:	5492                	lw	s1,36(sp)
8000892e:	5902                	lw	s2,32(sp)
80008930:	6145                	addi	sp,sp,48
80008932:	8082                	ret
/Local/xl_ci/toolchain/riscv-gnu-toolchain/riscv-gcc/libgcc/soft-fp/trunctfdf2.c:46
80008934:	4781                	li	a5,0
/Local/xl_ci/toolchain/riscv-gnu-toolchain/riscv-gcc/libgcc/soft-fp/trunctfdf2.c:38
80008936:	4801                	li	a6,0
/Local/xl_ci/toolchain/riscv-gnu-toolchain/riscv-gcc/libgcc/soft-fp/trunctfdf2.c:46
80008938:	7ff00593          	li	a1,2047
8000893c:	b779                	j	800088ca <__trunctfdf2+0x2d0>
8000893e:	4781                	li	a5,0
80008940:	4501                	li	a0,0
80008942:	4581                	li	a1,0
80008944:	4801                	li	a6,0
80008946:	b751                	j	800088ca <__trunctfdf2+0x2d0>
/Local/xl_ci/toolchain/riscv-gnu-toolchain/riscv-gcc/libgcc/soft-fp/trunctfdf2.c:50 (discriminator 43)
80008948:	e409                	bnez	s0,80008952 <__trunctfdf2+0x358>
/Local/xl_ci/toolchain/riscv-gnu-toolchain/riscv-gcc/libgcc/soft-fp/trunctfdf2.c:50 (discriminator 55)
8000894a:	00878693          	addi	a3,a5,8
8000894e:	bba5                	j	800086c6 <__trunctfdf2+0xcc>
/Local/xl_ci/toolchain/riscv-gnu-toolchain/riscv-gcc/libgcc/soft-fp/trunctfdf2.c:50 (discriminator 42)
80008950:	fc6d                	bnez	s0,8000894a <__trunctfdf2+0x350>
/Local/xl_ci/toolchain/riscv-gnu-toolchain/riscv-gcc/libgcc/soft-fp/trunctfdf2.c:50 (discriminator 58)
80008952:	df25                	beqz	a4,800088ca <__trunctfdf2+0x2d0>
/Local/xl_ci/toolchain/riscv-gnu-toolchain/riscv-gcc/libgcc/soft-fp/trunctfdf2.c:50 (discriminator 60)
80008954:	00286813          	ori	a6,a6,2
80008958:	bf8d                	j	800088ca <__trunctfdf2+0x2d0>
/Local/xl_ci/toolchain/riscv-gnu-toolchain/riscv-gcc/libgcc/soft-fp/trunctfdf2.c:50 (discriminator 65)
8000895a:	4781                	li	a5,0
8000895c:	cc89                	beqz	s1,80008976 <__trunctfdf2+0x37c>
/Local/xl_ci/toolchain/riscv-gnu-toolchain/riscv-gcc/libgcc/soft-fp/trunctfdf2.c:50 (discriminator 68)
8000895e:	470d                	li	a4,3
80008960:	00e49763          	bne	s1,a4,8000896e <__trunctfdf2+0x374>
/Local/xl_ci/toolchain/riscv-gnu-toolchain/riscv-gcc/libgcc/soft-fp/trunctfdf2.c:50 (discriminator 69)
80008964:	c809                	beqz	s0,80008976 <__trunctfdf2+0x37c>
/Local/xl_ci/toolchain/riscv-gnu-toolchain/riscv-gcc/libgcc/soft-fp/trunctfdf2.c:50
80008966:	57fd                	li	a5,-1
80008968:	7fe00593          	li	a1,2046
8000896c:	a029                	j	80008976 <__trunctfdf2+0x37c>
/Local/xl_ci/toolchain/riscv-gnu-toolchain/riscv-gcc/libgcc/soft-fp/trunctfdf2.c:50 (discriminator 72)
8000896e:	4709                	li	a4,2
80008970:	fee49be3          	bne	s1,a4,80008966 <__trunctfdf2+0x36c>
/Local/xl_ci/toolchain/riscv-gnu-toolchain/riscv-gcc/libgcc/soft-fp/trunctfdf2.c:50 (discriminator 73)
80008974:	d86d                	beqz	s0,80008966 <__trunctfdf2+0x36c>
/Local/xl_ci/toolchain/riscv-gnu-toolchain/riscv-gcc/libgcc/soft-fp/trunctfdf2.c:50 (discriminator 78)
80008976:	00586813          	ori	a6,a6,5
8000897a:	853e                	mv	a0,a5
8000897c:	b7a5                	j	800088e4 <__trunctfdf2+0x2ea>
